
add_int_w_io_Ada_AMD64:     file format elf64-x86-64
add_int_w_io_Ada_AMD64
architecture: i386:x86-64, flags 0x00000150:
HAS_SYMS, DYNAMIC, D_PAGED
start address 0x0000000000001270

Program Header:
    PHDR off    0x0000000000000040 vaddr 0x0000000000000040 paddr 0x0000000000000040 align 2**3
         filesz 0x00000000000001f8 memsz 0x00000000000001f8 flags r--
  INTERP off    0x0000000000000238 vaddr 0x0000000000000238 paddr 0x0000000000000238 align 2**0
         filesz 0x000000000000001c memsz 0x000000000000001c flags r--
    LOAD off    0x0000000000000000 vaddr 0x0000000000000000 paddr 0x0000000000000000 align 2**21
         filesz 0x0000000000001a38 memsz 0x0000000000001a38 flags r-x
    LOAD off    0x0000000000001d38 vaddr 0x0000000000201d38 paddr 0x0000000000201d38 align 2**21
         filesz 0x00000000000002db memsz 0x00000000000003f0 flags rw-
 DYNAMIC off    0x0000000000001d48 vaddr 0x0000000000201d48 paddr 0x0000000000201d48 align 2**3
         filesz 0x0000000000000200 memsz 0x0000000000000200 flags rw-
    NOTE off    0x0000000000000254 vaddr 0x0000000000000254 paddr 0x0000000000000254 align 2**2
         filesz 0x0000000000000044 memsz 0x0000000000000044 flags r--
EH_FRAME off    0x0000000000001868 vaddr 0x0000000000001868 paddr 0x0000000000001868 align 2**2
         filesz 0x0000000000000054 memsz 0x0000000000000054 flags r--
   STACK off    0x0000000000000000 vaddr 0x0000000000000000 paddr 0x0000000000000000 align 2**4
         filesz 0x0000000000000000 memsz 0x0000000000000000 flags rw-
   RELRO off    0x0000000000001d38 vaddr 0x0000000000201d38 paddr 0x0000000000201d38 align 2**0
         filesz 0x00000000000002c8 memsz 0x00000000000002c8 flags r--

Dynamic Section:
  NEEDED               libgnat-7.so.1
  NEEDED               libc.so.6
  INIT                 0x0000000000001148
  FINI                 0x0000000000001694
  INIT_ARRAY           0x0000000000201d38
  INIT_ARRAYSZ         0x0000000000000008
  FINI_ARRAY           0x0000000000201d40
  FINI_ARRAYSZ         0x0000000000000008
  GNU_HASH             0x0000000000000298
  STRTAB               0x0000000000000830
  SYMTAB               0x0000000000000380
  STRSZ                0x000000000000042c
  SYMENT               0x0000000000000018
  DEBUG                0x0000000000000000
  PLTGOT               0x0000000000201f48
  PLTRELSZ             0x0000000000000168
  PLTREL               0x0000000000000007
  JMPREL               0x0000000000000fe0
  RELA                 0x0000000000000ce0
  RELASZ               0x0000000000000300
  RELAENT              0x0000000000000018
  FLAGS                0x0000000000000008
  FLAGS_1              0x0000000008000001
  VERNEED              0x0000000000000cc0
  VERNEEDNUM           0x0000000000000001
  VERSYM               0x0000000000000c5c
  RELACOUNT            0x0000000000000003

Version References:
  required from libc.so.6:
    0x09691a75 0x00 02 GLIBC_2.2.5

Sections:
Idx Name          Size      VMA               LMA               File off  Algn
  0 .interp       0000001c  0000000000000238  0000000000000238  00000238  2**0
                  CONTENTS, ALLOC, LOAD, READONLY, DATA
  1 .note.ABI-tag 00000020  0000000000000254  0000000000000254  00000254  2**2
                  CONTENTS, ALLOC, LOAD, READONLY, DATA
  2 .note.gnu.build-id 00000024  0000000000000274  0000000000000274  00000274  2**2
                  CONTENTS, ALLOC, LOAD, READONLY, DATA
  3 .gnu.hash     000000e8  0000000000000298  0000000000000298  00000298  2**3
                  CONTENTS, ALLOC, LOAD, READONLY, DATA
  4 .dynsym       000004b0  0000000000000380  0000000000000380  00000380  2**3
                  CONTENTS, ALLOC, LOAD, READONLY, DATA
  5 .dynstr       0000042c  0000000000000830  0000000000000830  00000830  2**0
                  CONTENTS, ALLOC, LOAD, READONLY, DATA
  6 .gnu.version  00000064  0000000000000c5c  0000000000000c5c  00000c5c  2**1
                  CONTENTS, ALLOC, LOAD, READONLY, DATA
  7 .gnu.version_r 00000020  0000000000000cc0  0000000000000cc0  00000cc0  2**3
                  CONTENTS, ALLOC, LOAD, READONLY, DATA
  8 .rela.dyn     00000300  0000000000000ce0  0000000000000ce0  00000ce0  2**3
                  CONTENTS, ALLOC, LOAD, READONLY, DATA
  9 .rela.plt     00000168  0000000000000fe0  0000000000000fe0  00000fe0  2**3
                  CONTENTS, ALLOC, LOAD, READONLY, DATA
 10 .init         00000017  0000000000001148  0000000000001148  00001148  2**2
                  CONTENTS, ALLOC, LOAD, READONLY, CODE
 11 .plt          00000100  0000000000001160  0000000000001160  00001160  2**4
                  CONTENTS, ALLOC, LOAD, READONLY, CODE
 12 .plt.got      00000008  0000000000001260  0000000000001260  00001260  2**3
                  CONTENTS, ALLOC, LOAD, READONLY, CODE
 13 .text         00000422  0000000000001270  0000000000001270  00001270  2**4
                  CONTENTS, ALLOC, LOAD, READONLY, CODE
 14 .fini         00000009  0000000000001694  0000000000001694  00001694  2**2
                  CONTENTS, ALLOC, LOAD, READONLY, CODE
 15 .rodata       000001c8  00000000000016a0  00000000000016a0  000016a0  2**4
                  CONTENTS, ALLOC, LOAD, READONLY, DATA
 16 .eh_frame_hdr 00000054  0000000000001868  0000000000001868  00001868  2**2
                  CONTENTS, ALLOC, LOAD, READONLY, DATA
 17 .eh_frame     00000178  00000000000018c0  00000000000018c0  000018c0  2**3
                  CONTENTS, ALLOC, LOAD, READONLY, DATA
 18 .init_array   00000008  0000000000201d38  0000000000201d38  00001d38  2**3
                  CONTENTS, ALLOC, LOAD, DATA
 19 .fini_array   00000008  0000000000201d40  0000000000201d40  00001d40  2**3
                  CONTENTS, ALLOC, LOAD, DATA
 20 .dynamic      00000200  0000000000201d48  0000000000201d48  00001d48  2**3
                  CONTENTS, ALLOC, LOAD, DATA
 21 .got          000000b8  0000000000201f48  0000000000201f48  00001f48  2**3
                  CONTENTS, ALLOC, LOAD, DATA
 22 .data         00000013  0000000000202000  0000000000202000  00002000  2**3
                  CONTENTS, ALLOC, LOAD, DATA
 23 .bss          00000108  0000000000202020  0000000000202020  00002013  2**5
                  ALLOC
 24 .comment      0000002a  0000000000000000  0000000000000000  00002013  2**0
                  CONTENTS, READONLY
SYMBOL TABLE:
0000000000000238 l    d  .interp	0000000000000000              .interp
0000000000000254 l    d  .note.ABI-tag	0000000000000000              .note.ABI-tag
0000000000000274 l    d  .note.gnu.build-id	0000000000000000              .note.gnu.build-id
0000000000000298 l    d  .gnu.hash	0000000000000000              .gnu.hash
0000000000000380 l    d  .dynsym	0000000000000000              .dynsym
0000000000000830 l    d  .dynstr	0000000000000000              .dynstr
0000000000000c5c l    d  .gnu.version	0000000000000000              .gnu.version
0000000000000cc0 l    d  .gnu.version_r	0000000000000000              .gnu.version_r
0000000000000ce0 l    d  .rela.dyn	0000000000000000              .rela.dyn
0000000000000fe0 l    d  .rela.plt	0000000000000000              .rela.plt
0000000000001148 l    d  .init	0000000000000000              .init
0000000000001160 l    d  .plt	0000000000000000              .plt
0000000000001260 l    d  .plt.got	0000000000000000              .plt.got
0000000000001270 l    d  .text	0000000000000000              .text
0000000000001694 l    d  .fini	0000000000000000              .fini
00000000000016a0 l    d  .rodata	0000000000000000              .rodata
0000000000001868 l    d  .eh_frame_hdr	0000000000000000              .eh_frame_hdr
00000000000018c0 l    d  .eh_frame	0000000000000000              .eh_frame
0000000000201d38 l    d  .init_array	0000000000000000              .init_array
0000000000201d40 l    d  .fini_array	0000000000000000              .fini_array
0000000000201d48 l    d  .dynamic	0000000000000000              .dynamic
0000000000201f48 l    d  .got	0000000000000000              .got
0000000000202000 l    d  .data	0000000000000000              .data
0000000000202020 l    d  .bss	0000000000000000              .bss
0000000000000000 l    d  .comment	0000000000000000              .comment
0000000000000000 l    df *ABS*	0000000000000000              crtstuff.c
00000000000012a0 l     F .text	0000000000000000              deregister_tm_clones
00000000000012e0 l     F .text	0000000000000000              register_tm_clones
0000000000001330 l     F .text	0000000000000000              __do_global_dtors_aux
0000000000202124 l     O .bss	0000000000000001              completed.7696
0000000000201d40 l     O .fini_array	0000000000000000              __do_global_dtors_aux_fini_array_entry
0000000000001370 l     F .text	0000000000000000              frame_dummy
0000000000201d38 l     O .init_array	0000000000000000              __frame_dummy_init_array_entry
0000000000000000 l    df *ABS*	0000000000000000              b~add_int_w_io.adb
0000000000202012 l     O .data	0000000000000001              ada_main__is_elaborated
00000000000017b8 l     O .rodata	0000000000000001              ada_main__local_priority_specific_dispatching
00000000000017b9 l     O .rodata	0000000000000001              ada_main__local_interrupt_states
0000000000000000 l    df *ABS*	0000000000000000              add_int_w_io.adb
0000000000000000 l    df *ABS*	0000000000000000              crtstuff.c
0000000000001a34 l     O .eh_frame	0000000000000000              __FRAME_END__
0000000000000000 l    df *ABS*	0000000000000000              
0000000000001868 l       .eh_frame_hdr	0000000000000000              __GNU_EH_FRAME_HDR
0000000000201f48 l     O .got	0000000000000000              _GLOBAL_OFFSET_TABLE_
0000000000201d40 l       .init_array	0000000000000000              __init_array_end
0000000000201d38 l       .init_array	0000000000000000              __init_array_start
0000000000201d48 l     O .dynamic	0000000000000000              _DYNAMIC
0000000000202000  w      .data	0000000000000000              data_start
0000000000001728 g     O .rodata	0000000000000004              system__parametersS
0000000000202020 g     O .bss	0000000000000001              __gl_task_dispatching_policy
000000000000173c g     O .rodata	0000000000000004              system__stack_checkingB
00000000000016f8 g     O .rodata	0000000000000004              gnat__ioS
0000000000001690 g     F .text	0000000000000002              __libc_csu_fini
0000000000001788 g     O .rodata	0000000000000004              system__address_imageB
0000000000001270 g     F .text	000000000000002b              _start
0000000000000000       F *UND*	0000000000000000              __gnat_finalize
0000000000000000  w      *UND*	0000000000000000              __gmon_start__
0000000000001724 g     O .rodata	0000000000000004              system__parametersB
00000000000016d0 g     O .rodata	0000000000000012              __gnat_ada_main_program_name
0000000000202028 g     O .bss	0000000000000002              system__secondary_stack_E
000000000000175c g     O .rodata	0000000000000004              system__exceptions_debugS
0000000000202040 g     O .bss	0000000000000002              system__soft_links_E
0000000000001734 g     O .rodata	0000000000000004              system__storage_elementsB
0000000000001694 g     F .fini	0000000000000000              _fini
00000000000016f0 g     O .rodata	0000000000000004              gnatS
00000000000016e8 g     O .rodata	0000000000000004              system__standard_libraryB
0000000000000000       F *UND*	0000000000000000              __libc_start_main@@GLIBC_2.2.5
0000000000000000       F *UND*	0000000000000000              system__secondary_stack___elabb
0000000000202050 g     O .bss	0000000000000008              gnat_envp
0000000000001760 g     O .rodata	0000000000000004              system__img_intB
00000000000017b0 g     O .rodata	0000000000000004              system__wch_jisS
0000000000001720 g     O .rodata	0000000000000004              system__soft_linksS
00000000000017b4 g     O .rodata	0000000000000004              system__crtlS
0000000000001710 g     O .rodata	0000000000000004              adaS
0000000000000000       F *UND*	0000000000000000              system__soft_links___elabb
0000000000001714 g     O .rodata	0000000000000004              ada__exceptions__last_chance_handlerB
0000000000001750 g     O .rodata	0000000000000004              system__exceptionsS
000000000000170c g     O .rodata	0000000000000004              ada__exceptionsS
0000000000202058 g     O .bss	0000000000000008              __gl_interrupt_states
0000000000000000  w      *UND*	0000000000000000              _ITM_deregisterTMCloneTable
00000000000016a0 g     O .rodata	0000000000000004              _IO_stdin_used
0000000000202060 g     O .bss	0000000000000008              __gnat_finalize_library_objects
000000000000176c g     O .rodata	0000000000000004              system__tracebackS
0000000000000000  w      *UND*	0000000000000000              _ITM_registerTMCloneTable
0000000000202000 g       .data	0000000000000000              __data_start
0000000000000000       F *UND*	0000000000000000              system__exceptions___elabs
0000000000000000       F *UND*	0000000000000000              system__exception_table___elabb
0000000000001700 g     O .rodata	0000000000000004              system__memoryB
0000000000000000       F *UND*	0000000000000000              gnat__io__get
0000000000000000       F *UND*	0000000000000000              system__standard_library__adafinal
0000000000000000  w    F *UND*	0000000000000000              __cxa_finalize@@GLIBC_2.2.5
0000000000001758 g     O .rodata	0000000000000004              system__exceptions_debugB
000000000000137a g     F .text	0000000000000029              adafinal
0000000000001780 g     O .rodata	0000000000000004              ada__exceptions__tracebackB
0000000000000000       F *UND*	0000000000000000              __gnat_initialize
0000000000001790 g     O .rodata	0000000000000004              system__wch_conB
000000000000179c g     O .rodata	0000000000000004              system__wch_stwS
00000000000013a4 g     F .text	0000000000000124              adainit
0000000000202018 g     O .data	0000000000000000              .hidden __TMC_END__
0000000000001744 g     O .rodata	0000000000000004              system__exception_tableB
0000000000000000       F *UND*	0000000000000000              __gnat_runtime_finalize
0000000000202068 g     O .bss	0000000000000004              __gl_main_cpu
0000000000202008 g     O .data	0000000000000000              .hidden __dso_handle
0000000000001764 g     O .rodata	0000000000000004              system__img_intS
0000000000001730 g     O .rodata	0000000000000004              system__secondary_stackS
00000000000017a4 g     O .rodata	0000000000000004              system__wch_cnvS
0000000000001620 g     F .text	0000000000000065              __libc_csu_init
00000000000016e4 g     O .rodata	0000000000000004              add_int_w_ioB
0000000000001754 g     O .rodata	0000000000000004              system__exceptions__machineS
0000000000000000       F *UND*	0000000000000000              system__soft_links___elabs
0000000000001704 g     O .rodata	0000000000000004              system__memoryS
000000000020206c g     O .bss	0000000000000001              __gl_locking_policy
0000000000001770 g     O .rodata	0000000000000004              system__traceback_entriesB
0000000000202070 g     O .bss	0000000000000004              __gl_time_slice_val
0000000000202078 g     O .bss	0000000000000004              gnat_exit_status
000000000020207c g     O .bss	0000000000000004              __gl_leap_seconds_support
0000000000001718 g     O .rodata	0000000000000004              ada__exceptions__last_chance_handlerS
0000000000202080 g     O .bss	0000000000000004              __gl_unreserve_all_interrupts
000000000000171c g     O .rodata	0000000000000004              system__soft_linksB
0000000000001708 g     O .rodata	0000000000000004              ada__exceptionsB
0000000000202013 g       .bss	0000000000000000              __bss_start
00000000000017a8 g     O .rodata	0000000000000004              interfacesS
0000000000001738 g     O .rodata	0000000000000004              system__storage_elementsS
0000000000000000       F *UND*	0000000000000000              gnat__io__put__2
0000000000202084 g     O .bss	0000000000000001              __gl_wc_encoding
0000000000001740 g     O .rodata	0000000000000004              system__stack_checkingS
00000000000016f4 g     O .rodata	0000000000000004              gnat__ioB
0000000000202010 g     O .data	0000000000000002              ada_main_E
0000000000001768 g     O .rodata	0000000000000004              system__tracebackB
00000000000016b0 g     O .rodata	0000000000000014              __gnat_version
00000000000017a0 g     O .rodata	0000000000000004              system__wch_cnvB
0000000000202088 g     O .bss	0000000000000008              gnat_argv
0000000000001748 g     O .rodata	0000000000000004              system__exception_tableS
0000000000202128 g       .bss	0000000000000000              _end
0000000000000000       F *UND*	0000000000000000              gnat__io__new_line__2
000000000000178c g     O .rodata	0000000000000004              system__address_imageS
000000000000174c g     O .rodata	0000000000000004              system__exceptionsB
000000000000172c g     O .rodata	0000000000000004              system__secondary_stackB
0000000000202090 g     O .bss	0000000000000001              __gl_queuing_policy
0000000000001794 g     O .rodata	0000000000000004              system__wch_conS
00000000002020a0 g     O .bss	0000000000000004              __gl_num_specific_dispatching
0000000000001798 g     O .rodata	0000000000000004              system__wch_stwB
00000000002020b0 g     O .bss	0000000000000004              __gl_main_priority
00000000002020b8 g     O .bss	0000000000000008              __gl_priority_specific_dispatching
0000000000001774 g     O .rodata	0000000000000004              system__traceback_entriesS
00000000002020c0 g     O .bss	0000000000000002              system__exceptions_E
0000000000000000       F *UND*	0000000000000000              gnat__io__put__6
00000000002020e0 g     O .bss	0000000000000004              __gl_detect_blocking
0000000000001784 g     O .rodata	0000000000000004              ada__exceptions__tracebackS
0000000000202100 g     O .bss	0000000000000004              gnat_argc
0000000000202110 g     O .bss	0000000000000004              __gl_num_interrupt_states
000000000000177c g     O .rodata	0000000000000004              system__traceback__symbolicS
0000000000202013 g       .data	0000000000000000              _edata
0000000000000000       F *UND*	0000000000000000              __gnat_rcheck_CE_Overflow_Check
0000000000202118 g     O .bss	0000000000000002              system__exception_table_E
0000000000202120 g     O .bss	0000000000000004              __gl_default_stack_size
0000000000000000       F *UND*	0000000000000000              __gnat_runtime_initialize
00000000000016fc g     O .rodata	0000000000000004              systemS
000000000000152e g     F .text	00000000000000e9              _ada_add_int_w_io
00000000000017ac g     O .rodata	0000000000000004              system__wch_jisB
0000000000001778 g     O .rodata	0000000000000004              system__traceback__symbolicB
00000000000014c8 g     F .text	0000000000000065              main
0000000000001148 g     F .init	0000000000000000              _init
00000000000016ec g     O .rodata	0000000000000004              system__standard_libraryS


Contents of section .interp:
 0238 2f6c6962 36342f6c 642d6c69 6e75782d  /lib64/ld-linux-
 0248 7838362d 36342e73 6f2e3200           x86-64.so.2.    
Contents of section .note.ABI-tag:
 0254 04000000 10000000 01000000 474e5500  ............GNU.
 0264 00000000 03000000 02000000 00000000  ................
Contents of section .note.gnu.build-id:
 0274 04000000 14000000 03000000 474e5500  ............GNU.
 0284 0989047b a769fb8f 0de992eb 1ed7eb2a  ...{.i.........*
 0294 68c5ef2a                             h..*            
Contents of section .gnu.hash:
 0298 11000000 15000000 04000000 08000000  ................
 02a8 00080068 d0002208 2a020300 92080000  ...h..".*.......
 02b8 f42b0040 0803a029 01402801 46046282  .+.@...).@(.F.b.
 02c8 15000000 16000000 18000000 1b000000  ................
 02d8 1c000000 1f000000 22000000 25000000  ........"...%...
 02e8 26000000 28000000 2a000000 2c000000  &...(...*...,...
 02f8 00000000 2e000000 00000000 2f000000  ............/...
 0308 30000000 e3a6e2b5 6481301e ebd3ef0e  0.......d.0.....
 0318 a8473d3a 6ad15c9b b98df10e d971581c  .G=:j.\......qX.
 0328 d43937df 60a7ba84 bbe3927c 82451616  .97.`......|.E..
 0338 1aa7c1a2 89485434 34664954 3a31857a  .....HT44fIT:1.z
 0348 8b1e8361 4345d5ec b6e3d51f cfb5a5cc  ...aCE..........
 0358 b482205b 0b24cd94 e03f4262 f7000156  .. [.$...?Bb...V
 0368 1e24cd94 49d06fc5 0b1d157a a9fdd790  .$..I.o....z....
 0378 8646cf94 85a86bdd                    .F....k.        
Contents of section .dynsym:
 0380 00000000 00000000 00000000 00000000  ................
 0390 00000000 00000000 3c010000 12000000  ........<.......
 03a0 00000000 00000000 00000000 00000000  ................
 03b0 10000000 20000000 00000000 00000000  .... ...........
 03c0 00000000 00000000 f6030000 12000000  ................
 03d0 00000000 00000000 00000000 00000000  ................
 03e0 1a020000 12000000 00000000 00000000  ................
 03f0 00000000 00000000 74030000 12000000  ........t.......
 0400 00000000 00000000 00000000 00000000  ................
 0410 1f000000 20000000 00000000 00000000  .... ...........
 0420 00000000 00000000 3b000000 20000000  ........;... ...
 0430 00000000 00000000 00000000 00000000  ................
 0440 ba020000 12000000 00000000 00000000  ................
 0450 00000000 00000000 54030000 12000000  ........T.......
 0460 00000000 00000000 00000000 00000000  ................
 0470 a9010000 12000000 00000000 00000000  ................
 0480 00000000 00000000 86000000 12000000  ................
 0490 00000000 00000000 00000000 00000000  ................
 04a0 e7030000 22000000 00000000 00000000  ...."...........
 04b0 00000000 00000000 a8020000 12000000  ................
 04c0 00000000 00000000 00000000 00000000  ................
 04d0 cf010000 12000000 00000000 00000000  ................
 04e0 00000000 00000000 8f030000 12000000  ................
 04f0 00000000 00000000 00000000 00000000  ................
 0500 e7010000 12000000 00000000 00000000  ................
 0510 00000000 00000000 5f020000 12000000  ........_.......
 0520 00000000 00000000 00000000 00000000  ................
 0530 f8010000 12000000 00000000 00000000  ................
 0540 00000000 00000000 00030000 12000000  ................
 0550 00000000 00000000 00000000 00000000  ................
 0560 20030000 12000000 00000000 00000000   ...............
 0570 00000000 00000000 3a030000 11001800  ........:.......
 0580 18212000 00000000 02000000 00000000  .! .............
 0590 55000000 11001800 20202000 00000000  U.......   .....
 05a0 01000000 00000000 89010000 12000f00  ................
 05b0 94160000 00000000 00000000 00000000  ................
 05c0 4c010000 11001800 28202000 00000000  L.......(  .....
 05d0 02000000 00000000 8a020000 11001800  ................
 05e0 80202000 00000000 04000000 00000000  .  .............
 05f0 a9000000 12000b00 48110000 00000000  ........H.......
 0600 00000000 00000000 0f040000 10001800  ................
 0610 13202000 00000000 00000000 00000000  .  .............
 0620 d7000000 11001800 70202000 00000000  ........p  .....
 0630 04000000 00000000 8f010000 11001800  ................
 0640 7c202000 00000000 04000000 00000000  |  .............
 0650 1b040000 10001800 28212000 00000000  ........(! .....
 0660 00000000 00000000 3a020000 11001800  ........:.......
 0670 90202000 00000000 01000000 00000000  .  .............
 0680 ca030000 11001800 b0202000 00000000  .........  .....
 0690 04000000 00000000 b7010000 11001800  ................
 06a0 20212000 00000000 04000000 00000000   ! .............
 06b0 d5020000 11001800 58202000 00000000  ........X  .....
 06c0 08000000 00000000 aa030000 11001800  ................
 06d0 60202000 00000000 08000000 00000000  `  .............
 06e0 09020000 11001800 78202000 00000000  ........x  .....
 06f0 04000000 00000000 08040000 10001700  ................
 0700 13202000 00000000 00000000 00000000  .  .............
 0710 b9000000 11001800 a0202000 00000000  .........  .....
 0720 04000000 00000000 eb020000 11001800  ................
 0730 c0202000 00000000 02000000 00000000  .  .............
 0740 4e020000 11001800 84202000 00000000  N........  .....
 0750 01000000 00000000 72000000 11001800  ........r.......
 0760 00212000 00000000 04000000 00000000  .! .............
 0770 66010000 11001800 68202000 00000000  f.......h  .....
 0780 04000000 00000000 74010000 11001800  ........t.......
 0790 e0202000 00000000 04000000 00000000  .  .............
 07a0 7c000000 11001800 88202000 00000000  |........  .....
 07b0 08000000 00000000 ff000000 11001800  ................
 07c0 b8202000 00000000 08000000 00000000  .  .............
 07d0 eb000000 11001800 6c202000 00000000  ........l  .....
 07e0 01000000 00000000 75020000 11001800  ........u.......
 07f0 40202000 00000000 02000000 00000000  @  .............
 0800 af000000 11001800 50202000 00000000  ........P  .....
 0810 08000000 00000000 22010000 11001800  ........".......
 0820 10212000 00000000 04000000 00000000  .! .............
Contents of section .dynstr:
 0830 006c6962 676e6174 2d372e73 6f2e3100  .libgnat-7.so.1.
 0840 5f5f676d 6f6e5f73 74617274 5f5f005f  __gmon_start__._
 0850 49544d5f 64657265 67697374 6572544d  ITM_deregisterTM
 0860 436c6f6e 65546162 6c65005f 49544d5f  CloneTable._ITM_
 0870 72656769 73746572 544d436c 6f6e6554  registerTMCloneT
 0880 61626c65 005f5f67 6c5f7461 736b5f64  able.__gl_task_d
 0890 69737061 74636869 6e675f70 6f6c6963  ispatching_polic
 08a0 7900676e 61745f61 72676300 676e6174  y.gnat_argc.gnat
 08b0 5f617267 76007379 7374656d 5f5f7374  _argv.system__st
 08c0 616e6461 72645f6c 69627261 72795f5f  andard_library__
 08d0 61646166 696e616c 005f696e 69740067  adafinal._init.g
 08e0 6e61745f 656e7670 005f5f67 6c5f6e75  nat_envp.__gl_nu
 08f0 6d5f7370 65636966 69635f64 69737061  m_specific_dispa
 0900 74636869 6e67005f 5f676c5f 74696d65  tching.__gl_time
 0910 5f736c69 63655f76 616c005f 5f676c5f  _slice_val.__gl_
 0920 6c6f636b 696e675f 706f6c69 6379005f  locking_policy._
 0930 5f676c5f 7072696f 72697479 5f737065  _gl_priority_spe
 0940 63696669 635f6469 73706174 6368696e  cific_dispatchin
 0950 67005f5f 676c5f6e 756d5f69 6e746572  g.__gl_num_inter
 0960 72757074 5f737461 74657300 5f5f676e  rupt_states.__gn
 0970 61745f66 696e616c 697a6500 73797374  at_finalize.syst
 0980 656d5f5f 7365636f 6e646172 795f7374  em__secondary_st
 0990 61636b5f 45005f5f 676c5f6d 61696e5f  ack_E.__gl_main_
 09a0 63707500 5f5f676c 5f646574 6563745f  cpu.__gl_detect_
 09b0 626c6f63 6b696e67 005f6669 6e69005f  blocking._fini._
 09c0 5f676c5f 6c656170 5f736563 6f6e6473  _gl_leap_seconds
 09d0 5f737570 706f7274 00676e61 745f5f69  _support.gnat__i
 09e0 6f5f5f67 6574005f 5f676c5f 64656661  o__get.__gl_defa
 09f0 756c745f 73746163 6b5f7369 7a65005f  ult_stack_size._
 0a00 5f676e61 745f7275 6e74696d 655f6669  _gnat_runtime_fi
 0a10 6e616c69 7a650067 6e61745f 5f696f5f  nalize.gnat__io_
 0a20 5f707574 5f5f3200 676e6174 5f5f696f  _put__2.gnat__io
 0a30 5f5f7075 745f5f36 00676e61 745f6578  __put__6.gnat_ex
 0a40 69745f73 74617475 73007379 7374656d  it_status.system
 0a50 5f5f7365 636f6e64 6172795f 73746163  __secondary_stac
 0a60 6b5f5f5f 656c6162 62005f5f 676c5f71  k___elabb.__gl_q
 0a70 75657569 6e675f70 6f6c6963 79005f5f  ueuing_policy.__
 0a80 676c5f77 635f656e 636f6469 6e670067  gl_wc_encoding.g
 0a90 6e61745f 5f696f5f 5f6e6577 5f6c696e  nat__io__new_lin
 0aa0 655f5f32 00737973 74656d5f 5f736f66  e__2.system__sof
 0ab0 745f6c69 6e6b735f 45005f5f 676c5f75  t_links_E.__gl_u
 0ac0 6e726573 65727665 5f616c6c 5f696e74  nreserve_all_int
 0ad0 65727275 70747300 5f5f676e 61745f69  errupts.__gnat_i
 0ae0 6e697469 616c697a 65007379 7374656d  nitialize.system
 0af0 5f5f6578 63657074 696f6e73 5f5f5f65  __exceptions___e
 0b00 6c616273 005f5f67 6c5f696e 74657272  labs.__gl_interr
 0b10 7570745f 73746174 65730073 79737465  upt_states.syste
 0b20 6d5f5f65 78636570 74696f6e 735f4500  m__exceptions_E.
 0b30 5f5f676e 61745f72 63686563 6b5f4345  __gnat_rcheck_CE
 0b40 5f4f7665 72666c6f 775f4368 65636b00  _Overflow_Check.
 0b50 5f5f676e 61745f72 756e7469 6d655f69  __gnat_runtime_i
 0b60 6e697469 616c697a 65007379 7374656d  nitialize.system
 0b70 5f5f6578 63657074 696f6e5f 7461626c  __exception_tabl
 0b80 655f4500 73797374 656d5f5f 65786365  e_E.system__exce
 0b90 7074696f 6e5f7461 626c655f 5f5f656c  ption_table___el
 0ba0 61626200 73797374 656d5f5f 736f6674  abb.system__soft
 0bb0 5f6c696e 6b735f5f 5f656c61 62620073  _links___elabb.s
 0bc0 79737465 6d5f5f73 6f66745f 6c696e6b  ystem__soft_link
 0bd0 735f5f5f 656c6162 73005f5f 676e6174  s___elabs.__gnat
 0be0 5f66696e 616c697a 655f6c69 62726172  _finalize_librar
 0bf0 795f6f62 6a656374 73005f5f 676c5f6d  y_objects.__gl_m
 0c00 61696e5f 7072696f 72697479 006c6962  ain_priority.lib
 0c10 632e736f 2e36005f 5f637861 5f66696e  c.so.6.__cxa_fin
 0c20 616c697a 65005f5f 6c696263 5f737461  alize.__libc_sta
 0c30 72745f6d 61696e00 5f656461 7461005f  rt_main._edata._
 0c40 5f627373 5f737461 7274005f 656e6400  _bss_start._end.
 0c50 474c4942 435f322e 322e3500           GLIBC_2.2.5.    
Contents of section .gnu.version:
 0c5c 00000000 00000200 00000000 00000000  ................
 0c6c 00000000 00000000 02000000 00000000  ................
 0c7c 00000000 00000000 00000000 00000100  ................
 0c8c 00000000 01000100 00000000 01000000  ................
 0c9c 00000000 00000000 00000100 00000000  ................
 0cac 00000000 00000000 00000000 00000000  ................
 0cbc 00000000                             ....            
Contents of section .gnu.version_r:
 0cc0 01000100 dd030000 10000000 00000000  ................
 0cd0 751a6909 00000200 20040000 00000000  u.i..... .......
Contents of section .rela.dyn:
 0ce0 381d2000 00000000 08000000 00000000  8. .............
 0cf0 70130000 00000000 401d2000 00000000  p.......@. .....
 0d00 08000000 00000000 30130000 00000000  ........0.......
 0d10 08202000 00000000 08000000 00000000  .  .............
 0d20 08202000 00000000 d81f2000 00000000  .  ....... .....
 0d30 06000000 02000000 00000000 00000000  ................
 0d40 e01f2000 00000000 06000000 03000000  .. .............
 0d50 00000000 00000000 e81f2000 00000000  .......... .....
 0d60 06000000 06000000 00000000 00000000  ................
 0d70 f01f2000 00000000 06000000 07000000  .. .............
 0d80 00000000 00000000 f81f2000 00000000  .......... .....
 0d90 06000000 0c000000 00000000 00000000  ................
 0da0 20202000 00000000 05000000 16000000     .............
 0db0 00000000 00000000 28202000 00000000  ........(  .....
 0dc0 05000000 18000000 00000000 00000000  ................
 0dd0 40202000 00000000 05000000 2f000000  @  ........./...
 0de0 00000000 00000000 50202000 00000000  ........P  .....
 0df0 05000000 30000000 00000000 00000000  ....0...........
 0e00 58202000 00000000 05000000 22000000  X  ........."...
 0e10 00000000 00000000 60202000 00000000  ........`  .....
 0e20 05000000 23000000 00000000 00000000  ....#...........
 0e30 68202000 00000000 05000000 2a000000  h  .........*...
 0e40 00000000 00000000 6c202000 00000000  ........l  .....
 0e50 05000000 2e000000 00000000 00000000  ................
 0e60 70202000 00000000 05000000 1c000000  p  .............
 0e70 00000000 00000000 78202000 00000000  ........x  .....
 0e80 05000000 24000000 00000000 00000000  ....$...........
 0e90 7c202000 00000000 05000000 1d000000  |  .............
 0ea0 00000000 00000000 80202000 00000000  .........  .....
 0eb0 05000000 19000000 00000000 00000000  ................
 0ec0 84202000 00000000 05000000 28000000  .  .........(...
 0ed0 00000000 00000000 88202000 00000000  .........  .....
 0ee0 05000000 2c000000 00000000 00000000  ....,...........
 0ef0 90202000 00000000 05000000 1f000000  .  .............
 0f00 00000000 00000000 a0202000 00000000  .........  .....
 0f10 05000000 26000000 00000000 00000000  ....&...........
 0f20 b0202000 00000000 05000000 20000000  .  ......... ...
 0f30 00000000 00000000 b8202000 00000000  .........  .....
 0f40 05000000 2d000000 00000000 00000000  ....-...........
 0f50 c0202000 00000000 05000000 27000000  .  .........'...
 0f60 00000000 00000000 e0202000 00000000  .........  .....
 0f70 05000000 2b000000 00000000 00000000  ....+...........
 0f80 00212000 00000000 05000000 29000000  .! .........)...
 0f90 00000000 00000000 10212000 00000000  .........! .....
 0fa0 05000000 31000000 00000000 00000000  ....1...........
 0fb0 18212000 00000000 05000000 15000000  .! .............
 0fc0 00000000 00000000 20212000 00000000  ........ ! .....
 0fd0 05000000 21000000 00000000 00000000  ....!...........
Contents of section .rela.plt:
 0fe0 601f2000 00000000 07000000 01000000  `. .............
 0ff0 00000000 00000000 681f2000 00000000  ........h. .....
 1000 07000000 04000000 00000000 00000000  ................
 1010 701f2000 00000000 07000000 05000000  p. .............
 1020 00000000 00000000 781f2000 00000000  ........x. .....
 1030 07000000 08000000 00000000 00000000  ................
 1040 801f2000 00000000 07000000 09000000  .. .............
 1050 00000000 00000000 881f2000 00000000  .......... .....
 1060 07000000 0a000000 00000000 00000000  ................
 1070 901f2000 00000000 07000000 0b000000  .. .............
 1080 00000000 00000000 981f2000 00000000  .......... .....
 1090 07000000 0d000000 00000000 00000000  ................
 10a0 a01f2000 00000000 07000000 0e000000  .. .............
 10b0 00000000 00000000 a81f2000 00000000  .......... .....
 10c0 07000000 0f000000 00000000 00000000  ................
 10d0 b01f2000 00000000 07000000 10000000  .. .............
 10e0 00000000 00000000 b81f2000 00000000  .......... .....
 10f0 07000000 11000000 00000000 00000000  ................
 1100 c01f2000 00000000 07000000 12000000  .. .............
 1110 00000000 00000000 c81f2000 00000000  .......... .....
 1120 07000000 13000000 00000000 00000000  ................
 1130 d01f2000 00000000 07000000 14000000  .. .............
 1140 00000000 00000000                    ........        
Contents of section .init:
 1148 4883ec08 488b0585 0e200048 85c07402  H...H.... .H..t.
 1158 ffd04883 c408c3                      ..H....         
Contents of section .plt:
 1160 ff35ea0d 2000ff25 ec0d2000 0f1f4000  .5.. ..%.. ...@.
 1170 ff25ea0d 20006800 000000e9 e0ffffff  .%.. .h.........
 1180 ff25e20d 20006801 000000e9 d0ffffff  .%.. .h.........
 1190 ff25da0d 20006802 000000e9 c0ffffff  .%.. .h.........
 11a0 ff25d20d 20006803 000000e9 b0ffffff  .%.. .h.........
 11b0 ff25ca0d 20006804 000000e9 a0ffffff  .%.. .h.........
 11c0 ff25c20d 20006805 000000e9 90ffffff  .%.. .h.........
 11d0 ff25ba0d 20006806 000000e9 80ffffff  .%.. .h.........
 11e0 ff25b20d 20006807 000000e9 70ffffff  .%.. .h.....p...
 11f0 ff25aa0d 20006808 000000e9 60ffffff  .%.. .h.....`...
 1200 ff25a20d 20006809 000000e9 50ffffff  .%.. .h.....P...
 1210 ff259a0d 2000680a 000000e9 40ffffff  .%.. .h.....@...
 1220 ff25920d 2000680b 000000e9 30ffffff  .%.. .h.....0...
 1230 ff258a0d 2000680c 000000e9 20ffffff  .%.. .h..... ...
 1240 ff25820d 2000680d 000000e9 10ffffff  .%.. .h.........
 1250 ff257a0d 2000680e 000000e9 00ffffff  .%z. .h.........
Contents of section .plt.got:
 1260 ff25920d 20006690                    .%.. .f.        
Contents of section .text:
 1270 31ed4989 d15e4889 e24883e4 f050544c  1.I..^H..H...PTL
 1280 8d050a04 0000488d 0d930300 00488d3d  ......H......H.=
 1290 34020000 ff15460d 2000f40f 1f440000  4.....F. ....D..
 12a0 488d3d71 0d200055 488d0569 0d200048  H.=q. .UH..i. .H
 12b0 39f84889 e5741948 8b052a0d 20004885  9.H..t.H..*. .H.
 12c0 c0740d5d ffe0662e 0f1f8400 00000000  .t.]..f.........
 12d0 5dc30f1f 4000662e 0f1f8400 00000000  ]...@.f.........
 12e0 488d3d31 0d200048 8d352a0d 20005548  H.=1. .H.5*. .UH
 12f0 29fe4889 e548c1fe 034889f0 48c1e83f  ).H..H...H..H..?
 1300 4801c648 d1fe7418 488b05e1 0c200048  H..H..t.H.... .H
 1310 85c0740c 5dffe066 0f1f8400 00000000  ..t.]..f........
 1320 5dc30f1f 4000662e 0f1f8400 00000000  ]...@.f.........
 1330 803ded0d 20000075 2f48833d b70c2000  .=.. ..u/H.=.. .
 1340 00554889 e5740c48 8b3dba0c 2000e80d  .UH..t.H.=.. ...
 1350 ffffffe8 48ffffff c605c50d 2000015d  ....H....... ..]
 1360 c30f1f80 00000000 f3c3660f 1f440000  ..........f..D..
 1370 554889e5 5de966ff ffff5548 89e50fb6  UH..].f...UH....
 1380 058d0c20 0083f001 84c07514 c6057f0c  ... ......u.....
 1390 200000e8 58feffff e833feff ff90eb01   ...X....3......
 13a0 905dc390 554889e5 0fb60563 0c200084  .]..UH.....c. ..
 13b0 c00f850e 010000c6 05540c20 0001c705  .........T. ....
 13c0 e80c2000 ffffffff c7059e0c 2000ffff  .. ......... ...
 13d0 ffffc605 ab0c2000 62c6058c 0c200020  ...... .b.... . 
 13e0 c605a90c 200020c6 05320c20 0020488d  .... . ..2. . H.
 13f0 05c30300 00488905 bc0c2000 c7059a0c  .....H.... .....
 1400 20000000 0000c705 580c2000 ffffffff   .......X. .....
 1410 488d05a2 03000048 89053a0c 2000c705  H......H..:. ...
 1420 e80c2000 00000000 c7054e0c 20000000  .. .......N. ...
 1430 0000c705 a40c2000 00000000 c705da0c  ...... .........
 1440 2000ffff ffffc705 2c0c2000 00000000   .......,. .....
 1450 bf010000 00e8f6fd ffff48c7 05fb0b20  ..........H.... 
 1460 00000000 00e896fd ffffe841 fdffff0f  ...........A....
 1470 b705a20c 200083c0 01668905 980c2000  .... ....f.... .
 1480 e81bfdff ff0fb705 340c2000 83c00166  ........4. ....f
 1490 89052a0c 2000e8f5 fcffff0f b7059e0b  ..*. ...........
 14a0 200083c0 01668905 940b2000 e8cffcff   ....f.... .....
 14b0 ff0fb705 700b2000 83c00166 8905660b  ....p. ....f..f.
 14c0 200090eb 01905dc3 554889e5 4883ec30   .....].UH..H..0
 14d0 897dec48 8975e048 8955d848 8d05ee01  .}.H.u.H.U.H....
 14e0 00004889 45f08b45 ec890511 0c200048  ..H.E..E..... .H
 14f0 8b45e048 89058e0b 2000488b 45d84889  .E.H.... .H.E.H.
 1500 054b0b20 00488d45 f84889c7 e8cffcff  .K. .H.E.H......
 1510 ffe88efe ffffe813 000000e8 5afeffff  ............Z...
 1520 e84bfcff ff8b054d 0b2000c9 c3905548  .K.....M. ....UH
 1530 89e54157 41564155 41545348 83ec1848  ..AWAVAUATSH...H
 1540 8d057a02 0000488d 15030300 004889c1  ..z...H......H..
 1550 4889d348 89d04889 cf4889c6 e8cffcff  H..H..H..H......
 1560 ffe85afc ffff8945 cc4c8d35 88020000  ..Z....E.L.5....
 1570 4c8d3de1 0200004c 89f14c89 fb4c89f0  L.=....L..L..L..
 1580 4c89fa48 89d04889 cf4889c6 e89ffcff  L..H..H..H......
 1590 ffe82afc ffff8945 c8b90000 00008b55  ..*....E.......U
 15a0 cc8b45c8 01d07105 b9010000 0089c289  ..E...q.........
 15b0 c885c074 11be1000 0000488d 3d6b0200  ...t......H.=k..
 15c0 00e87afc ffff89d0 8945c44c 8d256b02  ..z......E.L.%k.
 15d0 00004c8d 2d870200 004c89e1 4c89eb4c  ..L.-....L..L..L
 15e0 89e04c89 ea4889d0 4889cf48 89c6e83d  ..L..H..H..H...=
 15f0 fcffff8b 45c489c7 e813fcff ffbf0100  ....E...........
 1600 0000e819 fcffff90 4883c418 5b415c41  ........H...[A\A
 1610 5d415e41 5f5dc366 0f1f8400 00000000  ]A^A_].f........
 1620 41574156 4989d741 5541544c 8d250607  AWAVI..AUATL.%..
 1630 20005548 8d2d0607 20005341 89fd4989   .UH.-.. .SA..I.
 1640 f64c29e5 4883ec08 48c1fd03 e8f7faff  .L).H...H.......
 1650 ff4885ed 742031db 0f1f8400 00000000  .H..t 1.........
 1660 4c89fa4c 89f64489 ef41ff14 dc4883c3  L..L..D..A...H..
 1670 014839dd 75ea4883 c4085b5d 415c415d  .H9.u.H...[]A\A]
 1680 415e415f c390662e 0f1f8400 00000000  A^A_..f.........
 1690 f3c3                                 ..              
Contents of section .fini:
 1694 4883ec08 4883c408 c3                 H...H....       
Contents of section .rodata:
 16a0 01000200 00000000 00000000 00000000  ................
 16b0 474e4154 20566572 73696f6e 3a20372e  GNAT Version: 7.
 16c0 332e3000 00000000 00000000 00000000  3.0.............
 16d0 5f616461 5f616464 5f696e74 5f775f69  _ada_add_int_w_i
 16e0 6f000000 312a701c 0e93dfb6 d393c07e  o...1*p........~
 16f0 f1d22afd f50281b4 43e82762 04ec3546  ..*.....C.'b..5F
 1700 059035a6 308a481f da6f32c2 3fa1986e  ..5.0.H..o2.?..n
 1710 a19d7876 a9e647e9 2e55e541 b885774e  ..xv..G..U.A..wN
 1720 5134b1d8 17ad1db0 7be11f38 e509ad30  Q4......{..8...0
 1730 7e13a7fc 68f403f1 00a6f66b 1e7d8341  ~...h......k.}.A
 1740 ec878ac8 ff48a487 46859b1b 20f04ace  .....H..F... .J.
 1750 f281562e dc483d84 fc6305aa c015bf38  ..V..H=..c.....8
 1760 02882f6c c60cee44 178cdf39 c0321718  ../l...D...9.2..
 1770 2595d49e 741a6e46 f210d26f 7af619dd  %...t.nF...oz...
 1780 889d1f70 755e2420 d3b3009f 3e71d9e7  ...pu^$ ....>q..
 1790 17a5338c d6ce485d 40e82197 d7e25970  ..3...H]@.!...Yp
 17a0 9c6731a8 2574ff52 6852b55a b6fde6ec  .g1.%t.RhR.Z....
 17b0 046d8fd2 0a3aa436 00000000 00000000  .m...:.6........
 17c0 506c6561 73652065 6e746572 20666972  Please enter fir
 17d0 73742069 6e746567 6572206e 6f772066  st integer now f
 17e0 6f6c6c6f 77656420 6279203c 43523e20  ollowed by <CR> 
 17f0 2d3e2000 00000000 506c6561 73652065  -> .....Please e
 1800 6e746572 20736563 6f6e6420 696e7465  nter second inte
 1810 67657220 6e6f7720 666f6c6c 6f776564  ger now followed
 1820 20627920 3c43523e 202d3e20 6164645f   by <CR> -> add_
 1830 696e745f 775f696f 2e616462 00546865  int_w_io.adb.The
 1840 2073756d 20697320 3a200000 00000000   sum is : ......
 1850 01000000 33000000 01000000 34000000  ....3.......4...
 1860 01000000 0d000000                    ........        
Contents of section .eh_frame_hdr:
 1868 011b033b 54000000 09000000 f8f8ffff  ...;T...........
 1878 a0000000 f8f9ffff c8000000 08faffff  ................
 1888 70000000 12fbffff e0000000 3cfbffff  p...........<...
 1898 00010000 60fcffff 20010000 c6fcffff  ....`... .......
 18a8 40010000 b8fdffff 70010000 28feffff  @.......p...(...
 18b8 b8010000                             ....            
Contents of section .eh_frame:
 18c0 14000000 00000000 017a5200 01781001  .........zR..x..
 18d0 1b0c0708 90010710 14000000 1c000000  ................
 18e0 90f9ffff 2b000000 00000000 00000000  ....+...........
 18f0 14000000 00000000 017a5200 01781001  .........zR..x..
 1900 1b0c0708 90010000 24000000 1c000000  ........$.......
 1910 50f8ffff 00010000 000e1046 0e184a0f  P..........F..J.
 1920 0b770880 003f1a3b 2a332422 00000000  .w...?.;*3$"....
 1930 14000000 44000000 28f9ffff 08000000  ....D...(.......
 1940 00000000 00000000 1c000000 5c000000  ............\...
 1950 2afaffff 29000000 00410e10 8602430d  *...)....A....C.
 1960 06640c07 08000000 1c000000 7c000000  .d..........|...
 1970 34faffff 24010000 00410e10 8602430d  4...$....A....C.
 1980 06031f01 0c070800 1c000000 9c000000  ................
 1990 38fbffff 65000000 00410e10 8602430d  8...e....A....C.
 19a0 0602600c 07080000 2c000000 bc000000  ..`.....,.......
 19b0 7efbffff e9000000 00410e10 8602430d  ~........A....C.
 19c0 064d8f03 8e048d05 8c068307 02d70c07  .M..............
 19d0 08000000 00000000 44000000 ec000000  ........D.......
 19e0 40fcffff 65000000 00420e10 8f02420e  @...e....B....B.
 19f0 188e0345 0e208d04 420e288c 05480e30  ...E. ..B.(..H.0
 1a00 8606480e 3883074d 0e40720e 38410e30  ..H.8..M.@r.8A.0
 1a10 410e2842 0e20420e 18420e10 420e0800  A.(B. B..B..B...
 1a20 10000000 34010000 68fcffff 02000000  ....4...h.......
 1a30 00000000 00000000                    ........        
Contents of section .init_array:
 201d38 70130000 00000000                    p.......        
Contents of section .fini_array:
 201d40 30130000 00000000                    0.......        
Contents of section .dynamic:
 201d48 01000000 00000000 01000000 00000000  ................
 201d58 01000000 00000000 dd030000 00000000  ................
 201d68 0c000000 00000000 48110000 00000000  ........H.......
 201d78 0d000000 00000000 94160000 00000000  ................
 201d88 19000000 00000000 381d2000 00000000  ........8. .....
 201d98 1b000000 00000000 08000000 00000000  ................
 201da8 1a000000 00000000 401d2000 00000000  ........@. .....
 201db8 1c000000 00000000 08000000 00000000  ................
 201dc8 f5feff6f 00000000 98020000 00000000  ...o............
 201dd8 05000000 00000000 30080000 00000000  ........0.......
 201de8 06000000 00000000 80030000 00000000  ................
 201df8 0a000000 00000000 2c040000 00000000  ........,.......
 201e08 0b000000 00000000 18000000 00000000  ................
 201e18 15000000 00000000 00000000 00000000  ................
 201e28 03000000 00000000 481f2000 00000000  ........H. .....
 201e38 02000000 00000000 68010000 00000000  ........h.......
 201e48 14000000 00000000 07000000 00000000  ................
 201e58 17000000 00000000 e00f0000 00000000  ................
 201e68 07000000 00000000 e00c0000 00000000  ................
 201e78 08000000 00000000 00030000 00000000  ................
 201e88 09000000 00000000 18000000 00000000  ................
 201e98 1e000000 00000000 08000000 00000000  ................
 201ea8 fbffff6f 00000000 01000008 00000000  ...o............
 201eb8 feffff6f 00000000 c00c0000 00000000  ...o............
 201ec8 ffffff6f 00000000 01000000 00000000  ...o............
 201ed8 f0ffff6f 00000000 5c0c0000 00000000  ...o....\.......
 201ee8 f9ffff6f 00000000 03000000 00000000  ...o............
 201ef8 00000000 00000000 00000000 00000000  ................
 201f08 00000000 00000000 00000000 00000000  ................
 201f18 00000000 00000000 00000000 00000000  ................
 201f28 00000000 00000000 00000000 00000000  ................
 201f38 00000000 00000000 00000000 00000000  ................
Contents of section .got:
 201f48 481d2000 00000000 00000000 00000000  H. .............
 201f58 00000000 00000000 76110000 00000000  ........v.......
 201f68 86110000 00000000 96110000 00000000  ................
 201f78 a6110000 00000000 b6110000 00000000  ................
 201f88 c6110000 00000000 d6110000 00000000  ................
 201f98 e6110000 00000000 f6110000 00000000  ................
 201fa8 06120000 00000000 16120000 00000000  ................
 201fb8 26120000 00000000 36120000 00000000  &.......6.......
 201fc8 46120000 00000000 56120000 00000000  F.......V.......
 201fd8 00000000 00000000 00000000 00000000  ................
 201fe8 00000000 00000000 00000000 00000000  ................
 201ff8 00000000 00000000                    ........        
Contents of section .data:
 202000 00000000 00000000 08202000 00000000  .........  .....
 202010 000000                               ...             
Contents of section .comment:
 0000 4743433a 20285562 756e7475 20372e33  GCC: (Ubuntu 7.3
 0010 2e302d32 37756275 6e747531 7e31382e  .0-27ubuntu1~18.
 0020 30342920 372e332e 3000               04) 7.3.0.      

Disassembly of section .init:

0000000000001148 <_init>:
    1148:	48 83 ec 08          	sub    rsp,0x8
    114c:	48 8b 05 85 0e 20 00 	mov    rax,QWORD PTR [rip+0x200e85]        # 201fd8 <__gmon_start__>
    1153:	48 85 c0             	test   rax,rax
    1156:	74 02                	je     115a <_init+0x12>
    1158:	ff d0                	call   rax
    115a:	48 83 c4 08          	add    rsp,0x8
    115e:	c3                   	ret    

Disassembly of section .plt:

0000000000001160 <.plt>:
    1160:	ff 35 ea 0d 20 00    	push   QWORD PTR [rip+0x200dea]        # 201f50 <_GLOBAL_OFFSET_TABLE_+0x8>
    1166:	ff 25 ec 0d 20 00    	jmp    QWORD PTR [rip+0x200dec]        # 201f58 <_GLOBAL_OFFSET_TABLE_+0x10>
    116c:	0f 1f 40 00          	nop    DWORD PTR [rax+0x0]

0000000000001170 <__gnat_finalize@plt>:
    1170:	ff 25 ea 0d 20 00    	jmp    QWORD PTR [rip+0x200dea]        # 201f60 <__gnat_finalize>
    1176:	68 00 00 00 00       	push   0x0
    117b:	e9 e0 ff ff ff       	jmp    1160 <.plt>

0000000000001180 <system__secondary_stack___elabb@plt>:
    1180:	ff 25 e2 0d 20 00    	jmp    QWORD PTR [rip+0x200de2]        # 201f68 <system__secondary_stack___elabb>
    1186:	68 01 00 00 00       	push   0x1
    118b:	e9 d0 ff ff ff       	jmp    1160 <.plt>

0000000000001190 <system__soft_links___elabb@plt>:
    1190:	ff 25 da 0d 20 00    	jmp    QWORD PTR [rip+0x200dda]        # 201f70 <system__soft_links___elabb>
    1196:	68 02 00 00 00       	push   0x2
    119b:	e9 c0 ff ff ff       	jmp    1160 <.plt>

00000000000011a0 <system__exceptions___elabs@plt>:
    11a0:	ff 25 d2 0d 20 00    	jmp    QWORD PTR [rip+0x200dd2]        # 201f78 <system__exceptions___elabs>
    11a6:	68 03 00 00 00       	push   0x3
    11ab:	e9 b0 ff ff ff       	jmp    1160 <.plt>

00000000000011b0 <system__exception_table___elabb@plt>:
    11b0:	ff 25 ca 0d 20 00    	jmp    QWORD PTR [rip+0x200dca]        # 201f80 <system__exception_table___elabb>
    11b6:	68 04 00 00 00       	push   0x4
    11bb:	e9 a0 ff ff ff       	jmp    1160 <.plt>

00000000000011c0 <gnat__io__get@plt>:
    11c0:	ff 25 c2 0d 20 00    	jmp    QWORD PTR [rip+0x200dc2]        # 201f88 <gnat__io__get>
    11c6:	68 05 00 00 00       	push   0x5
    11cb:	e9 90 ff ff ff       	jmp    1160 <.plt>

00000000000011d0 <system__standard_library__adafinal@plt>:
    11d0:	ff 25 ba 0d 20 00    	jmp    QWORD PTR [rip+0x200dba]        # 201f90 <system__standard_library__adafinal>
    11d6:	68 06 00 00 00       	push   0x6
    11db:	e9 80 ff ff ff       	jmp    1160 <.plt>

00000000000011e0 <__gnat_initialize@plt>:
    11e0:	ff 25 b2 0d 20 00    	jmp    QWORD PTR [rip+0x200db2]        # 201f98 <__gnat_initialize>
    11e6:	68 07 00 00 00       	push   0x7
    11eb:	e9 70 ff ff ff       	jmp    1160 <.plt>

00000000000011f0 <__gnat_runtime_finalize@plt>:
    11f0:	ff 25 aa 0d 20 00    	jmp    QWORD PTR [rip+0x200daa]        # 201fa0 <__gnat_runtime_finalize>
    11f6:	68 08 00 00 00       	push   0x8
    11fb:	e9 60 ff ff ff       	jmp    1160 <.plt>

0000000000001200 <system__soft_links___elabs@plt>:
    1200:	ff 25 a2 0d 20 00    	jmp    QWORD PTR [rip+0x200da2]        # 201fa8 <system__soft_links___elabs>
    1206:	68 09 00 00 00       	push   0x9
    120b:	e9 50 ff ff ff       	jmp    1160 <.plt>

0000000000001210 <gnat__io__put__2@plt>:
    1210:	ff 25 9a 0d 20 00    	jmp    QWORD PTR [rip+0x200d9a]        # 201fb0 <gnat__io__put__2>
    1216:	68 0a 00 00 00       	push   0xa
    121b:	e9 40 ff ff ff       	jmp    1160 <.plt>

0000000000001220 <gnat__io__new_line__2@plt>:
    1220:	ff 25 92 0d 20 00    	jmp    QWORD PTR [rip+0x200d92]        # 201fb8 <gnat__io__new_line__2>
    1226:	68 0b 00 00 00       	push   0xb
    122b:	e9 30 ff ff ff       	jmp    1160 <.plt>

0000000000001230 <gnat__io__put__6@plt>:
    1230:	ff 25 8a 0d 20 00    	jmp    QWORD PTR [rip+0x200d8a]        # 201fc0 <gnat__io__put__6>
    1236:	68 0c 00 00 00       	push   0xc
    123b:	e9 20 ff ff ff       	jmp    1160 <.plt>

0000000000001240 <__gnat_rcheck_CE_Overflow_Check@plt>:
    1240:	ff 25 82 0d 20 00    	jmp    QWORD PTR [rip+0x200d82]        # 201fc8 <__gnat_rcheck_CE_Overflow_Check>
    1246:	68 0d 00 00 00       	push   0xd
    124b:	e9 10 ff ff ff       	jmp    1160 <.plt>

0000000000001250 <__gnat_runtime_initialize@plt>:
    1250:	ff 25 7a 0d 20 00    	jmp    QWORD PTR [rip+0x200d7a]        # 201fd0 <__gnat_runtime_initialize>
    1256:	68 0e 00 00 00       	push   0xe
    125b:	e9 00 ff ff ff       	jmp    1160 <.plt>

Disassembly of section .plt.got:

0000000000001260 <__cxa_finalize@plt>:
    1260:	ff 25 92 0d 20 00    	jmp    QWORD PTR [rip+0x200d92]        # 201ff8 <__cxa_finalize@GLIBC_2.2.5>
    1266:	66 90                	xchg   ax,ax

Disassembly of section .text:

0000000000001270 <_start>:
    1270:	31 ed                	xor    ebp,ebp
    1272:	49 89 d1             	mov    r9,rdx
    1275:	5e                   	pop    rsi
    1276:	48 89 e2             	mov    rdx,rsp
    1279:	48 83 e4 f0          	and    rsp,0xfffffffffffffff0
    127d:	50                   	push   rax
    127e:	54                   	push   rsp
    127f:	4c 8d 05 0a 04 00 00 	lea    r8,[rip+0x40a]        # 1690 <__libc_csu_fini>
    1286:	48 8d 0d 93 03 00 00 	lea    rcx,[rip+0x393]        # 1620 <__libc_csu_init>
    128d:	48 8d 3d 34 02 00 00 	lea    rdi,[rip+0x234]        # 14c8 <main>
    1294:	ff 15 46 0d 20 00    	call   QWORD PTR [rip+0x200d46]        # 201fe0 <__libc_start_main@GLIBC_2.2.5>
    129a:	f4                   	hlt    
    129b:	0f 1f 44 00 00       	nop    DWORD PTR [rax+rax*1+0x0]

00000000000012a0 <deregister_tm_clones>:
    12a0:	48 8d 3d 71 0d 20 00 	lea    rdi,[rip+0x200d71]        # 202018 <__TMC_END__>
    12a7:	55                   	push   rbp
    12a8:	48 8d 05 69 0d 20 00 	lea    rax,[rip+0x200d69]        # 202018 <__TMC_END__>
    12af:	48 39 f8             	cmp    rax,rdi
    12b2:	48 89 e5             	mov    rbp,rsp
    12b5:	74 19                	je     12d0 <deregister_tm_clones+0x30>
    12b7:	48 8b 05 2a 0d 20 00 	mov    rax,QWORD PTR [rip+0x200d2a]        # 201fe8 <_ITM_deregisterTMCloneTable>
    12be:	48 85 c0             	test   rax,rax
    12c1:	74 0d                	je     12d0 <deregister_tm_clones+0x30>
    12c3:	5d                   	pop    rbp
    12c4:	ff e0                	jmp    rax
    12c6:	66 2e 0f 1f 84 00 00 	nop    WORD PTR cs:[rax+rax*1+0x0]
    12cd:	00 00 00 
    12d0:	5d                   	pop    rbp
    12d1:	c3                   	ret    
    12d2:	0f 1f 40 00          	nop    DWORD PTR [rax+0x0]
    12d6:	66 2e 0f 1f 84 00 00 	nop    WORD PTR cs:[rax+rax*1+0x0]
    12dd:	00 00 00 

00000000000012e0 <register_tm_clones>:
    12e0:	48 8d 3d 31 0d 20 00 	lea    rdi,[rip+0x200d31]        # 202018 <__TMC_END__>
    12e7:	48 8d 35 2a 0d 20 00 	lea    rsi,[rip+0x200d2a]        # 202018 <__TMC_END__>
    12ee:	55                   	push   rbp
    12ef:	48 29 fe             	sub    rsi,rdi
    12f2:	48 89 e5             	mov    rbp,rsp
    12f5:	48 c1 fe 03          	sar    rsi,0x3
    12f9:	48 89 f0             	mov    rax,rsi
    12fc:	48 c1 e8 3f          	shr    rax,0x3f
    1300:	48 01 c6             	add    rsi,rax
    1303:	48 d1 fe             	sar    rsi,1
    1306:	74 18                	je     1320 <register_tm_clones+0x40>
    1308:	48 8b 05 e1 0c 20 00 	mov    rax,QWORD PTR [rip+0x200ce1]        # 201ff0 <_ITM_registerTMCloneTable>
    130f:	48 85 c0             	test   rax,rax
    1312:	74 0c                	je     1320 <register_tm_clones+0x40>
    1314:	5d                   	pop    rbp
    1315:	ff e0                	jmp    rax
    1317:	66 0f 1f 84 00 00 00 	nop    WORD PTR [rax+rax*1+0x0]
    131e:	00 00 
    1320:	5d                   	pop    rbp
    1321:	c3                   	ret    
    1322:	0f 1f 40 00          	nop    DWORD PTR [rax+0x0]
    1326:	66 2e 0f 1f 84 00 00 	nop    WORD PTR cs:[rax+rax*1+0x0]
    132d:	00 00 00 

0000000000001330 <__do_global_dtors_aux>:
    1330:	80 3d ed 0d 20 00 00 	cmp    BYTE PTR [rip+0x200ded],0x0        # 202124 <completed.7696>
    1337:	75 2f                	jne    1368 <__do_global_dtors_aux+0x38>
    1339:	48 83 3d b7 0c 20 00 	cmp    QWORD PTR [rip+0x200cb7],0x0        # 201ff8 <__cxa_finalize@GLIBC_2.2.5>
    1340:	00 
    1341:	55                   	push   rbp
    1342:	48 89 e5             	mov    rbp,rsp
    1345:	74 0c                	je     1353 <__do_global_dtors_aux+0x23>
    1347:	48 8b 3d ba 0c 20 00 	mov    rdi,QWORD PTR [rip+0x200cba]        # 202008 <__dso_handle>
    134e:	e8 0d ff ff ff       	call   1260 <__cxa_finalize@plt>
    1353:	e8 48 ff ff ff       	call   12a0 <deregister_tm_clones>
    1358:	c6 05 c5 0d 20 00 01 	mov    BYTE PTR [rip+0x200dc5],0x1        # 202124 <completed.7696>
    135f:	5d                   	pop    rbp
    1360:	c3                   	ret    
    1361:	0f 1f 80 00 00 00 00 	nop    DWORD PTR [rax+0x0]
    1368:	f3 c3                	repz ret 
    136a:	66 0f 1f 44 00 00    	nop    WORD PTR [rax+rax*1+0x0]

0000000000001370 <frame_dummy>:
    1370:	55                   	push   rbp
    1371:	48 89 e5             	mov    rbp,rsp
    1374:	5d                   	pop    rbp
    1375:	e9 66 ff ff ff       	jmp    12e0 <register_tm_clones>

000000000000137a <adafinal>:
    137a:	55                   	push   rbp
    137b:	48 89 e5             	mov    rbp,rsp
    137e:	0f b6 05 8d 0c 20 00 	movzx  eax,BYTE PTR [rip+0x200c8d]        # 202012 <ada_main__is_elaborated>
    1385:	83 f0 01             	xor    eax,0x1
    1388:	84 c0                	test   al,al
    138a:	75 14                	jne    13a0 <adafinal+0x26>
    138c:	c6 05 7f 0c 20 00 00 	mov    BYTE PTR [rip+0x200c7f],0x0        # 202012 <ada_main__is_elaborated>
    1393:	e8 58 fe ff ff       	call   11f0 <__gnat_runtime_finalize@plt>
    1398:	e8 33 fe ff ff       	call   11d0 <system__standard_library__adafinal@plt>
    139d:	90                   	nop
    139e:	eb 01                	jmp    13a1 <adafinal+0x27>
    13a0:	90                   	nop
    13a1:	5d                   	pop    rbp
    13a2:	c3                   	ret    
    13a3:	90                   	nop

00000000000013a4 <adainit>:
    13a4:	55                   	push   rbp
    13a5:	48 89 e5             	mov    rbp,rsp
    13a8:	0f b6 05 63 0c 20 00 	movzx  eax,BYTE PTR [rip+0x200c63]        # 202012 <ada_main__is_elaborated>
    13af:	84 c0                	test   al,al
    13b1:	0f 85 0e 01 00 00    	jne    14c5 <adainit+0x121>
    13b7:	c6 05 54 0c 20 00 01 	mov    BYTE PTR [rip+0x200c54],0x1        # 202012 <ada_main__is_elaborated>
    13be:	c7 05 e8 0c 20 00 ff 	mov    DWORD PTR [rip+0x200ce8],0xffffffff        # 2020b0 <__gl_main_priority>
    13c5:	ff ff ff 
    13c8:	c7 05 9e 0c 20 00 ff 	mov    DWORD PTR [rip+0x200c9e],0xffffffff        # 202070 <__gl_time_slice_val>
    13cf:	ff ff ff 
    13d2:	c6 05 ab 0c 20 00 62 	mov    BYTE PTR [rip+0x200cab],0x62        # 202084 <__gl_wc_encoding>
    13d9:	c6 05 8c 0c 20 00 20 	mov    BYTE PTR [rip+0x200c8c],0x20        # 20206c <__gl_locking_policy>
    13e0:	c6 05 a9 0c 20 00 20 	mov    BYTE PTR [rip+0x200ca9],0x20        # 202090 <__gl_queuing_policy>
    13e7:	c6 05 32 0c 20 00 20 	mov    BYTE PTR [rip+0x200c32],0x20        # 202020 <__gl_task_dispatching_policy>
    13ee:	48 8d 05 c3 03 00 00 	lea    rax,[rip+0x3c3]        # 17b8 <ada_main__local_priority_specific_dispatching>
    13f5:	48 89 05 bc 0c 20 00 	mov    QWORD PTR [rip+0x200cbc],rax        # 2020b8 <__gl_priority_specific_dispatching>
    13fc:	c7 05 9a 0c 20 00 00 	mov    DWORD PTR [rip+0x200c9a],0x0        # 2020a0 <__gl_num_specific_dispatching>
    1403:	00 00 00 
    1406:	c7 05 58 0c 20 00 ff 	mov    DWORD PTR [rip+0x200c58],0xffffffff        # 202068 <__gl_main_cpu>
    140d:	ff ff ff 
    1410:	48 8d 05 a2 03 00 00 	lea    rax,[rip+0x3a2]        # 17b9 <ada_main__local_interrupt_states>
    1417:	48 89 05 3a 0c 20 00 	mov    QWORD PTR [rip+0x200c3a],rax        # 202058 <__gl_interrupt_states>
    141e:	c7 05 e8 0c 20 00 00 	mov    DWORD PTR [rip+0x200ce8],0x0        # 202110 <__gl_num_interrupt_states>
    1425:	00 00 00 
    1428:	c7 05 4e 0c 20 00 00 	mov    DWORD PTR [rip+0x200c4e],0x0        # 202080 <__gl_unreserve_all_interrupts>
    142f:	00 00 00 
    1432:	c7 05 a4 0c 20 00 00 	mov    DWORD PTR [rip+0x200ca4],0x0        # 2020e0 <__gl_detect_blocking>
    1439:	00 00 00 
    143c:	c7 05 da 0c 20 00 ff 	mov    DWORD PTR [rip+0x200cda],0xffffffff        # 202120 <__gl_default_stack_size>
    1443:	ff ff ff 
    1446:	c7 05 2c 0c 20 00 00 	mov    DWORD PTR [rip+0x200c2c],0x0        # 20207c <__gl_leap_seconds_support>
    144d:	00 00 00 
    1450:	bf 01 00 00 00       	mov    edi,0x1
    1455:	e8 f6 fd ff ff       	call   1250 <__gnat_runtime_initialize@plt>
    145a:	48 c7 05 fb 0b 20 00 	mov    QWORD PTR [rip+0x200bfb],0x0        # 202060 <__gnat_finalize_library_objects>
    1461:	00 00 00 00 
    1465:	e8 96 fd ff ff       	call   1200 <system__soft_links___elabs@plt>
    146a:	e8 41 fd ff ff       	call   11b0 <system__exception_table___elabb@plt>
    146f:	0f b7 05 a2 0c 20 00 	movzx  eax,WORD PTR [rip+0x200ca2]        # 202118 <system__exception_table_E>
    1476:	83 c0 01             	add    eax,0x1
    1479:	66 89 05 98 0c 20 00 	mov    WORD PTR [rip+0x200c98],ax        # 202118 <system__exception_table_E>
    1480:	e8 1b fd ff ff       	call   11a0 <system__exceptions___elabs@plt>
    1485:	0f b7 05 34 0c 20 00 	movzx  eax,WORD PTR [rip+0x200c34]        # 2020c0 <system__exceptions_E>
    148c:	83 c0 01             	add    eax,0x1
    148f:	66 89 05 2a 0c 20 00 	mov    WORD PTR [rip+0x200c2a],ax        # 2020c0 <system__exceptions_E>
    1496:	e8 f5 fc ff ff       	call   1190 <system__soft_links___elabb@plt>
    149b:	0f b7 05 9e 0b 20 00 	movzx  eax,WORD PTR [rip+0x200b9e]        # 202040 <system__soft_links_E>
    14a2:	83 c0 01             	add    eax,0x1
    14a5:	66 89 05 94 0b 20 00 	mov    WORD PTR [rip+0x200b94],ax        # 202040 <system__soft_links_E>
    14ac:	e8 cf fc ff ff       	call   1180 <system__secondary_stack___elabb@plt>
    14b1:	0f b7 05 70 0b 20 00 	movzx  eax,WORD PTR [rip+0x200b70]        # 202028 <system__secondary_stack_E>
    14b8:	83 c0 01             	add    eax,0x1
    14bb:	66 89 05 66 0b 20 00 	mov    WORD PTR [rip+0x200b66],ax        # 202028 <system__secondary_stack_E>
    14c2:	90                   	nop
    14c3:	eb 01                	jmp    14c6 <adainit+0x122>
    14c5:	90                   	nop
    14c6:	5d                   	pop    rbp
    14c7:	c3                   	ret    

00000000000014c8 <main>:
    14c8:	55                   	push   rbp
    14c9:	48 89 e5             	mov    rbp,rsp
    14cc:	48 83 ec 30          	sub    rsp,0x30
    14d0:	89 7d ec             	mov    DWORD PTR [rbp-0x14],edi
    14d3:	48 89 75 e0          	mov    QWORD PTR [rbp-0x20],rsi
    14d7:	48 89 55 d8          	mov    QWORD PTR [rbp-0x28],rdx
    14db:	48 8d 05 ee 01 00 00 	lea    rax,[rip+0x1ee]        # 16d0 <__gnat_ada_main_program_name>
    14e2:	48 89 45 f0          	mov    QWORD PTR [rbp-0x10],rax
    14e6:	8b 45 ec             	mov    eax,DWORD PTR [rbp-0x14]
    14e9:	89 05 11 0c 20 00    	mov    DWORD PTR [rip+0x200c11],eax        # 202100 <gnat_argc>
    14ef:	48 8b 45 e0          	mov    rax,QWORD PTR [rbp-0x20]
    14f3:	48 89 05 8e 0b 20 00 	mov    QWORD PTR [rip+0x200b8e],rax        # 202088 <gnat_argv>
    14fa:	48 8b 45 d8          	mov    rax,QWORD PTR [rbp-0x28]
    14fe:	48 89 05 4b 0b 20 00 	mov    QWORD PTR [rip+0x200b4b],rax        # 202050 <gnat_envp>
    1505:	48 8d 45 f8          	lea    rax,[rbp-0x8]
    1509:	48 89 c7             	mov    rdi,rax
    150c:	e8 cf fc ff ff       	call   11e0 <__gnat_initialize@plt>
    1511:	e8 8e fe ff ff       	call   13a4 <adainit>
    1516:	e8 13 00 00 00       	call   152e <_ada_add_int_w_io>
    151b:	e8 5a fe ff ff       	call   137a <adafinal>
    1520:	e8 4b fc ff ff       	call   1170 <__gnat_finalize@plt>
    1525:	8b 05 4d 0b 20 00    	mov    eax,DWORD PTR [rip+0x200b4d]        # 202078 <gnat_exit_status>
    152b:	c9                   	leave  
    152c:	c3                   	ret    
    152d:	90                   	nop

000000000000152e <_ada_add_int_w_io>:
    152e:	55                   	push   rbp
    152f:	48 89 e5             	mov    rbp,rsp
    1532:	41 57                	push   r15
    1534:	41 56                	push   r14
    1536:	41 55                	push   r13
    1538:	41 54                	push   r12
    153a:	53                   	push   rbx
    153b:	48 83 ec 18          	sub    rsp,0x18
    153f:	48 8d 05 7a 02 00 00 	lea    rax,[rip+0x27a]        # 17c0 <ada_main__local_interrupt_states+0x7>
    1546:	48 8d 15 03 03 00 00 	lea    rdx,[rip+0x303]        # 1850 <ada_main__local_interrupt_states+0x97>
    154d:	48 89 c1             	mov    rcx,rax
    1550:	48 89 d3             	mov    rbx,rdx
    1553:	48 89 d0             	mov    rax,rdx
    1556:	48 89 cf             	mov    rdi,rcx
    1559:	48 89 c6             	mov    rsi,rax
    155c:	e8 cf fc ff ff       	call   1230 <gnat__io__put__6@plt>
    1561:	e8 5a fc ff ff       	call   11c0 <gnat__io__get@plt>
    1566:	89 45 cc             	mov    DWORD PTR [rbp-0x34],eax
    1569:	4c 8d 35 88 02 00 00 	lea    r14,[rip+0x288]        # 17f8 <ada_main__local_interrupt_states+0x3f>
    1570:	4c 8d 3d e1 02 00 00 	lea    r15,[rip+0x2e1]        # 1858 <ada_main__local_interrupt_states+0x9f>
    1577:	4c 89 f1             	mov    rcx,r14
    157a:	4c 89 fb             	mov    rbx,r15
    157d:	4c 89 f0             	mov    rax,r14
    1580:	4c 89 fa             	mov    rdx,r15
    1583:	48 89 d0             	mov    rax,rdx
    1586:	48 89 cf             	mov    rdi,rcx
    1589:	48 89 c6             	mov    rsi,rax
    158c:	e8 9f fc ff ff       	call   1230 <gnat__io__put__6@plt>
    1591:	e8 2a fc ff ff       	call   11c0 <gnat__io__get@plt>
    1596:	89 45 c8             	mov    DWORD PTR [rbp-0x38],eax
    1599:	b9 00 00 00 00       	mov    ecx,0x0
    159e:	8b 55 cc             	mov    edx,DWORD PTR [rbp-0x34]
    15a1:	8b 45 c8             	mov    eax,DWORD PTR [rbp-0x38]
    15a4:	01 d0                	add    eax,edx
    15a6:	71 05                	jno    15ad <_ada_add_int_w_io+0x7f>
    15a8:	b9 01 00 00 00       	mov    ecx,0x1
    15ad:	89 c2                	mov    edx,eax
    15af:	89 c8                	mov    eax,ecx
    15b1:	85 c0                	test   eax,eax
    15b3:	74 11                	je     15c6 <_ada_add_int_w_io+0x98>
    15b5:	be 10 00 00 00       	mov    esi,0x10
    15ba:	48 8d 3d 6b 02 00 00 	lea    rdi,[rip+0x26b]        # 182c <ada_main__local_interrupt_states+0x73>
    15c1:	e8 7a fc ff ff       	call   1240 <__gnat_rcheck_CE_Overflow_Check@plt>
    15c6:	89 d0                	mov    eax,edx
    15c8:	89 45 c4             	mov    DWORD PTR [rbp-0x3c],eax
    15cb:	4c 8d 25 6b 02 00 00 	lea    r12,[rip+0x26b]        # 183d <ada_main__local_interrupt_states+0x84>
    15d2:	4c 8d 2d 87 02 00 00 	lea    r13,[rip+0x287]        # 1860 <ada_main__local_interrupt_states+0xa7>
    15d9:	4c 89 e1             	mov    rcx,r12
    15dc:	4c 89 eb             	mov    rbx,r13
    15df:	4c 89 e0             	mov    rax,r12
    15e2:	4c 89 ea             	mov    rdx,r13
    15e5:	48 89 d0             	mov    rax,rdx
    15e8:	48 89 cf             	mov    rdi,rcx
    15eb:	48 89 c6             	mov    rsi,rax
    15ee:	e8 3d fc ff ff       	call   1230 <gnat__io__put__6@plt>
    15f3:	8b 45 c4             	mov    eax,DWORD PTR [rbp-0x3c]
    15f6:	89 c7                	mov    edi,eax
    15f8:	e8 13 fc ff ff       	call   1210 <gnat__io__put__2@plt>
    15fd:	bf 01 00 00 00       	mov    edi,0x1
    1602:	e8 19 fc ff ff       	call   1220 <gnat__io__new_line__2@plt>
    1607:	90                   	nop
    1608:	48 83 c4 18          	add    rsp,0x18
    160c:	5b                   	pop    rbx
    160d:	41 5c                	pop    r12
    160f:	41 5d                	pop    r13
    1611:	41 5e                	pop    r14
    1613:	41 5f                	pop    r15
    1615:	5d                   	pop    rbp
    1616:	c3                   	ret    
    1617:	66 0f 1f 84 00 00 00 	nop    WORD PTR [rax+rax*1+0x0]
    161e:	00 00 

0000000000001620 <__libc_csu_init>:
    1620:	41 57                	push   r15
    1622:	41 56                	push   r14
    1624:	49 89 d7             	mov    r15,rdx
    1627:	41 55                	push   r13
    1629:	41 54                	push   r12
    162b:	4c 8d 25 06 07 20 00 	lea    r12,[rip+0x200706]        # 201d38 <__frame_dummy_init_array_entry>
    1632:	55                   	push   rbp
    1633:	48 8d 2d 06 07 20 00 	lea    rbp,[rip+0x200706]        # 201d40 <__init_array_end>
    163a:	53                   	push   rbx
    163b:	41 89 fd             	mov    r13d,edi
    163e:	49 89 f6             	mov    r14,rsi
    1641:	4c 29 e5             	sub    rbp,r12
    1644:	48 83 ec 08          	sub    rsp,0x8
    1648:	48 c1 fd 03          	sar    rbp,0x3
    164c:	e8 f7 fa ff ff       	call   1148 <_init>
    1651:	48 85 ed             	test   rbp,rbp
    1654:	74 20                	je     1676 <__libc_csu_init+0x56>
    1656:	31 db                	xor    ebx,ebx
    1658:	0f 1f 84 00 00 00 00 	nop    DWORD PTR [rax+rax*1+0x0]
    165f:	00 
    1660:	4c 89 fa             	mov    rdx,r15
    1663:	4c 89 f6             	mov    rsi,r14
    1666:	44 89 ef             	mov    edi,r13d
    1669:	41 ff 14 dc          	call   QWORD PTR [r12+rbx*8]
    166d:	48 83 c3 01          	add    rbx,0x1
    1671:	48 39 dd             	cmp    rbp,rbx
    1674:	75 ea                	jne    1660 <__libc_csu_init+0x40>
    1676:	48 83 c4 08          	add    rsp,0x8
    167a:	5b                   	pop    rbx
    167b:	5d                   	pop    rbp
    167c:	41 5c                	pop    r12
    167e:	41 5d                	pop    r13
    1680:	41 5e                	pop    r14
    1682:	41 5f                	pop    r15
    1684:	c3                   	ret    
    1685:	90                   	nop
    1686:	66 2e 0f 1f 84 00 00 	nop    WORD PTR cs:[rax+rax*1+0x0]
    168d:	00 00 00 

0000000000001690 <__libc_csu_fini>:
    1690:	f3 c3                	repz ret 

Disassembly of section .fini:

0000000000001694 <_fini>:
    1694:	48 83 ec 08          	sub    rsp,0x8
    1698:	48 83 c4 08          	add    rsp,0x8
    169c:	c3                   	ret    
