
add_int_Fortran_ARM32_ggdb3:     file format elf32-littlearm
add_int_Fortran_ARM32_ggdb3
architecture: arm, flags 0x00000112:
EXEC_P, HAS_SYMS, D_PAGED
start address 0x00010438

Program Header:
0x70000001 off    0x00000674 vaddr 0x00010674 paddr 0x00010674 align 2**2
         filesz 0x00000008 memsz 0x00000008 flags r--
    PHDR off    0x00000034 vaddr 0x00010034 paddr 0x00010034 align 2**2
         filesz 0x00000120 memsz 0x00000120 flags r-x
  INTERP off    0x00000154 vaddr 0x00010154 paddr 0x00010154 align 2**0
         filesz 0x00000019 memsz 0x00000019 flags r--
    LOAD off    0x00000000 vaddr 0x00010000 paddr 0x00010000 align 2**16
         filesz 0x00000680 memsz 0x00000680 flags r-x
    LOAD off    0x00000ef4 vaddr 0x00020ef4 paddr 0x00020ef4 align 2**16
         filesz 0x00000138 memsz 0x0000013c flags rw-
 DYNAMIC off    0x00000f00 vaddr 0x00020f00 paddr 0x00020f00 align 2**2
         filesz 0x00000100 memsz 0x00000100 flags rw-
    NOTE off    0x00000170 vaddr 0x00010170 paddr 0x00010170 align 2**2
         filesz 0x00000044 memsz 0x00000044 flags r--
   STACK off    0x00000000 vaddr 0x00000000 paddr 0x00000000 align 2**4
         filesz 0x00000000 memsz 0x00000000 flags rw-
   RELRO off    0x00000ef4 vaddr 0x00020ef4 paddr 0x00020ef4 align 2**0
         filesz 0x0000010c memsz 0x0000010c flags r--

Dynamic Section:
  NEEDED               libgfortran.so.3
  NEEDED               libm.so.6
  NEEDED               libgcc_s.so.1
  NEEDED               libc.so.6
  INIT                 0x000103dc
  FINI                 0x00010644
  INIT_ARRAY           0x00020ef4
  INIT_ARRAYSZ         0x00000004
  FINI_ARRAY           0x00020ef8
  FINI_ARRAYSZ         0x00000004
  GNU_HASH             0x000101b4
  STRTAB               0x00010274
  SYMTAB               0x000101e4
  STRSZ                0x000000e5
  SYMENT               0x00000010
  DEBUG                0x00000000
  PLTGOT               0x00021000
  PLTRELSZ             0x00000028
  PLTREL               0x00000011
  JMPREL               0x000103b4
  REL                  0x000103ac
  RELSZ                0x00000008
  RELENT               0x00000008
  VERNEED              0x0001036c
  VERNEEDNUM           0x00000002
  VERSYM               0x0001035a

Version References:
  required from libgfortran.so.3:
    0x02f96580 0x00 03 GFORTRAN_1.0
  required from libc.so.6:
    0x0d696914 0x00 02 GLIBC_2.4
private flags = 5000400: [Version5 EABI] [hard-float ABI]

Sections:
Idx Name          Size      VMA       LMA       File off  Algn
  0 .interp       00000019  00010154  00010154  00000154  2**0
                  CONTENTS, ALLOC, LOAD, READONLY, DATA
  1 .note.ABI-tag 00000020  00010170  00010170  00000170  2**2
                  CONTENTS, ALLOC, LOAD, READONLY, DATA
  2 .note.gnu.build-id 00000024  00010190  00010190  00000190  2**2
                  CONTENTS, ALLOC, LOAD, READONLY, DATA
  3 .gnu.hash     00000030  000101b4  000101b4  000001b4  2**2
                  CONTENTS, ALLOC, LOAD, READONLY, DATA
  4 .dynsym       00000090  000101e4  000101e4  000001e4  2**2
                  CONTENTS, ALLOC, LOAD, READONLY, DATA
  5 .dynstr       000000e5  00010274  00010274  00000274  2**0
                  CONTENTS, ALLOC, LOAD, READONLY, DATA
  6 .gnu.version  00000012  0001035a  0001035a  0000035a  2**1
                  CONTENTS, ALLOC, LOAD, READONLY, DATA
  7 .gnu.version_r 00000040  0001036c  0001036c  0000036c  2**2
                  CONTENTS, ALLOC, LOAD, READONLY, DATA
  8 .rel.dyn      00000008  000103ac  000103ac  000003ac  2**2
                  CONTENTS, ALLOC, LOAD, READONLY, DATA
  9 .rel.plt      00000028  000103b4  000103b4  000003b4  2**2
                  CONTENTS, ALLOC, LOAD, READONLY, DATA
 10 .init         0000000c  000103dc  000103dc  000003dc  2**2
                  CONTENTS, ALLOC, LOAD, READONLY, CODE
 11 .plt          00000050  000103e8  000103e8  000003e8  2**2
                  CONTENTS, ALLOC, LOAD, READONLY, CODE
 12 .text         0000020c  00010438  00010438  00000438  2**2
                  CONTENTS, ALLOC, LOAD, READONLY, CODE
 13 .fini         00000008  00010644  00010644  00000644  2**2
                  CONTENTS, ALLOC, LOAD, READONLY, CODE
 14 .rodata       00000028  0001064c  0001064c  0000064c  2**2
                  CONTENTS, ALLOC, LOAD, READONLY, DATA
 15 .ARM.exidx    00000008  00010674  00010674  00000674  2**2
                  CONTENTS, ALLOC, LOAD, READONLY, DATA
 16 .eh_frame     00000004  0001067c  0001067c  0000067c  2**2
                  CONTENTS, ALLOC, LOAD, READONLY, DATA
 17 .init_array   00000004  00020ef4  00020ef4  00000ef4  2**2
                  CONTENTS, ALLOC, LOAD, DATA
 18 .fini_array   00000004  00020ef8  00020ef8  00000ef8  2**2
                  CONTENTS, ALLOC, LOAD, DATA
 19 .jcr          00000004  00020efc  00020efc  00000efc  2**2
                  CONTENTS, ALLOC, LOAD, DATA
 20 .dynamic      00000100  00020f00  00020f00  00000f00  2**2
                  CONTENTS, ALLOC, LOAD, DATA
 21 .got          00000024  00021000  00021000  00001000  2**2
                  CONTENTS, ALLOC, LOAD, DATA
 22 .data         00000008  00021024  00021024  00001024  2**2
                  CONTENTS, ALLOC, LOAD, DATA
 23 .bss          00000004  0002102c  0002102c  0000102c  2**0
                  ALLOC
 24 .comment      00000034  00000000  00000000  0000102c  2**0
                  CONTENTS, READONLY
 25 .ARM.attributes 0000002f  00000000  00000000  00001060  2**0
                  CONTENTS, READONLY
 26 .debug_aranges 00000020  00000000  00000000  0000108f  2**0
                  CONTENTS, READONLY, DEBUGGING
 27 .debug_info   000000b2  00000000  00000000  000010af  2**0
                  CONTENTS, READONLY, DEBUGGING
 28 .debug_abbrev 00000084  00000000  00000000  00001161  2**0
                  CONTENTS, READONLY, DEBUGGING
 29 .debug_line   0000003f  00000000  00000000  000011e5  2**0
                  CONTENTS, READONLY, DEBUGGING
 30 .debug_frame  00000050  00000000  00000000  00001224  2**2
                  CONTENTS, READONLY, DEBUGGING
 31 .debug_str    0000014d  00000000  00000000  00001274  2**0
                  CONTENTS, READONLY, DEBUGGING
 32 .debug_macro  0000000c  00000000  00000000  000013c1  2**0
                  CONTENTS, READONLY, DEBUGGING
SYMBOL TABLE:
00010154 l    d  .interp	00000000              .interp
00010170 l    d  .note.ABI-tag	00000000              .note.ABI-tag
00010190 l    d  .note.gnu.build-id	00000000              .note.gnu.build-id
000101b4 l    d  .gnu.hash	00000000              .gnu.hash
000101e4 l    d  .dynsym	00000000              .dynsym
00010274 l    d  .dynstr	00000000              .dynstr
0001035a l    d  .gnu.version	00000000              .gnu.version
0001036c l    d  .gnu.version_r	00000000              .gnu.version_r
000103ac l    d  .rel.dyn	00000000              .rel.dyn
000103b4 l    d  .rel.plt	00000000              .rel.plt
000103dc l    d  .init	00000000              .init
000103e8 l    d  .plt	00000000              .plt
00010438 l    d  .text	00000000              .text
00010644 l    d  .fini	00000000              .fini
0001064c l    d  .rodata	00000000              .rodata
00010674 l    d  .ARM.exidx	00000000              .ARM.exidx
0001067c l    d  .eh_frame	00000000              .eh_frame
00020ef4 l    d  .init_array	00000000              .init_array
00020ef8 l    d  .fini_array	00000000              .fini_array
00020efc l    d  .jcr	00000000              .jcr
00020f00 l    d  .dynamic	00000000              .dynamic
00021000 l    d  .got	00000000              .got
00021024 l    d  .data	00000000              .data
0002102c l    d  .bss	00000000              .bss
00000000 l    d  .comment	00000000              .comment
00000000 l    d  .ARM.attributes	00000000              .ARM.attributes
00000000 l    d  .debug_aranges	00000000              .debug_aranges
00000000 l    d  .debug_info	00000000              .debug_info
00000000 l    d  .debug_abbrev	00000000              .debug_abbrev
00000000 l    d  .debug_line	00000000              .debug_line
00000000 l    d  .debug_frame	00000000              .debug_frame
00000000 l    d  .debug_str	00000000              .debug_str
00000000 l    d  .debug_macro	00000000              .debug_macro
00000000 l    df *ABS*	00000000              /usr/lib/gcc/arm-linux-gnueabihf/6/../../../arm-linux-gnueabihf/crt1.o
00000000 l    df *ABS*	00000000              /usr/lib/gcc/arm-linux-gnueabihf/6/../../../arm-linux-gnueabihf/crti.o
00010474 l     F .text	00000000              call_weak_fn
00000000 l    df *ABS*	00000000              /usr/lib/gcc/arm-linux-gnueabihf/6/../../../arm-linux-gnueabihf/crtn.o
00000000 l    df *ABS*	00000000              crtstuff.c
00020efc l     O .jcr	00000000              __JCR_LIST__
00010498 l     F .text	00000000              deregister_tm_clones
000104c8 l     F .text	00000000              register_tm_clones
00010500 l     F .text	00000000              __do_global_dtors_aux
0002102c l     O .bss	00000001              completed.10395
00020ef8 l     O .fini_array	00000000              __do_global_dtors_aux_fini_array_entry
00010528 l     F .text	00000000              frame_dummy
00020ef4 l     O .init_array	00000000              __frame_dummy_init_array_entry
00000000 l    df *ABS*	00000000              add_int.f08
00010560 l     F .text	0000003c              MAIN__
00010650 l     O .rodata	00000024              options.0.4702
00000000 l    df *ABS*	00000000              elf-init.oS
00000000 l    df *ABS*	00000000              crtstuff.c
0001067c l     O .eh_frame	00000000              __FRAME_END__
00020efc l     O .jcr	00000000              __JCR_END__
00000000 l    df *ABS*	00000000              
00021000 l     O .got	00000000              _GLOBAL_OFFSET_TABLE_
00020ef8 l       .init_array	00000000              __init_array_end
00020ef4 l       .init_array	00000000              __init_array_start
00020f00 l     O .dynamic	00000000              _DYNAMIC
00021024  w      .data	00000000              data_start
00000000       F *UND*	00000000              abort@@GLIBC_2.4
00010640 g     F .text	00000004              __libc_csu_fini
00010438 g     F .text	00000000              _start
00000000       F *UND*	00000000              __libc_start_main@@GLIBC_2.4
00000000  w      *UND*	00000000              __gmon_start__
00000000  w      *UND*	00000000              _Jv_RegisterClasses
00010644 g     F .fini	00000000              _fini
00000000  w      *UND*	00000000              _ITM_deregisterTMCloneTable
0001064c g     O .rodata	00000004              _IO_stdin_used
00000000  w      *UND*	00000000              _ITM_registerTMCloneTable
00021024 g       .data	00000000              __data_start
00000000       F *UND*	00000000              _gfortran_set_options@@GFORTRAN_1.0
00000000       F *UND*	00000000              _gfortran_set_args@@GFORTRAN_1.0
0002102c g       .bss	00000000              __bss_start__
0002102c g     O .data	00000000              .hidden __TMC_END__
00021028 g     O .data	00000000              .hidden __dso_handle
00021030 g       .bss	00000000              __end__
000105e0 g     F .text	00000060              __libc_csu_init
00021030 g       .bss	00000000              __bss_end__
0002102c g       .bss	00000000              __bss_start
00021030 g       .bss	00000000              _bss_end__
00021030 g       .bss	00000000              _end
0002102c g       .data	00000000              _edata
0001059c g     F .text	00000044              main
000103dc g     F .init	00000000              _init


Contents of section .interp:
 10154 2f6c6962 2f6c642d 6c696e75 782d6172  /lib/ld-linux-ar
 10164 6d68662e 736f2e33 00                 mhf.so.3.       
Contents of section .note.ABI-tag:
 10170 04000000 10000000 01000000 474e5500  ............GNU.
 10180 00000000 03000000 02000000 00000000  ................
Contents of section .note.gnu.build-id:
 10190 04000000 14000000 03000000 474e5500  ............GNU.
 101a0 fe074ae9 c305d1da ef3c9ae1 377b82e2  ..J......<..7{..
 101b0 8bf51a46                             ...F            
Contents of section .gnu.hash:
 101b4 03000000 05000000 01000000 05000000  ................
 101c4 004c0262 05000000 07000000 08000000  .L.b............
 101d4 5ca9e708 3f5f61b2 7ded110f 2f4e3df6  \...?_a.}.../N=.
Contents of section .dynsym:
 101e4 00000000 00000000 00000000 00000000  ................
 101f4 12000000 00000000 00000000 20000000  ............ ...
 10204 21000000 00000000 00000000 20000000  !........... ...
 10214 35000000 00000000 00000000 20000000  5........... ...
 10224 51000000 00000000 00000000 20000000  Q........... ...
 10234 6b000000 00000000 00000000 12000000  k...............
 10244 81000000 00000000 00000000 12000000  ................
 10254 b6000000 00000000 00000000 12000000  ................
 10264 bc000000 00000000 00000000 12000000  ................
Contents of section .dynstr:
 10274 006c6962 67666f72 7472616e 2e736f2e  .libgfortran.so.
 10284 33005f5f 676d6f6e 5f737461 72745f5f  3.__gmon_start__
 10294 005f4a76 5f526567 69737465 72436c61  ._Jv_RegisterCla
 102a4 73736573 005f4954 4d5f6465 72656769  sses._ITM_deregi
 102b4 73746572 544d436c 6f6e6554 61626c65  sterTMCloneTable
 102c4 005f4954 4d5f7265 67697374 6572544d  ._ITM_registerTM
 102d4 436c6f6e 65546162 6c65005f 67666f72  CloneTable._gfor
 102e4 7472616e 5f736574 5f6f7074 696f6e73  tran_set_options
 102f4 005f6766 6f727472 616e5f73 65745f61  ._gfortran_set_a
 10304 72677300 6c69626d 2e736f2e 36006c69  rgs.libm.so.6.li
 10314 62676363 5f732e73 6f2e3100 6c696263  bgcc_s.so.1.libc
 10324 2e736f2e 36006162 6f727400 5f5f6c69  .so.6.abort.__li
 10334 62635f73 74617274 5f6d6169 6e004746  bc_start_main.GF
 10344 4f525452 414e5f31 2e300047 4c494243  ORTRAN_1.0.GLIBC
 10354 5f322e34 00                          _2.4.           
Contents of section .gnu.version:
 1035a 00000000 00000000 00000300 03000200  ................
 1036a 0200                                 ..              
Contents of section .gnu.version_r:
 1036c 01000100 01000000 10000000 20000000  ............ ...
 1037c 8065f902 00000300 ce000000 00000000  .e..............
 1038c 01000100 ac000000 10000000 00000000  ................
 1039c 1469690d 00000200 db000000 00000000  .ii.............
Contents of section .rel.dyn:
 103ac 20100200 15010000                     .......        
Contents of section .rel.plt:
 103b4 0c100200 16070000 10100200 16080000  ................
 103c4 14100200 16010000 18100200 16050000  ................
 103d4 1c100200 16060000                    ........        
Contents of section .init:
 103dc 08402de9 230000eb 0880bde8           .@-.#.......    
Contents of section .plt:
 103e8 04e02de5 04e09fe5 0ee08fe0 08f0bee5  ..-.............
 103f8 080c0100 00c68fe2 10ca8ce2 08fcbce5  ................
 10408 00c68fe2 10ca8ce2 00fcbce5 00c68fe2  ................
 10418 10ca8ce2 f8fbbce5 00c68fe2 10ca8ce2  ................
 10428 f0fbbce5 00c68fe2 10ca8ce2 e8fbbce5  ................
Contents of section .text:
 10438 00b0a0e3 00e0a0e3 04109de4 0d20a0e1  ............. ..
 10448 04202de5 04002de5 10c09fe5 04c02de5  . -...-.......-.
 10458 0c009fe5 0c309fe5 e8ffffeb e4ffffeb  .....0..........
 10468 40060100 9c050100 e0050100 14309fe5  @............0..
 10478 14209fe5 03308fe0 022093e7 000052e3  . ...0... ....R.
 10488 1eff2f01 e0ffffea 7c0b0100 20000000  ../.....|... ...
 10498 1c309fe5 1c009fe5 003043e0 060053e3  .0.......0C...S.
 104a8 1eff2f91 10309fe5 000053e3 1eff2f01  ../..0....S.../.
 104b8 13ff2fe1 2f100200 2c100200 00000000  .././...,.......
 104c8 24109fe5 24009fe5 001041e0 4111a0e1  $...$.....A.A...
 104d8 a11f81e0 c110b0e1 1eff2f01 10309fe5  ........../..0..
 104e8 000053e3 1eff2f01 13ff2fe1 2c100200  ..S.../.../.,...
 104f8 2c100200 00000000 10402de9 18409fe5  ,........@-..@..
 10508 0030d4e5 000053e3 1080bd18 dfffffeb  .0....S.........
 10518 0130a0e3 0030c4e5 1080bde8 2c100200  .0...0......,...
 10528 28009fe5 003090e5 000053e3 0000001a  (....0....S.....
 10538 e2ffffea 18309fe5 000053e3 fbffff0a  .....0....S.....
 10548 10402de9 33ff2fe1 1040bde8 dbffffea  .@-.3./..@......
 10558 fc0e0200 00000000 04b02de5 00b08de2  ..........-.....
 10568 14d04de2 0130a0e3 08300be5 0930a0e3  ..M..0...0...0..
 10578 0c300be5 08201be5 0c301be5 033082e0  .0... ...0...0..
 10588 10300be5 0000a0e1 00d08be2 04b09de4  .0..............
 10598 1eff2fe1 00482de9 04b08de2 08d04de2  ../..H-.......M.
 105a8 08000be5 0c100be5 0c101be5 08001be5  ................
 105b8 9bffffeb 18109fe5 0900a0e3 95ffffeb  ................
 105c8 e4ffffeb 0030a0e3 0300a0e1 04d04be2  .....0........K.
 105d8 0088bde8 50060100 f0472de9 0070a0e1  ....P....G-..p..
 105e8 48609fe5 48509fe5 06608fe0 05508fe0  H`..HP...`...P..
 105f8 056046e0 0180a0e1 0290a0e1 74ffffeb  .`F.........t...
 10608 4661b0e1 f087bd08 0040a0e3 014084e2  Fa.......@...@..
 10618 043095e4 0920a0e1 0810a0e1 0700a0e1  .0... ..........
 10628 33ff2fe1 040056e1 f7ffff1a f087bde8  3./...V.........
 10638 00090100 f8080100 1eff2fe1           ........../.    
Contents of section .fini:
 10644 08402de9 0880bde8                    .@-.....        
Contents of section .rodata:
 1064c 01000200 44000000 ff030000 00000000  ....D...........
 1065c 00000000 01000000 01000000 00000000  ................
 1066c 00000000 1f000000                    ........        
Contents of section .ARM.exidx:
 10674 c4fdff7f 01000000                    ........        
Contents of section .eh_frame:
 1067c 00000000                             ....            
Contents of section .init_array:
 20ef4 28050100                             (...            
Contents of section .fini_array:
 20ef8 00050100                             ....            
Contents of section .jcr:
 20efc 00000000                             ....            
Contents of section .dynamic:
 20f00 01000000 01000000 01000000 94000000  ................
 20f10 01000000 9e000000 01000000 ac000000  ................
 20f20 0c000000 dc030100 0d000000 44060100  ............D...
 20f30 19000000 f40e0200 1b000000 04000000  ................
 20f40 1a000000 f80e0200 1c000000 04000000  ................
 20f50 f5feff6f b4010100 05000000 74020100  ...o........t...
 20f60 06000000 e4010100 0a000000 e5000000  ................
 20f70 0b000000 10000000 15000000 00000000  ................
 20f80 03000000 00100200 02000000 28000000  ............(...
 20f90 14000000 11000000 17000000 b4030100  ................
 20fa0 11000000 ac030100 12000000 08000000  ................
 20fb0 13000000 08000000 feffff6f 6c030100  ...........ol...
 20fc0 ffffff6f 02000000 f0ffff6f 5a030100  ...o.......oZ...
 20fd0 00000000 00000000 00000000 00000000  ................
 20fe0 00000000 00000000 00000000 00000000  ................
 20ff0 00000000 00000000 00000000 00000000  ................
Contents of section .got:
 21000 000f0200 00000000 00000000 e8030100  ................
 21010 e8030100 e8030100 e8030100 e8030100  ................
 21020 00000000                             ....            
Contents of section .data:
 21024 00000000 00000000                    ........        
Contents of section .comment:
 0000 4743433a 20285261 73706269 616e2036  GCC: (Raspbian 6
 0010 2e332e30 2d31382b 72706931 2b646562  .3.0-18+rpi1+deb
 0020 39753129 20362e33 2e302032 30313730  9u1) 6.3.0 20170
 0030 35313600                             516.            
Contents of section .ARM.attributes:
 0000 412e0000 00616561 62690001 24000000  A....aeabi..$...
 0010 05360006 06080109 010a0212 04130114  .6..............
 0020 01150117 03180119 011a021c 012201    .............". 
Contents of section .debug_aranges:
 0000 1c000000 02000000 00000400 00000000  ................
 0010 60050100 80000000 00000000 00000000  `...............
Contents of section .debug_info:
 0000 ae000000 04000000 00000401 a3000000  ................
 0010 0e020000 00002300 00006005 01008000  ......#...`.....
 0020 00000000 00000000 0000029e 00000001  ................
 0030 0c610000 009c0501 00440000 00019c61  .a.......D.....a
 0040 00000003 1e000000 010c6800 00000291  ..........h.....
 0050 74034801 0000010c 6d000000 03917006  t.H.....m.....p.
 0060 00040405 8e000000 05610000 00060473  .........a.....s
 0070 00000004 01080c00 00000761 64640001  ...........add..
 0080 01026005 01003c00 0000019c 08610001  ..`...<......a..
 0090 05610000 00029174 08620001 05610000  .a.....t.b...a..
 00a0 00029170 08630001 05610000 0002916c  ...p.c...a.....l
 00b0 0000                                 ..              
Contents of section .debug_abbrev:
 0000 01110125 0e130b42 0b030e1b 0e110112  ...%...B........
 0010 06101799 42170000 022e013f 19030e3a  ....B......?...:
 0020 0b3b0b49 13110112 06401896 42190113  .;.I.....@..B...
 0030 00000305 00030e3a 0b3b0b49 13021800  .......:.;.I....
 0040 00042400 0b0b3e0b 030e0000 05260049  ..$...>......&.I
 0050 13000006 0f000b0b 49130000 072e0103  ........I.......
 0060 083a0b3b 0b6a1936 0b110112 06401897  .:.;.j.6.....@..
 0070 42190000 08340003 083a0b3b 0b491302  B....4...:.;.I..
 0080 18000000                             ....            
Contents of section .debug_line:
 0000 3b000000 02002200 00000201 fb0e0d00  ;.....".........
 0010 01010101 00000001 00000100 6164645f  ............add_
 0020 696e742e 66303800 00000000 00050260  int.f08........`
 0030 05010001 6c4b4c84 829e0218 000101    ....lKL........ 
Contents of section .debug_frame:
 0000 0c000000 ffffffff 0100027c 0e0c0d00  ...........|....
 0010 1c000000 00000000 60050100 3c000000  ........`...<...
 0020 420e048b 01420d0b 560d0d42 cb0e0000  B....B..V..B....
 0030 1c000000 00000000 9c050100 44000000  ............D...
 0040 420e088b 028e0142 0c0b045a 0c0d0800  B......B...Z....
Contents of section .debug_str:
 0000 6164645f 696e742e 66303800 63686172  add_int.f08.char
 0010 61637465 72286b69 6e643d31 29006172  acter(kind=1).ar
 0020 6763002f 686f6d65 2f70692f 456e6769  gc./home/pi/Engi
 0030 6e656572 696e672f 47495448 55422f44  neering/GITHUB/D
 0040 69736173 73656d62 6c696e67 2d42696e  isassembling-Bin
 0050 61726965 732f466f 72747261 6e2f4152  aries/Fortran/AR
 0060 4d5f6172 63686974 65637475 72652f41  M_architecture/A
 0070 524d3332 2f416464 5f496e74 732f5769  RM32/Add_Ints/Wi
 0080 74685f44 65627567 5f496e66 6f00696e  th_Debug_Info.in
 0090 74656765 72286b69 6e643d34 29006d61  teger(kind=4).ma
 00a0 696e0047 4e552046 6f727472 616e3230  in.GNU Fortran20
 00b0 30382036 2e332e30 20323031 37303531  08 6.3.0 2017051
 00c0 36202d6d 61726368 3d61726d 7636202d  6 -march=armv6 -
 00d0 6d666c6f 61742d61 62693d68 61726420  mfloat-abi=hard 
 00e0 2d6d6670 753d7666 70202d6d 746c732d  -mfpu=vfp -mtls-
 00f0 6469616c 6563743d 676e7520 2d676764  dialect=gnu -ggd
 0100 6233202d 66696e74 72696e73 69632d6d  b3 -fintrinsic-m
 0110 6f64756c 65732d70 61746820 2f757372  odules-path /usr
 0120 2f6c6962 2f676363 2f61726d 2d6c696e  /lib/gcc/arm-lin
 0130 75782d67 6e756561 62696866 2f362f66  ux-gnueabihf/6/f
 0140 696e636c 75646500 61726776 00        include.argv.   
Contents of section .debug_macro:
 0000 04000200 00000003 00010400           ............    

Disassembly of section .init:

000103dc <_init>:
   103dc:	e92d4008 	push	{r3, lr}
   103e0:	eb000023 	bl	10474 <call_weak_fn>
   103e4:	e8bd8008 	pop	{r3, pc}

Disassembly of section .plt:

000103e8 <.plt>:
   103e8:	e52de004 	push	{lr}		; (str lr, [sp, #-4]!)
   103ec:	e59fe004 	ldr	lr, [pc, #4]	; 103f8 <.plt+0x10>
   103f0:	e08fe00e 	add	lr, pc, lr
   103f4:	e5bef008 	ldr	pc, [lr, #8]!
   103f8:	00010c08 	andeq	r0, r1, r8, lsl #24

000103fc <abort@plt>:
   103fc:	e28fc600 	add	ip, pc, #0, 12
   10400:	e28cca10 	add	ip, ip, #16, 20	; 0x10000
   10404:	e5bcfc08 	ldr	pc, [ip, #3080]!	; 0xc08

00010408 <__libc_start_main@plt>:
   10408:	e28fc600 	add	ip, pc, #0, 12
   1040c:	e28cca10 	add	ip, ip, #16, 20	; 0x10000
   10410:	e5bcfc00 	ldr	pc, [ip, #3072]!	; 0xc00

00010414 <__gmon_start__@plt>:
   10414:	e28fc600 	add	ip, pc, #0, 12
   10418:	e28cca10 	add	ip, ip, #16, 20	; 0x10000
   1041c:	e5bcfbf8 	ldr	pc, [ip, #3064]!	; 0xbf8

00010420 <_gfortran_set_options@plt>:
   10420:	e28fc600 	add	ip, pc, #0, 12
   10424:	e28cca10 	add	ip, ip, #16, 20	; 0x10000
   10428:	e5bcfbf0 	ldr	pc, [ip, #3056]!	; 0xbf0

0001042c <_gfortran_set_args@plt>:
   1042c:	e28fc600 	add	ip, pc, #0, 12
   10430:	e28cca10 	add	ip, ip, #16, 20	; 0x10000
   10434:	e5bcfbe8 	ldr	pc, [ip, #3048]!	; 0xbe8

Disassembly of section .text:

00010438 <_start>:
   10438:	e3a0b000 	mov	fp, #0
   1043c:	e3a0e000 	mov	lr, #0
   10440:	e49d1004 	pop	{r1}		; (ldr r1, [sp], #4)
   10444:	e1a0200d 	mov	r2, sp
   10448:	e52d2004 	push	{r2}		; (str r2, [sp, #-4]!)
   1044c:	e52d0004 	push	{r0}		; (str r0, [sp, #-4]!)
   10450:	e59fc010 	ldr	ip, [pc, #16]	; 10468 <_start+0x30>
   10454:	e52dc004 	push	{ip}		; (str ip, [sp, #-4]!)
   10458:	e59f000c 	ldr	r0, [pc, #12]	; 1046c <_start+0x34>
   1045c:	e59f300c 	ldr	r3, [pc, #12]	; 10470 <_start+0x38>
   10460:	ebffffe8 	bl	10408 <__libc_start_main@plt>
   10464:	ebffffe4 	bl	103fc <abort@plt>
   10468:	00010640 	andeq	r0, r1, r0, asr #12
   1046c:	0001059c 	muleq	r1, ip, r5
   10470:	000105e0 	andeq	r0, r1, r0, ror #11

00010474 <call_weak_fn>:
   10474:	e59f3014 	ldr	r3, [pc, #20]	; 10490 <call_weak_fn+0x1c>
   10478:	e59f2014 	ldr	r2, [pc, #20]	; 10494 <call_weak_fn+0x20>
   1047c:	e08f3003 	add	r3, pc, r3
   10480:	e7932002 	ldr	r2, [r3, r2]
   10484:	e3520000 	cmp	r2, #0
   10488:	012fff1e 	bxeq	lr
   1048c:	eaffffe0 	b	10414 <__gmon_start__@plt>
   10490:	00010b7c 	andeq	r0, r1, ip, ror fp
   10494:	00000020 	andeq	r0, r0, r0, lsr #32

00010498 <deregister_tm_clones>:
   10498:	e59f301c 	ldr	r3, [pc, #28]	; 104bc <deregister_tm_clones+0x24>
   1049c:	e59f001c 	ldr	r0, [pc, #28]	; 104c0 <deregister_tm_clones+0x28>
   104a0:	e0433000 	sub	r3, r3, r0
   104a4:	e3530006 	cmp	r3, #6
   104a8:	912fff1e 	bxls	lr
   104ac:	e59f3010 	ldr	r3, [pc, #16]	; 104c4 <deregister_tm_clones+0x2c>
   104b0:	e3530000 	cmp	r3, #0
   104b4:	012fff1e 	bxeq	lr
   104b8:	e12fff13 	bx	r3
   104bc:	0002102f 	andeq	r1, r2, pc, lsr #32
   104c0:	0002102c 	andeq	r1, r2, ip, lsr #32
   104c4:	00000000 	andeq	r0, r0, r0

000104c8 <register_tm_clones>:
   104c8:	e59f1024 	ldr	r1, [pc, #36]	; 104f4 <register_tm_clones+0x2c>
   104cc:	e59f0024 	ldr	r0, [pc, #36]	; 104f8 <register_tm_clones+0x30>
   104d0:	e0411000 	sub	r1, r1, r0
   104d4:	e1a01141 	asr	r1, r1, #2
   104d8:	e0811fa1 	add	r1, r1, r1, lsr #31
   104dc:	e1b010c1 	asrs	r1, r1, #1
   104e0:	012fff1e 	bxeq	lr
   104e4:	e59f3010 	ldr	r3, [pc, #16]	; 104fc <register_tm_clones+0x34>
   104e8:	e3530000 	cmp	r3, #0
   104ec:	012fff1e 	bxeq	lr
   104f0:	e12fff13 	bx	r3
   104f4:	0002102c 	andeq	r1, r2, ip, lsr #32
   104f8:	0002102c 	andeq	r1, r2, ip, lsr #32
   104fc:	00000000 	andeq	r0, r0, r0

00010500 <__do_global_dtors_aux>:
   10500:	e92d4010 	push	{r4, lr}
   10504:	e59f4018 	ldr	r4, [pc, #24]	; 10524 <__do_global_dtors_aux+0x24>
   10508:	e5d43000 	ldrb	r3, [r4]
   1050c:	e3530000 	cmp	r3, #0
   10510:	18bd8010 	popne	{r4, pc}
   10514:	ebffffdf 	bl	10498 <deregister_tm_clones>
   10518:	e3a03001 	mov	r3, #1
   1051c:	e5c43000 	strb	r3, [r4]
   10520:	e8bd8010 	pop	{r4, pc}
   10524:	0002102c 	andeq	r1, r2, ip, lsr #32

00010528 <frame_dummy>:
   10528:	e59f0028 	ldr	r0, [pc, #40]	; 10558 <frame_dummy+0x30>
   1052c:	e5903000 	ldr	r3, [r0]
   10530:	e3530000 	cmp	r3, #0
   10534:	1a000000 	bne	1053c <frame_dummy+0x14>
   10538:	eaffffe2 	b	104c8 <register_tm_clones>
   1053c:	e59f3018 	ldr	r3, [pc, #24]	; 1055c <frame_dummy+0x34>
   10540:	e3530000 	cmp	r3, #0
   10544:	0afffffb 	beq	10538 <frame_dummy+0x10>
   10548:	e92d4010 	push	{r4, lr}
   1054c:	e12fff33 	blx	r3
   10550:	e8bd4010 	pop	{r4, lr}
   10554:	eaffffdb 	b	104c8 <register_tm_clones>
   10558:	00020efc 	strdeq	r0, [r2], -ip
   1055c:	00000000 	andeq	r0, r0, r0

00010560 <MAIN__>:
program add
   10560:	e52db004 	push	{fp}		; (str fp, [sp, #-4]!)
   10564:	e28db000 	add	fp, sp, #0
   10568:	e24dd014 	sub	sp, sp, #20

	implicit none

	integer		:: a, b, c

	a = 1
   1056c:	e3a03001 	mov	r3, #1
   10570:	e50b3008 	str	r3, [fp, #-8]
	b = 9
   10574:	e3a03009 	mov	r3, #9
   10578:	e50b300c 	str	r3, [fp, #-12]

	c = a + b
   1057c:	e51b2008 	ldr	r2, [fp, #-8]
   10580:	e51b300c 	ldr	r3, [fp, #-12]
   10584:	e0823003 	add	r3, r2, r3
   10588:	e50b3010 	str	r3, [fp, #-16]

end program add
   1058c:	e1a00000 	nop			; (mov r0, r0)
   10590:	e28bd000 	add	sp, fp, #0
   10594:	e49db004 	pop	{fp}		; (ldr fp, [sp], #4)
   10598:	e12fff1e 	bx	lr

0001059c <main>:
   1059c:	e92d4800 	push	{fp, lr}
   105a0:	e28db004 	add	fp, sp, #4
   105a4:	e24dd008 	sub	sp, sp, #8
   105a8:	e50b0008 	str	r0, [fp, #-8]
   105ac:	e50b100c 	str	r1, [fp, #-12]
   105b0:	e51b100c 	ldr	r1, [fp, #-12]
   105b4:	e51b0008 	ldr	r0, [fp, #-8]
   105b8:	ebffff9b 	bl	1042c <_gfortran_set_args@plt>
   105bc:	e59f1018 	ldr	r1, [pc, #24]	; 105dc <main+0x40>
   105c0:	e3a00009 	mov	r0, #9
   105c4:	ebffff95 	bl	10420 <_gfortran_set_options@plt>
   105c8:	ebffffe4 	bl	10560 <MAIN__>
   105cc:	e3a03000 	mov	r3, #0
   105d0:	e1a00003 	mov	r0, r3
   105d4:	e24bd004 	sub	sp, fp, #4
   105d8:	e8bd8800 	pop	{fp, pc}
   105dc:	00010650 	andeq	r0, r1, r0, asr r6

000105e0 <__libc_csu_init>:
   105e0:	e92d47f0 	push	{r4, r5, r6, r7, r8, r9, sl, lr}
   105e4:	e1a07000 	mov	r7, r0
   105e8:	e59f6048 	ldr	r6, [pc, #72]	; 10638 <__libc_csu_init+0x58>
   105ec:	e59f5048 	ldr	r5, [pc, #72]	; 1063c <__libc_csu_init+0x5c>
   105f0:	e08f6006 	add	r6, pc, r6
   105f4:	e08f5005 	add	r5, pc, r5
   105f8:	e0466005 	sub	r6, r6, r5
   105fc:	e1a08001 	mov	r8, r1
   10600:	e1a09002 	mov	r9, r2
   10604:	ebffff74 	bl	103dc <_init>
   10608:	e1b06146 	asrs	r6, r6, #2
   1060c:	08bd87f0 	popeq	{r4, r5, r6, r7, r8, r9, sl, pc}
   10610:	e3a04000 	mov	r4, #0
   10614:	e2844001 	add	r4, r4, #1
   10618:	e4953004 	ldr	r3, [r5], #4
   1061c:	e1a02009 	mov	r2, r9
   10620:	e1a01008 	mov	r1, r8
   10624:	e1a00007 	mov	r0, r7
   10628:	e12fff33 	blx	r3
   1062c:	e1560004 	cmp	r6, r4
   10630:	1afffff7 	bne	10614 <__libc_csu_init+0x34>
   10634:	e8bd87f0 	pop	{r4, r5, r6, r7, r8, r9, sl, pc}
   10638:	00010900 	andeq	r0, r1, r0, lsl #18
   1063c:	000108f8 	strdeq	r0, [r1], -r8

00010640 <__libc_csu_fini>:
   10640:	e12fff1e 	bx	lr

Disassembly of section .fini:

00010644 <_fini>:
   10644:	e92d4008 	push	{r3, lr}
   10648:	e8bd8008 	pop	{r3, pc}
