
add.o:     file format elf32-i386

Sections:
Idx Name          Size      VMA       LMA       File off  Algn
  0 .text         00000082  00000000  00000000  00000034  2**0
                  CONTENTS, ALLOC, LOAD, RELOC, READONLY, CODE
  1 .data         00000000  00000000  00000000  000000b6  2**0
                  CONTENTS, ALLOC, LOAD, DATA
  2 .bss          00000001  00000000  00000000  000000b6  2**0
                  ALLOC
  3 .init_array   00000004  00000000  00000000  000000b8  2**2
                  CONTENTS, ALLOC, LOAD, RELOC, DATA
  4 .comment      00000036  00000000  00000000  000000bc  2**0
                  CONTENTS, READONLY
  5 .note.GNU-stack 00000000  00000000  00000000  000000f2  2**0
                  CONTENTS, READONLY
  6 .eh_frame     00000078  00000000  00000000  000000f4  2**2
                  CONTENTS, ALLOC, LOAD, RELOC, READONLY, DATA

Disassembly of section .text:

00000000 <main>:
   0:	55                   	push   ebp
   1:	89 e5                	mov    ebp,esp
   3:	83 ec 10             	sub    esp,0x10
   6:	c7 45 f4 03 00 00 00 	mov    DWORD PTR [ebp-0xc],0x3
   d:	c7 45 f8 05 00 00 00 	mov    DWORD PTR [ebp-0x8],0x5
  14:	8b 55 f4             	mov    edx,DWORD PTR [ebp-0xc]
  17:	8b 45 f8             	mov    eax,DWORD PTR [ebp-0x8]
  1a:	01 d0                	add    eax,edx
  1c:	89 45 fc             	mov    DWORD PTR [ebp-0x4],eax
  1f:	b8 00 00 00 00       	mov    eax,0x0
  24:	c9                   	leave  
  25:	c3                   	ret    

00000026 <_Z41__static_initialization_and_destruction_0ii>:
  26:	55                   	push   ebp
  27:	89 e5                	mov    ebp,esp
  29:	83 ec 08             	sub    esp,0x8
  2c:	83 7d 08 01          	cmp    DWORD PTR [ebp+0x8],0x1
  30:	75 33                	jne    65 <_Z41__static_initialization_and_destruction_0ii+0x3f>
  32:	81 7d 0c ff ff 00 00 	cmp    DWORD PTR [ebp+0xc],0xffff
  39:	75 2a                	jne    65 <_Z41__static_initialization_and_destruction_0ii+0x3f>
  3b:	83 ec 0c             	sub    esp,0xc
  3e:	68 00 00 00 00       	push   0x0
  43:	e8 fc ff ff ff       	call   44 <_Z41__static_initialization_and_destruction_0ii+0x1e>
  48:	83 c4 10             	add    esp,0x10
  4b:	83 ec 04             	sub    esp,0x4
  4e:	68 00 00 00 00       	push   0x0
  53:	68 00 00 00 00       	push   0x0
  58:	68 00 00 00 00       	push   0x0
  5d:	e8 fc ff ff ff       	call   5e <_Z41__static_initialization_and_destruction_0ii+0x38>
  62:	83 c4 10             	add    esp,0x10
  65:	90                   	nop
  66:	c9                   	leave  
  67:	c3                   	ret    

00000068 <_GLOBAL__sub_I_main>:
  68:	55                   	push   ebp
  69:	89 e5                	mov    ebp,esp
  6b:	83 ec 08             	sub    esp,0x8
  6e:	83 ec 08             	sub    esp,0x8
  71:	68 ff ff 00 00       	push   0xffff
  76:	6a 01                	push   0x1
  78:	e8 a9 ff ff ff       	call   26 <_Z41__static_initialization_and_destruction_0ii>
  7d:	83 c4 10             	add    esp,0x10
  80:	c9                   	leave  
  81:	c3                   	ret    
