	.arch armv8-a
	.file	"if_then.f08"
	.text
.Ltext0:
	.cfi_sections	.debug_frame
	.section	.rodata
	.align	3
.LC0:
	.string	"if_then.f08"
	.align	3
.LC1:
	.ascii	"Enter a number between 1 and 10 -> "
	.align	3
.LC2:
	.ascii	"Number entered greater than 5!"
	.text
	.align	2
	.type	MAIN__, %function
MAIN__:
.LFB0:
	.file 1 "if_then.f08"
	.loc 1 1 0
	.cfi_startproc
	sub	sp, sp, #512
	.cfi_def_cfa_offset 512
	stp	x29, x30, [sp]
	.cfi_offset 29, -512
	.cfi_offset 30, -504
	add	x29, sp, 0
	.cfi_def_cfa_register 29
.LBB2:
	.loc 1 8 0
	adrp	x0, .LC0
	add	x0, x0, :lo12:.LC0
	str	x0, [x29, 32]
	mov	w0, 8
	str	w0, [x29, 40]
	mov	w0, 128
	str	w0, [x29, 24]
	mov	w0, 6
	str	w0, [x29, 28]
	add	x0, x29, 24
	bl	_gfortran_st_write
	adrp	x0, .LC1
	add	x1, x0, :lo12:.LC1
	add	x0, x29, 24
	mov	w2, 35
	bl	_gfortran_transfer_character_write
	add	x0, x29, 24
	bl	_gfortran_st_write_done
.LBE2:
.LBB3:
	.loc 1 9 0
	adrp	x0, .LC0
	add	x0, x0, :lo12:.LC0
	str	x0, [x29, 32]
	mov	w0, 9
	str	w0, [x29, 40]
	mov	w0, 128
	str	w0, [x29, 24]
	mov	w0, 5
	str	w0, [x29, 28]
	add	x0, x29, 24
	bl	_gfortran_st_read
	add	x1, x29, 508
	add	x0, x29, 24
	mov	w2, 4
	bl	_gfortran_transfer_integer
	add	x0, x29, 24
	bl	_gfortran_st_read_done
.LBE3:
	.loc 1 11 0
	ldr	w0, [x29, 508]
	cmp	w0, 5
	ble	.L3
.LBB4:
	.loc 1 12 0
	adrp	x0, .LC0
	add	x0, x0, :lo12:.LC0
	str	x0, [x29, 32]
	mov	w0, 12
	str	w0, [x29, 40]
	mov	w0, 128
	str	w0, [x29, 24]
	mov	w0, 6
	str	w0, [x29, 28]
	add	x0, x29, 24
	bl	_gfortran_st_write
	adrp	x0, .LC2
	add	x1, x0, :lo12:.LC2
	add	x0, x29, 24
	mov	w2, 30
	bl	_gfortran_transfer_character_write
	add	x0, x29, 24
	bl	_gfortran_st_write_done
.L3:
.LBE4:
	.loc 1 15 0
	nop
	ldp	x29, x30, [sp]
	add	sp, sp, 512
	.cfi_restore 29
	.cfi_restore 30
	.cfi_def_cfa 31, 0
	ret
	.cfi_endproc
.LFE0:
	.size	MAIN__, .-MAIN__
	.align	2
	.global	main
	.type	main, %function
main:
.LFB1:
	.loc 1 15 0
	.cfi_startproc
	stp	x29, x30, [sp, -32]!
	.cfi_def_cfa_offset 32
	.cfi_offset 29, -32
	.cfi_offset 30, -24
	add	x29, sp, 0
	.cfi_def_cfa_register 29
	str	w0, [x29, 28]
	str	x1, [x29, 16]
	.loc 1 15 0
	ldr	x1, [x29, 16]
	ldr	w0, [x29, 28]
	bl	_gfortran_set_args
	adrp	x0, options.3.2564
	add	x0, x0, :lo12:options.3.2564
	mov	x1, x0
	mov	w0, 7
	bl	_gfortran_set_options
	bl	MAIN__
	mov	w0, 0
	ldp	x29, x30, [sp], 32
	.cfi_restore 30
	.cfi_restore 29
	.cfi_def_cfa 31, 0
	ret
	.cfi_endproc
.LFE1:
	.size	main, .-main
	.section	.rodata
	.align	3
	.type	options.3.2564, %object
	.size	options.3.2564, 28
options.3.2564:
	.word	68
	.word	1023
	.word	0
	.word	1
	.word	1
	.word	0
	.word	31
	.text
.Letext0:
	.section	.note.GNU-stack,"",@progbits
