
if_then_Fortran_ARM64_ggbd3:     file format elf64-littleaarch64
if_then_Fortran_ARM64_ggbd3
architecture: aarch64, flags 0x00000150:
HAS_SYMS, DYNAMIC, D_PAGED
start address 0x00000000000008e0

Program Header:
    PHDR off    0x0000000000000040 vaddr 0x0000000000000040 paddr 0x0000000000000040 align 2**3
         filesz 0x00000000000001c0 memsz 0x00000000000001c0 flags r--
  INTERP off    0x0000000000000200 vaddr 0x0000000000000200 paddr 0x0000000000000200 align 2**0
         filesz 0x000000000000001b memsz 0x000000000000001b flags r--
    LOAD off    0x0000000000000000 vaddr 0x0000000000000000 paddr 0x0000000000000000 align 2**16
         filesz 0x0000000000000c38 memsz 0x0000000000000c38 flags r-x
    LOAD off    0x0000000000000d38 vaddr 0x0000000000010d38 paddr 0x0000000000010d38 align 2**16
         filesz 0x00000000000002d8 memsz 0x00000000000002e0 flags rw-
 DYNAMIC off    0x0000000000000d48 vaddr 0x0000000000010d48 paddr 0x0000000000010d48 align 2**3
         filesz 0x0000000000000200 memsz 0x0000000000000200 flags rw-
    NOTE off    0x000000000000021c vaddr 0x000000000000021c paddr 0x000000000000021c align 2**2
         filesz 0x0000000000000044 memsz 0x0000000000000044 flags r--
   STACK off    0x0000000000000000 vaddr 0x0000000000000000 paddr 0x0000000000000000 align 2**4
         filesz 0x0000000000000000 memsz 0x0000000000000000 flags rw-
   RELRO off    0x0000000000000d38 vaddr 0x0000000000010d38 paddr 0x0000000000010d38 align 2**0
         filesz 0x00000000000002c8 memsz 0x00000000000002c8 flags r--

Dynamic Section:
  NEEDED               libgfortran.so.4
  NEEDED               libc.so.6
  INIT                 0x00000000000007e8
  FINI                 0x0000000000000ba4
  INIT_ARRAY           0x0000000000010d38
  INIT_ARRAYSZ         0x0000000000000008
  FINI_ARRAY           0x0000000000010d40
  FINI_ARRAYSZ         0x0000000000000008
  GNU_HASH             0x0000000000000260
  STRTAB               0x0000000000000418
  SYMTAB               0x0000000000000280
  STRSZ                0x0000000000000159
  SYMENT               0x0000000000000018
  DEBUG                0x0000000000000000
  PLTGOT               0x0000000000010f48
  PLTRELSZ             0x0000000000000120
  PLTREL               0x0000000000000007
  JMPREL               0x00000000000006c8
  RELA                 0x00000000000005d8
  RELASZ               0x00000000000000f0
  RELAENT              0x0000000000000018
  FLAGS                0x0000000000000008
  FLAGS_1              0x0000000008000001
  VERNEED              0x0000000000000598
  VERNEEDNUM           0x0000000000000002
  VERSYM               0x0000000000000572
  RELACOUNT            0x0000000000000006

Version References:
  required from libc.so.6:
    0x06969197 0x00 03 GLIBC_2.17
  required from libgfortran.so.4:
    0x0792f967 0x00 02 GFORTRAN_7
private flags = 0:

Sections:
Idx Name          Size      VMA               LMA               File off  Algn
  0 .interp       0000001b  0000000000000200  0000000000000200  00000200  2**0
                  CONTENTS, ALLOC, LOAD, READONLY, DATA
  1 .note.ABI-tag 00000020  000000000000021c  000000000000021c  0000021c  2**2
                  CONTENTS, ALLOC, LOAD, READONLY, DATA
  2 .note.gnu.build-id 00000024  000000000000023c  000000000000023c  0000023c  2**2
                  CONTENTS, ALLOC, LOAD, READONLY, DATA
  3 .gnu.hash     0000001c  0000000000000260  0000000000000260  00000260  2**3
                  CONTENTS, ALLOC, LOAD, READONLY, DATA
  4 .dynsym       00000198  0000000000000280  0000000000000280  00000280  2**3
                  CONTENTS, ALLOC, LOAD, READONLY, DATA
  5 .dynstr       00000159  0000000000000418  0000000000000418  00000418  2**0
                  CONTENTS, ALLOC, LOAD, READONLY, DATA
  6 .gnu.version  00000022  0000000000000572  0000000000000572  00000572  2**1
                  CONTENTS, ALLOC, LOAD, READONLY, DATA
  7 .gnu.version_r 00000040  0000000000000598  0000000000000598  00000598  2**3
                  CONTENTS, ALLOC, LOAD, READONLY, DATA
  8 .rela.dyn     000000f0  00000000000005d8  00000000000005d8  000005d8  2**3
                  CONTENTS, ALLOC, LOAD, READONLY, DATA
  9 .rela.plt     00000120  00000000000006c8  00000000000006c8  000006c8  2**3
                  CONTENTS, ALLOC, LOAD, READONLY, DATA
 10 .init         00000014  00000000000007e8  00000000000007e8  000007e8  2**2
                  CONTENTS, ALLOC, LOAD, READONLY, CODE
 11 .plt          000000e0  0000000000000800  0000000000000800  00000800  2**4
                  CONTENTS, ALLOC, LOAD, READONLY, CODE
 12 .text         000002c4  00000000000008e0  00000000000008e0  000008e0  2**3
                  CONTENTS, ALLOC, LOAD, READONLY, CODE
 13 .fini         00000010  0000000000000ba4  0000000000000ba4  00000ba4  2**2
                  CONTENTS, ALLOC, LOAD, READONLY, CODE
 14 .rodata       0000007c  0000000000000bb8  0000000000000bb8  00000bb8  2**3
                  CONTENTS, ALLOC, LOAD, READONLY, DATA
 15 .eh_frame     00000004  0000000000000c34  0000000000000c34  00000c34  2**2
                  CONTENTS, ALLOC, LOAD, READONLY, DATA
 16 .init_array   00000008  0000000000010d38  0000000000010d38  00000d38  2**3
                  CONTENTS, ALLOC, LOAD, DATA
 17 .fini_array   00000008  0000000000010d40  0000000000010d40  00000d40  2**3
                  CONTENTS, ALLOC, LOAD, DATA
 18 .dynamic      00000200  0000000000010d48  0000000000010d48  00000d48  2**3
                  CONTENTS, ALLOC, LOAD, DATA
 19 .got          000000b8  0000000000010f48  0000000000010f48  00000f48  2**3
                  CONTENTS, ALLOC, LOAD, DATA
 20 .data         00000010  0000000000011000  0000000000011000  00001000  2**3
                  CONTENTS, ALLOC, LOAD, DATA
 21 .bss          00000008  0000000000011010  0000000000011010  00001010  2**0
                  ALLOC
 22 .comment      00000031  0000000000000000  0000000000000000  00001010  2**0
                  CONTENTS, READONLY
 23 .debug_aranges 00000030  0000000000000000  0000000000000000  00001041  2**0
                  CONTENTS, READONLY, DEBUGGING
 24 .debug_info   000000f7  0000000000000000  0000000000000000  00001071  2**0
                  CONTENTS, READONLY, DEBUGGING
 25 .debug_abbrev 0000009c  0000000000000000  0000000000000000  00001168  2**0
                  CONTENTS, READONLY, DEBUGGING
 26 .debug_line   00000047  0000000000000000  0000000000000000  00001204  2**0
                  CONTENTS, READONLY, DEBUGGING
 27 .debug_frame  00000068  0000000000000000  0000000000000000  00001250  2**3
                  CONTENTS, READONLY, DEBUGGING
 28 .debug_str    0000013d  0000000000000000  0000000000000000  000012b8  2**0
                  CONTENTS, READONLY, DEBUGGING
 29 .debug_macro  0000000c  0000000000000000  0000000000000000  000013f5  2**0
                  CONTENTS, READONLY, DEBUGGING
SYMBOL TABLE:
0000000000000200 l    d  .interp	0000000000000000              .interp
000000000000021c l    d  .note.ABI-tag	0000000000000000              .note.ABI-tag
000000000000023c l    d  .note.gnu.build-id	0000000000000000              .note.gnu.build-id
0000000000000260 l    d  .gnu.hash	0000000000000000              .gnu.hash
0000000000000280 l    d  .dynsym	0000000000000000              .dynsym
0000000000000418 l    d  .dynstr	0000000000000000              .dynstr
0000000000000572 l    d  .gnu.version	0000000000000000              .gnu.version
0000000000000598 l    d  .gnu.version_r	0000000000000000              .gnu.version_r
00000000000005d8 l    d  .rela.dyn	0000000000000000              .rela.dyn
00000000000006c8 l    d  .rela.plt	0000000000000000              .rela.plt
00000000000007e8 l    d  .init	0000000000000000              .init
0000000000000800 l    d  .plt	0000000000000000              .plt
00000000000008e0 l    d  .text	0000000000000000              .text
0000000000000ba4 l    d  .fini	0000000000000000              .fini
0000000000000bb8 l    d  .rodata	0000000000000000              .rodata
0000000000000c34 l    d  .eh_frame	0000000000000000              .eh_frame
0000000000010d38 l    d  .init_array	0000000000000000              .init_array
0000000000010d40 l    d  .fini_array	0000000000000000              .fini_array
0000000000010d48 l    d  .dynamic	0000000000000000              .dynamic
0000000000010f48 l    d  .got	0000000000000000              .got
0000000000011000 l    d  .data	0000000000000000              .data
0000000000011010 l    d  .bss	0000000000000000              .bss
0000000000000000 l    d  .comment	0000000000000000              .comment
0000000000000000 l    d  .debug_aranges	0000000000000000              .debug_aranges
0000000000000000 l    d  .debug_info	0000000000000000              .debug_info
0000000000000000 l    d  .debug_abbrev	0000000000000000              .debug_abbrev
0000000000000000 l    d  .debug_line	0000000000000000              .debug_line
0000000000000000 l    d  .debug_frame	0000000000000000              .debug_frame
0000000000000000 l    d  .debug_str	0000000000000000              .debug_str
0000000000000000 l    d  .debug_macro	0000000000000000              .debug_macro
0000000000000000 l    df *ABS*	0000000000000000              /usr/lib/gcc/aarch64-linux-gnu/7/../../../aarch64-linux-gnu/Scrt1.o
0000000000000000 l    df *ABS*	0000000000000000              /usr/lib/gcc/aarch64-linux-gnu/7/../../../aarch64-linux-gnu/crti.o
0000000000000918 l     F .text	0000000000000014              call_weak_fn
0000000000000000 l    df *ABS*	0000000000000000              /usr/lib/gcc/aarch64-linux-gnu/7/../../../aarch64-linux-gnu/crtn.o
0000000000000000 l    df *ABS*	0000000000000000              crtstuff.c
0000000000000930 l     F .text	0000000000000000              deregister_tm_clones
0000000000000960 l     F .text	0000000000000000              register_tm_clones
0000000000000998 l     F .text	0000000000000000              __do_global_dtors_aux
0000000000011010 l     O .bss	0000000000000001              completed.8499
0000000000010d40 l     O .fini_array	0000000000000000              __do_global_dtors_aux_fini_array_entry
00000000000009e0 l     F .text	0000000000000000              frame_dummy
0000000000010d38 l     O .init_array	0000000000000000              __frame_dummy_init_array_entry
0000000000000000 l    df *ABS*	0000000000000000              if_then.f08
00000000000009e4 l     F .text	00000000000000fc              MAIN__
0000000000000c18 l     O .rodata	000000000000001c              options.3.2564
0000000000000000 l    df *ABS*	0000000000000000              elf-init.oS
0000000000000000 l    df *ABS*	0000000000000000              crtstuff.c
0000000000000c34 l     O .eh_frame	0000000000000000              __FRAME_END__
0000000000000000 l    df *ABS*	0000000000000000              
0000000000010fc0 l     O *ABS*	0000000000000000              _GLOBAL_OFFSET_TABLE_
0000000000010d40 l       .init_array	0000000000000000              __init_array_end
0000000000010d38 l       .init_array	0000000000000000              __init_array_start
0000000000010d48 l     O *ABS*	0000000000000000              _DYNAMIC
0000000000011000  w      .data	0000000000000000              data_start
0000000000000ba0 g     F .text	0000000000000004              __libc_csu_fini
0000000000000000       F *UND*	0000000000000000              _gfortran_set_args@@GFORTRAN_7
00000000000008e0 g     F .text	0000000000000000              _start
0000000000000000       F *UND*	0000000000000000              __libc_start_main@@GLIBC_2.17
0000000000000000  w      *UND*	0000000000000000              __gmon_start__
0000000000000000       F *UND*	0000000000000000              _gfortran_st_write@@GFORTRAN_7
0000000000000ba4 g     F .fini	0000000000000000              _fini
0000000000000000  w    F *UND*	0000000000000000              __cxa_finalize@@GLIBC_2.17
0000000000000000  w      *UND*	0000000000000000              _ITM_deregisterTMCloneTable
0000000000000bb8 g     O .rodata	0000000000000004              _IO_stdin_used
0000000000000000  w      *UND*	0000000000000000              _ITM_registerTMCloneTable
0000000000011000 g       .data	0000000000000000              __data_start
0000000000000000       F *UND*	0000000000000000              abort@@GLIBC_2.17
0000000000000000       F *UND*	0000000000000000              _gfortran_st_write_done@@GFORTRAN_7
0000000000011010 g       .bss	0000000000000000              __bss_start__
0000000000011010 g     O .data	0000000000000000              .hidden __TMC_END__
0000000000011008 g     O .data	0000000000000000              .hidden __dso_handle
0000000000000000       F *UND*	0000000000000000              _gfortran_set_options@@GFORTRAN_7
0000000000011018 g       .bss	0000000000000000              __end__
0000000000000b20 g     F .text	0000000000000080              __libc_csu_init
0000000000011018 g       .bss	0000000000000000              __bss_end__
0000000000000000       F *UND*	0000000000000000              _gfortran_transfer_integer@@GFORTRAN_7
0000000000000000       F *UND*	0000000000000000              _gfortran_transfer_character_write@@GFORTRAN_7
0000000000011010 g       .bss	0000000000000000              __bss_start
0000000000011018 g       .bss	0000000000000000              _bss_end__
0000000000000000       F *UND*	0000000000000000              _gfortran_st_read@@GFORTRAN_7
0000000000011018 g       .bss	0000000000000000              _end
0000000000000000       F *UND*	0000000000000000              _gfortran_st_read_done@@GFORTRAN_7
0000000000011010 g       .data	0000000000000000              _edata
0000000000000ae0 g     F .text	0000000000000040              main
00000000000007e8 g     F .init	0000000000000000              _init


Contents of section .interp:
 0200 2f6c6962 2f6c642d 6c696e75 782d6161  /lib/ld-linux-aa
 0210 72636836 342e736f 2e3100             rch64.so.1.     
Contents of section .note.ABI-tag:
 021c 04000000 10000000 01000000 474e5500  ............GNU.
 022c 00000000 03000000 07000000 00000000  ................
Contents of section .note.gnu.build-id:
 023c 04000000 14000000 03000000 474e5500  ............GNU.
 024c af493c1b 4d4f1681 9f364bcc de180301  .I<.MO...6K.....
 025c eeb805f3                             ....            
Contents of section .gnu.hash:
 0260 01000000 01000000 01000000 00000000  ................
 0270 00000000 00000000 00000000           ............    
Contents of section .dynsym:
 0280 00000000 00000000 00000000 00000000  ................
 0290 00000000 00000000 00000000 03000b00  ................
 02a0 e8070000 00000000 00000000 00000000  ................
 02b0 00000000 03001500 00100100 00000000  ................
 02c0 00000000 00000000 ff000000 12000000  ................
 02d0 00000000 00000000 00000000 00000000  ................
 02e0 2b010000 12000000 00000000 00000000  +...............
 02f0 00000000 00000000 2e000000 20000000  ............ ...
 0300 00000000 00000000 00000000 00000000  ................
 0310 d1000000 12000000 00000000 00000000  ................
 0320 00000000 00000000 1c010000 22000000  ............"...
 0330 00000000 00000000 00000000 00000000  ................
 0340 12000000 20000000 00000000 00000000  .... ...........
 0350 00000000 00000000 3d000000 20000000  ........=... ...
 0360 00000000 00000000 00000000 00000000  ................
 0370 3d010000 12000000 00000000 00000000  =...............
 0380 00000000 00000000 80000000 12000000  ................
 0390 00000000 00000000 00000000 00000000  ................
 03a0 bb000000 12000000 00000000 00000000  ................
 03b0 00000000 00000000 e4000000 12000000  ................
 03c0 00000000 00000000 00000000 00000000  ................
 03d0 98000000 12000000 00000000 00000000  ................
 03e0 00000000 00000000 57000000 12000000  ........W.......
 03f0 00000000 00000000 00000000 00000000  ................
 0400 69000000 12000000 00000000 00000000  i...............
 0410 00000000 00000000                    ........        
Contents of section .dynstr:
 0418 006c6962 67666f72 7472616e 2e736f2e  .libgfortran.so.
 0428 34005f49 544d5f64 65726567 69737465  4._ITM_deregiste
 0438 72544d43 6c6f6e65 5461626c 65005f5f  rTMCloneTable.__
 0448 676d6f6e 5f737461 72745f5f 005f4954  gmon_start__._IT
 0458 4d5f7265 67697374 6572544d 436c6f6e  M_registerTMClon
 0468 65546162 6c65005f 67666f72 7472616e  eTable._gfortran
 0478 5f73745f 72656164 005f6766 6f727472  _st_read._gfortr
 0488 616e5f73 745f7265 61645f64 6f6e6500  an_st_read_done.
 0498 5f67666f 72747261 6e5f7374 5f777269  _gfortran_st_wri
 04a8 74655f64 6f6e6500 5f67666f 72747261  te_done._gfortra
 04b8 6e5f7472 616e7366 65725f63 68617261  n_transfer_chara
 04c8 63746572 5f777269 7465005f 67666f72  cter_write._gfor
 04d8 7472616e 5f736574 5f6f7074 696f6e73  tran_set_options
 04e8 005f6766 6f727472 616e5f73 745f7772  ._gfortran_st_wr
 04f8 69746500 5f67666f 72747261 6e5f7472  ite._gfortran_tr
 0508 616e7366 65725f69 6e746567 6572005f  ansfer_integer._
 0518 67666f72 7472616e 5f736574 5f617267  gfortran_set_arg
 0528 73006c69 62632e73 6f2e3600 5f5f6378  s.libc.so.6.__cx
 0538 615f6669 6e616c69 7a65005f 5f6c6962  a_finalize.__lib
 0548 635f7374 6172745f 6d61696e 0061626f  c_start_main.abo
 0558 72740047 4c494243 5f322e31 37004746  rt.GLIBC_2.17.GF
 0568 4f525452 414e5f37 00                 ORTRAN_7.       
Contents of section .gnu.version:
 0572 00000000 00000200 03000000 02000300  ................
 0582 00000000 03000200 02000200 02000200  ................
 0592 0200                                 ..              
Contents of section .gnu.version_r:
 0598 01000100 12010000 10000000 20000000  ............ ...
 05a8 97919606 00000300 43010000 00000000  ........C.......
 05b8 01000100 01000000 10000000 00000000  ................
 05c8 67f99207 00000200 4e010000 00000000  g.......N.......
Contents of section .rela.dyn:
 05d8 380d0100 00000000 03040000 00000000  8...............
 05e8 e0090000 00000000 400d0100 00000000  ........@.......
 05f8 03040000 00000000 98090000 00000000  ................
 0608 c80f0100 00000000 03040000 00000000  ................
 0618 a00b0000 00000000 f00f0100 00000000  ................
 0628 03040000 00000000 200b0000 00000000  ........ .......
 0638 f80f0100 00000000 03040000 00000000  ................
 0648 e00a0000 00000000 08100100 00000000  ................
 0658 03040000 00000000 08100100 00000000  ................
 0668 d00f0100 00000000 01040000 05000000  ................
 0678 00000000 00000000 d80f0100 00000000  ................
 0688 01040000 07000000 00000000 00000000  ................
 0698 e00f0100 00000000 01040000 08000000  ................
 06a8 00000000 00000000 e80f0100 00000000  ................
 06b8 01040000 09000000 00000000 00000000  ................
Contents of section .rela.plt:
 06c8 600f0100 00000000 02040000 03000000  `...............
 06d8 00000000 00000000 680f0100 00000000  ........h.......
 06e8 02040000 04000000 00000000 00000000  ................
 06f8 700f0100 00000000 02040000 05000000  p...............
 0708 00000000 00000000 780f0100 00000000  ........x.......
 0718 02040000 06000000 00000000 00000000  ................
 0728 800f0100 00000000 02040000 07000000  ................
 0738 00000000 00000000 880f0100 00000000  ................
 0748 02040000 0a000000 00000000 00000000  ................
 0758 900f0100 00000000 02040000 0b000000  ................
 0768 00000000 00000000 980f0100 00000000  ................
 0778 02040000 0c000000 00000000 00000000  ................
 0788 a00f0100 00000000 02040000 0d000000  ................
 0798 00000000 00000000 a80f0100 00000000  ................
 07a8 02040000 0e000000 00000000 00000000  ................
 07b8 b00f0100 00000000 02040000 0f000000  ................
 07c8 00000000 00000000 b80f0100 00000000  ................
 07d8 02040000 10000000 00000000 00000000  ................
Contents of section .init:
 07e8 fd7bbfa9 fd030091 4a000094 fd7bc1a8  .{......J....{..
 07f8 c0035fd6                             .._.            
Contents of section .plt:
 0800 f07bbfa9 90000090 11ae47f9 10623d91  .{........G..b=.
 0810 20021fd6 1f2003d5 1f2003d5 1f2003d5   .... ... ... ..
 0820 90000090 11b247f9 10823d91 20021fd6  ......G...=. ...
 0830 90000090 11b647f9 10a23d91 20021fd6  ......G...=. ...
 0840 90000090 11ba47f9 10c23d91 20021fd6  ......G...=. ...
 0850 90000090 11be47f9 10e23d91 20021fd6  ......G...=. ...
 0860 90000090 11c247f9 10023e91 20021fd6  ......G...>. ...
 0870 90000090 11c647f9 10223e91 20021fd6  ......G..">. ...
 0880 90000090 11ca47f9 10423e91 20021fd6  ......G..B>. ...
 0890 90000090 11ce47f9 10623e91 20021fd6  ......G..b>. ...
 08a0 90000090 11d247f9 10823e91 20021fd6  ......G...>. ...
 08b0 90000090 11d647f9 10a23e91 20021fd6  ......G...>. ...
 08c0 90000090 11da47f9 10c23e91 20021fd6  ......G...>. ...
 08d0 90000090 11de47f9 10e23e91 20021fd6  ......G...>. ...
Contents of section .text:
 08e0 1d0080d2 1e0080d2 e50300aa e10340f9  ..............@.
 08f0 e2230091 e6030091 80000090 00fc47f9  .#............G.
 0900 83000090 63f847f9 84000090 84e447f9  ....c.G.......G.
 0910 c8ffff97 d7ffff97 80000090 00e847f9  ..............G.
 0920 400000b4 c7ffff17 c0035fd6 00000000  @........._.....
 0930 800000b0 00400091 810000b0 21400091  .....@......!@..
 0940 3f0000eb a0000054 81000090 21f047f9  ?......T....!.G.
 0950 410000b4 20001fd6 c0035fd6 1f2003d5  A... ....._.. ..
 0960 800000b0 00400091 810000b0 21400091  .....@......!@..
 0970 210000cb 21fc4393 21fc418b 21fc4193  !...!.C.!.A.!.A.
 0980 a10000b4 82000090 42f447f9 420000b4  ........B.G.B...
 0990 40001fd6 c0035fd6 fd7bbea9 fd030091  @....._..{......
 09a0 f30b00f9 930000b0 60424039 40010035  ........`B@9@..5
 09b0 80000090 00ec47f9 800000b4 800000b0  ......G.........
 09c0 000440f9 a7ffff97 daffff97 20008052  ..@......... ..R
 09d0 60420039 f30b40f9 fd7bc2a8 c0035fd6  `B.9..@..{...._.
 09e0 e0ffff17 ff0308d1 fd7b00a9 fd030091  .........{......
 09f0 00000090 00002f91 a01300f9 00018052  ....../........R
 0a00 a02b00b9 00108052 a01b00b9 c0008052  .+.....R.......R
 0a10 a01f00b9 a0630091 8effff97 00000090  .....c..........
 0a20 01402f91 a0630091 62048052 a1ffff97  .@/..c..b..R....
 0a30 a0630091 93ffff97 00000090 00002f91  .c............/.
 0a40 a01300f9 20018052 a02b00b9 00108052  .... ..R.+.....R
 0a50 a01b00b9 a0008052 a01f00b9 a0630091  .......R.....c..
 0a60 98ffff97 a1f30791 a0630091 82008052  .........c.....R
 0a70 8cffff97 a0630091 96ffff97 a0ff41b9  .....c........A.
 0a80 1f140071 6d020054 00000090 00002f91  ...qm..T....../.
 0a90 a01300f9 80018052 a02b00b9 00108052  .......R.+.....R
 0aa0 a01b00b9 c0008052 a01f00b9 a0630091  .......R.....c..
 0ab0 68ffff97 00000090 01e02f91 a0630091  h........./..c..
 0ac0 c2038052 7bffff97 a0630091 6dffff97  ...R{....c..m...
 0ad0 1f2003d5 fd7b40a9 ff030891 c0035fd6  . ...{@......._.
 0ae0 fd7bbea9 fd030091 a01f00b9 a10b00f9  .{..............
 0af0 a10b40f9 a01f40b9 4affff97 00000090  ..@...@.J.......
 0b00 00603091 e10300aa e0008052 61ffff97  .`0........Ra...
 0b10 b5ffff97 00008052 fd7bc2a8 c0035fd6  .......R.{...._.
 0b20 fd7bbca9 fd030091 f4d701a9 94000090  .{..............
 0b30 95000090 94023591 b5e23491 f6df02a9  ......5...4.....
 0b40 940215cb f81f00f9 f603002a f70301aa  ...........*....
 0b50 94fe4393 f80302aa 24ffff97 940100b4  ..C.....$.......
 0b60 b30b00f9 130080d2 a37a73f8 e20318aa  .........zs.....
 0b70 e10317aa e003162a 73060091 60003fd6  .......*s...`.?.
 0b80 9f0213eb 21ffff54 b30b40f9 f4d741a9  ....!..T..@...A.
 0b90 f6df42a9 f81f40f9 fd7bc4a8 c0035fd6  ..B...@..{...._.
 0ba0 c0035fd6                             .._.            
Contents of section .fini:
 0ba4 fd7bbfa9 fd030091 fd7bc1a8 c0035fd6  .{.......{...._.
Contents of section .rodata:
 0bb8 01000200 00000000 69665f74 68656e2e  ........if_then.
 0bc8 66303800 00000000 456e7465 72206120  f08.....Enter a 
 0bd8 6e756d62 65722062 65747765 656e2031  number between 1
 0be8 20616e64 20313020 2d3e2000 00000000   and 10 -> .....
 0bf8 4e756d62 65722065 6e746572 65642067  Number entered g
 0c08 72656174 65722074 68616e20 35210000  reater than 5!..
 0c18 44000000 ff030000 00000000 01000000  D...............
 0c28 01000000 00000000 1f000000           ............    
Contents of section .eh_frame:
 0c34 00000000                             ....            
Contents of section .init_array:
 10d38 e0090000 00000000                    ........        
Contents of section .fini_array:
 10d40 98090000 00000000                    ........        
Contents of section .dynamic:
 10d48 01000000 00000000 01000000 00000000  ................
 10d58 01000000 00000000 12010000 00000000  ................
 10d68 0c000000 00000000 e8070000 00000000  ................
 10d78 0d000000 00000000 a40b0000 00000000  ................
 10d88 19000000 00000000 380d0100 00000000  ........8.......
 10d98 1b000000 00000000 08000000 00000000  ................
 10da8 1a000000 00000000 400d0100 00000000  ........@.......
 10db8 1c000000 00000000 08000000 00000000  ................
 10dc8 f5feff6f 00000000 60020000 00000000  ...o....`.......
 10dd8 05000000 00000000 18040000 00000000  ................
 10de8 06000000 00000000 80020000 00000000  ................
 10df8 0a000000 00000000 59010000 00000000  ........Y.......
 10e08 0b000000 00000000 18000000 00000000  ................
 10e18 15000000 00000000 00000000 00000000  ................
 10e28 03000000 00000000 480f0100 00000000  ........H.......
 10e38 02000000 00000000 20010000 00000000  ........ .......
 10e48 14000000 00000000 07000000 00000000  ................
 10e58 17000000 00000000 c8060000 00000000  ................
 10e68 07000000 00000000 d8050000 00000000  ................
 10e78 08000000 00000000 f0000000 00000000  ................
 10e88 09000000 00000000 18000000 00000000  ................
 10e98 1e000000 00000000 08000000 00000000  ................
 10ea8 fbffff6f 00000000 01000008 00000000  ...o............
 10eb8 feffff6f 00000000 98050000 00000000  ...o............
 10ec8 ffffff6f 00000000 02000000 00000000  ...o............
 10ed8 f0ffff6f 00000000 72050000 00000000  ...o....r.......
 10ee8 f9ffff6f 00000000 06000000 00000000  ...o............
 10ef8 00000000 00000000 00000000 00000000  ................
 10f08 00000000 00000000 00000000 00000000  ................
 10f18 00000000 00000000 00000000 00000000  ................
 10f28 00000000 00000000 00000000 00000000  ................
 10f38 00000000 00000000 00000000 00000000  ................
Contents of section .got:
 10f48 00000000 00000000 00000000 00000000  ................
 10f58 00000000 00000000 00080000 00000000  ................
 10f68 00080000 00000000 00080000 00000000  ................
 10f78 00080000 00000000 00080000 00000000  ................
 10f88 00080000 00000000 00080000 00000000  ................
 10f98 00080000 00000000 00080000 00000000  ................
 10fa8 00080000 00000000 00080000 00000000  ................
 10fb8 00080000 00000000 480d0100 00000000  ........H.......
 10fc8 a00b0000 00000000 00000000 00000000  ................
 10fd8 00000000 00000000 00000000 00000000  ................
 10fe8 00000000 00000000 200b0000 00000000  ........ .......
 10ff8 e00a0000 00000000                    ........        
Contents of section .data:
 11000 00000000 00000000 08100100 00000000  ................
Contents of section .comment:
 0000 4743433a 20285562 756e7475 2f4c696e  GCC: (Ubuntu/Lin
 0010 61726f20 372e332e 302d3237 7562756e  aro 7.3.0-27ubun
 0020 7475317e 31382e30 34292037 2e332e30  tu1~18.04) 7.3.0
 0030 00                                   .               
Contents of section .debug_aranges:
 0000 2c000000 02000000 00000800 00000000  ,...............
 0010 e4090000 00000000 3c010000 00000000  ........<.......
 0020 00000000 00000000 00000000 00000000  ................
Contents of section .debug_info:
 0000 f3000000 04000000 00000801 bd000000  ................
 0010 0e027b00 00000000 0000e409 00000000  ..{.............
 0020 00003c01 00000000 00000000 00000000  ..<.............
 0030 00000204 05ad0000 00033200 0000049e  ..........2.....
 0040 00000001 0f320000 00e00a00 00000000  .....2..........
 0050 00400000 00000000 00019c7d 00000005  .@.........}....
 0060 99000000 010f3900 00000291 7c053801  ......9.....|.8.
 0070 0000010f 7d000000 03917006 00060883  ....}.....p.....
 0080 00000002 01088700 00000773 00000001  ...........s....
 0090 0102e409 00000000 0000fc00 00000000  ................
 00a0 0000019c 08a30000 00010532 00000002  ...........2....
 00b0 917c09f0 09000000 00000048 00000000  .|.........H....
 00c0 00000009 380a0000 00000000 44000000  ....8.......D...
 00d0 00000000 09880a00 00000000 00480000  .............H..
 00e0 00000000 000aa800 00000106 39000000  ............9...
 00f0 04050000 000000                      .......         
Contents of section .debug_abbrev:
 0000 01110125 0e130b42 0b030e1b 0e110112  ...%...B........
 0010 07101799 42170000 0224000b 0b3e0b03  ....B....$...>..
 0020 0e000003 26004913 0000042e 013f1903  ....&.I......?..
 0030 0e3a0b3b 0b491311 01120740 18964219  .:.;.I.....@..B.
 0040 01130000 05050003 0e3a0b3b 0b491302  .........:.;.I..
 0050 18000006 0f000b0b 49130000 072e0103  ........I.......
 0060 0e3a0b3b 0b6a1936 0b110112 07401896  .:.;.j.6.....@..
 0070 42190000 08340003 0e3a0b3b 0b491302  B....4...:.;.I..
 0080 18000009 0b001101 12070000 0a270003  .............'..
 0090 0e3a0b3b 0b49131c 0a000000           .:.;.I......    
Contents of section .debug_line:
 0000 43000000 02002200 00000401 fb0e0d00  C.....".........
 0010 01010101 00000001 00000100 69665f74  ............if_t
 0020 68656e2e 66303800 00000000 000902e4  hen.f08.........
 0030 09000000 00000001 43082108 143d0823  ........C.!..=.#
 0040 4a4a020c 000101                      JJ.....         
Contents of section .debug_frame:
 0000 0c000000 ffffffff 01000478 1e0c1f00  ...........x....
 0010 2c000000 00000000 e4090000 00000000  ,...............
 0020 fc000000 00000000 410e8004 419d409e  ........A...A.@.
 0030 3f410d1d 7bddde0c 1f000000 00000000  ?A..{...........
 0040 24000000 00000000 e00a0000 00000000  $...............
 0050 40000000 00000000 410e209d 049e0341  @.......A. ....A
 0060 0d1d4dde dd0c1f00                    ..M.....        
Contents of section .debug_str:
 0000 2f686f6d 652f7562 756e7475 2f456e67  /home/ubuntu/Eng
 0010 696e6565 72696e67 2f474954 4855422f  ineering/GITHUB/
 0020 44697361 7373656d 626c696e 672d4269  Disassembling-Bi
 0030 6e617269 65732f46 6f727472 616e2f41  naries/Fortran/A
 0040 524d5f61 72636869 74656374 7572652f  RM_architecture/
 0050 41524d36 342f436f 6e646974 696f6e61  ARM64/Conditiona
 0060 6c732f57 6974685f 44656275 675f496e  ls/With_Debug_In
 0070 666f0069 665f7468 656e0069 665f7468  fo.if_then.if_th
 0080 656e2e66 30380063 68617261 63746572  en.f08.character
 0090 286b696e 643d3129 00617267 63006d61  (kind=1).argc.ma
 00a0 696e006e 756d3100 6e756d32 00696e74  in.num1.num2.int
 00b0 65676572 286b696e 643d3429 00474e55  eger(kind=4).GNU
 00c0 20466f72 7472616e 32303038 20372e33   Fortran2008 7.3
 00d0 2e30202d 6d6c6974 746c652d 656e6469  .0 -mlittle-endi
 00e0 616e202d 6d616269 3d6c7036 34202d67  an -mabi=lp64 -g
 00f0 67646233 202d6669 6e747269 6e736963  gdb3 -fintrinsic
 0100 2d6d6f64 756c6573 2d706174 68202f75  -modules-path /u
 0110 73722f6c 69622f67 63632f61 61726368  sr/lib/gcc/aarch
 0120 36342d6c 696e7578 2d676e75 2f372f66  64-linux-gnu/7/f
 0130 696e636c 75646500 61726776 00        include.argv.   
Contents of section .debug_macro:
 0000 04000200 00000003 00010400           ............    

Disassembly of section .init:

00000000000007e8 <_init>:
 7e8:	a9bf7bfd 	stp	x29, x30, [sp, #-16]!
 7ec:	910003fd 	mov	x29, sp
 7f0:	9400004a 	bl	918 <call_weak_fn>
 7f4:	a8c17bfd 	ldp	x29, x30, [sp], #16
 7f8:	d65f03c0 	ret

Disassembly of section .plt:

0000000000000800 <.plt>:
 800:	a9bf7bf0 	stp	x16, x30, [sp, #-16]!
 804:	90000090 	adrp	x16, 10000 <__FRAME_END__+0xf3cc>
 808:	f947ae11 	ldr	x17, [x16, #3928]
 80c:	913d6210 	add	x16, x16, #0xf58
 810:	d61f0220 	br	x17
 814:	d503201f 	nop
 818:	d503201f 	nop
 81c:	d503201f 	nop

0000000000000820 <_gfortran_set_args@plt>:
 820:	90000090 	adrp	x16, 10000 <__FRAME_END__+0xf3cc>
 824:	f947b211 	ldr	x17, [x16, #3936]
 828:	913d8210 	add	x16, x16, #0xf60
 82c:	d61f0220 	br	x17

0000000000000830 <__libc_start_main@plt>:
 830:	90000090 	adrp	x16, 10000 <__FRAME_END__+0xf3cc>
 834:	f947b611 	ldr	x17, [x16, #3944]
 838:	913da210 	add	x16, x16, #0xf68
 83c:	d61f0220 	br	x17

0000000000000840 <__gmon_start__@plt>:
 840:	90000090 	adrp	x16, 10000 <__FRAME_END__+0xf3cc>
 844:	f947ba11 	ldr	x17, [x16, #3952]
 848:	913dc210 	add	x16, x16, #0xf70
 84c:	d61f0220 	br	x17

0000000000000850 <_gfortran_st_write@plt>:
 850:	90000090 	adrp	x16, 10000 <__FRAME_END__+0xf3cc>
 854:	f947be11 	ldr	x17, [x16, #3960]
 858:	913de210 	add	x16, x16, #0xf78
 85c:	d61f0220 	br	x17

0000000000000860 <__cxa_finalize@plt>:
 860:	90000090 	adrp	x16, 10000 <__FRAME_END__+0xf3cc>
 864:	f947c211 	ldr	x17, [x16, #3968]
 868:	913e0210 	add	x16, x16, #0xf80
 86c:	d61f0220 	br	x17

0000000000000870 <abort@plt>:
 870:	90000090 	adrp	x16, 10000 <__FRAME_END__+0xf3cc>
 874:	f947c611 	ldr	x17, [x16, #3976]
 878:	913e2210 	add	x16, x16, #0xf88
 87c:	d61f0220 	br	x17

0000000000000880 <_gfortran_st_write_done@plt>:
 880:	90000090 	adrp	x16, 10000 <__FRAME_END__+0xf3cc>
 884:	f947ca11 	ldr	x17, [x16, #3984]
 888:	913e4210 	add	x16, x16, #0xf90
 88c:	d61f0220 	br	x17

0000000000000890 <_gfortran_set_options@plt>:
 890:	90000090 	adrp	x16, 10000 <__FRAME_END__+0xf3cc>
 894:	f947ce11 	ldr	x17, [x16, #3992]
 898:	913e6210 	add	x16, x16, #0xf98
 89c:	d61f0220 	br	x17

00000000000008a0 <_gfortran_transfer_integer@plt>:
 8a0:	90000090 	adrp	x16, 10000 <__FRAME_END__+0xf3cc>
 8a4:	f947d211 	ldr	x17, [x16, #4000]
 8a8:	913e8210 	add	x16, x16, #0xfa0
 8ac:	d61f0220 	br	x17

00000000000008b0 <_gfortran_transfer_character_write@plt>:
 8b0:	90000090 	adrp	x16, 10000 <__FRAME_END__+0xf3cc>
 8b4:	f947d611 	ldr	x17, [x16, #4008]
 8b8:	913ea210 	add	x16, x16, #0xfa8
 8bc:	d61f0220 	br	x17

00000000000008c0 <_gfortran_st_read@plt>:
 8c0:	90000090 	adrp	x16, 10000 <__FRAME_END__+0xf3cc>
 8c4:	f947da11 	ldr	x17, [x16, #4016]
 8c8:	913ec210 	add	x16, x16, #0xfb0
 8cc:	d61f0220 	br	x17

00000000000008d0 <_gfortran_st_read_done@plt>:
 8d0:	90000090 	adrp	x16, 10000 <__FRAME_END__+0xf3cc>
 8d4:	f947de11 	ldr	x17, [x16, #4024]
 8d8:	913ee210 	add	x16, x16, #0xfb8
 8dc:	d61f0220 	br	x17

Disassembly of section .text:

00000000000008e0 <_start>:
 8e0:	d280001d 	mov	x29, #0x0                   	// #0
 8e4:	d280001e 	mov	x30, #0x0                   	// #0
 8e8:	aa0003e5 	mov	x5, x0
 8ec:	f94003e1 	ldr	x1, [sp]
 8f0:	910023e2 	add	x2, sp, #0x8
 8f4:	910003e6 	mov	x6, sp
 8f8:	90000080 	adrp	x0, 10000 <__FRAME_END__+0xf3cc>
 8fc:	f947fc00 	ldr	x0, [x0, #4088]
 900:	90000083 	adrp	x3, 10000 <__FRAME_END__+0xf3cc>
 904:	f947f863 	ldr	x3, [x3, #4080]
 908:	90000084 	adrp	x4, 10000 <__FRAME_END__+0xf3cc>
 90c:	f947e484 	ldr	x4, [x4, #4040]
 910:	97ffffc8 	bl	830 <__libc_start_main@plt>
 914:	97ffffd7 	bl	870 <abort@plt>

0000000000000918 <call_weak_fn>:
 918:	90000080 	adrp	x0, 10000 <__FRAME_END__+0xf3cc>
 91c:	f947e800 	ldr	x0, [x0, #4048]
 920:	b4000040 	cbz	x0, 928 <call_weak_fn+0x10>
 924:	17ffffc7 	b	840 <__gmon_start__@plt>
 928:	d65f03c0 	ret
 92c:	00000000 	.inst	0x00000000 ; undefined

0000000000000930 <deregister_tm_clones>:
 930:	b0000080 	adrp	x0, 11000 <__data_start>
 934:	91004000 	add	x0, x0, #0x10
 938:	b0000081 	adrp	x1, 11000 <__data_start>
 93c:	91004021 	add	x1, x1, #0x10
 940:	eb00003f 	cmp	x1, x0
 944:	540000a0 	b.eq	958 <deregister_tm_clones+0x28>  // b.none
 948:	90000081 	adrp	x1, 10000 <__FRAME_END__+0xf3cc>
 94c:	f947f021 	ldr	x1, [x1, #4064]
 950:	b4000041 	cbz	x1, 958 <deregister_tm_clones+0x28>
 954:	d61f0020 	br	x1
 958:	d65f03c0 	ret
 95c:	d503201f 	nop

0000000000000960 <register_tm_clones>:
 960:	b0000080 	adrp	x0, 11000 <__data_start>
 964:	91004000 	add	x0, x0, #0x10
 968:	b0000081 	adrp	x1, 11000 <__data_start>
 96c:	91004021 	add	x1, x1, #0x10
 970:	cb000021 	sub	x1, x1, x0
 974:	9343fc21 	asr	x1, x1, #3
 978:	8b41fc21 	add	x1, x1, x1, lsr #63
 97c:	9341fc21 	asr	x1, x1, #1
 980:	b40000a1 	cbz	x1, 994 <register_tm_clones+0x34>
 984:	90000082 	adrp	x2, 10000 <__FRAME_END__+0xf3cc>
 988:	f947f442 	ldr	x2, [x2, #4072]
 98c:	b4000042 	cbz	x2, 994 <register_tm_clones+0x34>
 990:	d61f0040 	br	x2
 994:	d65f03c0 	ret

0000000000000998 <__do_global_dtors_aux>:
 998:	a9be7bfd 	stp	x29, x30, [sp, #-32]!
 99c:	910003fd 	mov	x29, sp
 9a0:	f9000bf3 	str	x19, [sp, #16]
 9a4:	b0000093 	adrp	x19, 11000 <__data_start>
 9a8:	39404260 	ldrb	w0, [x19, #16]
 9ac:	35000140 	cbnz	w0, 9d4 <__do_global_dtors_aux+0x3c>
 9b0:	90000080 	adrp	x0, 10000 <__FRAME_END__+0xf3cc>
 9b4:	f947ec00 	ldr	x0, [x0, #4056]
 9b8:	b4000080 	cbz	x0, 9c8 <__do_global_dtors_aux+0x30>
 9bc:	b0000080 	adrp	x0, 11000 <__data_start>
 9c0:	f9400400 	ldr	x0, [x0, #8]
 9c4:	97ffffa7 	bl	860 <__cxa_finalize@plt>
 9c8:	97ffffda 	bl	930 <deregister_tm_clones>
 9cc:	52800020 	mov	w0, #0x1                   	// #1
 9d0:	39004260 	strb	w0, [x19, #16]
 9d4:	f9400bf3 	ldr	x19, [sp, #16]
 9d8:	a8c27bfd 	ldp	x29, x30, [sp], #32
 9dc:	d65f03c0 	ret

00000000000009e0 <frame_dummy>:
 9e0:	17ffffe0 	b	960 <register_tm_clones>

00000000000009e4 <MAIN__>:
program if_then
 9e4:	d10803ff 	sub	sp, sp, #0x200
 9e8:	a9007bfd 	stp	x29, x30, [sp]
 9ec:	910003fd 	mov	x29, sp
      implicit none

      integer                   ::      num1
      integer, parameter        ::      num2 = 5

      print *, "Enter a number between 1 and 10 -> "
 9f0:	90000000 	adrp	x0, 0 <_init-0x7e8>
 9f4:	912f0000 	add	x0, x0, #0xbc0
 9f8:	f90013a0 	str	x0, [x29, #32]
 9fc:	52800100 	mov	w0, #0x8                   	// #8
 a00:	b9002ba0 	str	w0, [x29, #40]
 a04:	52801000 	mov	w0, #0x80                  	// #128
 a08:	b9001ba0 	str	w0, [x29, #24]
 a0c:	528000c0 	mov	w0, #0x6                   	// #6
 a10:	b9001fa0 	str	w0, [x29, #28]
 a14:	910063a0 	add	x0, x29, #0x18
 a18:	97ffff8e 	bl	850 <_gfortran_st_write@plt>
 a1c:	90000000 	adrp	x0, 0 <_init-0x7e8>
 a20:	912f4001 	add	x1, x0, #0xbd0
 a24:	910063a0 	add	x0, x29, #0x18
 a28:	52800462 	mov	w2, #0x23                  	// #35
 a2c:	97ffffa1 	bl	8b0 <_gfortran_transfer_character_write@plt>
 a30:	910063a0 	add	x0, x29, #0x18
 a34:	97ffff93 	bl	880 <_gfortran_st_write_done@plt>
      read *, num1
 a38:	90000000 	adrp	x0, 0 <_init-0x7e8>
 a3c:	912f0000 	add	x0, x0, #0xbc0
 a40:	f90013a0 	str	x0, [x29, #32]
 a44:	52800120 	mov	w0, #0x9                   	// #9
 a48:	b9002ba0 	str	w0, [x29, #40]
 a4c:	52801000 	mov	w0, #0x80                  	// #128
 a50:	b9001ba0 	str	w0, [x29, #24]
 a54:	528000a0 	mov	w0, #0x5                   	// #5
 a58:	b9001fa0 	str	w0, [x29, #28]
 a5c:	910063a0 	add	x0, x29, #0x18
 a60:	97ffff98 	bl	8c0 <_gfortran_st_read@plt>
 a64:	9107f3a1 	add	x1, x29, #0x1fc
 a68:	910063a0 	add	x0, x29, #0x18
 a6c:	52800082 	mov	w2, #0x4                   	// #4
 a70:	97ffff8c 	bl	8a0 <_gfortran_transfer_integer@plt>
 a74:	910063a0 	add	x0, x29, #0x18
 a78:	97ffff96 	bl	8d0 <_gfortran_st_read_done@plt>

      if (num1 > num2) then
 a7c:	b941ffa0 	ldr	w0, [x29, #508]
 a80:	7100141f 	cmp	w0, #0x5
 a84:	5400026d 	b.le	ad0 <MAIN__+0xec>
              print *, "Number entered greater than 5!"
 a88:	90000000 	adrp	x0, 0 <_init-0x7e8>
 a8c:	912f0000 	add	x0, x0, #0xbc0
 a90:	f90013a0 	str	x0, [x29, #32]
 a94:	52800180 	mov	w0, #0xc                   	// #12
 a98:	b9002ba0 	str	w0, [x29, #40]
 a9c:	52801000 	mov	w0, #0x80                  	// #128
 aa0:	b9001ba0 	str	w0, [x29, #24]
 aa4:	528000c0 	mov	w0, #0x6                   	// #6
 aa8:	b9001fa0 	str	w0, [x29, #28]
 aac:	910063a0 	add	x0, x29, #0x18
 ab0:	97ffff68 	bl	850 <_gfortran_st_write@plt>
 ab4:	90000000 	adrp	x0, 0 <_init-0x7e8>
 ab8:	912fe001 	add	x1, x0, #0xbf8
 abc:	910063a0 	add	x0, x29, #0x18
 ac0:	528003c2 	mov	w2, #0x1e                  	// #30
 ac4:	97ffff7b 	bl	8b0 <_gfortran_transfer_character_write@plt>
 ac8:	910063a0 	add	x0, x29, #0x18
 acc:	97ffff6d 	bl	880 <_gfortran_st_write_done@plt>
      end if

end program if_then
 ad0:	d503201f 	nop
 ad4:	a9407bfd 	ldp	x29, x30, [sp]
 ad8:	910803ff 	add	sp, sp, #0x200
 adc:	d65f03c0 	ret

0000000000000ae0 <main>:
 ae0:	a9be7bfd 	stp	x29, x30, [sp, #-32]!
 ae4:	910003fd 	mov	x29, sp
 ae8:	b9001fa0 	str	w0, [x29, #28]
 aec:	f9000ba1 	str	x1, [x29, #16]
 af0:	f9400ba1 	ldr	x1, [x29, #16]
 af4:	b9401fa0 	ldr	w0, [x29, #28]
 af8:	97ffff4a 	bl	820 <_gfortran_set_args@plt>
 afc:	90000000 	adrp	x0, 0 <_init-0x7e8>
 b00:	91306000 	add	x0, x0, #0xc18
 b04:	aa0003e1 	mov	x1, x0
 b08:	528000e0 	mov	w0, #0x7                   	// #7
 b0c:	97ffff61 	bl	890 <_gfortran_set_options@plt>
 b10:	97ffffb5 	bl	9e4 <MAIN__>
 b14:	52800000 	mov	w0, #0x0                   	// #0
 b18:	a8c27bfd 	ldp	x29, x30, [sp], #32
 b1c:	d65f03c0 	ret

0000000000000b20 <__libc_csu_init>:
 b20:	a9bc7bfd 	stp	x29, x30, [sp, #-64]!
 b24:	910003fd 	mov	x29, sp
 b28:	a901d7f4 	stp	x20, x21, [sp, #24]
 b2c:	90000094 	adrp	x20, 10000 <__FRAME_END__+0xf3cc>
 b30:	90000095 	adrp	x21, 10000 <__FRAME_END__+0xf3cc>
 b34:	91350294 	add	x20, x20, #0xd40
 b38:	9134e2b5 	add	x21, x21, #0xd38
 b3c:	a902dff6 	stp	x22, x23, [sp, #40]
 b40:	cb150294 	sub	x20, x20, x21
 b44:	f9001ff8 	str	x24, [sp, #56]
 b48:	2a0003f6 	mov	w22, w0
 b4c:	aa0103f7 	mov	x23, x1
 b50:	9343fe94 	asr	x20, x20, #3
 b54:	aa0203f8 	mov	x24, x2
 b58:	97ffff24 	bl	7e8 <_init>
 b5c:	b4000194 	cbz	x20, b8c <__libc_csu_init+0x6c>
 b60:	f9000bb3 	str	x19, [x29, #16]
 b64:	d2800013 	mov	x19, #0x0                   	// #0
 b68:	f8737aa3 	ldr	x3, [x21, x19, lsl #3]
 b6c:	aa1803e2 	mov	x2, x24
 b70:	aa1703e1 	mov	x1, x23
 b74:	2a1603e0 	mov	w0, w22
 b78:	91000673 	add	x19, x19, #0x1
 b7c:	d63f0060 	blr	x3
 b80:	eb13029f 	cmp	x20, x19
 b84:	54ffff21 	b.ne	b68 <__libc_csu_init+0x48>  // b.any
 b88:	f9400bb3 	ldr	x19, [x29, #16]
 b8c:	a941d7f4 	ldp	x20, x21, [sp, #24]
 b90:	a942dff6 	ldp	x22, x23, [sp, #40]
 b94:	f9401ff8 	ldr	x24, [sp, #56]
 b98:	a8c47bfd 	ldp	x29, x30, [sp], #64
 b9c:	d65f03c0 	ret

0000000000000ba0 <__libc_csu_fini>:
 ba0:	d65f03c0 	ret

Disassembly of section .fini:

0000000000000ba4 <_fini>:
 ba4:	a9bf7bfd 	stp	x29, x30, [sp, #-16]!
 ba8:	910003fd 	mov	x29, sp
 bac:	a8c17bfd 	ldp	x29, x30, [sp], #16
 bb0:	d65f03c0 	ret
