
if_then.o:     file format elf64-littleaarch64
if_then.o
architecture: aarch64, flags 0x00000011:
HAS_RELOC, HAS_SYMS
start address 0x0000000000000000
private flags = 0:

Sections:
Idx Name          Size      VMA               LMA               File off  Algn
  0 .text         0000013c  0000000000000000  0000000000000000  00000040  2**2
                  CONTENTS, ALLOC, LOAD, RELOC, READONLY, CODE
  1 .data         00000000  0000000000000000  0000000000000000  0000017c  2**0
                  CONTENTS, ALLOC, LOAD, DATA
  2 .bss          00000000  0000000000000000  0000000000000000  0000017c  2**0
                  ALLOC
  3 .rodata       00000074  0000000000000000  0000000000000000  00000180  2**3
                  CONTENTS, ALLOC, LOAD, READONLY, DATA
  4 .debug_info   000000f7  0000000000000000  0000000000000000  000001f4  2**0
                  CONTENTS, RELOC, READONLY, DEBUGGING
  5 .debug_abbrev 0000009c  0000000000000000  0000000000000000  000002eb  2**0
                  CONTENTS, READONLY, DEBUGGING
  6 .debug_aranges 00000030  0000000000000000  0000000000000000  00000387  2**0
                  CONTENTS, RELOC, READONLY, DEBUGGING
  7 .debug_macro  0000000c  0000000000000000  0000000000000000  000003b7  2**0
                  CONTENTS, RELOC, READONLY, DEBUGGING
  8 .debug_line   00000047  0000000000000000  0000000000000000  000003c3  2**0
                  CONTENTS, RELOC, READONLY, DEBUGGING
  9 .debug_str    0000013d  0000000000000000  0000000000000000  0000040a  2**0
                  CONTENTS, READONLY, DEBUGGING
 10 .comment      00000032  0000000000000000  0000000000000000  00000547  2**0
                  CONTENTS, READONLY
 11 .note.GNU-stack 00000000  0000000000000000  0000000000000000  00000579  2**0
                  CONTENTS, READONLY
 12 .debug_frame  00000068  0000000000000000  0000000000000000  00000580  2**3
                  CONTENTS, RELOC, READONLY, DEBUGGING
SYMBOL TABLE:
0000000000000000 l    df *ABS*	0000000000000000 if_then.f08
0000000000000000 l    d  .text	0000000000000000 .text
0000000000000000 l    d  .data	0000000000000000 .data
0000000000000000 l    d  .bss	0000000000000000 .bss
0000000000000000 l    d  .rodata	0000000000000000 .rodata
0000000000000000 l     F .text	00000000000000fc MAIN__
0000000000000058 l     O .rodata	000000000000001c options.3.2564
0000000000000000 l    d  .debug_info	0000000000000000 .debug_info
0000000000000000 l    d  .debug_abbrev	0000000000000000 .debug_abbrev
0000000000000000 l    d  .debug_aranges	0000000000000000 .debug_aranges
0000000000000000 l    d  .debug_macro	0000000000000000 .debug_macro
0000000000000000 l    d  .debug_line	0000000000000000 .debug_line
0000000000000000 l    d  .debug_str	0000000000000000 .debug_str
0000000000000000 l    d  .note.GNU-stack	0000000000000000 .note.GNU-stack
0000000000000000 l    d  .debug_frame	0000000000000000 .debug_frame
0000000000000000 l    d  .comment	0000000000000000 .comment
0000000000000000         *UND*	0000000000000000 _gfortran_st_write
0000000000000000         *UND*	0000000000000000 _gfortran_transfer_character_write
0000000000000000         *UND*	0000000000000000 _gfortran_st_write_done
0000000000000000         *UND*	0000000000000000 _gfortran_st_read
0000000000000000         *UND*	0000000000000000 _gfortran_transfer_integer
0000000000000000         *UND*	0000000000000000 _gfortran_st_read_done
00000000000000fc g     F .text	0000000000000040 main
0000000000000000         *UND*	0000000000000000 _gfortran_set_args
0000000000000000         *UND*	0000000000000000 _gfortran_set_options


Contents of section .text:
 0000 ff0308d1 fd7b00a9 fd030091 00000090  .....{..........
 0010 00000091 a01300f9 00018052 a02b00b9  ...........R.+..
 0020 00108052 a01b00b9 c0008052 a01f00b9  ...R.......R....
 0030 a0630091 00000094 00000090 01000091  .c..............
 0040 a0630091 62048052 00000094 a0630091  .c..b..R.....c..
 0050 00000094 00000090 00000091 a01300f9  ................
 0060 20018052 a02b00b9 00108052 a01b00b9   ..R.+.....R....
 0070 a0008052 a01f00b9 a0630091 00000094  ...R.....c......
 0080 a1f30791 a0630091 82008052 00000094  .....c.....R....
 0090 a0630091 00000094 a0ff41b9 1f140071  .c........A....q
 00a0 6d020054 00000090 00000091 a01300f9  m..T............
 00b0 80018052 a02b00b9 00108052 a01b00b9  ...R.+.....R....
 00c0 c0008052 a01f00b9 a0630091 00000094  ...R.....c......
 00d0 00000090 01000091 a0630091 c2038052  .........c.....R
 00e0 00000094 a0630091 00000094 1f2003d5  .....c....... ..
 00f0 fd7b40a9 ff030891 c0035fd6 fd7bbea9  .{@......._..{..
 0100 fd030091 a01f00b9 a10b00f9 a10b40f9  ..............@.
 0110 a01f40b9 00000094 00000090 00000091  ..@.............
 0120 e10300aa e0008052 00000094 b5ffff97  .......R........
 0130 00008052 fd7bc2a8 c0035fd6           ...R.{...._.    
Contents of section .rodata:
 0000 69665f74 68656e2e 66303800 00000000  if_then.f08.....
 0010 456e7465 72206120 6e756d62 65722062  Enter a number b
 0020 65747765 656e2031 20616e64 20313020  etween 1 and 10 
 0030 2d3e2000 00000000 4e756d62 65722065  -> .....Number e
 0040 6e746572 65642067 72656174 65722074  ntered greater t
 0050 68616e20 35210000 44000000 ff030000  han 5!..D.......
 0060 00000000 01000000 01000000 00000000  ................
 0070 1f000000                             ....            
Contents of section .debug_info:
 0000 f3000000 04000000 00000801 00000000  ................
 0010 0e020000 00000000 00000000 00000000  ................
 0020 00003c01 00000000 00000000 00000000  ..<.............
 0030 00000204 05000000 00033200 00000400  ..........2.....
 0040 00000001 0f320000 00000000 00000000  .....2..........
 0050 00400000 00000000 00019c7d 00000005  .@.........}....
 0060 00000000 010f3900 00000291 7c050000  ......9.....|...
 0070 0000010f 7d000000 03917006 00060883  ....}.....p.....
 0080 00000002 01080000 00000700 00000001  ................
 0090 01020000 00000000 0000fc00 00000000  ................
 00a0 0000019c 08000000 00010532 00000002  ...........2....
 00b0 917c0900 00000000 00000048 00000000  .|.........H....
 00c0 00000009 00000000 00000000 44000000  ............D...
 00d0 00000000 09000000 00000000 00480000  .............H..
 00e0 00000000 000a0000 00000106 39000000  ............9...
 00f0 04050000 000000                      .......         
Contents of section .debug_abbrev:
 0000 01110125 0e130b42 0b030e1b 0e110112  ...%...B........
 0010 07101799 42170000 0224000b 0b3e0b03  ....B....$...>..
 0020 0e000003 26004913 0000042e 013f1903  ....&.I......?..
 0030 0e3a0b3b 0b491311 01120740 18964219  .:.;.I.....@..B.
 0040 01130000 05050003 0e3a0b3b 0b491302  .........:.;.I..
 0050 18000006 0f000b0b 49130000 072e0103  ........I.......
 0060 0e3a0b3b 0b6a1936 0b110112 07401896  .:.;.j.6.....@..
 0070 42190000 08340003 0e3a0b3b 0b491302  B....4...:.;.I..
 0080 18000009 0b001101 12070000 0a270003  .............'..
 0090 0e3a0b3b 0b49131c 0a000000           .:.;.I......    
Contents of section .debug_aranges:
 0000 2c000000 02000000 00000800 00000000  ,...............
 0010 00000000 00000000 3c010000 00000000  ........<.......
 0020 00000000 00000000 00000000 00000000  ................
Contents of section .debug_macro:
 0000 04000200 00000003 00010400           ............    
Contents of section .debug_line:
 0000 43000000 02002200 00000401 fb0e0d00  C.....".........
 0010 01010101 00000001 00000100 69665f74  ............if_t
 0020 68656e2e 66303800 00000000 00090200  hen.f08.........
 0030 00000000 00000001 43082108 143d0823  ........C.!..=.#
 0040 4a4a020c 000101                      JJ.....         
Contents of section .debug_str:
 0000 2f686f6d 652f7562 756e7475 2f456e67  /home/ubuntu/Eng
 0010 696e6565 72696e67 2f474954 4855422f  ineering/GITHUB/
 0020 44697361 7373656d 626c696e 672d4269  Disassembling-Bi
 0030 6e617269 65732f46 6f727472 616e2f41  naries/Fortran/A
 0040 524d5f61 72636869 74656374 7572652f  RM_architecture/
 0050 41524d36 342f436f 6e646974 696f6e61  ARM64/Conditiona
 0060 6c732f57 6974685f 44656275 675f496e  ls/With_Debug_In
 0070 666f0069 665f7468 656e0069 665f7468  fo.if_then.if_th
 0080 656e2e66 30380063 68617261 63746572  en.f08.character
 0090 286b696e 643d3129 00617267 63006d61  (kind=1).argc.ma
 00a0 696e006e 756d3100 6e756d32 00696e74  in.num1.num2.int
 00b0 65676572 286b696e 643d3429 00474e55  eger(kind=4).GNU
 00c0 20466f72 7472616e 32303038 20372e33   Fortran2008 7.3
 00d0 2e30202d 6d6c6974 746c652d 656e6469  .0 -mlittle-endi
 00e0 616e202d 6d616269 3d6c7036 34202d67  an -mabi=lp64 -g
 00f0 67646233 202d6669 6e747269 6e736963  gdb3 -fintrinsic
 0100 2d6d6f64 756c6573 2d706174 68202f75  -modules-path /u
 0110 73722f6c 69622f67 63632f61 61726368  sr/lib/gcc/aarch
 0120 36342d6c 696e7578 2d676e75 2f372f66  64-linux-gnu/7/f
 0130 696e636c 75646500 61726776 00        include.argv.   
Contents of section .comment:
 0000 00474343 3a202855 62756e74 752f4c69  .GCC: (Ubuntu/Li
 0010 6e61726f 20372e33 2e302d32 37756275  naro 7.3.0-27ubu
 0020 6e747531 7e31382e 30342920 372e332e  ntu1~18.04) 7.3.
 0030 3000                                 0.              
Contents of section .debug_frame:
 0000 0c000000 ffffffff 01000478 1e0c1f00  ...........x....
 0010 2c000000 00000000 00000000 00000000  ,...............
 0020 fc000000 00000000 410e8004 419d409e  ........A...A.@.
 0030 3f410d1d 7bddde0c 1f000000 00000000  ?A..{...........
 0040 24000000 00000000 00000000 00000000  $...............
 0050 40000000 00000000 410e209d 049e0341  @.......A. ....A
 0060 0d1d4dde dd0c1f00                    ..M.....        

Disassembly of section .text:

0000000000000000 <MAIN__>:
program if_then
   0:	d10803ff 	sub	sp, sp, #0x200
   4:	a9007bfd 	stp	x29, x30, [sp]
   8:	910003fd 	mov	x29, sp
      implicit none

      integer                   ::      num1
      integer, parameter        ::      num2 = 5

      print *, "Enter a number between 1 and 10 -> "
   c:	90000000 	adrp	x0, 0 <MAIN__>
			c: R_AARCH64_ADR_PREL_PG_HI21	.rodata
  10:	91000000 	add	x0, x0, #0x0
			10: R_AARCH64_ADD_ABS_LO12_NC	.rodata
  14:	f90013a0 	str	x0, [x29, #32]
  18:	52800100 	mov	w0, #0x8                   	// #8
  1c:	b9002ba0 	str	w0, [x29, #40]
  20:	52801000 	mov	w0, #0x80                  	// #128
  24:	b9001ba0 	str	w0, [x29, #24]
  28:	528000c0 	mov	w0, #0x6                   	// #6
  2c:	b9001fa0 	str	w0, [x29, #28]
  30:	910063a0 	add	x0, x29, #0x18
  34:	94000000 	bl	0 <_gfortran_st_write>
			34: R_AARCH64_CALL26	_gfortran_st_write
  38:	90000000 	adrp	x0, 0 <MAIN__>
			38: R_AARCH64_ADR_PREL_PG_HI21	.rodata+0x10
  3c:	91000001 	add	x1, x0, #0x0
			3c: R_AARCH64_ADD_ABS_LO12_NC	.rodata+0x10
  40:	910063a0 	add	x0, x29, #0x18
  44:	52800462 	mov	w2, #0x23                  	// #35
  48:	94000000 	bl	0 <_gfortran_transfer_character_write>
			48: R_AARCH64_CALL26	_gfortran_transfer_character_write
  4c:	910063a0 	add	x0, x29, #0x18
  50:	94000000 	bl	0 <_gfortran_st_write_done>
			50: R_AARCH64_CALL26	_gfortran_st_write_done
      read *, num1
  54:	90000000 	adrp	x0, 0 <MAIN__>
			54: R_AARCH64_ADR_PREL_PG_HI21	.rodata
  58:	91000000 	add	x0, x0, #0x0
			58: R_AARCH64_ADD_ABS_LO12_NC	.rodata
  5c:	f90013a0 	str	x0, [x29, #32]
  60:	52800120 	mov	w0, #0x9                   	// #9
  64:	b9002ba0 	str	w0, [x29, #40]
  68:	52801000 	mov	w0, #0x80                  	// #128
  6c:	b9001ba0 	str	w0, [x29, #24]
  70:	528000a0 	mov	w0, #0x5                   	// #5
  74:	b9001fa0 	str	w0, [x29, #28]
  78:	910063a0 	add	x0, x29, #0x18
  7c:	94000000 	bl	0 <_gfortran_st_read>
			7c: R_AARCH64_CALL26	_gfortran_st_read
  80:	9107f3a1 	add	x1, x29, #0x1fc
  84:	910063a0 	add	x0, x29, #0x18
  88:	52800082 	mov	w2, #0x4                   	// #4
  8c:	94000000 	bl	0 <_gfortran_transfer_integer>
			8c: R_AARCH64_CALL26	_gfortran_transfer_integer
  90:	910063a0 	add	x0, x29, #0x18
  94:	94000000 	bl	0 <_gfortran_st_read_done>
			94: R_AARCH64_CALL26	_gfortran_st_read_done

      if (num1 > num2) then
  98:	b941ffa0 	ldr	w0, [x29, #508]
  9c:	7100141f 	cmp	w0, #0x5
  a0:	5400026d 	b.le	ec <MAIN__+0xec>
              print *, "Number entered greater than 5!"
  a4:	90000000 	adrp	x0, 0 <MAIN__>
			a4: R_AARCH64_ADR_PREL_PG_HI21	.rodata
  a8:	91000000 	add	x0, x0, #0x0
			a8: R_AARCH64_ADD_ABS_LO12_NC	.rodata
  ac:	f90013a0 	str	x0, [x29, #32]
  b0:	52800180 	mov	w0, #0xc                   	// #12
  b4:	b9002ba0 	str	w0, [x29, #40]
  b8:	52801000 	mov	w0, #0x80                  	// #128
  bc:	b9001ba0 	str	w0, [x29, #24]
  c0:	528000c0 	mov	w0, #0x6                   	// #6
  c4:	b9001fa0 	str	w0, [x29, #28]
  c8:	910063a0 	add	x0, x29, #0x18
  cc:	94000000 	bl	0 <_gfortran_st_write>
			cc: R_AARCH64_CALL26	_gfortran_st_write
  d0:	90000000 	adrp	x0, 0 <MAIN__>
			d0: R_AARCH64_ADR_PREL_PG_HI21	.rodata+0x38
  d4:	91000001 	add	x1, x0, #0x0
			d4: R_AARCH64_ADD_ABS_LO12_NC	.rodata+0x38
  d8:	910063a0 	add	x0, x29, #0x18
  dc:	528003c2 	mov	w2, #0x1e                  	// #30
  e0:	94000000 	bl	0 <_gfortran_transfer_character_write>
			e0: R_AARCH64_CALL26	_gfortran_transfer_character_write
  e4:	910063a0 	add	x0, x29, #0x18
  e8:	94000000 	bl	0 <_gfortran_st_write_done>
			e8: R_AARCH64_CALL26	_gfortran_st_write_done
      end if

end program if_then
  ec:	d503201f 	nop
  f0:	a9407bfd 	ldp	x29, x30, [sp]
  f4:	910803ff 	add	sp, sp, #0x200
  f8:	d65f03c0 	ret

00000000000000fc <main>:
  fc:	a9be7bfd 	stp	x29, x30, [sp, #-32]!
 100:	910003fd 	mov	x29, sp
 104:	b9001fa0 	str	w0, [x29, #28]
 108:	f9000ba1 	str	x1, [x29, #16]
 10c:	f9400ba1 	ldr	x1, [x29, #16]
 110:	b9401fa0 	ldr	w0, [x29, #28]
 114:	94000000 	bl	0 <_gfortran_set_args>
			114: R_AARCH64_CALL26	_gfortran_set_args
 118:	90000000 	adrp	x0, 0 <MAIN__>
			118: R_AARCH64_ADR_PREL_PG_HI21	.rodata+0x58
 11c:	91000000 	add	x0, x0, #0x0
			11c: R_AARCH64_ADD_ABS_LO12_NC	.rodata+0x58
 120:	aa0003e1 	mov	x1, x0
 124:	528000e0 	mov	w0, #0x7                   	// #7
 128:	94000000 	bl	0 <_gfortran_set_options>
			128: R_AARCH64_CALL26	_gfortran_set_options
 12c:	97ffffb5 	bl	0 <MAIN__>
 130:	52800000 	mov	w0, #0x0                   	// #0
 134:	a8c27bfd 	ldp	x29, x30, [sp], #32
 138:	d65f03c0 	ret
