
add_int_Pascal_AMD64:     file format elf64-x86-64

Sections:
Idx Name          Size      VMA               LMA               File off  Algn
  0 .note.ABI-tag 00000020  0000000000400120  0000000000400120  00000120  2**2
                  CONTENTS, ALLOC, LOAD, READONLY, DATA
  1 .text         00022b10  0000000000400140  0000000000400140  00000140  2**4
                  CONTENTS, ALLOC, LOAD, READONLY, CODE
  2 .rodata       00000570  0000000000422c50  0000000000422c50  00022c50  2**4
                  CONTENTS, ALLOC, LOAD, READONLY, DATA
  3 .got.plt      00000018  00000000006231c0  00000000006231c0  000231c0  2**3
                  CONTENTS, ALLOC, LOAD, DATA
  4 .data         00007cb0  00000000006231e0  00000000006231e0  000231e0  2**4
                  CONTENTS, ALLOC, LOAD, DATA
  5 .bss          00002440  000000000062ae90  000000000062ae90  0002ae90  2**4
                  ALLOC
  6 .debug_info   00000133  0000000000000000  0000000000000000  0002ae90  2**0
                  CONTENTS, READONLY, DEBUGGING
  7 .debug_abbrev 0000004d  0000000000000000  0000000000000000  0002afc3  2**0
                  CONTENTS, READONLY, DEBUGGING
  8 .debug_line   00000055  0000000000000000  0000000000000000  0002b010  2**0
                  CONTENTS, READONLY, DEBUGGING
  9 .debug_frame  0000a8a0  0000000000000000  0000000000000000  0002b068  2**3
                  CONTENTS, READONLY, DEBUGGING

Disassembly of section .text:

0000000000400140 <_dynamic_start>:
  400140:	48 8d 05 71 d1 22 00 	lea    0x22d171(%rip),%rax        # 62d2b8 <__dl_fini>
  400147:	48 89 10             	mov    %rdx,(%rax)
  40014a:	eb 00                	jmp    40014c <_start>

000000000040014c <_start>:
  40014c:	5e                   	pop    %rsi
  40014d:	48 8d 05 6c d1 22 00 	lea    0x22d16c(%rip),%rax        # 62d2c0 <operatingsystem_parameter_argc>
  400154:	48 89 30             	mov    %rsi,(%rax)
  400157:	48 8d 05 6a d1 22 00 	lea    0x22d16a(%rip),%rax        # 62d2c8 <operatingsystem_parameter_argv>
  40015e:	48 89 20             	mov    %rsp,(%rax)
  400161:	48 8d 04 f5 08 00 00 	lea    0x8(,%rsi,8),%rax
  400168:	00 
  400169:	48 01 e0             	add    %rsp,%rax
  40016c:	48 8d 0d 35 d1 22 00 	lea    0x22d135(%rip),%rcx        # 62d2a8 <operatingsystem_parameter_envp>
  400173:	48 89 01             	mov    %rax,(%rcx)
  400176:	48 83 e4 f0          	and    $0xfffffffffffffff0,%rsp
  40017a:	48 8d 05 2f d1 22 00 	lea    0x22d12f(%rip),%rax        # 62d2b0 <__stkptr>
  400181:	48 89 20             	mov    %rsp,(%rax)
  400184:	48 31 ed             	xor    %rbp,%rbp
  400187:	e8 34 00 00 00       	callq  4001c0 <PASCALMAIN>
  40018c:	eb 00                	jmp    40018e <_haltproc>

000000000040018e <_haltproc>:
  40018e:	48 8d 05 23 d1 22 00 	lea    0x22d123(%rip),%rax        # 62d2b8 <__dl_fini>
  400195:	48 8b 00             	mov    (%rax),%rax
  400198:	48 85 c0             	test   %rax,%rax
  40019b:	74 02                	je     40019f <_haltproc+0x11>
  40019d:	ff d0                	callq  *%rax
  40019f:	48 8d 05 fa ac 22 00 	lea    0x22acfa(%rip),%rax        # 62aea0 <operatingsystem_result>
  4001a6:	0f b7 38             	movzwl (%rax),%edi
  4001a9:	b8 e7 00 00 00       	mov    $0xe7,%eax
  4001ae:	0f 05                	syscall 
  4001b0:	eb dc                	jmp    40018e <_haltproc>

00000000004001b2 <DEBUGSTART_$P$ADD>:
  4001b2:	90                   	nop
  4001b3:	90                   	nop
  4001b4:	90                   	nop
  4001b5:	90                   	nop
  4001b6:	90                   	nop
  4001b7:	90                   	nop
  4001b8:	90                   	nop
  4001b9:	90                   	nop
  4001ba:	90                   	nop
  4001bb:	90                   	nop
  4001bc:	90                   	nop
  4001bd:	90                   	nop
  4001be:	90                   	nop
  4001bf:	90                   	nop

00000000004001c0 <PASCALMAIN>:
PROGRAM add;

VAR
	a, b, c : INTEGER;

BEGIN
  4001c0:	55                   	push   %rbp
  4001c1:	48 89 e5             	mov    %rsp,%rbp
  4001c4:	e8 37 66 01 00       	callq  416800 <FPC_INITIALIZEUNITS>

	a := 3;
  4001c9:	66 c7 04 25 90 ae 62 	movw   $0x3,0x62ae90
  4001d0:	00 03 00 
	b := 5;
  4001d3:	66 c7 04 25 92 ae 62 	movw   $0x5,0x62ae92
  4001da:	00 05 00 
	c := a + b;
  4001dd:	0f bf 14 25 90 ae 62 	movswl 0x62ae90,%edx
  4001e4:	00 
  4001e5:	0f bf 04 25 92 ae 62 	movswl 0x62ae92,%eax
  4001ec:	00 
  4001ed:	67 8d 04 02          	lea    (%edx,%eax,1),%eax
  4001f1:	66 89 04 25 94 ae 62 	mov    %ax,0x62ae94
  4001f8:	00 
END.
  4001f9:	e8 a2 6a 01 00       	callq  416ca0 <FPC_DO_EXIT>
  4001fe:	c9                   	leaveq 
  4001ff:	c3                   	retq   

0000000000400200 <FPC_SYS_GETERRNO>:
  400200:	48 8d 64 24 f8       	lea    -0x8(%rsp),%rsp
  400205:	48 8d 05 d4 ce 22 00 	lea    0x22ced4(%rip),%rax        # 62d0e0 <FPC_THREADVAR_RELOCATE>
  40020c:	48 8b 00             	mov    (%rax),%rax
  40020f:	48 85 c0             	test   %rax,%rax
  400212:	74 0a                	je     40021e <FPC_SYS_GETERRNO+0x1e>
  400214:	8b 3d f6 bf 22 00    	mov    0x22bff6(%rip),%edi        # 62c210 <U_$SYSTEM_$$_ERRNO>
  40021a:	ff d0                	callq  *%rax
  40021c:	eb 07                	jmp    400225 <FPC_SYS_GETERRNO+0x25>
  40021e:	48 8d 05 f3 bf 22 00 	lea    0x22bff3(%rip),%rax        # 62c218 <U_$SYSTEM_$$_ERRNO+0x8>
  400225:	8b 00                	mov    (%rax),%eax
  400227:	48 8d 64 24 08       	lea    0x8(%rsp),%rsp
  40022c:	c3                   	retq   
  40022d:	00 00                	add    %al,(%rax)
	...

0000000000400230 <FPC_SYS_SETERRNO>:
  400230:	53                   	push   %rbx
  400231:	89 fb                	mov    %edi,%ebx
  400233:	48 8d 05 a6 ce 22 00 	lea    0x22cea6(%rip),%rax        # 62d0e0 <FPC_THREADVAR_RELOCATE>
  40023a:	48 8b 00             	mov    (%rax),%rax
  40023d:	48 85 c0             	test   %rax,%rax
  400240:	74 0a                	je     40024c <FPC_SYS_SETERRNO+0x1c>
  400242:	8b 3d c8 bf 22 00    	mov    0x22bfc8(%rip),%edi        # 62c210 <U_$SYSTEM_$$_ERRNO>
  400248:	ff d0                	callq  *%rax
  40024a:	eb 07                	jmp    400253 <FPC_SYS_SETERRNO+0x23>
  40024c:	48 8d 05 c5 bf 22 00 	lea    0x22bfc5(%rip),%rax        # 62c218 <U_$SYSTEM_$$_ERRNO+0x8>
  400253:	89 da                	mov    %ebx,%edx
  400255:	89 10                	mov    %edx,(%rax)
  400257:	5b                   	pop    %rbx
  400258:	c3                   	retq   
  400259:	00 00                	add    %al,(%rax)
  40025b:	00 00                	add    %al,(%rax)
  40025d:	00 00                	add    %al,(%rax)
	...

0000000000400260 <FPC_SYSCALL0>:
  400260:	55                   	push   %rbp
  400261:	48 89 e5             	mov    %rsp,%rbp
  400264:	48 8d 64 24 f0       	lea    -0x10(%rsp),%rsp
  400269:	48 89 f8             	mov    %rdi,%rax
  40026c:	0f 05                	syscall 
  40026e:	48 3d 01 f0 ff ff    	cmp    $0xfffffffffffff001,%rax
  400274:	72 15                	jb     40028b <FPC_SYSCALL0+0x2b>
  400276:	48 f7 d8             	neg    %rax
  400279:	48 89 c7             	mov    %rax,%rdi
  40027c:	e8 af ff ff ff       	callq  400230 <FPC_SYS_SETERRNO>
  400281:	48 b8 ff ff ff ff ff 	movabs $0xffffffffffffffff,%rax
  400288:	ff ff ff 
  40028b:	c9                   	leaveq 
  40028c:	c3                   	retq   
  40028d:	00 00                	add    %al,(%rax)
	...

0000000000400290 <FPC_SYSCALL1>:
  400290:	55                   	push   %rbp
  400291:	48 89 e5             	mov    %rsp,%rbp
  400294:	48 8d 64 24 f0       	lea    -0x10(%rsp),%rsp
  400299:	48 89 f8             	mov    %rdi,%rax
  40029c:	48 89 f7             	mov    %rsi,%rdi
  40029f:	0f 05                	syscall 
  4002a1:	48 3d 01 f0 ff ff    	cmp    $0xfffffffffffff001,%rax
  4002a7:	72 15                	jb     4002be <FPC_SYSCALL1+0x2e>
  4002a9:	48 f7 d8             	neg    %rax
  4002ac:	48 89 c7             	mov    %rax,%rdi
  4002af:	e8 7c ff ff ff       	callq  400230 <FPC_SYS_SETERRNO>
  4002b4:	48 b8 ff ff ff ff ff 	movabs $0xffffffffffffffff,%rax
  4002bb:	ff ff ff 
  4002be:	c9                   	leaveq 
  4002bf:	c3                   	retq   

00000000004002c0 <FPC_SYSCALL2>:
  4002c0:	55                   	push   %rbp
  4002c1:	48 89 e5             	mov    %rsp,%rbp
  4002c4:	48 8d 64 24 f0       	lea    -0x10(%rsp),%rsp
  4002c9:	48 89 f8             	mov    %rdi,%rax
  4002cc:	48 89 f7             	mov    %rsi,%rdi
  4002cf:	48 89 d6             	mov    %rdx,%rsi
  4002d2:	0f 05                	syscall 
  4002d4:	48 3d 01 f0 ff ff    	cmp    $0xfffffffffffff001,%rax
  4002da:	72 15                	jb     4002f1 <FPC_SYSCALL2+0x31>
  4002dc:	48 f7 d8             	neg    %rax
  4002df:	48 89 c7             	mov    %rax,%rdi
  4002e2:	e8 49 ff ff ff       	callq  400230 <FPC_SYS_SETERRNO>
  4002e7:	48 b8 ff ff ff ff ff 	movabs $0xffffffffffffffff,%rax
  4002ee:	ff ff ff 
  4002f1:	c9                   	leaveq 
  4002f2:	c3                   	retq   
	...

0000000000400300 <FPC_SYSCALL3>:
  400300:	55                   	push   %rbp
  400301:	48 89 e5             	mov    %rsp,%rbp
  400304:	48 8d 64 24 f0       	lea    -0x10(%rsp),%rsp
  400309:	48 89 f8             	mov    %rdi,%rax
  40030c:	48 89 f7             	mov    %rsi,%rdi
  40030f:	48 89 d6             	mov    %rdx,%rsi
  400312:	48 89 ca             	mov    %rcx,%rdx
  400315:	0f 05                	syscall 
  400317:	48 3d 01 f0 ff ff    	cmp    $0xfffffffffffff001,%rax
  40031d:	72 15                	jb     400334 <FPC_SYSCALL3+0x34>
  40031f:	48 f7 d8             	neg    %rax
  400322:	48 89 c7             	mov    %rax,%rdi
  400325:	e8 06 ff ff ff       	callq  400230 <FPC_SYS_SETERRNO>
  40032a:	48 b8 ff ff ff ff ff 	movabs $0xffffffffffffffff,%rax
  400331:	ff ff ff 
  400334:	c9                   	leaveq 
  400335:	c3                   	retq   
	...

0000000000400340 <FPC_SYSCALL4>:
  400340:	55                   	push   %rbp
  400341:	48 89 e5             	mov    %rsp,%rbp
  400344:	48 8d 64 24 f0       	lea    -0x10(%rsp),%rsp
  400349:	48 89 f8             	mov    %rdi,%rax
  40034c:	48 89 f7             	mov    %rsi,%rdi
  40034f:	48 89 d6             	mov    %rdx,%rsi
  400352:	48 89 ca             	mov    %rcx,%rdx
  400355:	4d 89 c2             	mov    %r8,%r10
  400358:	0f 05                	syscall 
  40035a:	48 3d 01 f0 ff ff    	cmp    $0xfffffffffffff001,%rax
  400360:	72 15                	jb     400377 <FPC_SYSCALL4+0x37>
  400362:	48 f7 d8             	neg    %rax
  400365:	48 89 c7             	mov    %rax,%rdi
  400368:	e8 c3 fe ff ff       	callq  400230 <FPC_SYS_SETERRNO>
  40036d:	48 b8 ff ff ff ff ff 	movabs $0xffffffffffffffff,%rax
  400374:	ff ff ff 
  400377:	c9                   	leaveq 
  400378:	c3                   	retq   
  400379:	00 00                	add    %al,(%rax)
  40037b:	00 00                	add    %al,(%rax)
  40037d:	00 00                	add    %al,(%rax)
	...

0000000000400380 <FPC_SYSCALL5>:
  400380:	55                   	push   %rbp
  400381:	48 89 e5             	mov    %rsp,%rbp
  400384:	48 8d 64 24 f0       	lea    -0x10(%rsp),%rsp
  400389:	48 89 f8             	mov    %rdi,%rax
  40038c:	48 89 f7             	mov    %rsi,%rdi
  40038f:	48 89 d6             	mov    %rdx,%rsi
  400392:	48 89 ca             	mov    %rcx,%rdx
  400395:	4d 89 c2             	mov    %r8,%r10
  400398:	4d 89 c8             	mov    %r9,%r8
  40039b:	0f 05                	syscall 
  40039d:	48 3d 01 f0 ff ff    	cmp    $0xfffffffffffff001,%rax
  4003a3:	72 15                	jb     4003ba <FPC_SYSCALL5+0x3a>
  4003a5:	48 f7 d8             	neg    %rax
  4003a8:	48 89 c7             	mov    %rax,%rdi
  4003ab:	e8 80 fe ff ff       	callq  400230 <FPC_SYS_SETERRNO>
  4003b0:	48 b8 ff ff ff ff ff 	movabs $0xffffffffffffffff,%rax
  4003b7:	ff ff ff 
  4003ba:	c9                   	leaveq 
  4003bb:	c3                   	retq   
  4003bc:	00 00                	add    %al,(%rax)
	...

00000000004003c0 <FPC_SYSCALL6>:
  4003c0:	55                   	push   %rbp
  4003c1:	48 89 e5             	mov    %rsp,%rbp
  4003c4:	48 8d 64 24 f0       	lea    -0x10(%rsp),%rsp
  4003c9:	48 89 f8             	mov    %rdi,%rax
  4003cc:	48 89 f7             	mov    %rsi,%rdi
  4003cf:	48 89 d6             	mov    %rdx,%rsi
  4003d2:	48 89 ca             	mov    %rcx,%rdx
  4003d5:	4d 89 c2             	mov    %r8,%r10
  4003d8:	4d 89 c8             	mov    %r9,%r8
  4003db:	4c 8b 4d 10          	mov    0x10(%rbp),%r9
  4003df:	0f 05                	syscall 
  4003e1:	48 3d 01 f0 ff ff    	cmp    $0xfffffffffffff001,%rax
  4003e7:	72 15                	jb     4003fe <FPC_SYSCALL6+0x3e>
  4003e9:	48 f7 d8             	neg    %rax
  4003ec:	48 89 c7             	mov    %rax,%rdi
  4003ef:	e8 3c fe ff ff       	callq  400230 <FPC_SYS_SETERRNO>
  4003f4:	48 b8 ff ff ff ff ff 	movabs $0xffffffffffffffff,%rax
  4003fb:	ff ff ff 
  4003fe:	c9                   	leaveq 
  4003ff:	c3                   	retq   

0000000000400400 <FPC_SYSC_TIME>:
  400400:	48 8d 64 24 f8       	lea    -0x8(%rsp),%rsp
  400405:	48 89 fe             	mov    %rdi,%rsi
  400408:	48 bf c9 00 00 00 00 	movabs $0xc9,%rdi
  40040f:	00 00 00 
  400412:	e8 79 fe ff ff       	callq  400290 <FPC_SYSCALL1>
  400417:	48 8d 64 24 08       	lea    0x8(%rsp),%rsp
  40041c:	c3                   	retq   
  40041d:	00 00                	add    %al,(%rax)
	...

0000000000400420 <FPC_SYSC_OPEN>:
  400420:	48 8d 64 24 f8       	lea    -0x8(%rsp),%rsp
  400425:	89 d1                	mov    %edx,%ecx
  400427:	48 63 d6             	movslq %esi,%rdx
  40042a:	48 81 ca 00 80 00 00 	or     $0x8000,%rdx
  400431:	48 63 c9             	movslq %ecx,%rcx
  400434:	48 89 fe             	mov    %rdi,%rsi
  400437:	48 bf 02 00 00 00 00 	movabs $0x2,%rdi
  40043e:	00 00 00 
  400441:	e8 ba fe ff ff       	callq  400300 <FPC_SYSCALL3>
  400446:	48 8d 64 24 08       	lea    0x8(%rsp),%rsp
  40044b:	c3                   	retq   
  40044c:	00 00                	add    %al,(%rax)
	...

0000000000400450 <FPC_SYSC_CLOSE>:
  400450:	48 8d 64 24 f8       	lea    -0x8(%rsp),%rsp
  400455:	89 fe                	mov    %edi,%esi
  400457:	48 63 f6             	movslq %esi,%rsi
  40045a:	48 bf 03 00 00 00 00 	movabs $0x3,%rdi
  400461:	00 00 00 
  400464:	e8 27 fe ff ff       	callq  400290 <FPC_SYSCALL1>
  400469:	48 8d 64 24 08       	lea    0x8(%rsp),%rsp
  40046e:	c3                   	retq   
	...

0000000000400470 <FPC_SYSC_LSEEK>:
  400470:	48 8d 64 24 f8       	lea    -0x8(%rsp),%rsp
  400475:	48 89 f0             	mov    %rsi,%rax
  400478:	89 d1                	mov    %edx,%ecx
  40047a:	48 63 c9             	movslq %ecx,%rcx
  40047d:	48 63 f7             	movslq %edi,%rsi
  400480:	48 89 c2             	mov    %rax,%rdx
  400483:	48 bf 08 00 00 00 00 	movabs $0x8,%rdi
  40048a:	00 00 00 
  40048d:	e8 6e fe ff ff       	callq  400300 <FPC_SYSCALL3>
  400492:	48 8d 64 24 08       	lea    0x8(%rsp),%rsp
  400497:	c3                   	retq   
	...

00000000004004a0 <FPC_SYSC_READ>:
  4004a0:	48 8d 64 24 f8       	lea    -0x8(%rsp),%rsp
  4004a5:	48 89 f0             	mov    %rsi,%rax
  4004a8:	48 89 d1             	mov    %rdx,%rcx
  4004ab:	48 63 f7             	movslq %edi,%rsi
  4004ae:	48 89 c2             	mov    %rax,%rdx
  4004b1:	48 bf 00 00 00 00 00 	movabs $0x0,%rdi
  4004b8:	00 00 00 
  4004bb:	e8 40 fe ff ff       	callq  400300 <FPC_SYSCALL3>
  4004c0:	48 8d 64 24 08       	lea    0x8(%rsp),%rsp
  4004c5:	c3                   	retq   
	...

00000000004004d0 <FPC_SYSC_WRITE>:
  4004d0:	48 8d 64 24 f8       	lea    -0x8(%rsp),%rsp
  4004d5:	48 89 f0             	mov    %rsi,%rax
  4004d8:	48 89 d1             	mov    %rdx,%rcx
  4004db:	48 63 f7             	movslq %edi,%rsi
  4004de:	48 89 c2             	mov    %rax,%rdx
  4004e1:	48 bf 01 00 00 00 00 	movabs $0x1,%rdi
  4004e8:	00 00 00 
  4004eb:	e8 10 fe ff ff       	callq  400300 <FPC_SYSCALL3>
  4004f0:	48 8d 64 24 08       	lea    0x8(%rsp),%rsp
  4004f5:	c3                   	retq   
	...

0000000000400500 <FPC_SYSC_UNLINK>:
  400500:	48 8d 64 24 f8       	lea    -0x8(%rsp),%rsp
  400505:	48 89 fe             	mov    %rdi,%rsi
  400508:	48 bf 57 00 00 00 00 	movabs $0x57,%rdi
  40050f:	00 00 00 
  400512:	e8 79 fd ff ff       	callq  400290 <FPC_SYSCALL1>
  400517:	48 8d 64 24 08       	lea    0x8(%rsp),%rsp
  40051c:	c3                   	retq   
  40051d:	00 00                	add    %al,(%rax)
	...

0000000000400520 <FPC_SYSC_RENAME>:
  400520:	48 8d 64 24 f8       	lea    -0x8(%rsp),%rsp
  400525:	48 89 f2             	mov    %rsi,%rdx
  400528:	48 89 fe             	mov    %rdi,%rsi
  40052b:	48 bf 52 00 00 00 00 	movabs $0x52,%rdi
  400532:	00 00 00 
  400535:	e8 86 fd ff ff       	callq  4002c0 <FPC_SYSCALL2>
  40053a:	48 8d 64 24 08       	lea    0x8(%rsp),%rsp
  40053f:	c3                   	retq   

0000000000400540 <FPC_SYSC_STAT>:
  400540:	48 8d 64 24 f8       	lea    -0x8(%rsp),%rsp
  400545:	48 89 f2             	mov    %rsi,%rdx
  400548:	48 89 fe             	mov    %rdi,%rsi
  40054b:	48 bf 04 00 00 00 00 	movabs $0x4,%rdi
  400552:	00 00 00 
  400555:	e8 66 fd ff ff       	callq  4002c0 <FPC_SYSCALL2>
  40055a:	48 8d 64 24 08       	lea    0x8(%rsp),%rsp
  40055f:	c3                   	retq   

0000000000400560 <FPC_SYSC_CHDIR>:
  400560:	48 8d 64 24 f8       	lea    -0x8(%rsp),%rsp
  400565:	48 89 fe             	mov    %rdi,%rsi
  400568:	48 bf 50 00 00 00 00 	movabs $0x50,%rdi
  40056f:	00 00 00 
  400572:	e8 19 fd ff ff       	callq  400290 <FPC_SYSCALL1>
  400577:	48 8d 64 24 08       	lea    0x8(%rsp),%rsp
  40057c:	c3                   	retq   
  40057d:	00 00                	add    %al,(%rax)
	...

0000000000400580 <FPC_SYSC_MKDIR>:
  400580:	48 8d 64 24 f8       	lea    -0x8(%rsp),%rsp
  400585:	89 f2                	mov    %esi,%edx
  400587:	48 63 d2             	movslq %edx,%rdx
  40058a:	48 89 fe             	mov    %rdi,%rsi
  40058d:	48 bf 53 00 00 00 00 	movabs $0x53,%rdi
  400594:	00 00 00 
  400597:	e8 24 fd ff ff       	callq  4002c0 <FPC_SYSCALL2>
  40059c:	48 8d 64 24 08       	lea    0x8(%rsp),%rsp
  4005a1:	c3                   	retq   
	...

00000000004005b0 <FPC_SYSC_RMDIR>:
  4005b0:	48 8d 64 24 f8       	lea    -0x8(%rsp),%rsp
  4005b5:	48 89 fe             	mov    %rdi,%rsi
  4005b8:	48 bf 54 00 00 00 00 	movabs $0x54,%rdi
  4005bf:	00 00 00 
  4005c2:	e8 c9 fc ff ff       	callq  400290 <FPC_SYSCALL1>
  4005c7:	48 8d 64 24 08       	lea    0x8(%rsp),%rsp
  4005cc:	c3                   	retq   
  4005cd:	00 00                	add    %al,(%rax)
	...

00000000004005d0 <FPC_SYSC_OPENDIR>:
  4005d0:	53                   	push   %rbx
  4005d1:	41 54                	push   %r12
  4005d3:	41 55                	push   %r13
  4005d5:	48 8d a4 24 70 ff ff 	lea    -0x90(%rsp),%rsp
  4005dc:	ff 
  4005dd:	48 89 fb             	mov    %rdi,%rbx
  4005e0:	49 bc 00 00 00 00 00 	movabs $0x0,%r12
  4005e7:	00 00 00 
  4005ea:	48 89 e6             	mov    %rsp,%rsi
  4005ed:	48 89 df             	mov    %rbx,%rdi
  4005f0:	e8 4b ff ff ff       	callq  400540 <FPC_SYSC_STAT>
  4005f5:	83 f8 00             	cmp    $0x0,%eax
  4005f8:	0f 8c ad 00 00 00    	jl     4006ab <FPC_SYSC_OPENDIR+0xdb>
  4005fe:	8b 44 24 18          	mov    0x18(%rsp),%eax
  400602:	25 00 f0 00 00       	and    $0xf000,%eax
  400607:	3d 00 40 00 00       	cmp    $0x4000,%eax
  40060c:	74 2b                	je     400639 <FPC_SYSC_OPENDIR+0x69>
  40060e:	48 8d 05 cb ca 22 00 	lea    0x22cacb(%rip),%rax        # 62d0e0 <FPC_THREADVAR_RELOCATE>
  400615:	48 8b 00             	mov    (%rax),%rax
  400618:	48 85 c0             	test   %rax,%rax
  40061b:	74 0a                	je     400627 <FPC_SYSC_OPENDIR+0x57>
  40061d:	8b 3d ed bb 22 00    	mov    0x22bbed(%rip),%edi        # 62c210 <U_$SYSTEM_$$_ERRNO>
  400623:	ff d0                	callq  *%rax
  400625:	eb 07                	jmp    40062e <FPC_SYSC_OPENDIR+0x5e>
  400627:	48 8d 05 ea bb 22 00 	lea    0x22bbea(%rip),%rax        # 62c218 <U_$SYSTEM_$$_ERRNO+0x8>
  40062e:	c7 00 14 00 00 00    	movl   $0x14,(%rax)
  400634:	e9 72 00 00 00       	jmpq   4006ab <FPC_SYSC_OPENDIR+0xdb>
  400639:	48 89 df             	mov    %rbx,%rdi
  40063c:	ba b6 01 00 00       	mov    $0x1b6,%edx
  400641:	be 00 00 00 00       	mov    $0x0,%esi
  400646:	e8 d5 fd ff ff       	callq  400420 <FPC_SYSC_OPEN>
  40064b:	89 c3                	mov    %eax,%ebx
  40064d:	66 81 fb 00 00       	cmp    $0x0,%bx
  400652:	7c 57                	jl     4006ab <FPC_SYSC_OPENDIR+0xdb>
  400654:	48 bf 28 00 00 00 00 	movabs $0x28,%rdi
  40065b:	00 00 00 
  40065e:	e8 0d 75 01 00       	callq  417b70 <FPC_GETMEM>
  400663:	49 89 c5             	mov    %rax,%r13
  400666:	4d 85 ed             	test   %r13,%r13
  400669:	74 40                	je     4006ab <FPC_SYSC_OPENDIR+0xdb>
  40066b:	48 bf 00 10 00 00 00 	movabs $0x1000,%rdi
  400672:	00 00 00 
  400675:	e8 f6 74 01 00       	callq  417b70 <FPC_GETMEM>
  40067a:	49 89 45 10          	mov    %rax,0x10(%r13)
  40067e:	49 83 7d 10 00       	cmpq   $0x0,0x10(%r13)
  400683:	74 26                	je     4006ab <FPC_SYSC_OPENDIR+0xdb>
  400685:	66 41 89 5d 00       	mov    %bx,0x0(%r13)
  40068a:	41 c7 45 04 00 00 00 	movl   $0x0,0x4(%r13)
  400691:	00 
  400692:	66 41 c7 45 08 00 00 	movw   $0x0,0x8(%r13)
  400699:	41 c7 45 18 00 00 00 	movl   $0x0,0x18(%r13)
  4006a0:	00 
  4006a1:	66 41 c7 45 1c 00 10 	movw   $0x1000,0x1c(%r13)
  4006a8:	4d 89 ec             	mov    %r13,%r12
  4006ab:	4c 89 e0             	mov    %r12,%rax
  4006ae:	48 8d a4 24 90 00 00 	lea    0x90(%rsp),%rsp
  4006b5:	00 
  4006b6:	41 5d                	pop    %r13
  4006b8:	41 5c                	pop    %r12
  4006ba:	5b                   	pop    %rbx
  4006bb:	c3                   	retq   
  4006bc:	00 00                	add    %al,(%rax)
	...

00000000004006c0 <FPC_SYSC_CLOSEDIR>:
  4006c0:	53                   	push   %rbx
  4006c1:	41 54                	push   %r12
  4006c3:	48 8d 64 24 f8       	lea    -0x8(%rsp),%rsp
  4006c8:	48 89 fb             	mov    %rdi,%rbx
  4006cb:	66 66 66 90          	data16 data16 xchg %ax,%ax
  4006cf:	90                   	nop
  4006d0:	0f bf 3b             	movswl (%rbx),%edi
  4006d3:	e8 78 fd ff ff       	callq  400450 <FPC_SYSC_CLOSE>
  4006d8:	41 89 c4             	mov    %eax,%r12d
  4006db:	45 85 e4             	test   %r12d,%r12d
  4006de:	74 25                	je     400705 <FPC_SYSC_CLOSEDIR+0x45>
  4006e0:	48 8d 05 f9 c9 22 00 	lea    0x22c9f9(%rip),%rax        # 62d0e0 <FPC_THREADVAR_RELOCATE>
  4006e7:	48 8b 00             	mov    (%rax),%rax
  4006ea:	48 85 c0             	test   %rax,%rax
  4006ed:	74 0a                	je     4006f9 <FPC_SYSC_CLOSEDIR+0x39>
  4006ef:	8b 3d 1b bb 22 00    	mov    0x22bb1b(%rip),%edi        # 62c210 <U_$SYSTEM_$$_ERRNO>
  4006f5:	ff d0                	callq  *%rax
  4006f7:	eb 07                	jmp    400700 <FPC_SYSC_CLOSEDIR+0x40>
  4006f9:	48 8d 05 18 bb 22 00 	lea    0x22bb18(%rip),%rax        # 62c218 <U_$SYSTEM_$$_ERRNO+0x8>
  400700:	83 38 04             	cmpl   $0x4,(%rax)
  400703:	74 cb                	je     4006d0 <FPC_SYSC_CLOSEDIR+0x10>
  400705:	48 8b 7b 10          	mov    0x10(%rbx),%rdi
  400709:	e8 82 74 01 00       	callq  417b90 <FPC_FREEMEM>
  40070e:	48 89 df             	mov    %rbx,%rdi
  400711:	e8 7a 74 01 00       	callq  417b90 <FPC_FREEMEM>
  400716:	44 89 e0             	mov    %r12d,%eax
  400719:	48 8d 64 24 08       	lea    0x8(%rsp),%rsp
  40071e:	41 5c                	pop    %r12
  400720:	5b                   	pop    %rbx
  400721:	c3                   	retq   
	...

0000000000400730 <FPC_SYSC_READDIR>:
  400730:	53                   	push   %rbx
  400731:	41 54                	push   %r12
  400733:	41 55                	push   %r13
  400735:	41 56                	push   %r14
  400737:	48 8d 64 24 f8       	lea    -0x8(%rsp),%rsp
  40073c:	48 89 fb             	mov    %rdi,%rbx
  40073f:	90                   	nop
  400740:	8b 53 18             	mov    0x18(%rbx),%edx
  400743:	48 0f bf 43 08       	movswq 0x8(%rbx),%rax
  400748:	48 39 c2             	cmp    %rax,%rdx
  40074b:	7c 40                	jl     40078d <FPC_SYSC_READDIR+0x5d>
  40074d:	48 0f bf 4b 1c       	movswq 0x1c(%rbx),%rcx
  400752:	48 0f bf 33          	movswq (%rbx),%rsi
  400756:	48 8b 53 10          	mov    0x10(%rbx),%rdx
  40075a:	48 bf d9 00 00 00 00 	movabs $0xd9,%rdi
  400761:	00 00 00 
  400764:	e8 97 fb ff ff       	callq  400300 <FPC_SYSCALL3>
  400769:	41 89 c4             	mov    %eax,%r12d
  40076c:	41 83 fc 00          	cmp    $0x0,%r12d
  400770:	7f 0c                	jg     40077e <FPC_SYSC_READDIR+0x4e>
  400772:	49 bd 00 00 00 00 00 	movabs $0x0,%r13
  400779:	00 00 00 
  40077c:	eb 36                	jmp    4007b4 <FPC_SYSC_READDIR+0x84>
  40077e:	66 44 89 e0          	mov    %r12w,%ax
  400782:	66 89 43 08          	mov    %ax,0x8(%rbx)
  400786:	c7 43 18 00 00 00 00 	movl   $0x0,0x18(%rbx)
  40078d:	8b 43 18             	mov    0x18(%rbx),%eax
  400790:	48 8b 53 10          	mov    0x10(%rbx),%rdx
  400794:	48 8d 04 10          	lea    (%rax,%rdx,1),%rax
  400798:	49 89 c6             	mov    %rax,%r14
  40079b:	41 0f b7 46 10       	movzwl 0x10(%r14),%eax
  4007a0:	01 43 18             	add    %eax,0x18(%rbx)
  4007a3:	41 0f b7 46 10       	movzwl 0x10(%r14),%eax
  4007a8:	01 43 04             	add    %eax,0x4(%rbx)
  4007ab:	49 83 3e 00          	cmpq   $0x0,(%r14)
  4007af:	74 8f                	je     400740 <FPC_SYSC_READDIR+0x10>
  4007b1:	4d 89 f5             	mov    %r14,%r13
  4007b4:	4c 89 e8             	mov    %r13,%rax
  4007b7:	48 8d 64 24 08       	lea    0x8(%rsp),%rsp
  4007bc:	41 5e                	pop    %r14
  4007be:	41 5d                	pop    %r13
  4007c0:	41 5c                	pop    %r12
  4007c2:	5b                   	pop    %rbx
  4007c3:	c3                   	retq   
	...

00000000004007d0 <FPC_SYSC_EXIT>:
  4007d0:	48 8d 64 24 f8       	lea    -0x8(%rsp),%rsp
  4007d5:	89 f8                	mov    %edi,%eax
  4007d7:	48 63 f0             	movslq %eax,%rsi
  4007da:	48 bf e7 00 00 00 00 	movabs $0xe7,%rdi
  4007e1:	00 00 00 
  4007e4:	e8 a7 fa ff ff       	callq  400290 <FPC_SYSCALL1>
  4007e9:	48 8d 64 24 08       	lea    0x8(%rsp),%rsp
  4007ee:	c3                   	retq   
	...

00000000004007f0 <SYSTEM_$$_LINUX_RESTORE>:
  4007f0:	48 b8 0f 00 00 00 00 	movabs $0xf,%rax
  4007f7:	00 00 00 
  4007fa:	0f 05                	syscall 
  4007fc:	c3                   	retq   
  4007fd:	00 00                	add    %al,(%rax)
	...

0000000000400800 <FPC_SYSC_SIGACTION>:
  400800:	48 8d 64 24 f8       	lea    -0x8(%rsp),%rsp
  400805:	48 89 f0             	mov    %rsi,%rax
  400808:	48 89 d1             	mov    %rdx,%rcx
  40080b:	48 85 c0             	test   %rax,%rax
  40080e:	74 2a                	je     40083a <FPC_SYSC_SIGACTION+0x3a>
  400810:	48 8b 50 08          	mov    0x8(%rax),%rdx
  400814:	48 81 e2 00 00 00 0c 	and    $0xc000000,%rdx
  40081b:	48 85 d2             	test   %rdx,%rdx
  40081e:	75 1a                	jne    40083a <FPC_SYSC_SIGACTION+0x3a>
  400820:	48 8b 50 08          	mov    0x8(%rax),%rdx
  400824:	48 81 ca 00 00 00 04 	or     $0x4000000,%rdx
  40082b:	48 89 50 08          	mov    %rdx,0x8(%rax)
  40082f:	48 8d 15 ba ff ff ff 	lea    -0x46(%rip),%rdx        # 4007f0 <SYSTEM_$$_LINUX_RESTORE>
  400836:	48 89 50 10          	mov    %rdx,0x10(%rax)
  40083a:	48 63 f7             	movslq %edi,%rsi
  40083d:	48 89 c2             	mov    %rax,%rdx
  400840:	49 b8 08 00 00 00 00 	movabs $0x8,%r8
  400847:	00 00 00 
  40084a:	48 bf 0d 00 00 00 00 	movabs $0xd,%rdi
  400851:	00 00 00 
  400854:	e8 e7 fa ff ff       	callq  400340 <FPC_SYSCALL4>
  400859:	48 8d 64 24 08       	lea    0x8(%rsp),%rsp
  40085e:	c3                   	retq   
	...

0000000000400860 <FPC_SYSC_FTRUNCATE>:
  400860:	48 8d 64 24 f8       	lea    -0x8(%rsp),%rsp
  400865:	48 89 f2             	mov    %rsi,%rdx
  400868:	48 63 f7             	movslq %edi,%rsi
  40086b:	48 bf 4d 00 00 00 00 	movabs $0x4d,%rdi
  400872:	00 00 00 
  400875:	e8 46 fa ff ff       	callq  4002c0 <FPC_SYSCALL2>
  40087a:	48 8d 64 24 08       	lea    0x8(%rsp),%rsp
  40087f:	c3                   	retq   

0000000000400880 <FPC_SYSC_FSTAT>:
  400880:	48 8d 64 24 f8       	lea    -0x8(%rsp),%rsp
  400885:	48 89 f2             	mov    %rsi,%rdx
  400888:	48 63 f7             	movslq %edi,%rsi
  40088b:	48 bf 05 00 00 00 00 	movabs $0x5,%rdi
  400892:	00 00 00 
  400895:	e8 26 fa ff ff       	callq  4002c0 <FPC_SYSCALL2>
  40089a:	48 8d 64 24 08       	lea    0x8(%rsp),%rsp
  40089f:	c3                   	retq   

00000000004008a0 <FPC_SYSC_FORK>:
  4008a0:	48 8d 64 24 f8       	lea    -0x8(%rsp),%rsp
  4008a5:	48 bf 39 00 00 00 00 	movabs $0x39,%rdi
  4008ac:	00 00 00 
  4008af:	e8 ac f9 ff ff       	callq  400260 <FPC_SYSCALL0>
  4008b4:	48 8d 64 24 08       	lea    0x8(%rsp),%rsp
  4008b9:	c3                   	retq   
  4008ba:	00 00                	add    %al,(%rax)
  4008bc:	00 00                	add    %al,(%rax)
	...

00000000004008c0 <FPC_SYSC_WAITPID>:
  4008c0:	48 8d 64 24 f8       	lea    -0x8(%rsp),%rsp
  4008c5:	48 89 f0             	mov    %rsi,%rax
  4008c8:	89 d1                	mov    %edx,%ecx
  4008ca:	48 63 c9             	movslq %ecx,%rcx
  4008cd:	48 63 f7             	movslq %edi,%rsi
  4008d0:	48 89 c2             	mov    %rax,%rdx
  4008d3:	49 b8 00 00 00 00 00 	movabs $0x0,%r8
  4008da:	00 00 00 
  4008dd:	48 bf 3d 00 00 00 00 	movabs $0x3d,%rdi
  4008e4:	00 00 00 
  4008e7:	e8 54 fa ff ff       	callq  400340 <FPC_SYSCALL4>
  4008ec:	48 8d 64 24 08       	lea    0x8(%rsp),%rsp
  4008f1:	c3                   	retq   
	...

0000000000400900 <FPC_SYSC_ACCESS>:
  400900:	48 8d 64 24 f8       	lea    -0x8(%rsp),%rsp
  400905:	89 f2                	mov    %esi,%edx
  400907:	48 63 d2             	movslq %edx,%rdx
  40090a:	48 89 fe             	mov    %rdi,%rsi
  40090d:	48 bf 15 00 00 00 00 	movabs $0x15,%rdi
  400914:	00 00 00 
  400917:	e8 a4 f9 ff ff       	callq  4002c0 <FPC_SYSCALL2>
  40091c:	48 8d 64 24 08       	lea    0x8(%rsp),%rsp
  400921:	c3                   	retq   
	...

0000000000400930 <FPC_SYSC_DUP>:
  400930:	48 8d 64 24 f8       	lea    -0x8(%rsp),%rsp
  400935:	89 fe                	mov    %edi,%esi
  400937:	48 63 f6             	movslq %esi,%rsi
  40093a:	48 bf 20 00 00 00 00 	movabs $0x20,%rdi
  400941:	00 00 00 
  400944:	e8 47 f9 ff ff       	callq  400290 <FPC_SYSCALL1>
  400949:	48 8d 64 24 08       	lea    0x8(%rsp),%rsp
  40094e:	c3                   	retq   
	...

0000000000400950 <FPC_SYSC_DUP2>:
  400950:	48 8d 64 24 f8       	lea    -0x8(%rsp),%rsp
  400955:	89 f2                	mov    %esi,%edx
  400957:	48 63 d2             	movslq %edx,%rdx
  40095a:	48 63 f7             	movslq %edi,%rsi
  40095d:	48 bf 21 00 00 00 00 	movabs $0x21,%rdi
  400964:	00 00 00 
  400967:	e8 54 f9 ff ff       	callq  4002c0 <FPC_SYSCALL2>
  40096c:	48 8d 64 24 08       	lea    0x8(%rsp),%rsp
  400971:	c3                   	retq   
	...

0000000000400980 <FPC_SYSC_MMAP>:
  400980:	48 8d 64 24 f8       	lea    -0x8(%rsp),%rsp
  400985:	4c 89 0c 24          	mov    %r9,(%rsp)
  400989:	4d 63 c8             	movslq %r8d,%r9
  40098c:	4c 63 c1             	movslq %ecx,%r8
  40098f:	48 63 ca             	movslq %edx,%rcx
  400992:	48 89 f2             	mov    %rsi,%rdx
  400995:	48 89 fe             	mov    %rdi,%rsi
  400998:	48 bf 09 00 00 00 00 	movabs $0x9,%rdi
  40099f:	00 00 00 
  4009a2:	e8 19 fa ff ff       	callq  4003c0 <FPC_SYSCALL6>
  4009a7:	48 8d 64 24 08       	lea    0x8(%rsp),%rsp
  4009ac:	c3                   	retq   
  4009ad:	00 00                	add    %al,(%rax)
	...

00000000004009b0 <FPC_SYSC_MUNMAP>:
  4009b0:	48 8d 64 24 f8       	lea    -0x8(%rsp),%rsp
  4009b5:	48 89 f2             	mov    %rsi,%rdx
  4009b8:	48 89 fe             	mov    %rdi,%rsi
  4009bb:	48 bf 0b 00 00 00 00 	movabs $0xb,%rdi
  4009c2:	00 00 00 
  4009c5:	e8 f6 f8 ff ff       	callq  4002c0 <FPC_SYSCALL2>
  4009ca:	48 8d 64 24 08       	lea    0x8(%rsp),%rsp
  4009cf:	c3                   	retq   

00000000004009d0 <FPC_SYSC_IOCTL>:
  4009d0:	48 8d 64 24 f8       	lea    -0x8(%rsp),%rsp
  4009d5:	48 89 d1             	mov    %rdx,%rcx
  4009d8:	48 63 d6             	movslq %esi,%rdx
  4009db:	48 63 f7             	movslq %edi,%rsi
  4009de:	48 bf 10 00 00 00 00 	movabs $0x10,%rdi
  4009e5:	00 00 00 
  4009e8:	e8 13 f9 ff ff       	callq  400300 <FPC_SYSCALL3>
  4009ed:	48 8d 64 24 08       	lea    0x8(%rsp),%rsp
  4009f2:	c3                   	retq   
	...

0000000000400a00 <FPC_SYSC_GETPID>:
  400a00:	48 8d 64 24 f8       	lea    -0x8(%rsp),%rsp
  400a05:	48 bf 27 00 00 00 00 	movabs $0x27,%rdi
  400a0c:	00 00 00 
  400a0f:	e8 4c f8 ff ff       	callq  400260 <FPC_SYSCALL0>
  400a14:	48 8d 64 24 08       	lea    0x8(%rsp),%rsp
  400a19:	c3                   	retq   
  400a1a:	00 00                	add    %al,(%rax)
  400a1c:	00 00                	add    %al,(%rax)
	...

0000000000400a20 <FPC_SYSC_READLINK>:
  400a20:	48 8d 64 24 f8       	lea    -0x8(%rsp),%rsp
  400a25:	48 89 d1             	mov    %rdx,%rcx
  400a28:	48 89 f2             	mov    %rsi,%rdx
  400a2b:	48 89 fe             	mov    %rdi,%rsi
  400a2e:	48 bf 59 00 00 00 00 	movabs $0x59,%rdi
  400a35:	00 00 00 
  400a38:	e8 c3 f8 ff ff       	callq  400300 <FPC_SYSCALL3>
  400a3d:	48 8d 64 24 08       	lea    0x8(%rsp),%rsp
  400a42:	c3                   	retq   
	...

0000000000400a50 <FPC_SYSC_SIGPROCMASK>:
  400a50:	48 8d 64 24 f8       	lea    -0x8(%rsp),%rsp
  400a55:	48 89 f0             	mov    %rsi,%rax
  400a58:	48 89 d1             	mov    %rdx,%rcx
  400a5b:	48 63 f7             	movslq %edi,%rsi
  400a5e:	48 89 c2             	mov    %rax,%rdx
  400a61:	49 b8 08 00 00 00 00 	movabs $0x8,%r8
  400a68:	00 00 00 
  400a6b:	48 bf 0e 00 00 00 00 	movabs $0xe,%rdi
  400a72:	00 00 00 
  400a75:	e8 c6 f8 ff ff       	callq  400340 <FPC_SYSCALL4>
  400a7a:	48 8d 64 24 08       	lea    0x8(%rsp),%rsp
  400a7f:	c3                   	retq   

0000000000400a80 <FPC_SYSC_NANOSLEEP>:
  400a80:	48 8d 64 24 f8       	lea    -0x8(%rsp),%rsp
  400a85:	48 89 f2             	mov    %rsi,%rdx
  400a88:	48 89 fe             	mov    %rdi,%rsi
  400a8b:	48 bf 23 00 00 00 00 	movabs $0x23,%rdi
  400a92:	00 00 00 
  400a95:	e8 26 f8 ff ff       	callq  4002c0 <FPC_SYSCALL2>
  400a9a:	48 8d 64 24 08       	lea    0x8(%rsp),%rsp
  400a9f:	c3                   	retq   

0000000000400aa0 <FPC_SYSC_GETCWD>:
  400aa0:	48 8d 64 24 f8       	lea    -0x8(%rsp),%rsp
  400aa5:	48 89 f2             	mov    %rsi,%rdx
  400aa8:	48 89 fe             	mov    %rdi,%rsi
  400aab:	48 bf 4f 00 00 00 00 	movabs $0x4f,%rdi
  400ab2:	00 00 00 
  400ab5:	e8 06 f8 ff ff       	callq  4002c0 <FPC_SYSCALL2>
  400aba:	48 8d 64 24 08       	lea    0x8(%rsp),%rsp
  400abf:	c3                   	retq   

0000000000400ac0 <FPC_SYSC_GETTIMEOFDAY>:
  400ac0:	48 8d 64 24 f8       	lea    -0x8(%rsp),%rsp
  400ac5:	48 89 f2             	mov    %rsi,%rdx
  400ac8:	48 89 fe             	mov    %rdi,%rsi
  400acb:	48 bf 60 00 00 00 00 	movabs $0x60,%rdi
  400ad2:	00 00 00 
  400ad5:	e8 e6 f7 ff ff       	callq  4002c0 <FPC_SYSCALL2>
  400ada:	48 8d 64 24 08       	lea    0x8(%rsp),%rsp
  400adf:	c3                   	retq   

0000000000400ae0 <FPC_SYSC_GETRLIMIT>:
  400ae0:	48 8d 64 24 f8       	lea    -0x8(%rsp),%rsp
  400ae5:	48 89 f2             	mov    %rsi,%rdx
  400ae8:	48 63 f7             	movslq %edi,%rsi
  400aeb:	48 bf 61 00 00 00 00 	movabs $0x61,%rdi
  400af2:	00 00 00 
  400af5:	e8 c6 f7 ff ff       	callq  4002c0 <FPC_SYSCALL2>
  400afa:	48 8d 64 24 08       	lea    0x8(%rsp),%rsp
  400aff:	c3                   	retq   

0000000000400b00 <FPC_SYSC_SETRLIMIT>:
  400b00:	48 8d 64 24 f8       	lea    -0x8(%rsp),%rsp
  400b05:	48 89 f2             	mov    %rsi,%rdx
  400b08:	48 63 f7             	movslq %edi,%rsi
  400b0b:	48 bf a0 00 00 00 00 	movabs $0xa0,%rdi
  400b12:	00 00 00 
  400b15:	e8 a6 f7 ff ff       	callq  4002c0 <FPC_SYSCALL2>
  400b1a:	48 8d 64 24 08       	lea    0x8(%rsp),%rsp
  400b1f:	c3                   	retq   

0000000000400b20 <FPC_SYSC_FPGETENVPCHAR>:
  400b20:	48 85 ff             	test   %rdi,%rdi
  400b23:	74 0d                	je     400b32 <FPC_SYSC_FPGETENVPCHAR+0x12>
  400b25:	48 8d 05 7c c7 22 00 	lea    0x22c77c(%rip),%rax        # 62d2a8 <operatingsystem_parameter_envp>
  400b2c:	48 83 38 00          	cmpq   $0x0,(%rax)
  400b30:	75 0f                	jne    400b41 <FPC_SYSC_FPGETENVPCHAR+0x21>
  400b32:	48 b8 00 00 00 00 00 	movabs $0x0,%rax
  400b39:	00 00 00 
  400b3c:	e9 8d 00 00 00       	jmpq   400bce <FPC_SYSC_FPGETENVPCHAR+0xae>
  400b41:	48 89 fa             	mov    %rdi,%rdx
  400b44:	eb 06                	jmp    400b4c <FPC_SYSC_FPGETENVPCHAR+0x2c>
  400b46:	66 90                	xchg   %ax,%ax
  400b48:	48 83 c2 01          	add    $0x1,%rdx
  400b4c:	8a 0a                	mov    (%rdx),%cl
  400b4e:	84 c9                	test   %cl,%cl
  400b50:	74 05                	je     400b57 <FPC_SYSC_FPGETENVPCHAR+0x37>
  400b52:	80 f9 3d             	cmp    $0x3d,%cl
  400b55:	75 f1                	jne    400b48 <FPC_SYSC_FPGETENVPCHAR+0x28>
  400b57:	48 89 d1             	mov    %rdx,%rcx
  400b5a:	48 29 f9             	sub    %rdi,%rcx
  400b5d:	48 8d 35 44 c7 22 00 	lea    0x22c744(%rip),%rsi        # 62d2a8 <operatingsystem_parameter_envp>
  400b64:	4c 8b 16             	mov    (%rsi),%r10
  400b67:	eb 55                	jmp    400bbe <FPC_SYSC_FPGETENVPCHAR+0x9e>
  400b69:	66 66 66 90          	data16 data16 xchg %ax,%ax
  400b6d:	66 66 90             	data16 xchg %ax,%ax
  400b70:	4d 8b 0a             	mov    (%r10),%r9
  400b73:	48 89 fa             	mov    %rdi,%rdx
  400b76:	89 ce                	mov    %ecx,%esi
  400b78:	eb 23                	jmp    400b9d <FPC_SYSC_FPGETENVPCHAR+0x7d>
  400b7a:	66 66 66 90          	data16 data16 xchg %ax,%ax
  400b7e:	66 90                	xchg   %ax,%ax
  400b80:	45 8a 01             	mov    (%r9),%r8b
  400b83:	44 3a 02             	cmp    (%rdx),%r8b
  400b86:	74 0a                	je     400b92 <FPC_SYSC_FPGETENVPCHAR+0x72>
  400b88:	49 83 c1 01          	add    $0x1,%r9
  400b8c:	48 83 c2 01          	add    $0x1,%rdx
  400b90:	eb 15                	jmp    400ba7 <FPC_SYSC_FPGETENVPCHAR+0x87>
  400b92:	49 83 c1 01          	add    $0x1,%r9
  400b96:	48 83 c2 01          	add    $0x1,%rdx
  400b9a:	83 ee 01             	sub    $0x1,%esi
  400b9d:	85 f6                	test   %esi,%esi
  400b9f:	74 06                	je     400ba7 <FPC_SYSC_FPGETENVPCHAR+0x87>
  400ba1:	41 80 39 00          	cmpb   $0x0,(%r9)
  400ba5:	75 d9                	jne    400b80 <FPC_SYSC_FPGETENVPCHAR+0x60>
  400ba7:	85 f6                	test   %esi,%esi
  400ba9:	75 0f                	jne    400bba <FPC_SYSC_FPGETENVPCHAR+0x9a>
  400bab:	41 80 39 3d          	cmpb   $0x3d,(%r9)
  400baf:	75 09                	jne    400bba <FPC_SYSC_FPGETENVPCHAR+0x9a>
  400bb1:	4d 8d 41 01          	lea    0x1(%r9),%r8
  400bb5:	4c 89 c0             	mov    %r8,%rax
  400bb8:	eb 14                	jmp    400bce <FPC_SYSC_FPGETENVPCHAR+0xae>
  400bba:	49 83 c2 08          	add    $0x8,%r10
  400bbe:	49 83 3a 00          	cmpq   $0x0,(%r10)
  400bc2:	75 ac                	jne    400b70 <FPC_SYSC_FPGETENVPCHAR+0x50>
  400bc4:	48 b8 00 00 00 00 00 	movabs $0x0,%rax
  400bcb:	00 00 00 
  400bce:	c3                   	retq   
	...

0000000000400bd0 <SYSTEM_$$_FPS_ISDIR$LONGINT$$BOOLEAN>:
  400bd0:	81 e7 00 f0 00 00    	and    $0xf000,%edi
  400bd6:	81 ff 00 40 00 00    	cmp    $0x4000,%edi
  400bdc:	0f 94 c0             	sete   %al
  400bdf:	25 ff 00 00 00       	and    $0xff,%eax
  400be4:	c3                   	retq   
	...

0000000000400bf0 <SYSTEM_$$_FPS_ISCHR$LONGINT$$BOOLEAN>:
  400bf0:	81 e7 00 f0 00 00    	and    $0xf000,%edi
  400bf6:	81 ff 00 20 00 00    	cmp    $0x2000,%edi
  400bfc:	0f 94 c0             	sete   %al
  400bff:	25 ff 00 00 00       	and    $0xff,%eax
  400c04:	c3                   	retq   
	...

0000000000400c10 <SYSTEM_$$_FPS_ISBLK$LONGINT$$BOOLEAN>:
  400c10:	81 e7 00 f0 00 00    	and    $0xf000,%edi
  400c16:	81 ff 00 60 00 00    	cmp    $0x6000,%edi
  400c1c:	0f 94 c0             	sete   %al
  400c1f:	25 ff 00 00 00       	and    $0xff,%eax
  400c24:	c3                   	retq   
	...

0000000000400c30 <SYSTEM_$$_FPS_ISREG$LONGINT$$BOOLEAN>:
  400c30:	81 e7 00 f0 00 00    	and    $0xf000,%edi
  400c36:	81 ff 00 80 00 00    	cmp    $0x8000,%edi
  400c3c:	0f 94 c0             	sete   %al
  400c3f:	25 ff 00 00 00       	and    $0xff,%eax
  400c44:	c3                   	retq   
	...

0000000000400c50 <SYSTEM_$$_FPS_ISFIFO$LONGINT$$BOOLEAN>:
  400c50:	81 e7 00 f0 00 00    	and    $0xf000,%edi
  400c56:	81 ff 00 10 00 00    	cmp    $0x1000,%edi
  400c5c:	0f 94 c0             	sete   %al
  400c5f:	25 ff 00 00 00       	and    $0xff,%eax
  400c64:	c3                   	retq   
	...

0000000000400c70 <SYSTEM_$$_FPS_ISLNK$LONGINT$$BOOLEAN>:
  400c70:	81 e7 00 f0 00 00    	and    $0xf000,%edi
  400c76:	81 ff 00 a0 00 00    	cmp    $0xa000,%edi
  400c7c:	0f 94 c0             	sete   %al
  400c7f:	25 ff 00 00 00       	and    $0xff,%eax
  400c84:	c3                   	retq   
	...

0000000000400c90 <SYSTEM_$$_FPS_ISSOCK$LONGINT$$BOOLEAN>:
  400c90:	81 e7 00 f0 00 00    	and    $0xf000,%edi
  400c96:	81 ff 00 c0 00 00    	cmp    $0xc000,%edi
  400c9c:	0f 94 c0             	sete   %al
  400c9f:	25 ff 00 00 00       	and    $0xff,%eax
  400ca4:	c3                   	retq   
	...

0000000000400cb0 <SYSTEM_$$_WIFEXITED$LONGINT$$BOOLEAN>:
  400cb0:	83 e7 7f             	and    $0x7f,%edi
  400cb3:	85 ff                	test   %edi,%edi
  400cb5:	0f 94 c0             	sete   %al
  400cb8:	25 ff 00 00 00       	and    $0xff,%eax
  400cbd:	c3                   	retq   
	...

0000000000400cc0 <SYSTEM_$$_WEXITSTATUS$LONGINT$$LONGINT>:
  400cc0:	89 f8                	mov    %edi,%eax
  400cc2:	25 00 ff 00 00       	and    $0xff00,%eax
  400cc7:	c1 e8 08             	shr    $0x8,%eax
  400cca:	c3                   	retq   
  400ccb:	00 00                	add    %al,(%rax)
  400ccd:	00 00                	add    %al,(%rax)
	...

0000000000400cd0 <SYSTEM_$$_WSTOPSIG$LONGINT$$LONGINT>:
  400cd0:	89 f8                	mov    %edi,%eax
  400cd2:	25 00 ff 00 00       	and    $0xff00,%eax
  400cd7:	c1 e8 08             	shr    $0x8,%eax
  400cda:	c3                   	retq   
  400cdb:	00 00                	add    %al,(%rax)
  400cdd:	00 00                	add    %al,(%rax)
	...

0000000000400ce0 <SYSTEM_$$_WIFSIGNALED$LONGINT$$BOOLEAN>:
  400ce0:	89 f8                	mov    %edi,%eax
  400ce2:	25 ff 00 00 00       	and    $0xff,%eax
  400ce7:	83 f8 7f             	cmp    $0x7f,%eax
  400cea:	74 0b                	je     400cf7 <SYSTEM_$$_WIFSIGNALED$LONGINT$$BOOLEAN+0x17>
  400cec:	83 e7 7f             	and    $0x7f,%edi
  400cef:	85 ff                	test   %edi,%edi
  400cf1:	74 04                	je     400cf7 <SYSTEM_$$_WIFSIGNALED$LONGINT$$BOOLEAN+0x17>
  400cf3:	b0 01                	mov    $0x1,%al
  400cf5:	eb 02                	jmp    400cf9 <SYSTEM_$$_WIFSIGNALED$LONGINT$$BOOLEAN+0x19>
  400cf7:	b0 00                	mov    $0x0,%al
  400cf9:	25 ff 00 00 00       	and    $0xff,%eax
  400cfe:	c3                   	retq   
	...

0000000000400d00 <SYSTEM_$$_WTERMSIG$LONGINT$$LONGINT>:
  400d00:	89 f8                	mov    %edi,%eax
  400d02:	83 e0 7f             	and    $0x7f,%eax
  400d05:	c3                   	retq   
	...

0000000000400d10 <SYSTEM_$$_POSIXTORUNERROR$LONGINT$$WORD>:
  400d10:	53                   	push   %rbx
  400d11:	89 f8                	mov    %edi,%eax
  400d13:	83 e8 02             	sub    $0x2,%eax
  400d16:	83 f8 25             	cmp    $0x25,%eax
  400d19:	77 4a                	ja     400d65 <SYSTEM_$$_POSIXTORUNERROR$LONGINT$$WORD+0x55>
  400d1b:	48 63 c0             	movslq %eax,%rax
  400d1e:	48 8d 15 2b 25 22 00 	lea    0x22252b(%rip),%rdx        # 623250 <.Ld1>
  400d25:	48 63 04 82          	movslq (%rdx,%rax,4),%rax
  400d29:	48 8d 04 02          	lea    (%rdx,%rax,1),%rax
  400d2d:	ff e0                	jmpq   *%rax
  400d2f:	66 bb 04 00          	mov    $0x4,%bx
  400d33:	eb 33                	jmp    400d68 <SYSTEM_$$_POSIXTORUNERROR$LONGINT$$WORD+0x58>
  400d35:	66 bb 02 00          	mov    $0x2,%bx
  400d39:	eb 2d                	jmp    400d68 <SYSTEM_$$_POSIXTORUNERROR$LONGINT$$WORD+0x58>
  400d3b:	66 bb 06 00          	mov    $0x6,%bx
  400d3f:	eb 27                	jmp    400d68 <SYSTEM_$$_POSIXTORUNERROR$LONGINT$$WORD+0x58>
  400d41:	66 bb d9 00          	mov    $0xd9,%bx
  400d45:	eb 21                	jmp    400d68 <SYSTEM_$$_POSIXTORUNERROR$LONGINT$$WORD+0x58>
  400d47:	66 bb da 00          	mov    $0xda,%bx
  400d4b:	eb 1b                	jmp    400d68 <SYSTEM_$$_POSIXTORUNERROR$LONGINT$$WORD+0x58>
  400d4d:	66 bb 65 00          	mov    $0x65,%bx
  400d51:	eb 15                	jmp    400d68 <SYSTEM_$$_POSIXTORUNERROR$LONGINT$$WORD+0x58>
  400d53:	66 bb 03 00          	mov    $0x3,%bx
  400d57:	eb 0f                	jmp    400d68 <SYSTEM_$$_POSIXTORUNERROR$LONGINT$$WORD+0x58>
  400d59:	66 bb 05 00          	mov    $0x5,%bx
  400d5d:	eb 09                	jmp    400d68 <SYSTEM_$$_POSIXTORUNERROR$LONGINT$$WORD+0x58>
  400d5f:	66 bb 05 00          	mov    $0x5,%bx
  400d63:	eb 03                	jmp    400d68 <SYSTEM_$$_POSIXTORUNERROR$LONGINT$$WORD+0x58>
  400d65:	66 89 fb             	mov    %di,%bx
  400d68:	48 8d 05 71 c3 22 00 	lea    0x22c371(%rip),%rax        # 62d0e0 <FPC_THREADVAR_RELOCATE>
  400d6f:	48 8b 00             	mov    (%rax),%rax
  400d72:	48 85 c0             	test   %rax,%rax
  400d75:	74 10                	je     400d87 <SYSTEM_$$_POSIXTORUNERROR$LONGINT$$WORD+0x77>
  400d77:	48 8d 15 22 b3 22 00 	lea    0x22b322(%rip),%rdx        # 62c0a0 <U_$SYSTEM_$$_INOUTRES>
  400d7e:	8b 3a                	mov    (%rdx),%edi
  400d80:	ff d0                	callq  *%rax
  400d82:	48 89 c2             	mov    %rax,%rdx
  400d85:	eb 0b                	jmp    400d92 <SYSTEM_$$_POSIXTORUNERROR$LONGINT$$WORD+0x82>
  400d87:	48 8d 15 12 b3 22 00 	lea    0x22b312(%rip),%rdx        # 62c0a0 <U_$SYSTEM_$$_INOUTRES>
  400d8e:	48 83 c2 08          	add    $0x8,%rdx
  400d92:	66 89 d8             	mov    %bx,%ax
  400d95:	66 89 02             	mov    %ax,(%rdx)
  400d98:	25 ff ff 00 00       	and    $0xffff,%eax
  400d9d:	5b                   	pop    %rbx
  400d9e:	c3                   	retq   
	...

0000000000400da0 <SYSTEM_$$_ERRNO2INOUTRES$$WORD>:
  400da0:	53                   	push   %rbx
  400da1:	e8 5a f4 ff ff       	callq  400200 <FPC_SYS_GETERRNO>
  400da6:	89 c7                	mov    %eax,%edi
  400da8:	e8 63 ff ff ff       	callq  400d10 <SYSTEM_$$_POSIXTORUNERROR$LONGINT$$WORD>
  400dad:	66 89 c3             	mov    %ax,%bx
  400db0:	48 8d 05 29 c3 22 00 	lea    0x22c329(%rip),%rax        # 62d0e0 <FPC_THREADVAR_RELOCATE>
  400db7:	48 8b 00             	mov    (%rax),%rax
  400dba:	48 85 c0             	test   %rax,%rax
  400dbd:	74 10                	je     400dcf <SYSTEM_$$_ERRNO2INOUTRES$$WORD+0x2f>
  400dbf:	48 8d 15 da b2 22 00 	lea    0x22b2da(%rip),%rdx        # 62c0a0 <U_$SYSTEM_$$_INOUTRES>
  400dc6:	8b 3a                	mov    (%rdx),%edi
  400dc8:	ff d0                	callq  *%rax
  400dca:	48 89 c2             	mov    %rax,%rdx
  400dcd:	eb 0b                	jmp    400dda <SYSTEM_$$_ERRNO2INOUTRES$$WORD+0x3a>
  400dcf:	48 8d 15 ca b2 22 00 	lea    0x22b2ca(%rip),%rdx        # 62c0a0 <U_$SYSTEM_$$_INOUTRES>
  400dd6:	48 83 c2 08          	add    $0x8,%rdx
  400dda:	66 89 d8             	mov    %bx,%ax
  400ddd:	66 89 02             	mov    %ax,(%rdx)
  400de0:	25 ff ff 00 00       	and    $0xffff,%eax
  400de5:	5b                   	pop    %rbx
  400de6:	c3                   	retq   
	...

0000000000400df0 <SYSTEM_$$_DO_ISDEVICE$LONGINT$$BOOLEAN>:
  400df0:	48 8d a4 24 f8 fe ff 	lea    -0x108(%rsp),%rsp
  400df7:	ff 
  400df8:	48 89 e2             	mov    %rsp,%rdx
  400dfb:	be 01 54 00 00       	mov    $0x5401,%esi
  400e00:	e8 cb fb ff ff       	callq  4009d0 <FPC_SYSC_IOCTL>
  400e05:	83 f8 ff             	cmp    $0xffffffff,%eax
  400e08:	0f 95 c0             	setne  %al
  400e0b:	25 ff 00 00 00       	and    $0xff,%eax
  400e10:	48 8d a4 24 08 01 00 	lea    0x108(%rsp),%rsp
  400e17:	00 
  400e18:	c3                   	retq   
  400e19:	00 00                	add    %al,(%rax)
  400e1b:	00 00                	add    %al,(%rax)
  400e1d:	00 00                	add    %al,(%rax)
	...

0000000000400e20 <SYSTEM_$$_SPTR$$POINTER>:
  400e20:	48 89 e0             	mov    %rsp,%rax
  400e23:	c3                   	retq   
	...

0000000000400e30 <SYSTEM_$$_GET_PC_ADDR$$POINTER>:
  400e30:	48 8b 04 24          	mov    (%rsp),%rax
  400e34:	c3                   	retq   
	...

0000000000400e40 <SYSTEM_$$_GET_CALLER_ADDR$POINTER$POINTER$$POINTER>:
  400e40:	48 89 f8             	mov    %rdi,%rax
  400e43:	48 85 ff             	test   %rdi,%rdi
  400e46:	74 04                	je     400e4c <SYSTEM_$$_GET_CALLER_ADDR$POINTER$POINTER$$POINTER+0xc>
  400e48:	48 8b 47 08          	mov    0x8(%rdi),%rax
  400e4c:	c3                   	retq   
  400e4d:	00 00                	add    %al,(%rax)
	...

0000000000400e50 <SYSTEM_$$_GET_CALLER_FRAME$POINTER$POINTER$$POINTER>:
  400e50:	48 89 f8             	mov    %rdi,%rax
  400e53:	48 85 ff             	test   %rdi,%rdi
  400e56:	74 03                	je     400e5b <SYSTEM_$$_GET_CALLER_FRAME$POINTER$POINTER$$POINTER+0xb>
  400e58:	48 8b 07             	mov    (%rdi),%rax
  400e5b:	c3                   	retq   
  400e5c:	00 00                	add    %al,(%rax)
	...

0000000000400e60 <FPC_MOVE>:
  400e60:	49 89 d0             	mov    %rdx,%r8
  400e63:	48 89 f2             	mov    %rsi,%rdx
  400e66:	48 89 f9             	mov    %rdi,%rcx
  400e69:	4c 89 c0             	mov    %r8,%rax
  400e6c:	48 29 d1             	sub    %rdx,%rcx
  400e6f:	0f 84 98 00 00 00    	je     400f0d <FPC_MOVE+0xad>
  400e75:	73 09                	jae    400e80 <FPC_MOVE+0x20>
  400e77:	48 01 c8             	add    %rcx,%rax
  400e7a:	0f 82 74 01 00 00    	jb     400ff4 <FPC_MOVE+0x194>
  400e80:	49 83 f8 08          	cmp    $0x8,%r8
  400e84:	0f 8c 6a 00 00 00    	jl     400ef4 <FPC_MOVE+0x94>
  400e8a:	f6 c2 07             	test   $0x7,%dl
  400e8d:	74 37                	je     400ec6 <FPC_MOVE+0x66>
  400e8f:	f6 c2 01             	test   $0x1,%dl
  400e92:	74 0c                	je     400ea0 <FPC_MOVE+0x40>
  400e94:	8a 04 11             	mov    (%rcx,%rdx,1),%al
  400e97:	49 ff c8             	dec    %r8
  400e9a:	88 02                	mov    %al,(%rdx)
  400e9c:	48 83 c2 01          	add    $0x1,%rdx
  400ea0:	f6 c2 02             	test   $0x2,%dl
  400ea3:	74 0f                	je     400eb4 <FPC_MOVE+0x54>
  400ea5:	66 8b 04 11          	mov    (%rcx,%rdx,1),%ax
  400ea9:	49 83 e8 02          	sub    $0x2,%r8
  400ead:	66 89 02             	mov    %ax,(%rdx)
  400eb0:	48 83 c2 02          	add    $0x2,%rdx
  400eb4:	f6 c2 04             	test   $0x4,%dl
  400eb7:	74 0d                	je     400ec6 <FPC_MOVE+0x66>
  400eb9:	8b 04 11             	mov    (%rcx,%rdx,1),%eax
  400ebc:	49 83 e8 04          	sub    $0x4,%r8
  400ec0:	89 02                	mov    %eax,(%rdx)
  400ec2:	48 83 c2 04          	add    $0x4,%rdx
  400ec6:	4d 89 c1             	mov    %r8,%r9
  400ec9:	49 c1 e9 05          	shr    $0x5,%r9
  400ecd:	75 3f                	jne    400f0e <FPC_MOVE+0xae>
  400ecf:	4d 89 c1             	mov    %r8,%r9
  400ed2:	49 c1 e9 03          	shr    $0x3,%r9
  400ed6:	74 1c                	je     400ef4 <FPC_MOVE+0x94>
  400ed8:	66 66 66 90          	data16 data16 xchg %ax,%ax
  400edc:	66 66 66 90          	data16 data16 xchg %ax,%ax
  400ee0:	48 8b 04 11          	mov    (%rcx,%rdx,1),%rax
  400ee4:	48 89 02             	mov    %rax,(%rdx)
  400ee7:	48 83 c2 08          	add    $0x8,%rdx
  400eeb:	49 ff c9             	dec    %r9
  400eee:	75 f0                	jne    400ee0 <FPC_MOVE+0x80>
  400ef0:	49 83 e0 07          	and    $0x7,%r8
  400ef4:	4d 85 c0             	test   %r8,%r8
  400ef7:	7e 14                	jle    400f0d <FPC_MOVE+0xad>
  400ef9:	66 66 66 90          	data16 data16 xchg %ax,%ax
  400efd:	66 66 90             	data16 xchg %ax,%ax
  400f00:	8a 04 11             	mov    (%rcx,%rdx,1),%al
  400f03:	88 02                	mov    %al,(%rdx)
  400f05:	48 ff c2             	inc    %rdx
  400f08:	49 ff c8             	dec    %r8
  400f0b:	75 f3                	jne    400f00 <FPC_MOVE+0xa0>
  400f0d:	c3                   	retq   
  400f0e:	49 81 f9 00 20 00 00 	cmp    $0x2000,%r9
  400f15:	72 09                	jb     400f20 <FPC_MOVE+0xc0>
  400f17:	48 81 f9 00 10 00 00 	cmp    $0x1000,%rcx
  400f1e:	73 36                	jae    400f56 <FPC_MOVE+0xf6>
  400f20:	48 83 c2 20          	add    $0x20,%rdx
  400f24:	48 8b 44 11 e0       	mov    -0x20(%rcx,%rdx,1),%rax
  400f29:	4c 8b 54 11 e8       	mov    -0x18(%rcx,%rdx,1),%r10
  400f2e:	48 89 42 e0          	mov    %rax,-0x20(%rdx)
  400f32:	4c 89 52 e8          	mov    %r10,-0x18(%rdx)
  400f36:	49 ff c9             	dec    %r9
  400f39:	48 8b 44 11 f0       	mov    -0x10(%rcx,%rdx,1),%rax
  400f3e:	4c 8b 54 11 f8       	mov    -0x8(%rcx,%rdx,1),%r10
  400f43:	48 89 42 f0          	mov    %rax,-0x10(%rdx)
  400f47:	4c 89 52 f8          	mov    %r10,-0x8(%rdx)
  400f4b:	75 d3                	jne    400f20 <FPC_MOVE+0xc0>
  400f4d:	49 83 e0 1f          	and    $0x1f,%r8
  400f51:	e9 79 ff ff ff       	jmpq   400ecf <FPC_MOVE+0x6f>
  400f56:	b8 20 00 00 00       	mov    $0x20,%eax
  400f5b:	66 66 66 90          	data16 data16 xchg %ax,%ax
  400f5f:	90                   	nop
  400f60:	0f 18 04 11          	prefetchnta (%rcx,%rdx,1)
  400f64:	0f 18 44 11 40       	prefetchnta 0x40(%rcx,%rdx,1)
  400f69:	48 81 c2 80 00 00 00 	add    $0x80,%rdx
  400f70:	ff c8                	dec    %eax
  400f72:	75 ec                	jne    400f60 <FPC_MOVE+0x100>
  400f74:	48 81 ea 00 10 00 00 	sub    $0x1000,%rdx
  400f7b:	b8 40 00 00 00       	mov    $0x40,%eax
  400f80:	48 83 c2 40          	add    $0x40,%rdx
  400f84:	4c 8b 4c 11 c0       	mov    -0x40(%rcx,%rdx,1),%r9
  400f89:	4c 8b 54 11 c8       	mov    -0x38(%rcx,%rdx,1),%r10
  400f8e:	4c 0f c3 4a c0       	movnti %r9,-0x40(%rdx)
  400f93:	4c 0f c3 52 c8       	movnti %r10,-0x38(%rdx)
  400f98:	4c 8b 4c 11 d0       	mov    -0x30(%rcx,%rdx,1),%r9
  400f9d:	4c 8b 54 11 d8       	mov    -0x28(%rcx,%rdx,1),%r10
  400fa2:	4c 0f c3 4a d0       	movnti %r9,-0x30(%rdx)
  400fa7:	4c 0f c3 52 d8       	movnti %r10,-0x28(%rdx)
  400fac:	ff c8                	dec    %eax
  400fae:	4c 8b 4c 11 e0       	mov    -0x20(%rcx,%rdx,1),%r9
  400fb3:	4c 8b 54 11 e8       	mov    -0x18(%rcx,%rdx,1),%r10
  400fb8:	4c 0f c3 4a e0       	movnti %r9,-0x20(%rdx)
  400fbd:	4c 0f c3 52 e8       	movnti %r10,-0x18(%rdx)
  400fc2:	4c 8b 4c 11 f0       	mov    -0x10(%rcx,%rdx,1),%r9
  400fc7:	4c 8b 54 11 f8       	mov    -0x8(%rcx,%rdx,1),%r10
  400fcc:	4c 0f c3 4a f0       	movnti %r9,-0x10(%rdx)
  400fd1:	4c 0f c3 52 f8       	movnti %r10,-0x8(%rdx)
  400fd6:	75 a8                	jne    400f80 <FPC_MOVE+0x120>
  400fd8:	49 81 e8 00 10 00 00 	sub    $0x1000,%r8
  400fdf:	49 81 f8 00 10 00 00 	cmp    $0x1000,%r8
  400fe6:	0f 83 6a ff ff ff    	jae    400f56 <FPC_MOVE+0xf6>
  400fec:	0f ae f0             	mfence 
  400fef:	e9 d2 fe ff ff       	jmpq   400ec6 <FPC_MOVE+0x66>
  400ff4:	4c 01 c2             	add    %r8,%rdx
  400ff7:	49 83 f8 08          	cmp    $0x8,%r8
  400ffb:	7c 61                	jl     40105e <FPC_MOVE+0x1fe>
  400ffd:	f6 c2 07             	test   $0x7,%dl
  401000:	74 36                	je     401038 <FPC_MOVE+0x1d8>
  401002:	f6 c2 01             	test   $0x1,%dl
  401005:	74 0b                	je     401012 <FPC_MOVE+0x1b2>
  401007:	48 ff ca             	dec    %rdx
  40100a:	8a 04 11             	mov    (%rcx,%rdx,1),%al
  40100d:	49 ff c8             	dec    %r8
  401010:	88 02                	mov    %al,(%rdx)
  401012:	f6 c2 02             	test   $0x2,%dl
  401015:	74 0f                	je     401026 <FPC_MOVE+0x1c6>
  401017:	48 83 ea 02          	sub    $0x2,%rdx
  40101b:	66 8b 04 11          	mov    (%rcx,%rdx,1),%ax
  40101f:	49 83 e8 02          	sub    $0x2,%r8
  401023:	66 89 02             	mov    %ax,(%rdx)
  401026:	f6 c2 04             	test   $0x4,%dl
  401029:	74 0d                	je     401038 <FPC_MOVE+0x1d8>
  40102b:	48 83 ea 04          	sub    $0x4,%rdx
  40102f:	8b 04 11             	mov    (%rcx,%rdx,1),%eax
  401032:	49 83 e8 04          	sub    $0x4,%r8
  401036:	89 02                	mov    %eax,(%rdx)
  401038:	4d 89 c1             	mov    %r8,%r9
  40103b:	49 c1 e9 05          	shr    $0x5,%r9
  40103f:	75 3d                	jne    40107e <FPC_MOVE+0x21e>
  401041:	4d 89 c1             	mov    %r8,%r9
  401044:	49 c1 e9 03          	shr    $0x3,%r9
  401048:	74 14                	je     40105e <FPC_MOVE+0x1fe>
  40104a:	48 83 ea 08          	sub    $0x8,%rdx
  40104e:	48 8b 04 11          	mov    (%rcx,%rdx,1),%rax
  401052:	49 ff c9             	dec    %r9
  401055:	48 89 02             	mov    %rax,(%rdx)
  401058:	75 f0                	jne    40104a <FPC_MOVE+0x1ea>
  40105a:	49 83 e0 07          	and    $0x7,%r8
  40105e:	4d 85 c0             	test   %r8,%r8
  401061:	7e 1a                	jle    40107d <FPC_MOVE+0x21d>
  401063:	66 66 66 90          	data16 data16 xchg %ax,%ax
  401067:	66 66 66 90          	data16 data16 xchg %ax,%ax
  40106b:	66 66 66 90          	data16 data16 xchg %ax,%ax
  40106f:	90                   	nop
  401070:	48 ff ca             	dec    %rdx
  401073:	8a 04 11             	mov    (%rcx,%rdx,1),%al
  401076:	49 ff c8             	dec    %r8
  401079:	88 02                	mov    %al,(%rdx)
  40107b:	75 f3                	jne    401070 <FPC_MOVE+0x210>
  40107d:	c3                   	retq   
  40107e:	49 81 f9 00 20 00 00 	cmp    $0x2000,%r9
  401085:	72 09                	jb     401090 <FPC_MOVE+0x230>
  401087:	48 81 f9 00 f0 ff ff 	cmp    $0xfffffffffffff000,%rcx
  40108e:	72 34                	jb     4010c4 <FPC_MOVE+0x264>
  401090:	48 83 ea 20          	sub    $0x20,%rdx
  401094:	48 8b 44 11 18       	mov    0x18(%rcx,%rdx,1),%rax
  401099:	4c 8b 54 11 10       	mov    0x10(%rcx,%rdx,1),%r10
  40109e:	48 89 42 18          	mov    %rax,0x18(%rdx)
  4010a2:	4c 89 52 10          	mov    %r10,0x10(%rdx)
  4010a6:	49 ff c9             	dec    %r9
  4010a9:	48 8b 44 11 08       	mov    0x8(%rcx,%rdx,1),%rax
  4010ae:	4c 8b 14 11          	mov    (%rcx,%rdx,1),%r10
  4010b2:	48 89 42 08          	mov    %rax,0x8(%rdx)
  4010b6:	4c 89 12             	mov    %r10,(%rdx)
  4010b9:	75 d5                	jne    401090 <FPC_MOVE+0x230>
  4010bb:	49 83 e0 1f          	and    $0x1f,%r8
  4010bf:	e9 7d ff ff ff       	jmpq   401041 <FPC_MOVE+0x1e1>
  4010c4:	b8 20 00 00 00       	mov    $0x20,%eax
  4010c9:	66 66 66 90          	data16 data16 xchg %ax,%ax
  4010cd:	66 66 90             	data16 xchg %ax,%ax
  4010d0:	48 81 ea 80 00 00 00 	sub    $0x80,%rdx
  4010d7:	0f 18 04 11          	prefetchnta (%rcx,%rdx,1)
  4010db:	0f 18 44 11 40       	prefetchnta 0x40(%rcx,%rdx,1)
  4010e0:	ff c8                	dec    %eax
  4010e2:	75 ec                	jne    4010d0 <FPC_MOVE+0x270>
  4010e4:	48 81 c2 00 10 00 00 	add    $0x1000,%rdx
  4010eb:	b8 40 00 00 00       	mov    $0x40,%eax
  4010f0:	48 83 ea 40          	sub    $0x40,%rdx
  4010f4:	4c 8b 4c 11 38       	mov    0x38(%rcx,%rdx,1),%r9
  4010f9:	4c 8b 54 11 30       	mov    0x30(%rcx,%rdx,1),%r10
  4010fe:	4c 0f c3 4a 38       	movnti %r9,0x38(%rdx)
  401103:	4c 0f c3 52 30       	movnti %r10,0x30(%rdx)
  401108:	4c 8b 4c 11 28       	mov    0x28(%rcx,%rdx,1),%r9
  40110d:	4c 8b 54 11 20       	mov    0x20(%rcx,%rdx,1),%r10
  401112:	4c 0f c3 4a 28       	movnti %r9,0x28(%rdx)
  401117:	4c 0f c3 52 20       	movnti %r10,0x20(%rdx)
  40111c:	ff c8                	dec    %eax
  40111e:	4c 8b 4c 11 18       	mov    0x18(%rcx,%rdx,1),%r9
  401123:	4c 8b 54 11 10       	mov    0x10(%rcx,%rdx,1),%r10
  401128:	4c 0f c3 4a 18       	movnti %r9,0x18(%rdx)
  40112d:	4c 0f c3 52 10       	movnti %r10,0x10(%rdx)
  401132:	4c 8b 4c 11 08       	mov    0x8(%rcx,%rdx,1),%r9
  401137:	4c 8b 14 11          	mov    (%rcx,%rdx,1),%r10
  40113b:	4c 0f c3 4a 08       	movnti %r9,0x8(%rdx)
  401140:	4c 0f c3 12          	movnti %r10,(%rdx)
  401144:	75 aa                	jne    4010f0 <FPC_MOVE+0x290>
  401146:	49 81 e8 00 10 00 00 	sub    $0x1000,%r8
  40114d:	49 81 f8 00 10 00 00 	cmp    $0x1000,%r8
  401154:	0f 83 6a ff ff ff    	jae    4010c4 <FPC_MOVE+0x264>
  40115a:	0f ae f0             	mfence 
  40115d:	e9 d6 fe ff ff       	jmpq   401038 <FPC_MOVE+0x1d8>
  401162:	c3                   	retq   
	...

0000000000401170 <SYSTEM_$$_FILLCHAR$formal$INT64$BYTE>:
  401170:	49 89 d0             	mov    %rdx,%r8
  401173:	48 89 f2             	mov    %rsi,%rdx
  401176:	48 89 f9             	mov    %rdi,%rcx
  401179:	48 83 fa 08          	cmp    $0x8,%rdx
  40117d:	0f 8c 79 00 00 00    	jl     4011fc <SYSTEM_$$_FILLCHAR$formal$INT64$BYTE+0x8c>
  401183:	49 81 e0 ff 00 00 00 	and    $0xff,%r8
  40118a:	49 b9 01 01 01 01 01 	movabs $0x101010101010101,%r9
  401191:	01 01 01 
  401194:	4d 0f af c1          	imul   %r9,%r8
  401198:	f6 c1 07             	test   $0x7,%cl
  40119b:	74 31                	je     4011ce <SYSTEM_$$_FILLCHAR$formal$INT64$BYTE+0x5e>
  40119d:	f6 c1 01             	test   $0x1,%cl
  4011a0:	74 0b                	je     4011ad <SYSTEM_$$_FILLCHAR$formal$INT64$BYTE+0x3d>
  4011a2:	44 88 01             	mov    %r8b,(%rcx)
  4011a5:	48 83 c1 01          	add    $0x1,%rcx
  4011a9:	48 83 ea 01          	sub    $0x1,%rdx
  4011ad:	f6 c1 02             	test   $0x2,%cl
  4011b0:	74 0c                	je     4011be <SYSTEM_$$_FILLCHAR$formal$INT64$BYTE+0x4e>
  4011b2:	66 44 89 01          	mov    %r8w,(%rcx)
  4011b6:	48 83 c1 02          	add    $0x2,%rcx
  4011ba:	48 83 ea 02          	sub    $0x2,%rdx
  4011be:	f6 c1 04             	test   $0x4,%cl
  4011c1:	74 0b                	je     4011ce <SYSTEM_$$_FILLCHAR$formal$INT64$BYTE+0x5e>
  4011c3:	44 89 01             	mov    %r8d,(%rcx)
  4011c6:	48 83 c1 04          	add    $0x4,%rcx
  4011ca:	48 83 ea 04          	sub    $0x4,%rdx
  4011ce:	48 89 d0             	mov    %rdx,%rax
  4011d1:	48 83 e2 3f          	and    $0x3f,%rdx
  4011d5:	48 c1 e8 06          	shr    $0x6,%rax
  4011d9:	75 32                	jne    40120d <SYSTEM_$$_FILLCHAR$formal$INT64$BYTE+0x9d>
  4011db:	48 89 d0             	mov    %rdx,%rax
  4011de:	48 83 e2 07          	and    $0x7,%rdx
  4011e2:	48 c1 e8 03          	shr    $0x3,%rax
  4011e6:	74 14                	je     4011fc <SYSTEM_$$_FILLCHAR$formal$INT64$BYTE+0x8c>
  4011e8:	66 66 66 90          	data16 data16 xchg %ax,%ax
  4011ec:	66 66 66 90          	data16 data16 xchg %ax,%ax
  4011f0:	4c 89 01             	mov    %r8,(%rcx)
  4011f3:	48 83 c1 08          	add    $0x8,%rcx
  4011f7:	48 ff c8             	dec    %rax
  4011fa:	75 f4                	jne    4011f0 <SYSTEM_$$_FILLCHAR$formal$INT64$BYTE+0x80>
  4011fc:	48 85 d2             	test   %rdx,%rdx
  4011ff:	7e 0b                	jle    40120c <SYSTEM_$$_FILLCHAR$formal$INT64$BYTE+0x9c>
  401201:	44 88 01             	mov    %r8b,(%rcx)
  401204:	48 ff c1             	inc    %rcx
  401207:	48 ff ca             	dec    %rdx
  40120a:	75 f5                	jne    401201 <SYSTEM_$$_FILLCHAR$formal$INT64$BYTE+0x91>
  40120c:	c3                   	retq   
  40120d:	48 3d 00 20 00 00    	cmp    $0x2000,%rax
  401213:	73 3b                	jae    401250 <SYSTEM_$$_FILLCHAR$formal$INT64$BYTE+0xe0>
  401215:	66 66 66 90          	data16 data16 xchg %ax,%ax
  401219:	66 66 66 90          	data16 data16 xchg %ax,%ax
  40121d:	66 66 90             	data16 xchg %ax,%ax
  401220:	48 83 c1 40          	add    $0x40,%rcx
  401224:	4c 89 41 c0          	mov    %r8,-0x40(%rcx)
  401228:	4c 89 41 c8          	mov    %r8,-0x38(%rcx)
  40122c:	4c 89 41 d0          	mov    %r8,-0x30(%rcx)
  401230:	4c 89 41 d8          	mov    %r8,-0x28(%rcx)
  401234:	48 ff c8             	dec    %rax
  401237:	4c 89 41 e0          	mov    %r8,-0x20(%rcx)
  40123b:	4c 89 41 e8          	mov    %r8,-0x18(%rcx)
  40123f:	4c 89 41 f0          	mov    %r8,-0x10(%rcx)
  401243:	4c 89 41 f8          	mov    %r8,-0x8(%rcx)
  401247:	75 d7                	jne    401220 <SYSTEM_$$_FILLCHAR$formal$INT64$BYTE+0xb0>
  401249:	eb 90                	jmp    4011db <SYSTEM_$$_FILLCHAR$formal$INT64$BYTE+0x6b>
  40124b:	66 66 66 90          	data16 data16 xchg %ax,%ax
  40124f:	90                   	nop
  401250:	48 83 c1 40          	add    $0x40,%rcx
  401254:	4c 0f c3 41 c0       	movnti %r8,-0x40(%rcx)
  401259:	4c 0f c3 41 c8       	movnti %r8,-0x38(%rcx)
  40125e:	4c 0f c3 41 d0       	movnti %r8,-0x30(%rcx)
  401263:	4c 0f c3 41 d8       	movnti %r8,-0x28(%rcx)
  401268:	48 ff c8             	dec    %rax
  40126b:	4c 0f c3 41 e0       	movnti %r8,-0x20(%rcx)
  401270:	4c 0f c3 41 e8       	movnti %r8,-0x18(%rcx)
  401275:	4c 0f c3 41 f0       	movnti %r8,-0x10(%rcx)
  40127a:	4c 0f c3 41 f8       	movnti %r8,-0x8(%rcx)
  40127f:	75 cf                	jne    401250 <SYSTEM_$$_FILLCHAR$formal$INT64$BYTE+0xe0>
  401281:	0f ae f0             	mfence 
  401284:	e9 52 ff ff ff       	jmpq   4011db <SYSTEM_$$_FILLCHAR$formal$INT64$BYTE+0x6b>
  401289:	c3                   	retq   
  40128a:	00 00                	add    %al,(%rax)
  40128c:	00 00                	add    %al,(%rax)
	...

0000000000401290 <SYSTEM_$$_INDEXBYTE$formal$INT64$BYTE$$INT64>:
  401290:	66 0f 6e ca          	movd   %edx,%xmm1
  401294:	48 89 f9             	mov    %rdi,%rcx
  401297:	48 89 f2             	mov    %rsi,%rdx
  40129a:	49 89 c8             	mov    %rcx,%r8
  40129d:	66 0f 60 c9          	punpcklbw %xmm1,%xmm1
  4012a1:	48 83 e1 f0          	and    $0xfffffffffffffff0,%rcx
  4012a5:	48 85 d2             	test   %rdx,%rdx
  4012a8:	66 0f 60 c9          	punpcklbw %xmm1,%xmm1
  4012ac:	74 4d                	je     4012fb <SYSTEM_$$_INDEXBYTE$formal$INT64$BYTE$$INT64+0x6b>
  4012ae:	48 83 c1 10          	add    $0x10,%rcx
  4012b2:	66 0f 70 c9 00       	pshufd $0x0,%xmm1,%xmm1
  4012b7:	66 0f 6f 41 f0       	movdqa -0x10(%rcx),%xmm0
  4012bc:	4c 29 c1             	sub    %r8,%rcx
  4012bf:	66 0f 74 c1          	pcmpeqb %xmm1,%xmm0
  4012c3:	66 0f d7 c0          	pmovmskb %xmm0,%eax
  4012c7:	d3 e0                	shl    %cl,%eax
  4012c9:	25 00 00 ff ff       	and    $0xffff0000,%eax
  4012ce:	d3 e8                	shr    %cl,%eax
  4012d0:	eb 20                	jmp    4012f2 <SYSTEM_$$_INDEXBYTE$formal$INT64$BYTE$$INT64+0x62>
  4012d2:	66 66 66 90          	data16 data16 xchg %ax,%ax
  4012d6:	66 66 66 90          	data16 data16 xchg %ax,%ax
  4012da:	66 66 66 90          	data16 data16 xchg %ax,%ax
  4012de:	66 90                	xchg   %ax,%ax
  4012e0:	66 41 0f 6f 04 08    	movdqa (%r8,%rcx,1),%xmm0
  4012e6:	48 83 c1 10          	add    $0x10,%rcx
  4012ea:	66 0f 74 c1          	pcmpeqb %xmm1,%xmm0
  4012ee:	66 0f d7 c0          	pmovmskb %xmm0,%eax
  4012f2:	85 c0                	test   %eax,%eax
  4012f4:	75 0a                	jne    401300 <SYSTEM_$$_INDEXBYTE$formal$INT64$BYTE$$INT64+0x70>
  4012f6:	48 39 ca             	cmp    %rcx,%rdx
  4012f9:	77 e5                	ja     4012e0 <SYSTEM_$$_INDEXBYTE$formal$INT64$BYTE$$INT64+0x50>
  4012fb:	48 83 c8 ff          	or     $0xffffffffffffffff,%rax
  4012ff:	c3                   	retq   
  401300:	0f bc c0             	bsf    %eax,%eax
  401303:	48 8d 44 01 f0       	lea    -0x10(%rcx,%rax,1),%rax
  401308:	48 39 c2             	cmp    %rax,%rdx
  40130b:	76 ee                	jbe    4012fb <SYSTEM_$$_INDEXBYTE$formal$INT64$BYTE$$INT64+0x6b>
  40130d:	c3                   	retq   
	...

0000000000401310 <SYSTEM_$$_INDEXWORD$formal$INT64$WORD$$INT64>:
  401310:	66 0f 6e ca          	movd   %edx,%xmm1
  401314:	48 89 f9             	mov    %rdi,%rcx
  401317:	48 89 f2             	mov    %rsi,%rdx
  40131a:	49 89 c8             	mov    %rcx,%r8
  40131d:	66 0f 61 c9          	punpcklwd %xmm1,%xmm1
  401321:	48 83 e1 f0          	and    $0xfffffffffffffff0,%rcx
  401325:	48 85 d2             	test   %rdx,%rdx
  401328:	66 0f 70 c9 00       	pshufd $0x0,%xmm1,%xmm1
  40132d:	74 4c                	je     40137b <SYSTEM_$$_INDEXWORD$formal$INT64$WORD$$INT64+0x6b>
  40132f:	48 83 c1 10          	add    $0x10,%rcx
  401333:	66 0f 6f 41 f0       	movdqa -0x10(%rcx),%xmm0
  401338:	4c 29 c1             	sub    %r8,%rcx
  40133b:	41 f6 c0 01          	test   $0x1,%r8b
  40133f:	75 4f                	jne    401390 <SYSTEM_$$_INDEXWORD$formal$INT64$WORD$$INT64+0x80>
  401341:	66 0f 75 c1          	pcmpeqw %xmm1,%xmm0
  401345:	66 0f d7 c0          	pmovmskb %xmm0,%eax
  401349:	d3 e0                	shl    %cl,%eax
  40134b:	25 00 00 ff ff       	and    $0xffff0000,%eax
  401350:	d3 e8                	shr    %cl,%eax
  401352:	d1 e9                	shr    %ecx
  401354:	eb 1c                	jmp    401372 <SYSTEM_$$_INDEXWORD$formal$INT64$WORD$$INT64+0x62>
  401356:	66 66 66 90          	data16 data16 xchg %ax,%ax
  40135a:	66 66 66 90          	data16 data16 xchg %ax,%ax
  40135e:	66 90                	xchg   %ax,%ax
  401360:	66 41 0f 6f 04 48    	movdqa (%r8,%rcx,2),%xmm0
  401366:	48 83 c1 08          	add    $0x8,%rcx
  40136a:	66 0f 75 c1          	pcmpeqw %xmm1,%xmm0
  40136e:	66 0f d7 c0          	pmovmskb %xmm0,%eax
  401372:	85 c0                	test   %eax,%eax
  401374:	75 0a                	jne    401380 <SYSTEM_$$_INDEXWORD$formal$INT64$WORD$$INT64+0x70>
  401376:	48 39 ca             	cmp    %rcx,%rdx
  401379:	77 e5                	ja     401360 <SYSTEM_$$_INDEXWORD$formal$INT64$WORD$$INT64+0x50>
  40137b:	48 83 c8 ff          	or     $0xffffffffffffffff,%rax
  40137f:	c3                   	retq   
  401380:	0f bc c0             	bsf    %eax,%eax
  401383:	d1 e8                	shr    %eax
  401385:	48 8d 44 01 f8       	lea    -0x8(%rcx,%rax,1),%rax
  40138a:	48 39 c2             	cmp    %rax,%rdx
  40138d:	76 ec                	jbe    40137b <SYSTEM_$$_INDEXWORD$formal$INT64$WORD$$INT64+0x6b>
  40138f:	c3                   	retq   
  401390:	66 0f 7f ca          	movdqa %xmm1,%xmm2
  401394:	66 0f 71 f1 08       	psllw  $0x8,%xmm1
  401399:	66 0f 71 d2 08       	psrlw  $0x8,%xmm2
  40139e:	66 0f eb ca          	por    %xmm2,%xmm1
  4013a2:	66 0f 74 c1          	pcmpeqb %xmm1,%xmm0
  4013a6:	66 0f d7 c0          	pmovmskb %xmm0,%eax
  4013aa:	d3 e0                	shl    %cl,%eax
  4013ac:	25 00 00 ff ff       	and    $0xffff0000,%eax
  4013b1:	d3 e8                	shr    %cl,%eax
  4013b3:	48 01 d2             	add    %rdx,%rdx
  4013b6:	45 31 d2             	xor    %r10d,%r10d
  4013b9:	eb 1b                	jmp    4013d6 <SYSTEM_$$_INDEXWORD$formal$INT64$WORD$$INT64+0xc6>
  4013bb:	66 66 66 90          	data16 data16 xchg %ax,%ax
  4013bf:	90                   	nop
  4013c0:	66 41 0f 6f 04 08    	movdqa (%r8,%rcx,1),%xmm0
  4013c6:	48 83 c1 10          	add    $0x10,%rcx
  4013ca:	66 0f 74 c1          	pcmpeqb %xmm1,%xmm0
  4013ce:	41 c1 ea 10          	shr    $0x10,%r10d
  4013d2:	66 0f d7 c0          	pmovmskb %xmm0,%eax
  4013d6:	d1 e0                	shl    %eax
  4013d8:	44 09 d0             	or     %r10d,%eax
  4013db:	41 89 c2             	mov    %eax,%r10d
  4013de:	d1 e8                	shr    %eax
  4013e0:	44 21 d0             	and    %r10d,%eax
  4013e3:	25 55 55 00 00       	and    $0x5555,%eax
  4013e8:	75 0a                	jne    4013f4 <SYSTEM_$$_INDEXWORD$formal$INT64$WORD$$INT64+0xe4>
  4013ea:	48 39 ca             	cmp    %rcx,%rdx
  4013ed:	77 d1                	ja     4013c0 <SYSTEM_$$_INDEXWORD$formal$INT64$WORD$$INT64+0xb0>
  4013ef:	48 83 c8 ff          	or     $0xffffffffffffffff,%rax
  4013f3:	c3                   	retq   
  4013f4:	0f bc c0             	bsf    %eax,%eax
  4013f7:	48 8d 44 01 f0       	lea    -0x10(%rcx,%rax,1),%rax
  4013fc:	48 39 c2             	cmp    %rax,%rdx
  4013ff:	76 ee                	jbe    4013ef <SYSTEM_$$_INDEXWORD$formal$INT64$WORD$$INT64+0xdf>
  401401:	48 d1 f8             	sar    %rax
  401404:	c3                   	retq   
	...

0000000000401410 <SYSTEM_$$_COMPAREBYTE$formal$formal$INT64$$INT64>:
  401410:	49 89 d0             	mov    %rdx,%r8
  401413:	48 89 f2             	mov    %rsi,%rdx
  401416:	48 89 f9             	mov    %rdi,%rcx
  401419:	4d 85 c0             	test   %r8,%r8
  40141c:	74 24                	je     401442 <SYSTEM_$$_COMPAREBYTE$formal$formal$INT64$$INT64+0x32>
  40141e:	66 90                	xchg   %ax,%ax
  401420:	44 8a 09             	mov    (%rcx),%r9b
  401423:	44 3a 0a             	cmp    (%rdx),%r9b
  401426:	48 8d 49 01          	lea    0x1(%rcx),%rcx
  40142a:	48 8d 52 01          	lea    0x1(%rdx),%rdx
  40142e:	75 05                	jne    401435 <SYSTEM_$$_COMPAREBYTE$formal$formal$INT64$$INT64+0x25>
  401430:	49 ff c8             	dec    %r8
  401433:	75 eb                	jne    401420 <SYSTEM_$$_COMPAREBYTE$formal$formal$INT64$$INT64+0x10>
  401435:	4c 0f b6 42 ff       	movzbq -0x1(%rdx),%r8
  40143a:	49 0f b6 c1          	movzbq %r9b,%rax
  40143e:	4c 29 c0             	sub    %r8,%rax
  401441:	c3                   	retq   
  401442:	48 b8 00 00 00 00 00 	movabs $0x0,%rax
  401449:	00 00 00 
  40144c:	c3                   	retq   
  40144d:	c3                   	retq   
	...

0000000000401450 <SYSTEM_$$_DECLOCKED$LONGINT$$BOOLEAN>:
  401450:	48 8d 05 29 24 22 00 	lea    0x222429(%rip),%rax        # 623880 <TC_$SYSTEM_$$_ISMULTITHREAD>
  401457:	83 38 00             	cmpl   $0x0,(%rax)
  40145a:	48 89 f9             	mov    %rdi,%rcx
  40145d:	74 05                	je     401464 <SYSTEM_$$_DECLOCKED$LONGINT$$BOOLEAN+0x14>
  40145f:	f0 ff 09             	lock decl (%rcx)
  401462:	eb 02                	jmp    401466 <SYSTEM_$$_DECLOCKED$LONGINT$$BOOLEAN+0x16>
  401464:	ff 09                	decl   (%rcx)
  401466:	0f 94 c0             	sete   %al
  401469:	c3                   	retq   
  40146a:	00 00                	add    %al,(%rax)
  40146c:	00 00                	add    %al,(%rax)
	...

0000000000401470 <SYSTEM_$$_DECLOCKED$INT64$$BOOLEAN>:
  401470:	48 8d 05 09 24 22 00 	lea    0x222409(%rip),%rax        # 623880 <TC_$SYSTEM_$$_ISMULTITHREAD>
  401477:	83 38 00             	cmpl   $0x0,(%rax)
  40147a:	48 89 f9             	mov    %rdi,%rcx
  40147d:	74 06                	je     401485 <SYSTEM_$$_DECLOCKED$INT64$$BOOLEAN+0x15>
  40147f:	f0 48 ff 09          	lock decq (%rcx)
  401483:	eb 03                	jmp    401488 <SYSTEM_$$_DECLOCKED$INT64$$BOOLEAN+0x18>
  401485:	48 ff 09             	decq   (%rcx)
  401488:	0f 94 c0             	sete   %al
  40148b:	c3                   	retq   
  40148c:	00 00                	add    %al,(%rax)
	...

0000000000401490 <SYSTEM_$$_INCLOCKED$LONGINT>:
  401490:	48 8d 05 e9 23 22 00 	lea    0x2223e9(%rip),%rax        # 623880 <TC_$SYSTEM_$$_ISMULTITHREAD>
  401497:	83 38 00             	cmpl   $0x0,(%rax)
  40149a:	48 89 f9             	mov    %rdi,%rcx
  40149d:	74 05                	je     4014a4 <SYSTEM_$$_INCLOCKED$LONGINT+0x14>
  40149f:	f0 ff 01             	lock incl (%rcx)
  4014a2:	eb 02                	jmp    4014a6 <SYSTEM_$$_INCLOCKED$LONGINT+0x16>
  4014a4:	ff 01                	incl   (%rcx)
  4014a6:	c3                   	retq   
	...

00000000004014b0 <SYSTEM_$$_INCLOCKED$INT64>:
  4014b0:	48 8d 05 c9 23 22 00 	lea    0x2223c9(%rip),%rax        # 623880 <TC_$SYSTEM_$$_ISMULTITHREAD>
  4014b7:	83 38 00             	cmpl   $0x0,(%rax)
  4014ba:	48 89 f9             	mov    %rdi,%rcx
  4014bd:	74 06                	je     4014c5 <SYSTEM_$$_INCLOCKED$INT64+0x15>
  4014bf:	f0 48 ff 01          	lock incq (%rcx)
  4014c3:	eb 03                	jmp    4014c8 <SYSTEM_$$_INCLOCKED$INT64+0x18>
  4014c5:	48 ff 01             	incq   (%rcx)
  4014c8:	c3                   	retq   
  4014c9:	00 00                	add    %al,(%rax)
  4014cb:	00 00                	add    %al,(%rax)
  4014cd:	00 00                	add    %al,(%rax)
	...

00000000004014d0 <FPC_INTERLOCKEDDECREMENT>:
  4014d0:	48 89 f8             	mov    %rdi,%rax
  4014d3:	ba ff ff ff ff       	mov    $0xffffffff,%edx
  4014d8:	48 92                	xchg   %rax,%rdx
  4014da:	f0 0f c1 02          	lock xadd %eax,(%rdx)
  4014de:	ff c8                	dec    %eax
  4014e0:	c3                   	retq   
	...

00000000004014f0 <FPC_INTERLOCKEDINCREMENT>:
  4014f0:	48 89 f8             	mov    %rdi,%rax
  4014f3:	ba 01 00 00 00       	mov    $0x1,%edx
  4014f8:	48 92                	xchg   %rax,%rdx
  4014fa:	f0 0f c1 02          	lock xadd %eax,(%rdx)
  4014fe:	ff c0                	inc    %eax
  401500:	c3                   	retq   
	...

0000000000401510 <FPC_INTERLOCKEDEXCHANGE>:
  401510:	87 37                	xchg   %esi,(%rdi)
  401512:	89 f0                	mov    %esi,%eax
  401514:	c3                   	retq   
	...

0000000000401520 <FPC_INTERLOCKEDEXCHANGEADD>:
  401520:	48 87 f7             	xchg   %rsi,%rdi
  401523:	f0 0f c1 3e          	lock xadd %edi,(%rsi)
  401527:	89 f8                	mov    %edi,%eax
  401529:	c3                   	retq   
  40152a:	00 00                	add    %al,(%rax)
  40152c:	00 00                	add    %al,(%rax)
	...

0000000000401530 <FPC_INTERLOCKEDCOMPAREEXCHANGE>:
  401530:	89 d0                	mov    %edx,%eax
  401532:	f0 0f b1 37          	lock cmpxchg %esi,(%rdi)
  401536:	c3                   	retq   
	...

0000000000401540 <FPC_INTERLOCKEDDECREMENT64>:
  401540:	48 89 f8             	mov    %rdi,%rax
  401543:	48 ba ff ff ff ff ff 	movabs $0xffffffffffffffff,%rdx
  40154a:	ff ff ff 
  40154d:	48 92                	xchg   %rax,%rdx
  40154f:	f0 48 0f c1 02       	lock xadd %rax,(%rdx)
  401554:	48 ff c8             	dec    %rax
  401557:	c3                   	retq   
	...

0000000000401560 <FPC_INTERLOCKEDINCREMENT64>:
  401560:	48 89 f8             	mov    %rdi,%rax
  401563:	48 ba 01 00 00 00 00 	movabs $0x1,%rdx
  40156a:	00 00 00 
  40156d:	48 92                	xchg   %rax,%rdx
  40156f:	f0 48 0f c1 02       	lock xadd %rax,(%rdx)
  401574:	48 ff c0             	inc    %rax
  401577:	c3                   	retq   
	...

0000000000401580 <FPC_INTERLOCKEDEXCHANGE64>:
  401580:	48 87 37             	xchg   %rsi,(%rdi)
  401583:	48 89 f0             	mov    %rsi,%rax
  401586:	c3                   	retq   
	...

0000000000401590 <FPC_INTERLOCKEDEXCHANGEADD64>:
  401590:	48 87 f7             	xchg   %rsi,%rdi
  401593:	f0 48 0f c1 3e       	lock xadd %rdi,(%rsi)
  401598:	48 89 f8             	mov    %rdi,%rax
  40159b:	c3                   	retq   
  40159c:	00 00                	add    %al,(%rax)
	...

00000000004015a0 <FPC_INTERLOCKEDCOMPAREEXCHANGE64>:
  4015a0:	48 89 d0             	mov    %rdx,%rax
  4015a3:	f0 48 0f b1 37       	lock cmpxchg %rsi,(%rdi)
  4015a8:	c3                   	retq   
  4015a9:	00 00                	add    %al,(%rax)
  4015ab:	00 00                	add    %al,(%rax)
  4015ad:	00 00                	add    %al,(%rax)
	...

00000000004015b0 <SYSTEM_$$_FPC_CPUINIT>:
  4015b0:	48 8d 64 24 f8       	lea    -0x8(%rsp),%rsp
  4015b5:	48 8d 05 34 23 22 00 	lea    0x222334(%rip),%rax        # 6238f0 <operatingsystem_islibrary>
  4015bc:	80 38 00             	cmpb   $0x0,(%rax)
  4015bf:	74 1d                	je     4015de <SYSTEM_$$_FPC_CPUINIT+0x2e>
  4015c1:	e8 4a 1e 00 00       	callq  403410 <SYSTEM_$$_GET8087CW$$WORD>
  4015c6:	48 8d 15 73 23 22 00 	lea    0x222373(%rip),%rdx        # 623940 <TC_$SYSTEM_$$_DEFAULT8087CW>
  4015cd:	66 89 02             	mov    %ax,(%rdx)
  4015d0:	e8 7b 1e 00 00       	callq  403450 <SYSTEM_$$_GETMXCSR$$LONGWORD>
  4015d5:	48 8d 15 74 23 22 00 	lea    0x222374(%rip),%rdx        # 623950 <TC_$SYSTEM_$$_DEFAULTMXCSR>
  4015dc:	89 02                	mov    %eax,(%rdx)
  4015de:	e8 1d 00 00 00       	callq  401600 <SYSTEM_$$_SYSRESETFPU>
  4015e3:	48 8d 64 24 08       	lea    0x8(%rsp),%rsp
  4015e8:	c3                   	retq   
  4015e9:	00 00                	add    %al,(%rax)
  4015eb:	00 00                	add    %al,(%rax)
  4015ed:	00 00                	add    %al,(%rax)
	...

00000000004015f0 <SYSTEM_$$_SYSINITFPU>:
  4015f0:	c3                   	retq   
	...

0000000000401600 <SYSTEM_$$_SYSRESETFPU>:
  401600:	55                   	push   %rbp
  401601:	48 89 e5             	mov    %rsp,%rbp
  401604:	48 8d 64 24 f0       	lea    -0x10(%rsp),%rsp
  401609:	48 8d 05 30 23 22 00 	lea    0x222330(%rip),%rax        # 623940 <TC_$SYSTEM_$$_DEFAULT8087CW>
  401610:	66 8b 00             	mov    (%rax),%ax
  401613:	66 89 45 f8          	mov    %ax,-0x8(%rbp)
  401617:	48 8d 05 32 23 22 00 	lea    0x222332(%rip),%rax        # 623950 <TC_$SYSTEM_$$_DEFAULTMXCSR>
  40161e:	8b 00                	mov    (%rax),%eax
  401620:	89 45 fc             	mov    %eax,-0x4(%rbp)
  401623:	db e3                	fninit 
  401625:	9b d9 6d f8          	fldcw  -0x8(%rbp)
  401629:	0f ae 55 fc          	ldmxcsr -0x4(%rbp)
  40162d:	c9                   	leaveq 
  40162e:	c3                   	retq   
	...

0000000000401630 <SYSTEM_$$_READBARRIER>:
  401630:	0f ae e8             	lfence 
  401633:	c3                   	retq   
	...

0000000000401640 <SYSTEM_$$_READDEPENDENCYBARRIER>:
  401640:	c3                   	retq   
	...

0000000000401650 <SYSTEM_$$_READWRITEBARRIER>:
  401650:	0f ae f0             	mfence 
  401653:	c3                   	retq   
	...

0000000000401660 <SYSTEM_$$_WRITEBARRIER>:
  401660:	0f ae f8             	sfence 
  401663:	c3                   	retq   
	...

0000000000401670 <SYSTEM_$$_SWAPENDIAN$SMALLINT$$SMALLINT>:
  401670:	66 89 f8             	mov    %di,%ax
  401673:	25 ff ff 00 00       	and    $0xffff,%eax
  401678:	89 c2                	mov    %eax,%edx
  40167a:	c1 ea 08             	shr    $0x8,%edx
  40167d:	c1 e0 08             	shl    $0x8,%eax
  401680:	09 d0                	or     %edx,%eax
  401682:	0f bf c0             	movswl %ax,%eax
  401685:	c3                   	retq   
	...

0000000000401690 <SYSTEM_$$_SWAPENDIAN$WORD$$WORD>:
  401690:	66 89 f8             	mov    %di,%ax
  401693:	25 ff ff 00 00       	and    $0xffff,%eax
  401698:	89 c2                	mov    %eax,%edx
  40169a:	c1 ea 08             	shr    $0x8,%edx
  40169d:	c1 e0 08             	shl    $0x8,%eax
  4016a0:	09 d0                	or     %edx,%eax
  4016a2:	25 ff ff 00 00       	and    $0xffff,%eax
  4016a7:	c3                   	retq   
	...

00000000004016b0 <SYSTEM_$$_SWAPENDIAN$LONGINT$$LONGINT>:
  4016b0:	89 f8                	mov    %edi,%eax
  4016b2:	0f c8                	bswap  %eax
  4016b4:	c3                   	retq   
	...

00000000004016c0 <SYSTEM_$$_SWAPENDIAN$LONGWORD$$LONGWORD>:
  4016c0:	89 f8                	mov    %edi,%eax
  4016c2:	0f c8                	bswap  %eax
  4016c4:	c3                   	retq   
	...

00000000004016d0 <SYSTEM_$$_SWAPENDIAN$INT64$$INT64>:
  4016d0:	48 89 f8             	mov    %rdi,%rax
  4016d3:	48 0f c8             	bswap  %rax
  4016d6:	c3                   	retq   
	...

00000000004016e0 <SYSTEM_$$_SWAPENDIAN$QWORD$$QWORD>:
  4016e0:	48 89 f8             	mov    %rdi,%rax
  4016e3:	48 0f c8             	bswap  %rax
  4016e6:	c3                   	retq   
	...

00000000004016f0 <SYSTEM_$$_FILLCHAR$formal$INT64$BOOLEAN>:
  4016f0:	48 8d 64 24 f8       	lea    -0x8(%rsp),%rsp
  4016f5:	48 89 f8             	mov    %rdi,%rax
  4016f8:	48 89 c7             	mov    %rax,%rdi
  4016fb:	81 e2 ff 00 00 00    	and    $0xff,%edx
  401701:	e8 6a fa ff ff       	callq  401170 <SYSTEM_$$_FILLCHAR$formal$INT64$BYTE>
  401706:	48 8d 64 24 08       	lea    0x8(%rsp),%rsp
  40170b:	c3                   	retq   
  40170c:	00 00                	add    %al,(%rax)
	...

0000000000401710 <SYSTEM_$$_FILLCHAR$formal$INT64$CHAR>:
  401710:	48 8d 64 24 f8       	lea    -0x8(%rsp),%rsp
  401715:	48 89 f8             	mov    %rdi,%rax
  401718:	48 89 c7             	mov    %rax,%rdi
  40171b:	81 e2 ff 00 00 00    	and    $0xff,%edx
  401721:	e8 4a fa ff ff       	callq  401170 <SYSTEM_$$_FILLCHAR$formal$INT64$BYTE>
  401726:	48 8d 64 24 08       	lea    0x8(%rsp),%rsp
  40172b:	c3                   	retq   
  40172c:	00 00                	add    %al,(%rax)
	...

0000000000401730 <SYSTEM_$$_FILLBYTE$formal$INT64$BYTE>:
  401730:	48 8d 64 24 f8       	lea    -0x8(%rsp),%rsp
  401735:	48 89 f8             	mov    %rdi,%rax
  401738:	48 89 c7             	mov    %rax,%rdi
  40173b:	81 e2 ff 00 00 00    	and    $0xff,%edx
  401741:	e8 2a fa ff ff       	callq  401170 <SYSTEM_$$_FILLCHAR$formal$INT64$BYTE>
  401746:	48 8d 64 24 08       	lea    0x8(%rsp),%rsp
  40174b:	c3                   	retq   
  40174c:	00 00                	add    %al,(%rax)
	...

0000000000401750 <SYSTEM_$$_INDEXCHAR$formal$INT64$CHAR$$INT64>:
  401750:	48 8d 64 24 f8       	lea    -0x8(%rsp),%rsp
  401755:	81 e2 ff 00 00 00    	and    $0xff,%edx
  40175b:	e8 30 fb ff ff       	callq  401290 <SYSTEM_$$_INDEXBYTE$formal$INT64$BYTE$$INT64>
  401760:	48 8d 64 24 08       	lea    0x8(%rsp),%rsp
  401765:	c3                   	retq   
	...

0000000000401770 <SYSTEM_$$_COMPARECHAR$formal$formal$INT64$$INT64>:
  401770:	48 8d 64 24 f8       	lea    -0x8(%rsp),%rsp
  401775:	e8 96 fc ff ff       	callq  401410 <SYSTEM_$$_COMPAREBYTE$formal$formal$INT64$$INT64>
  40177a:	48 8d 64 24 08       	lea    0x8(%rsp),%rsp
  40177f:	c3                   	retq   

0000000000401780 <fpc_zeromem>:
  401780:	48 8d 64 24 f8       	lea    -0x8(%rsp),%rsp
  401785:	48 89 f8             	mov    %rdi,%rax
  401788:	48 89 c7             	mov    %rax,%rdi
  40178b:	ba 00 00 00 00       	mov    $0x0,%edx
  401790:	e8 db f9 ff ff       	callq  401170 <SYSTEM_$$_FILLCHAR$formal$INT64$BYTE>
  401795:	48 8d 64 24 08       	lea    0x8(%rsp),%rsp
  40179a:	c3                   	retq   
  40179b:	00 00                	add    %al,(%rax)
  40179d:	00 00                	add    %al,(%rax)
	...

00000000004017a0 <fpc_fillmem>:
  4017a0:	48 8d 64 24 f8       	lea    -0x8(%rsp),%rsp
  4017a5:	48 89 f8             	mov    %rdi,%rax
  4017a8:	48 89 c7             	mov    %rax,%rdi
  4017ab:	81 e2 ff 00 00 00    	and    $0xff,%edx
  4017b1:	e8 7a ff ff ff       	callq  401730 <SYSTEM_$$_FILLBYTE$formal$INT64$BYTE>
  4017b6:	48 8d 64 24 08       	lea    0x8(%rsp),%rsp
  4017bb:	c3                   	retq   
  4017bc:	00 00                	add    %al,(%rax)
	...

00000000004017c0 <SYSTEM_$$_FPC_SHORTSTR_SHORTSTR_INTERN_CHARMOVE$SHORTSTRING$BYTE$OPENSTRING$BYTE$BYTE>:
  4017c0:	48 8d 64 24 f8       	lea    -0x8(%rsp),%rsp
  4017c5:	48 89 f8             	mov    %rdi,%rax
  4017c8:	40 88 f7             	mov    %sil,%dil
  4017cb:	48 89 d6             	mov    %rdx,%rsi
  4017ce:	44 88 ca             	mov    %r9b,%dl
  4017d1:	41 81 e0 ff 00 00 00 	and    $0xff,%r8d
  4017d8:	4a 8d 34 06          	lea    (%rsi,%r8,1),%rsi
  4017dc:	81 e7 ff 00 00 00    	and    $0xff,%edi
  4017e2:	48 8d 3c 38          	lea    (%rax,%rdi,1),%rdi
  4017e6:	81 e2 ff 00 00 00    	and    $0xff,%edx
  4017ec:	e8 6f f6 ff ff       	callq  400e60 <FPC_MOVE>
  4017f1:	48 8d 64 24 08       	lea    0x8(%rsp),%rsp
  4017f6:	c3                   	retq   
	...

0000000000401800 <SYSTEM_$$_FPC_SHORTSTR_CHARARRAY_INTERN_CHARMOVE$SHORTSTRING$array_of_CHAR$INT64>:
  401800:	55                   	push   %rbp
  401801:	48 89 e5             	mov    %rsp,%rbp
  401804:	48 89 f8             	mov    %rdi,%rax
  401807:	48 89 ca             	mov    %rcx,%rdx
  40180a:	48 8d 78 01          	lea    0x1(%rax),%rdi
  40180e:	e8 4d f6 ff ff       	callq  400e60 <FPC_MOVE>
  401813:	c9                   	leaveq 
  401814:	c3                   	retq   
	...

0000000000401820 <SYSTEM_$$_FILLWORD$formal$INT64$WORD>:
  401820:	48 83 fe 00          	cmp    $0x0,%rsi
  401824:	0f 8e a2 00 00 00    	jle    4018cc <SYSTEM_$$_FILLWORD$formal$INT64$WORD+0xac>
  40182a:	48 83 fe 1f          	cmp    $0x1f,%rsi
  40182e:	0f 8e 80 00 00 00    	jle    4018b4 <SYSTEM_$$_FILLWORD$formal$INT64$WORD+0x94>
  401834:	0f b7 ca             	movzwl %dx,%ecx
  401837:	89 c8                	mov    %ecx,%eax
  401839:	c1 e0 10             	shl    $0x10,%eax
  40183c:	09 c1                	or     %eax,%ecx
  40183e:	81 e1 ff ff ff ff    	and    $0xffffffff,%ecx
  401844:	48 89 c8             	mov    %rcx,%rax
  401847:	48 c1 e0 20          	shl    $0x20,%rax
  40184b:	49 89 c8             	mov    %rcx,%r8
  40184e:	49 09 c0             	or     %rax,%r8
  401851:	4c 89 c1             	mov    %r8,%rcx
  401854:	48 89 f8             	mov    %rdi,%rax
  401857:	48 83 e0 07          	and    $0x7,%rax
  40185b:	48 d1 e8             	shr    %rax
  40185e:	48 29 c6             	sub    %rax,%rsi
  401861:	48 d1 e0             	shl    %rax
  401864:	48 8d 04 38          	lea    (%rax,%rdi,1),%rax
  401868:	eb 0d                	jmp    401877 <SYSTEM_$$_FILLWORD$formal$INT64$WORD+0x57>
  40186a:	66 66 66 90          	data16 data16 xchg %ax,%ax
  40186e:	66 90                	xchg   %ax,%ax
  401870:	66 89 17             	mov    %dx,(%rdi)
  401873:	48 83 c7 02          	add    $0x2,%rdi
  401877:	48 39 c7             	cmp    %rax,%rdi
  40187a:	72 f4                	jb     401870 <SYSTEM_$$_FILLWORD$formal$INT64$WORD+0x50>
  40187c:	49 89 f0             	mov    %rsi,%r8
  40187f:	49 d1 e0             	shl    %r8
  401882:	49 c1 e8 03          	shr    $0x3,%r8
  401886:	49 c1 e0 03          	shl    $0x3,%r8
  40188a:	4d 8d 04 38          	lea    (%r8,%rdi,1),%r8
  40188e:	4c 89 c0             	mov    %r8,%rax
  401891:	eb 0c                	jmp    40189f <SYSTEM_$$_FILLWORD$formal$INT64$WORD+0x7f>
  401893:	66 66 66 90          	data16 data16 xchg %ax,%ax
  401897:	90                   	nop
  401898:	48 89 0f             	mov    %rcx,(%rdi)
  40189b:	48 83 c7 08          	add    $0x8,%rdi
  40189f:	48 39 c7             	cmp    %rax,%rdi
  4018a2:	72 f4                	jb     401898 <SYSTEM_$$_FILLWORD$formal$INT64$WORD+0x78>
  4018a4:	48 89 f0             	mov    %rsi,%rax
  4018a7:	48 d1 e0             	shl    %rax
  4018aa:	48 83 e0 07          	and    $0x7,%rax
  4018ae:	48 d1 e8             	shr    %rax
  4018b1:	48 89 c6             	mov    %rax,%rsi
  4018b4:	48 d1 e6             	shl    %rsi
  4018b7:	48 8d 04 3e          	lea    (%rsi,%rdi,1),%rax
  4018bb:	eb 0a                	jmp    4018c7 <SYSTEM_$$_FILLWORD$formal$INT64$WORD+0xa7>
  4018bd:	66 66 90             	data16 xchg %ax,%ax
  4018c0:	66 89 17             	mov    %dx,(%rdi)
  4018c3:	48 83 c7 02          	add    $0x2,%rdi
  4018c7:	48 39 c7             	cmp    %rax,%rdi
  4018ca:	72 f4                	jb     4018c0 <SYSTEM_$$_FILLWORD$formal$INT64$WORD+0xa0>
  4018cc:	c3                   	retq   
  4018cd:	00 00                	add    %al,(%rax)
	...

00000000004018d0 <SYSTEM_$$_FILLDWORD$formal$INT64$LONGWORD>:
  4018d0:	48 83 fe 00          	cmp    $0x0,%rsi
  4018d4:	0f 8e 99 00 00 00    	jle    401973 <SYSTEM_$$_FILLDWORD$formal$INT64$LONGWORD+0xa3>
  4018da:	48 83 fe 1f          	cmp    $0x1f,%rsi
  4018de:	0f 8e 7a 00 00 00    	jle    40195e <SYSTEM_$$_FILLDWORD$formal$INT64$LONGWORD+0x8e>
  4018e4:	89 d1                	mov    %edx,%ecx
  4018e6:	81 e1 ff ff ff ff    	and    $0xffffffff,%ecx
  4018ec:	48 89 c8             	mov    %rcx,%rax
  4018ef:	48 c1 e0 20          	shl    $0x20,%rax
  4018f3:	49 89 c8             	mov    %rcx,%r8
  4018f6:	49 09 c0             	or     %rax,%r8
  4018f9:	4c 89 c1             	mov    %r8,%rcx
  4018fc:	48 89 f8             	mov    %rdi,%rax
  4018ff:	48 83 e0 07          	and    $0x7,%rax
  401903:	48 c1 e8 02          	shr    $0x2,%rax
  401907:	48 29 c6             	sub    %rax,%rsi
  40190a:	48 c1 e0 02          	shl    $0x2,%rax
  40190e:	48 8d 04 38          	lea    (%rax,%rdi,1),%rax
  401912:	eb 0a                	jmp    40191e <SYSTEM_$$_FILLDWORD$formal$INT64$LONGWORD+0x4e>
  401914:	66 66 66 90          	data16 data16 xchg %ax,%ax
  401918:	89 17                	mov    %edx,(%rdi)
  40191a:	48 83 c7 04          	add    $0x4,%rdi
  40191e:	48 39 c7             	cmp    %rax,%rdi
  401921:	72 f5                	jb     401918 <SYSTEM_$$_FILLDWORD$formal$INT64$LONGWORD+0x48>
  401923:	49 89 f0             	mov    %rsi,%r8
  401926:	49 c1 e0 02          	shl    $0x2,%r8
  40192a:	49 c1 e8 03          	shr    $0x3,%r8
  40192e:	49 c1 e0 03          	shl    $0x3,%r8
  401932:	4d 8d 04 38          	lea    (%r8,%rdi,1),%r8
  401936:	4c 89 c0             	mov    %r8,%rax
  401939:	eb 0c                	jmp    401947 <SYSTEM_$$_FILLDWORD$formal$INT64$LONGWORD+0x77>
  40193b:	66 66 66 90          	data16 data16 xchg %ax,%ax
  40193f:	90                   	nop
  401940:	48 89 0f             	mov    %rcx,(%rdi)
  401943:	48 83 c7 08          	add    $0x8,%rdi
  401947:	48 39 c7             	cmp    %rax,%rdi
  40194a:	72 f4                	jb     401940 <SYSTEM_$$_FILLDWORD$formal$INT64$LONGWORD+0x70>
  40194c:	48 89 f0             	mov    %rsi,%rax
  40194f:	48 c1 e0 02          	shl    $0x2,%rax
  401953:	48 83 e0 07          	and    $0x7,%rax
  401957:	48 c1 e8 02          	shr    $0x2,%rax
  40195b:	48 89 c6             	mov    %rax,%rsi
  40195e:	48 c1 e6 02          	shl    $0x2,%rsi
  401962:	48 8d 04 3e          	lea    (%rsi,%rdi,1),%rax
  401966:	eb 06                	jmp    40196e <SYSTEM_$$_FILLDWORD$formal$INT64$LONGWORD+0x9e>
  401968:	89 17                	mov    %edx,(%rdi)
  40196a:	48 83 c7 04          	add    $0x4,%rdi
  40196e:	48 39 c7             	cmp    %rax,%rdi
  401971:	72 f5                	jb     401968 <SYSTEM_$$_FILLDWORD$formal$INT64$LONGWORD+0x98>
  401973:	c3                   	retq   
	...

0000000000401980 <SYSTEM_$$_FILLQWORD$formal$INT64$QWORD>:
  401980:	48 83 fe 00          	cmp    $0x0,%rsi
  401984:	7e 16                	jle    40199c <SYSTEM_$$_FILLQWORD$formal$INT64$QWORD+0x1c>
  401986:	48 c1 e6 03          	shl    $0x3,%rsi
  40198a:	48 8d 04 3e          	lea    (%rsi,%rdi,1),%rax
  40198e:	eb 07                	jmp    401997 <SYSTEM_$$_FILLQWORD$formal$INT64$QWORD+0x17>
  401990:	48 89 17             	mov    %rdx,(%rdi)
  401993:	48 83 c7 08          	add    $0x8,%rdi
  401997:	48 39 c7             	cmp    %rax,%rdi
  40199a:	72 f4                	jb     401990 <SYSTEM_$$_FILLQWORD$formal$INT64$QWORD+0x10>
  40199c:	c3                   	retq   
  40199d:	00 00                	add    %al,(%rax)
	...

00000000004019a0 <SYSTEM_$$_INDEXDWORD$formal$INT64$LONGWORD$$INT64>:
  4019a0:	48 89 f9             	mov    %rdi,%rcx
  4019a3:	48 83 fe 00          	cmp    $0x0,%rsi
  4019a7:	7c 1f                	jl     4019c8 <SYSTEM_$$_INDEXDWORD$formal$INT64$LONGWORD$$INT64+0x28>
  4019a9:	48 b8 ff ff ff ff ff 	movabs $0x3fffffffffffffff,%rax
  4019b0:	ff ff 3f 
  4019b3:	48 39 c6             	cmp    %rax,%rsi
  4019b6:	7f 10                	jg     4019c8 <SYSTEM_$$_INDEXDWORD$formal$INT64$LONGWORD$$INT64+0x28>
  4019b8:	48 89 f0             	mov    %rsi,%rax
  4019bb:	48 c1 e0 02          	shl    $0x2,%rax
  4019bf:	48 8d 04 08          	lea    (%rax,%rcx,1),%rax
  4019c3:	48 39 c8             	cmp    %rcx,%rax
  4019c6:	73 0c                	jae    4019d4 <SYSTEM_$$_INDEXDWORD$formal$INT64$LONGWORD$$INT64+0x34>
  4019c8:	49 b8 fb ff ff ff ff 	movabs $0xfffffffffffffffb,%r8
  4019cf:	ff ff ff 
  4019d2:	eb 3e                	jmp    401a12 <SYSTEM_$$_INDEXDWORD$formal$INT64$LONGWORD$$INT64+0x72>
  4019d4:	48 c1 e6 02          	shl    $0x2,%rsi
  4019d8:	48 8d 04 0e          	lea    (%rsi,%rcx,1),%rax
  4019dc:	49 89 c0             	mov    %rax,%r8
  4019df:	eb 31                	jmp    401a12 <SYSTEM_$$_INDEXDWORD$formal$INT64$LONGWORD$$INT64+0x72>
  4019e1:	66 66 66 90          	data16 data16 xchg %ax,%ax
  4019e5:	66 66 90             	data16 xchg %ax,%ax
  4019e8:	8b 31                	mov    (%rcx),%esi
  4019ea:	39 d6                	cmp    %edx,%esi
  4019ec:	75 20                	jne    401a0e <SYSTEM_$$_INDEXDWORD$formal$INT64$LONGWORD$$INT64+0x6e>
  4019ee:	48 89 fe             	mov    %rdi,%rsi
  4019f1:	49 89 c9             	mov    %rcx,%r9
  4019f4:	49 29 f1             	sub    %rsi,%r9
  4019f7:	4c 89 ce             	mov    %r9,%rsi
  4019fa:	48 c1 fe 3f          	sar    $0x3f,%rsi
  4019fe:	48 83 e6 03          	and    $0x3,%rsi
  401a02:	49 01 f1             	add    %rsi,%r9
  401a05:	49 c1 f9 02          	sar    $0x2,%r9
  401a09:	4c 89 c8             	mov    %r9,%rax
  401a0c:	eb 13                	jmp    401a21 <SYSTEM_$$_INDEXDWORD$formal$INT64$LONGWORD$$INT64+0x81>
  401a0e:	48 83 c1 04          	add    $0x4,%rcx
  401a12:	4c 39 c1             	cmp    %r8,%rcx
  401a15:	72 d1                	jb     4019e8 <SYSTEM_$$_INDEXDWORD$formal$INT64$LONGWORD$$INT64+0x48>
  401a17:	48 b8 ff ff ff ff ff 	movabs $0xffffffffffffffff,%rax
  401a1e:	ff ff ff 
  401a21:	c3                   	retq   
	...

0000000000401a30 <SYSTEM_$$_INDEXQWORD$formal$INT64$QWORD$$INT64>:
  401a30:	48 89 f9             	mov    %rdi,%rcx
  401a33:	48 83 fe 00          	cmp    $0x0,%rsi
  401a37:	7c 1f                	jl     401a58 <SYSTEM_$$_INDEXQWORD$formal$INT64$QWORD$$INT64+0x28>
  401a39:	48 b8 ff ff ff ff ff 	movabs $0x1fffffffffffffff,%rax
  401a40:	ff ff 1f 
  401a43:	48 39 c6             	cmp    %rax,%rsi
  401a46:	7f 10                	jg     401a58 <SYSTEM_$$_INDEXQWORD$formal$INT64$QWORD$$INT64+0x28>
  401a48:	48 89 f0             	mov    %rsi,%rax
  401a4b:	48 c1 e0 03          	shl    $0x3,%rax
  401a4f:	48 8d 04 08          	lea    (%rax,%rcx,1),%rax
  401a53:	48 39 c8             	cmp    %rcx,%rax
  401a56:	73 0c                	jae    401a64 <SYSTEM_$$_INDEXQWORD$formal$INT64$QWORD$$INT64+0x34>
  401a58:	49 b8 f7 ff ff ff ff 	movabs $0xfffffffffffffff7,%r8
  401a5f:	ff ff ff 
  401a62:	eb 40                	jmp    401aa4 <SYSTEM_$$_INDEXQWORD$formal$INT64$QWORD$$INT64+0x74>
  401a64:	48 c1 e6 03          	shl    $0x3,%rsi
  401a68:	48 8d 04 0e          	lea    (%rsi,%rcx,1),%rax
  401a6c:	49 89 c0             	mov    %rax,%r8
  401a6f:	eb 33                	jmp    401aa4 <SYSTEM_$$_INDEXQWORD$formal$INT64$QWORD$$INT64+0x74>
  401a71:	66 66 66 90          	data16 data16 xchg %ax,%ax
  401a75:	66 66 90             	data16 xchg %ax,%ax
  401a78:	48 8b 31             	mov    (%rcx),%rsi
  401a7b:	48 39 d6             	cmp    %rdx,%rsi
  401a7e:	75 20                	jne    401aa0 <SYSTEM_$$_INDEXQWORD$formal$INT64$QWORD$$INT64+0x70>
  401a80:	48 89 fe             	mov    %rdi,%rsi
  401a83:	49 89 c9             	mov    %rcx,%r9
  401a86:	49 29 f1             	sub    %rsi,%r9
  401a89:	4c 89 ce             	mov    %r9,%rsi
  401a8c:	48 c1 fe 3f          	sar    $0x3f,%rsi
  401a90:	48 83 e6 07          	and    $0x7,%rsi
  401a94:	49 01 f1             	add    %rsi,%r9
  401a97:	49 c1 f9 03          	sar    $0x3,%r9
  401a9b:	4c 89 c8             	mov    %r9,%rax
  401a9e:	eb 13                	jmp    401ab3 <SYSTEM_$$_INDEXQWORD$formal$INT64$QWORD$$INT64+0x83>
  401aa0:	48 83 c1 08          	add    $0x8,%rcx
  401aa4:	4c 39 c1             	cmp    %r8,%rcx
  401aa7:	72 cf                	jb     401a78 <SYSTEM_$$_INDEXQWORD$formal$INT64$QWORD$$INT64+0x48>
  401aa9:	48 b8 ff ff ff ff ff 	movabs $0xffffffffffffffff,%rax
  401ab0:	ff ff ff 
  401ab3:	c3                   	retq   
	...

0000000000401ac0 <SYSTEM_$$_COMPAREWORD$formal$formal$INT64$$INT64>:
  401ac0:	49 b8 00 00 00 00 00 	movabs $0x0,%r8
  401ac7:	00 00 00 
  401aca:	48 83 fa 1f          	cmp    $0x1f,%rdx
  401ace:	0f 8e c6 00 00 00    	jle    401b9a <SYSTEM_$$_COMPAREWORD$formal$formal$INT64$$INT64+0xda>
  401ad4:	48 89 f0             	mov    %rsi,%rax
  401ad7:	48 83 e0 07          	and    $0x7,%rax
  401adb:	48 b9 08 00 00 00 00 	movabs $0x8,%rcx
  401ae2:	00 00 00 
  401ae5:	48 29 c1             	sub    %rax,%rcx
  401ae8:	48 83 e1 07          	and    $0x7,%rcx
  401aec:	48 d1 e9             	shr    %rcx
  401aef:	48 29 ca             	sub    %rcx,%rdx
  401af2:	48 d1 e1             	shl    %rcx
  401af5:	48 8d 0c 39          	lea    (%rcx,%rdi,1),%rcx
  401af9:	eb 44                	jmp    401b3f <SYSTEM_$$_COMPAREWORD$formal$formal$INT64$$INT64+0x7f>
  401afb:	66 66 66 90          	data16 data16 xchg %ax,%ax
  401aff:	90                   	nop
  401b00:	44 0f b7 0f          	movzwl (%rdi),%r9d
  401b04:	44 0f b7 16          	movzwl (%rsi),%r10d
  401b08:	4d 29 d1             	sub    %r10,%r9
  401b0b:	4d 89 c8             	mov    %r9,%r8
  401b0e:	4d 85 c0             	test   %r8,%r8
  401b11:	74 24                	je     401b37 <SYSTEM_$$_COMPAREWORD$formal$formal$INT64$$INT64+0x77>
  401b13:	49 83 f8 00          	cmp    $0x0,%r8
  401b17:	7d 0f                	jge    401b28 <SYSTEM_$$_COMPAREWORD$formal$formal$INT64$$INT64+0x68>
  401b19:	48 b8 ff ff ff ff ff 	movabs $0xffffffffffffffff,%rax
  401b20:	ff ff ff 
  401b23:	e9 e7 00 00 00       	jmpq   401c0f <SYSTEM_$$_COMPAREWORD$formal$formal$INT64$$INT64+0x14f>
  401b28:	48 b8 01 00 00 00 00 	movabs $0x1,%rax
  401b2f:	00 00 00 
  401b32:	e9 d8 00 00 00       	jmpq   401c0f <SYSTEM_$$_COMPAREWORD$formal$formal$INT64$$INT64+0x14f>
  401b37:	48 83 c6 02          	add    $0x2,%rsi
  401b3b:	48 83 c7 02          	add    $0x2,%rdi
  401b3f:	48 39 cf             	cmp    %rcx,%rdi
  401b42:	72 bc                	jb     401b00 <SYSTEM_$$_COMPAREWORD$formal$formal$INT64$$INT64+0x40>
  401b44:	49 89 d1             	mov    %rdx,%r9
  401b47:	49 d1 e1             	shl    %r9
  401b4a:	49 c1 e9 03          	shr    $0x3,%r9
  401b4e:	49 c1 e1 03          	shl    $0x3,%r9
  401b52:	4d 8d 0c 39          	lea    (%r9,%rdi,1),%r9
  401b56:	4c 89 c9             	mov    %r9,%rcx
  401b59:	49 89 d1             	mov    %rdx,%r9
  401b5c:	49 d1 e1             	shl    %r9
  401b5f:	49 83 e1 07          	and    $0x7,%r9
  401b63:	49 d1 e9             	shr    %r9
  401b66:	4c 89 ca             	mov    %r9,%rdx
  401b69:	eb 2a                	jmp    401b95 <SYSTEM_$$_COMPAREWORD$formal$formal$INT64$$INT64+0xd5>
  401b6b:	66 66 66 90          	data16 data16 xchg %ax,%ax
  401b6f:	90                   	nop
  401b70:	4c 8b 0f             	mov    (%rdi),%r9
  401b73:	4c 8b 16             	mov    (%rsi),%r10
  401b76:	4d 29 d1             	sub    %r10,%r9
  401b79:	4d 89 c8             	mov    %r9,%r8
  401b7c:	4d 85 c0             	test   %r8,%r8
  401b7f:	74 0c                	je     401b8d <SYSTEM_$$_COMPAREWORD$formal$formal$INT64$$INT64+0xcd>
  401b81:	48 ba 04 00 00 00 00 	movabs $0x4,%rdx
  401b88:	00 00 00 
  401b8b:	eb 0d                	jmp    401b9a <SYSTEM_$$_COMPAREWORD$formal$formal$INT64$$INT64+0xda>
  401b8d:	48 83 c6 08          	add    $0x8,%rsi
  401b91:	48 83 c7 08          	add    $0x8,%rdi
  401b95:	48 39 cf             	cmp    %rcx,%rdi
  401b98:	72 d6                	jb     401b70 <SYSTEM_$$_COMPAREWORD$formal$formal$INT64$$INT64+0xb0>
  401b9a:	49 89 d1             	mov    %rdx,%r9
  401b9d:	49 d1 e1             	shl    %r9
  401ba0:	4d 8d 0c 39          	lea    (%r9,%rdi,1),%r9
  401ba4:	49 39 f9             	cmp    %rdi,%r9
  401ba7:	72 0c                	jb     401bb5 <SYSTEM_$$_COMPAREWORD$formal$formal$INT64$$INT64+0xf5>
  401ba9:	48 d1 e2             	shl    %rdx
  401bac:	48 8d 14 3a          	lea    (%rdx,%rdi,1),%rdx
  401bb0:	48 89 d1             	mov    %rdx,%rcx
  401bb3:	eb 4b                	jmp    401c00 <SYSTEM_$$_COMPAREWORD$formal$formal$INT64$$INT64+0x140>
  401bb5:	48 b9 fd ff ff ff ff 	movabs $0xfffffffffffffffd,%rcx
  401bbc:	ff ff ff 
  401bbf:	eb 3f                	jmp    401c00 <SYSTEM_$$_COMPAREWORD$formal$formal$INT64$$INT64+0x140>
  401bc1:	66 66 66 90          	data16 data16 xchg %ax,%ax
  401bc5:	66 66 90             	data16 xchg %ax,%ax
  401bc8:	0f b7 17             	movzwl (%rdi),%edx
  401bcb:	44 0f b7 0e          	movzwl (%rsi),%r9d
  401bcf:	4c 29 ca             	sub    %r9,%rdx
  401bd2:	49 89 d0             	mov    %rdx,%r8
  401bd5:	4d 85 c0             	test   %r8,%r8
  401bd8:	74 1e                	je     401bf8 <SYSTEM_$$_COMPAREWORD$formal$formal$INT64$$INT64+0x138>
  401bda:	49 83 f8 00          	cmp    $0x0,%r8
  401bde:	7d 0c                	jge    401bec <SYSTEM_$$_COMPAREWORD$formal$formal$INT64$$INT64+0x12c>
  401be0:	48 b8 ff ff ff ff ff 	movabs $0xffffffffffffffff,%rax
  401be7:	ff ff ff 
  401bea:	eb 23                	jmp    401c0f <SYSTEM_$$_COMPAREWORD$formal$formal$INT64$$INT64+0x14f>
  401bec:	48 b8 01 00 00 00 00 	movabs $0x1,%rax
  401bf3:	00 00 00 
  401bf6:	eb 17                	jmp    401c0f <SYSTEM_$$_COMPAREWORD$formal$formal$INT64$$INT64+0x14f>
  401bf8:	48 83 c6 02          	add    $0x2,%rsi
  401bfc:	48 83 c7 02          	add    $0x2,%rdi
  401c00:	48 39 cf             	cmp    %rcx,%rdi
  401c03:	72 c3                	jb     401bc8 <SYSTEM_$$_COMPAREWORD$formal$formal$INT64$$INT64+0x108>
  401c05:	48 b8 00 00 00 00 00 	movabs $0x0,%rax
  401c0c:	00 00 00 
  401c0f:	c3                   	retq   

0000000000401c10 <SYSTEM_$$_COMPAREDWORD$formal$formal$INT64$$INT64>:
  401c10:	48 83 fa 15          	cmp    $0x15,%rdx
  401c14:	0f 8e b7 00 00 00    	jle    401cd1 <SYSTEM_$$_COMPAREDWORD$formal$formal$INT64$$INT64+0xc1>
  401c1a:	48 89 f0             	mov    %rsi,%rax
  401c1d:	48 83 e0 07          	and    $0x7,%rax
  401c21:	48 b9 08 00 00 00 00 	movabs $0x8,%rcx
  401c28:	00 00 00 
  401c2b:	48 29 c1             	sub    %rax,%rcx
  401c2e:	48 83 e1 07          	and    $0x7,%rcx
  401c32:	48 c1 e9 02          	shr    $0x2,%rcx
  401c36:	48 29 ca             	sub    %rcx,%rdx
  401c39:	48 c1 e1 02          	shl    $0x2,%rcx
  401c3d:	48 8d 0c 39          	lea    (%rcx,%rdi,1),%rcx
  401c41:	eb 3b                	jmp    401c7e <SYSTEM_$$_COMPAREDWORD$formal$formal$INT64$$INT64+0x6e>
  401c43:	66 66 66 90          	data16 data16 xchg %ax,%ax
  401c47:	90                   	nop
  401c48:	44 8b 07             	mov    (%rdi),%r8d
  401c4b:	44 3b 06             	cmp    (%rsi),%r8d
  401c4e:	74 26                	je     401c76 <SYSTEM_$$_COMPAREDWORD$formal$formal$INT64$$INT64+0x66>
  401c50:	44 8b 07             	mov    (%rdi),%r8d
  401c53:	44 3b 06             	cmp    (%rsi),%r8d
  401c56:	76 0f                	jbe    401c67 <SYSTEM_$$_COMPAREDWORD$formal$formal$INT64$$INT64+0x57>
  401c58:	48 b8 01 00 00 00 00 	movabs $0x1,%rax
  401c5f:	00 00 00 
  401c62:	e9 e4 00 00 00       	jmpq   401d4b <SYSTEM_$$_COMPAREDWORD$formal$formal$INT64$$INT64+0x13b>
  401c67:	48 b8 ff ff ff ff ff 	movabs $0xffffffffffffffff,%rax
  401c6e:	ff ff ff 
  401c71:	e9 d5 00 00 00       	jmpq   401d4b <SYSTEM_$$_COMPAREDWORD$formal$formal$INT64$$INT64+0x13b>
  401c76:	48 83 c6 04          	add    $0x4,%rsi
  401c7a:	48 83 c7 04          	add    $0x4,%rdi
  401c7e:	48 39 cf             	cmp    %rcx,%rdi
  401c81:	72 c5                	jb     401c48 <SYSTEM_$$_COMPAREDWORD$formal$formal$INT64$$INT64+0x38>
  401c83:	49 89 d0             	mov    %rdx,%r8
  401c86:	49 c1 e0 02          	shl    $0x2,%r8
  401c8a:	49 c1 e8 03          	shr    $0x3,%r8
  401c8e:	49 c1 e0 03          	shl    $0x3,%r8
  401c92:	4d 8d 04 38          	lea    (%r8,%rdi,1),%r8
  401c96:	4c 89 c1             	mov    %r8,%rcx
  401c99:	49 89 d0             	mov    %rdx,%r8
  401c9c:	49 c1 e0 02          	shl    $0x2,%r8
  401ca0:	49 83 e0 07          	and    $0x7,%r8
  401ca4:	49 c1 e8 02          	shr    $0x2,%r8
  401ca8:	4c 89 c2             	mov    %r8,%rdx
  401cab:	eb 1f                	jmp    401ccc <SYSTEM_$$_COMPAREDWORD$formal$formal$INT64$$INT64+0xbc>
  401cad:	66 66 90             	data16 xchg %ax,%ax
  401cb0:	4c 8b 07             	mov    (%rdi),%r8
  401cb3:	4c 3b 06             	cmp    (%rsi),%r8
  401cb6:	74 0c                	je     401cc4 <SYSTEM_$$_COMPAREDWORD$formal$formal$INT64$$INT64+0xb4>
  401cb8:	48 ba 02 00 00 00 00 	movabs $0x2,%rdx
  401cbf:	00 00 00 
  401cc2:	eb 0d                	jmp    401cd1 <SYSTEM_$$_COMPAREDWORD$formal$formal$INT64$$INT64+0xc1>
  401cc4:	48 83 c6 08          	add    $0x8,%rsi
  401cc8:	48 83 c7 08          	add    $0x8,%rdi
  401ccc:	48 39 cf             	cmp    %rcx,%rdi
  401ccf:	72 df                	jb     401cb0 <SYSTEM_$$_COMPAREDWORD$formal$formal$INT64$$INT64+0xa0>
  401cd1:	49 b8 ff ff ff ff ff 	movabs $0x3fffffffffffffff,%r8
  401cd8:	ff ff 3f 
  401cdb:	4c 39 c2             	cmp    %r8,%rdx
  401cde:	7f 1d                	jg     401cfd <SYSTEM_$$_COMPAREDWORD$formal$formal$INT64$$INT64+0xed>
  401ce0:	49 89 d0             	mov    %rdx,%r8
  401ce3:	49 c1 e0 02          	shl    $0x2,%r8
  401ce7:	4d 8d 04 38          	lea    (%r8,%rdi,1),%r8
  401ceb:	49 39 f8             	cmp    %rdi,%r8
  401cee:	72 0d                	jb     401cfd <SYSTEM_$$_COMPAREDWORD$formal$formal$INT64$$INT64+0xed>
  401cf0:	48 c1 e2 02          	shl    $0x2,%rdx
  401cf4:	48 8d 14 3a          	lea    (%rdx,%rdi,1),%rdx
  401cf8:	48 89 d1             	mov    %rdx,%rcx
  401cfb:	eb 3f                	jmp    401d3c <SYSTEM_$$_COMPAREDWORD$formal$formal$INT64$$INT64+0x12c>
  401cfd:	48 b9 fb ff ff ff ff 	movabs $0xfffffffffffffffb,%rcx
  401d04:	ff ff ff 
  401d07:	eb 33                	jmp    401d3c <SYSTEM_$$_COMPAREDWORD$formal$formal$INT64$$INT64+0x12c>
  401d09:	66 66 66 90          	data16 data16 xchg %ax,%ax
  401d0d:	66 66 90             	data16 xchg %ax,%ax
  401d10:	8b 17                	mov    (%rdi),%edx
  401d12:	3b 16                	cmp    (%rsi),%edx
  401d14:	74 1e                	je     401d34 <SYSTEM_$$_COMPAREDWORD$formal$formal$INT64$$INT64+0x124>
  401d16:	8b 17                	mov    (%rdi),%edx
  401d18:	3b 16                	cmp    (%rsi),%edx
  401d1a:	76 0c                	jbe    401d28 <SYSTEM_$$_COMPAREDWORD$formal$formal$INT64$$INT64+0x118>
  401d1c:	48 b8 01 00 00 00 00 	movabs $0x1,%rax
  401d23:	00 00 00 
  401d26:	eb 23                	jmp    401d4b <SYSTEM_$$_COMPAREDWORD$formal$formal$INT64$$INT64+0x13b>
  401d28:	48 b8 ff ff ff ff ff 	movabs $0xffffffffffffffff,%rax
  401d2f:	ff ff ff 
  401d32:	eb 17                	jmp    401d4b <SYSTEM_$$_COMPAREDWORD$formal$formal$INT64$$INT64+0x13b>
  401d34:	48 83 c6 04          	add    $0x4,%rsi
  401d38:	48 83 c7 04          	add    $0x4,%rdi
  401d3c:	48 39 cf             	cmp    %rcx,%rdi
  401d3f:	72 cf                	jb     401d10 <SYSTEM_$$_COMPAREDWORD$formal$formal$INT64$$INT64+0x100>
  401d41:	48 b8 00 00 00 00 00 	movabs $0x0,%rax
  401d48:	00 00 00 
  401d4b:	c3                   	retq   
  401d4c:	00 00                	add    %al,(%rax)
	...

0000000000401d50 <SYSTEM_$$_MOVECHAR0$formal$formal$INT64>:
  401d50:	53                   	push   %rbx
  401d51:	41 54                	push   %r12
  401d53:	41 55                	push   %r13
  401d55:	48 89 fb             	mov    %rdi,%rbx
  401d58:	49 89 f4             	mov    %rsi,%r12
  401d5b:	49 89 d5             	mov    %rdx,%r13
  401d5e:	4d 85 ed             	test   %r13,%r13
  401d61:	74 34                	je     401d97 <SYSTEM_$$_MOVECHAR0$formal$formal$INT64+0x47>
  401d63:	48 89 df             	mov    %rbx,%rdi
  401d66:	4c 89 ee             	mov    %r13,%rsi
  401d69:	ba 00 00 00 00       	mov    $0x0,%edx
  401d6e:	e8 1d f5 ff ff       	callq  401290 <SYSTEM_$$_INDEXBYTE$formal$INT64$BYTE$$INT64>
  401d73:	48 89 c2             	mov    %rax,%rdx
  401d76:	48 83 fa ff          	cmp    $0xffffffffffffffff,%rdx
  401d7a:	74 0d                	je     401d89 <SYSTEM_$$_MOVECHAR0$formal$formal$INT64+0x39>
  401d7c:	4c 89 e6             	mov    %r12,%rsi
  401d7f:	48 89 df             	mov    %rbx,%rdi
  401d82:	e8 d9 f0 ff ff       	callq  400e60 <FPC_MOVE>
  401d87:	eb 0e                	jmp    401d97 <SYSTEM_$$_MOVECHAR0$formal$formal$INT64+0x47>
  401d89:	4c 89 e6             	mov    %r12,%rsi
  401d8c:	48 89 df             	mov    %rbx,%rdi
  401d8f:	4c 89 ea             	mov    %r13,%rdx
  401d92:	e8 c9 f0 ff ff       	callq  400e60 <FPC_MOVE>
  401d97:	41 5d                	pop    %r13
  401d99:	41 5c                	pop    %r12
  401d9b:	5b                   	pop    %rbx
  401d9c:	c3                   	retq   
  401d9d:	00 00                	add    %al,(%rax)
	...

0000000000401da0 <SYSTEM_$$_INDEXCHAR0$formal$INT64$CHAR$$INT64>:
  401da0:	48 89 f9             	mov    %rdi,%rcx
  401da3:	48 83 fe 00          	cmp    $0x0,%rsi
  401da7:	7d 0c                	jge    401db5 <SYSTEM_$$_INDEXCHAR0$formal$INT64$CHAR$$INT64+0x15>
  401da9:	49 b8 fe ff ff ff ff 	movabs $0xfffffffffffffffe,%r8
  401db0:	ff ff ff 
  401db3:	eb 25                	jmp    401dda <SYSTEM_$$_INDEXCHAR0$formal$INT64$CHAR$$INT64+0x3a>
  401db5:	48 8d 04 31          	lea    (%rcx,%rsi,1),%rax
  401db9:	49 89 c0             	mov    %rax,%r8
  401dbc:	eb 1c                	jmp    401dda <SYSTEM_$$_INDEXCHAR0$formal$INT64$CHAR$$INT64+0x3a>
  401dbe:	66 90                	xchg   %ax,%ax
  401dc0:	40 8a 31             	mov    (%rcx),%sil
  401dc3:	40 38 d6             	cmp    %dl,%sil
  401dc6:	75 0e                	jne    401dd6 <SYSTEM_$$_INDEXCHAR0$formal$INT64$CHAR$$INT64+0x36>
  401dc8:	48 89 fe             	mov    %rdi,%rsi
  401dcb:	49 89 c9             	mov    %rcx,%r9
  401dce:	49 29 f1             	sub    %rsi,%r9
  401dd1:	4c 89 c8             	mov    %r9,%rax
  401dd4:	eb 18                	jmp    401dee <SYSTEM_$$_INDEXCHAR0$formal$INT64$CHAR$$INT64+0x4e>
  401dd6:	48 83 c1 01          	add    $0x1,%rcx
  401dda:	4c 39 c1             	cmp    %r8,%rcx
  401ddd:	73 05                	jae    401de4 <SYSTEM_$$_INDEXCHAR0$formal$INT64$CHAR$$INT64+0x44>
  401ddf:	80 39 00             	cmpb   $0x0,(%rcx)
  401de2:	75 dc                	jne    401dc0 <SYSTEM_$$_INDEXCHAR0$formal$INT64$CHAR$$INT64+0x20>
  401de4:	48 b8 ff ff ff ff ff 	movabs $0xffffffffffffffff,%rax
  401deb:	ff ff ff 
  401dee:	c3                   	retq   
	...

0000000000401df0 <SYSTEM_$$_COMPARECHAR0$formal$formal$INT64$$INT64>:
  401df0:	49 b8 00 00 00 00 00 	movabs $0x0,%r8
  401df7:	00 00 00 
  401dfa:	48 8d 14 17          	lea    (%rdi,%rdx,1),%rdx
  401dfe:	eb 4f                	jmp    401e4f <SYSTEM_$$_COMPARECHAR0$formal$formal$INT64$$INT64+0x5f>
  401e00:	0f b6 0f             	movzbl (%rdi),%ecx
  401e03:	44 0f b6 0e          	movzbl (%rsi),%r9d
  401e07:	4c 29 c9             	sub    %r9,%rcx
  401e0a:	49 89 c8             	mov    %rcx,%r8
  401e0d:	49 83 f8 00          	cmp    $0x0,%r8
  401e11:	7d 0c                	jge    401e1f <SYSTEM_$$_COMPARECHAR0$formal$formal$INT64$$INT64+0x2f>
  401e13:	48 b8 ff ff ff ff ff 	movabs $0xffffffffffffffff,%rax
  401e1a:	ff ff ff 
  401e1d:	eb 3f                	jmp    401e5e <SYSTEM_$$_COMPARECHAR0$formal$formal$INT64$$INT64+0x6e>
  401e1f:	49 83 f8 00          	cmp    $0x0,%r8
  401e23:	7e 0c                	jle    401e31 <SYSTEM_$$_COMPARECHAR0$formal$formal$INT64$$INT64+0x41>
  401e25:	48 b8 01 00 00 00 00 	movabs $0x1,%rax
  401e2c:	00 00 00 
  401e2f:	eb 2d                	jmp    401e5e <SYSTEM_$$_COMPARECHAR0$formal$formal$INT64$$INT64+0x6e>
  401e31:	80 3f 00             	cmpb   $0x0,(%rdi)
  401e34:	74 05                	je     401e3b <SYSTEM_$$_COMPARECHAR0$formal$formal$INT64$$INT64+0x4b>
  401e36:	80 3e 00             	cmpb   $0x0,(%rsi)
  401e39:	75 0c                	jne    401e47 <SYSTEM_$$_COMPARECHAR0$formal$formal$INT64$$INT64+0x57>
  401e3b:	48 b8 00 00 00 00 00 	movabs $0x0,%rax
  401e42:	00 00 00 
  401e45:	eb 17                	jmp    401e5e <SYSTEM_$$_COMPARECHAR0$formal$formal$INT64$$INT64+0x6e>
  401e47:	48 83 c6 01          	add    $0x1,%rsi
  401e4b:	48 83 c7 01          	add    $0x1,%rdi
  401e4f:	48 39 d7             	cmp    %rdx,%rdi
  401e52:	72 ac                	jb     401e00 <SYSTEM_$$_COMPARECHAR0$formal$formal$INT64$$INT64+0x10>
  401e54:	48 b8 00 00 00 00 00 	movabs $0x0,%rax
  401e5b:	00 00 00 
  401e5e:	c3                   	retq   
	...

0000000000401e60 <FPC_HELP_CONSTRUCTOR>:
  401e60:	53                   	push   %rbx
  401e61:	41 54                	push   %r12
  401e63:	41 55                	push   %r13
  401e65:	41 56                	push   %r14
  401e67:	48 8d 64 24 f8       	lea    -0x8(%rsp),%rsp
  401e6c:	48 89 3c 24          	mov    %rdi,(%rsp)
  401e70:	48 89 f3             	mov    %rsi,%rbx
  401e73:	41 89 d4             	mov    %edx,%r12d
  401e76:	4c 8b 33             	mov    (%rbx),%r14
  401e79:	4d 85 f6             	test   %r14,%r14
  401e7c:	75 06                	jne    401e84 <FPC_HELP_CONSTRUCTOR+0x24>
  401e7e:	4c 8b 2c 24          	mov    (%rsp),%r13
  401e82:	eb 4d                	jmp    401ed1 <FPC_HELP_CONSTRUCTOR+0x71>
  401e84:	48 83 3c 24 00       	cmpq   $0x0,(%rsp)
  401e89:	75 18                	jne    401ea3 <FPC_HELP_CONSTRUCTOR+0x43>
  401e8b:	49 83 3e 00          	cmpq   $0x0,(%r14)
  401e8f:	76 12                	jbe    401ea3 <FPC_HELP_CONSTRUCTOR+0x43>
  401e91:	49 8b 36             	mov    (%r14),%rsi
  401e94:	48 89 e7             	mov    %rsp,%rdi
  401e97:	e8 34 5b 01 00       	callq  4179d0 <SYSTEM_$$_GETMEM$POINTER$QWORD>
  401e9c:	48 c7 03 ff ff ff ff 	movq   $0xffffffffffffffff,(%rbx)
  401ea3:	48 83 3c 24 00       	cmpq   $0x0,(%rsp)
  401ea8:	74 23                	je     401ecd <FPC_HELP_CONSTRUCTOR+0x6d>
  401eaa:	49 8b 36             	mov    (%r14),%rsi
  401ead:	48 8b 3c 24          	mov    (%rsp),%rdi
  401eb1:	ba 00 00 00 00       	mov    $0x0,%edx
  401eb6:	e8 b5 f2 ff ff       	callq  401170 <SYSTEM_$$_FILLCHAR$formal$INT64$BYTE>
  401ebb:	41 81 e4 ff ff ff ff 	and    $0xffffffff,%r12d
  401ec2:	48 8b 04 24          	mov    (%rsp),%rax
  401ec6:	49 8d 04 04          	lea    (%r12,%rax,1),%rax
  401eca:	4c 89 30             	mov    %r14,(%rax)
  401ecd:	4c 8b 2c 24          	mov    (%rsp),%r13
  401ed1:	4c 89 e8             	mov    %r13,%rax
  401ed4:	48 8d 64 24 08       	lea    0x8(%rsp),%rsp
  401ed9:	41 5e                	pop    %r14
  401edb:	41 5d                	pop    %r13
  401edd:	41 5c                	pop    %r12
  401edf:	5b                   	pop    %rbx
  401ee0:	c3                   	retq   
	...

0000000000401ef0 <FPC_HELP_DESTRUCTOR>:
  401ef0:	53                   	push   %rbx
  401ef1:	41 54                	push   %r12
  401ef3:	48 8d 64 24 f8       	lea    -0x8(%rsp),%rsp
  401ef8:	48 89 fb             	mov    %rdi,%rbx
  401efb:	41 89 d4             	mov    %edx,%r12d
  401efe:	48 85 db             	test   %rbx,%rbx
  401f01:	74 60                	je     401f63 <FPC_HELP_DESTRUCTOR+0x73>
  401f03:	48 83 fe ff          	cmp    $0xffffffffffffffff,%rsi
  401f07:	75 5a                	jne    401f63 <FPC_HELP_DESTRUCTOR+0x73>
  401f09:	44 89 e0             	mov    %r12d,%eax
  401f0c:	25 ff ff ff ff       	and    $0xffffffff,%eax
  401f11:	48 8d 04 18          	lea    (%rax,%rbx,1),%rax
  401f15:	48 83 38 00          	cmpq   $0x0,(%rax)
  401f19:	74 48                	je     401f63 <FPC_HELP_DESTRUCTOR+0x73>
  401f1b:	44 89 e0             	mov    %r12d,%eax
  401f1e:	25 ff ff ff ff       	and    $0xffffffff,%eax
  401f23:	48 8d 04 18          	lea    (%rax,%rbx,1),%rax
  401f27:	48 8b 00             	mov    (%rax),%rax
  401f2a:	48 8b 10             	mov    (%rax),%rdx
  401f2d:	48 85 d2             	test   %rdx,%rdx
  401f30:	74 0d                	je     401f3f <FPC_HELP_DESTRUCTOR+0x4f>
  401f32:	48 8b 40 08          	mov    0x8(%rax),%rax
  401f36:	48 8d 04 02          	lea    (%rdx,%rax,1),%rax
  401f3a:	48 85 c0             	test   %rax,%rax
  401f3d:	74 0a                	je     401f49 <FPC_HELP_DESTRUCTOR+0x59>
  401f3f:	bf d2 00 00 00       	mov    $0xd2,%edi
  401f44:	e8 07 50 01 00       	callq  416f50 <FPC_RUNERROR>
  401f49:	41 81 e4 ff ff ff ff 	and    $0xffffffff,%r12d
  401f50:	49 8d 04 1c          	lea    (%r12,%rbx,1),%rax
  401f54:	48 c7 00 00 00 00 00 	movq   $0x0,(%rax)
  401f5b:	48 89 df             	mov    %rbx,%rdi
  401f5e:	e8 4d 5b 01 00       	callq  417ab0 <SYSTEM_$$_FREEMEM$POINTER$$QWORD>
  401f63:	48 8d 64 24 08       	lea    0x8(%rsp),%rsp
  401f68:	41 5c                	pop    %r12
  401f6a:	5b                   	pop    %rbx
  401f6b:	c3                   	retq   
  401f6c:	00 00                	add    %al,(%rax)
	...

0000000000401f70 <FPC_HELP_FAIL>:
  401f70:	53                   	push   %rbx
  401f71:	41 54                	push   %r12
  401f73:	41 55                	push   %r13
  401f75:	48 89 fb             	mov    %rdi,%rbx
  401f78:	49 89 f4             	mov    %rsi,%r12
  401f7b:	41 89 d5             	mov    %edx,%r13d
  401f7e:	48 85 db             	test   %rbx,%rbx
  401f81:	0f 84 69 00 00 00    	je     401ff0 <FPC_HELP_FAIL+0x80>
  401f87:	49 83 3c 24 00       	cmpq   $0x0,(%r12)
  401f8c:	74 62                	je     401ff0 <FPC_HELP_FAIL+0x80>
  401f8e:	49 83 3c 24 ff       	cmpq   $0xffffffffffffffff,(%r12)
  401f93:	75 48                	jne    401fdd <FPC_HELP_FAIL+0x6d>
  401f95:	48 85 db             	test   %rbx,%rbx
  401f98:	74 12                	je     401fac <FPC_HELP_FAIL+0x3c>
  401f9a:	44 89 e8             	mov    %r13d,%eax
  401f9d:	25 ff ff ff ff       	and    $0xffffffff,%eax
  401fa2:	48 8d 04 18          	lea    (%rax,%rbx,1),%rax
  401fa6:	48 83 38 00          	cmpq   $0x0,(%rax)
  401faa:	75 0c                	jne    401fb8 <FPC_HELP_FAIL+0x48>
  401fac:	bf d2 00 00 00       	mov    $0xd2,%edi
  401fb1:	e8 6a 4f 01 00       	callq  416f20 <FPC_HANDLEERROR>
  401fb6:	eb 38                	jmp    401ff0 <FPC_HELP_FAIL+0x80>
  401fb8:	44 89 e8             	mov    %r13d,%eax
  401fbb:	25 ff ff ff ff       	and    $0xffffffff,%eax
  401fc0:	48 8d 04 18          	lea    (%rax,%rbx,1),%rax
  401fc4:	48 c7 00 00 00 00 00 	movq   $0x0,(%rax)
  401fcb:	48 89 df             	mov    %rbx,%rdi
  401fce:	e8 dd 5a 01 00       	callq  417ab0 <SYSTEM_$$_FREEMEM$POINTER$$QWORD>
  401fd3:	49 c7 04 24 00 00 00 	movq   $0x0,(%r12)
  401fda:	00 
  401fdb:	eb 13                	jmp    401ff0 <FPC_HELP_FAIL+0x80>
  401fdd:	41 81 e5 ff ff ff ff 	and    $0xffffffff,%r13d
  401fe4:	49 8d 44 1d 00       	lea    0x0(%r13,%rbx,1),%rax
  401fe9:	48 c7 00 00 00 00 00 	movq   $0x0,(%rax)
  401ff0:	41 5d                	pop    %r13
  401ff2:	41 5c                	pop    %r12
  401ff4:	5b                   	pop    %rbx
  401ff5:	c3                   	retq   
	...

0000000000402000 <FPC_CHECK_OBJECT>:
  402000:	48 8d 64 24 f8       	lea    -0x8(%rsp),%rsp
  402005:	48 89 f8             	mov    %rdi,%rax
  402008:	48 85 c0             	test   %rax,%rax
  40200b:	74 15                	je     402022 <FPC_CHECK_OBJECT+0x22>
  40200d:	48 8b 10             	mov    (%rax),%rdx
  402010:	48 85 d2             	test   %rdx,%rdx
  402013:	74 0d                	je     402022 <FPC_CHECK_OBJECT+0x22>
  402015:	48 8b 40 08          	mov    0x8(%rax),%rax
  402019:	48 8d 04 10          	lea    (%rax,%rdx,1),%rax
  40201d:	48 85 c0             	test   %rax,%rax
  402020:	74 0a                	je     40202c <FPC_CHECK_OBJECT+0x2c>
  402022:	bf d2 00 00 00       	mov    $0xd2,%edi
  402027:	e8 24 4f 01 00       	callq  416f50 <FPC_RUNERROR>
  40202c:	48 8d 64 24 08       	lea    0x8(%rsp),%rsp
  402031:	c3                   	retq   
	...

0000000000402040 <FPC_CHECK_OBJECT_EXT>:
  402040:	53                   	push   %rbx
  402041:	41 54                	push   %r12
  402043:	48 8d 64 24 f8       	lea    -0x8(%rsp),%rsp
  402048:	48 89 fb             	mov    %rdi,%rbx
  40204b:	49 89 f4             	mov    %rsi,%r12
  40204e:	48 85 db             	test   %rbx,%rbx
  402051:	74 15                	je     402068 <FPC_CHECK_OBJECT_EXT+0x28>
  402053:	48 8b 13             	mov    (%rbx),%rdx
  402056:	48 85 d2             	test   %rdx,%rdx
  402059:	74 0d                	je     402068 <FPC_CHECK_OBJECT_EXT+0x28>
  40205b:	48 8b 43 08          	mov    0x8(%rbx),%rax
  40205f:	48 8d 04 10          	lea    (%rax,%rdx,1),%rax
  402063:	48 85 c0             	test   %rax,%rax
  402066:	74 19                	je     402081 <FPC_CHECK_OBJECT_EXT+0x41>
  402068:	bf d2 00 00 00       	mov    $0xd2,%edi
  40206d:	e8 de 4e 01 00       	callq  416f50 <FPC_RUNERROR>
  402072:	eb 0d                	jmp    402081 <FPC_CHECK_OBJECT_EXT+0x41>
  402074:	66 66 66 90          	data16 data16 xchg %ax,%ax
  402078:	4c 39 e3             	cmp    %r12,%rbx
  40207b:	74 13                	je     402090 <FPC_CHECK_OBJECT_EXT+0x50>
  40207d:	48 8b 5b 10          	mov    0x10(%rbx),%rbx
  402081:	48 85 db             	test   %rbx,%rbx
  402084:	75 f2                	jne    402078 <FPC_CHECK_OBJECT_EXT+0x38>
  402086:	bf db 00 00 00       	mov    $0xdb,%edi
  40208b:	e8 c0 4e 01 00       	callq  416f50 <FPC_RUNERROR>
  402090:	48 8d 64 24 08       	lea    0x8(%rsp),%rsp
  402095:	41 5c                	pop    %r12
  402097:	5b                   	pop    %rbx
  402098:	c3                   	retq   
  402099:	00 00                	add    %al,(%rax)
  40209b:	00 00                	add    %al,(%rax)
  40209d:	00 00                	add    %al,(%rax)
	...

00000000004020a0 <FPC_SHORTSTR_TO_SHORTSTR>:
  4020a0:	53                   	push   %rbx
  4020a1:	41 54                	push   %r12
  4020a3:	48 8d 64 24 f8       	lea    -0x8(%rsp),%rsp
  4020a8:	48 89 fb             	mov    %rdi,%rbx
  4020ab:	48 89 d7             	mov    %rdx,%rdi
  4020ae:	44 8a 27             	mov    (%rdi),%r12b
  4020b1:	41 0f b6 c4          	movzbl %r12b,%eax
  4020b5:	48 39 f0             	cmp    %rsi,%rax
  4020b8:	7e 03                	jle    4020bd <FPC_SHORTSTR_TO_SHORTSTR+0x1d>
  4020ba:	41 88 f4             	mov    %sil,%r12b
  4020bd:	41 0f b6 c4          	movzbl %r12b,%eax
  4020c1:	48 8d 50 01          	lea    0x1(%rax),%rdx
  4020c5:	48 89 de             	mov    %rbx,%rsi
  4020c8:	e8 93 ed ff ff       	callq  400e60 <FPC_MOVE>
  4020cd:	44 88 23             	mov    %r12b,(%rbx)
  4020d0:	48 8d 64 24 08       	lea    0x8(%rsp),%rsp
  4020d5:	41 5c                	pop    %r12
  4020d7:	5b                   	pop    %rbx
  4020d8:	c3                   	retq   
  4020d9:	00 00                	add    %al,(%rax)
  4020db:	00 00                	add    %al,(%rax)
  4020dd:	00 00                	add    %al,(%rax)
	...

00000000004020e0 <FPC_SHORTSTR_ASSIGN>:
  4020e0:	53                   	push   %rbx
  4020e1:	41 54                	push   %r12
  4020e3:	41 55                	push   %r13
  4020e5:	89 fb                	mov    %edi,%ebx
  4020e7:	48 89 f7             	mov    %rsi,%rdi
  4020ea:	49 89 d4             	mov    %rdx,%r12
  4020ed:	44 8a 2f             	mov    (%rdi),%r13b
  4020f0:	41 0f b6 c5          	movzbl %r13b,%eax
  4020f4:	48 63 d3             	movslq %ebx,%rdx
  4020f7:	48 39 d0             	cmp    %rdx,%rax
  4020fa:	7d 06                	jge    402102 <FPC_SHORTSTR_ASSIGN+0x22>
  4020fc:	41 0f b6 c5          	movzbl %r13b,%eax
  402100:	89 c3                	mov    %eax,%ebx
  402102:	48 63 c3             	movslq %ebx,%rax
  402105:	48 8d 50 01          	lea    0x1(%rax),%rdx
  402109:	4c 89 e6             	mov    %r12,%rsi
  40210c:	e8 4f ed ff ff       	callq  400e60 <FPC_MOVE>
  402111:	41 81 e5 ff 00 00 00 	and    $0xff,%r13d
  402118:	48 63 c3             	movslq %ebx,%rax
  40211b:	49 39 c5             	cmp    %rax,%r13
  40211e:	7e 04                	jle    402124 <FPC_SHORTSTR_ASSIGN+0x44>
  402120:	41 88 1c 24          	mov    %bl,(%r12)
  402124:	41 5d                	pop    %r13
  402126:	41 5c                	pop    %r12
  402128:	5b                   	pop    %rbx
  402129:	c3                   	retq   
  40212a:	00 00                	add    %al,(%rax)
  40212c:	00 00                	add    %al,(%rax)
	...

0000000000402130 <fpc_shortstr_concat>:
  402130:	53                   	push   %rbx
  402131:	41 54                	push   %r12
  402133:	41 55                	push   %r13
  402135:	41 56                	push   %r14
  402137:	41 57                	push   %r15
  402139:	49 89 ff             	mov    %rdi,%r15
  40213c:	49 89 d6             	mov    %rdx,%r14
  40213f:	48 89 cb             	mov    %rcx,%rbx
  402142:	41 0f b6 06          	movzbl (%r14),%eax
  402146:	41 89 c4             	mov    %eax,%r12d
  402149:	0f b6 03             	movzbl (%rbx),%eax
  40214c:	41 89 c5             	mov    %eax,%r13d
  40214f:	49 63 c4             	movslq %r12d,%rax
  402152:	49 63 d5             	movslq %r13d,%rdx
  402155:	48 8d 04 10          	lea    (%rax,%rdx,1),%rax
  402159:	48 39 f0             	cmp    %rsi,%rax
  40215c:	7e 16                	jle    402174 <fpc_shortstr_concat+0x44>
  40215e:	49 63 c4             	movslq %r12d,%rax
  402161:	48 39 f0             	cmp    %rsi,%rax
  402164:	7e 05                	jle    40216b <fpc_shortstr_concat+0x3b>
  402166:	89 f0                	mov    %esi,%eax
  402168:	41 89 c4             	mov    %eax,%r12d
  40216b:	49 63 c4             	movslq %r12d,%rax
  40216e:	48 29 c6             	sub    %rax,%rsi
  402171:	41 89 f5             	mov    %esi,%r13d
  402174:	4c 89 f8             	mov    %r15,%rax
  402177:	4c 89 f2             	mov    %r14,%rdx
  40217a:	48 39 d0             	cmp    %rdx,%rax
  40217d:	75 2c                	jne    4021ab <fpc_shortstr_concat+0x7b>
  40217f:	44 88 ea             	mov    %r13b,%dl
  402182:	67 41 8d 44 24 01    	lea    0x1(%r12d),%eax
  402188:	4c 89 f9             	mov    %r15,%rcx
  40218b:	48 89 df             	mov    %rbx,%rdi
  40218e:	81 e2 ff 00 00 00    	and    $0xff,%edx
  402194:	25 ff 00 00 00       	and    $0xff,%eax
  402199:	48 8d 34 01          	lea    (%rcx,%rax,1),%rsi
  40219d:	48 8d 7f 01          	lea    0x1(%rdi),%rdi
  4021a1:	e8 ba ec ff ff       	callq  400e60 <FPC_MOVE>
  4021a6:	e9 94 00 00 00       	jmpq   40223f <fpc_shortstr_concat+0x10f>
  4021ab:	4c 89 f8             	mov    %r15,%rax
  4021ae:	48 89 da             	mov    %rbx,%rdx
  4021b1:	48 39 d0             	cmp    %rdx,%rax
  4021b4:	75 45                	jne    4021fb <fpc_shortstr_concat+0xcb>
  4021b6:	44 88 ea             	mov    %r13b,%dl
  4021b9:	67 41 8d 44 24 01    	lea    0x1(%r12d),%eax
  4021bf:	4c 89 f9             	mov    %r15,%rcx
  4021c2:	4c 89 ff             	mov    %r15,%rdi
  4021c5:	81 e2 ff 00 00 00    	and    $0xff,%edx
  4021cb:	25 ff 00 00 00       	and    $0xff,%eax
  4021d0:	48 8d 34 01          	lea    (%rcx,%rax,1),%rsi
  4021d4:	48 8d 7f 01          	lea    0x1(%rdi),%rdi
  4021d8:	e8 83 ec ff ff       	callq  400e60 <FPC_MOVE>
  4021dd:	44 88 e2             	mov    %r12b,%dl
  4021e0:	4c 89 f8             	mov    %r15,%rax
  4021e3:	4c 89 f1             	mov    %r14,%rcx
  4021e6:	81 e2 ff 00 00 00    	and    $0xff,%edx
  4021ec:	48 8d 70 01          	lea    0x1(%rax),%rsi
  4021f0:	48 8d 79 01          	lea    0x1(%rcx),%rdi
  4021f4:	e8 67 ec ff ff       	callq  400e60 <FPC_MOVE>
  4021f9:	eb 44                	jmp    40223f <fpc_shortstr_concat+0x10f>
  4021fb:	44 88 e2             	mov    %r12b,%dl
  4021fe:	4c 89 f9             	mov    %r15,%rcx
  402201:	4c 89 f0             	mov    %r14,%rax
  402204:	81 e2 ff 00 00 00    	and    $0xff,%edx
  40220a:	48 8d 71 01          	lea    0x1(%rcx),%rsi
  40220e:	48 8d 78 01          	lea    0x1(%rax),%rdi
  402212:	e8 49 ec ff ff       	callq  400e60 <FPC_MOVE>
  402217:	44 88 ea             	mov    %r13b,%dl
  40221a:	67 41 8d 4c 24 01    	lea    0x1(%r12d),%ecx
  402220:	4c 89 fe             	mov    %r15,%rsi
  402223:	48 89 d8             	mov    %rbx,%rax
  402226:	81 e2 ff 00 00 00    	and    $0xff,%edx
  40222c:	81 e1 ff 00 00 00    	and    $0xff,%ecx
  402232:	48 8d 34 0e          	lea    (%rsi,%rcx,1),%rsi
  402236:	48 8d 78 01          	lea    0x1(%rax),%rdi
  40223a:	e8 21 ec ff ff       	callq  400e60 <FPC_MOVE>
  40223f:	67 43 8d 04 2c       	lea    (%r12d,%r13d,1),%eax
  402244:	41 88 07             	mov    %al,(%r15)
  402247:	41 5f                	pop    %r15
  402249:	41 5e                	pop    %r14
  40224b:	41 5d                	pop    %r13
  40224d:	41 5c                	pop    %r12
  40224f:	5b                   	pop    %rbx
  402250:	c3                   	retq   
	...

0000000000402260 <fpc_shortstr_concat_multi>:
  402260:	55                   	push   %rbp
  402261:	48 89 e5             	mov    %rsp,%rbp
  402264:	48 8d a4 24 b0 fe ff 	lea    -0x150(%rsp),%rsp
  40226b:	ff 
  40226c:	48 89 9d b0 fe ff ff 	mov    %rbx,-0x150(%rbp)
  402273:	4c 89 a5 b8 fe ff ff 	mov    %r12,-0x148(%rbp)
  40227a:	4c 89 ad c0 fe ff ff 	mov    %r13,-0x140(%rbp)
  402281:	4c 89 b5 c8 fe ff ff 	mov    %r14,-0x138(%rbp)
  402288:	4c 89 bd d0 fe ff ff 	mov    %r15,-0x130(%rbp)
  40228f:	48 89 bd e0 fe ff ff 	mov    %rdi,-0x120(%rbp)
  402296:	48 89 b5 d8 fe ff ff 	mov    %rsi,-0x128(%rbp)
  40229d:	48 89 95 f0 fe ff ff 	mov    %rdx,-0x110(%rbp)
  4022a4:	48 85 c9             	test   %rcx,%rcx
  4022a7:	75 0f                	jne    4022b8 <fpc_shortstr_concat_multi+0x58>
  4022a9:	48 8b 85 e0 fe ff ff 	mov    -0x120(%rbp),%rax
  4022b0:	c6 00 00             	movb   $0x0,(%rax)
  4022b3:	e9 6e 01 00 00       	jmpq   402426 <fpc_shortstr_concat_multi+0x1c6>
  4022b8:	be 00 00 00 00       	mov    $0x0,%esi
  4022bd:	48 63 d6             	movslq %esi,%rdx
  4022c0:	48 8b bd e0 fe ff ff 	mov    -0x120(%rbp),%rdi
  4022c7:	48 8b 85 f0 fe ff ff 	mov    -0x110(%rbp),%rax
  4022ce:	48 3b 3c d0          	cmp    (%rax,%rdx,8),%rdi
  4022d2:	75 03                	jne    4022d7 <fpc_shortstr_concat_multi+0x77>
  4022d4:	83 c6 01             	add    $0x1,%esi
  4022d7:	c6 85 e8 fe ff ff 00 	movb   $0x0,-0x118(%rbp)
  4022de:	89 ca                	mov    %ecx,%edx
  4022e0:	89 f7                	mov    %esi,%edi
  4022e2:	39 fa                	cmp    %edi,%edx
  4022e4:	7c 31                	jl     402317 <fpc_shortstr_concat_multi+0xb7>
  4022e6:	83 ef 01             	sub    $0x1,%edi
  4022e9:	66 66 66 90          	data16 data16 xchg %ax,%ax
  4022ed:	66 66 90             	data16 xchg %ax,%ax
  4022f0:	83 c7 01             	add    $0x1,%edi
  4022f3:	4c 63 c7             	movslq %edi,%r8
  4022f6:	4c 8b 8d e0 fe ff ff 	mov    -0x120(%rbp),%r9
  4022fd:	48 8b 85 f0 fe ff ff 	mov    -0x110(%rbp),%rax
  402304:	4e 3b 0c c0          	cmp    (%rax,%r8,8),%r9
  402308:	75 09                	jne    402313 <fpc_shortstr_concat_multi+0xb3>
  40230a:	c6 85 e8 fe ff ff 01 	movb   $0x1,-0x118(%rbp)
  402311:	eb 04                	jmp    402317 <fpc_shortstr_concat_multi+0xb7>
  402313:	39 fa                	cmp    %edi,%edx
  402315:	7f d9                	jg     4022f0 <fpc_shortstr_concat_multi+0x90>
  402317:	8a 85 e8 fe ff ff    	mov    -0x118(%rbp),%al
  40231d:	84 c0                	test   %al,%al
  40231f:	74 15                	je     402336 <fpc_shortstr_concat_multi+0xd6>
  402321:	be 00 00 00 00       	mov    $0x0,%esi
  402326:	c6 85 00 ff ff ff 00 	movb   $0x0,-0x100(%rbp)
  40232d:	48 8d 95 00 ff ff ff 	lea    -0x100(%rbp),%rdx
  402334:	eb 1c                	jmp    402352 <fpc_shortstr_concat_multi+0xf2>
  402336:	48 63 c6             	movslq %esi,%rax
  402339:	48 85 c0             	test   %rax,%rax
  40233c:	75 0a                	jne    402348 <fpc_shortstr_concat_multi+0xe8>
  40233e:	48 8b 85 e0 fe ff ff 	mov    -0x120(%rbp),%rax
  402345:	c6 00 00             	movb   $0x0,(%rax)
  402348:	48 8b 85 e0 fe ff ff 	mov    -0x120(%rbp),%rax
  40234f:	48 89 c2             	mov    %rax,%rdx
  402352:	48 89 95 f8 fe ff ff 	mov    %rdx,-0x108(%rbp)
  402359:	48 8b 85 f8 fe ff ff 	mov    -0x108(%rbp),%rax
  402360:	0f b6 10             	movzbl (%rax),%edx
  402363:	41 89 d7             	mov    %edx,%r15d
  402366:	41 89 ce             	mov    %ecx,%r14d
  402369:	41 89 f5             	mov    %esi,%r13d
  40236c:	45 39 ee             	cmp    %r13d,%r14d
  40236f:	0f 8c 81 00 00 00    	jl     4023f6 <fpc_shortstr_concat_multi+0x196>
  402375:	41 83 ed 01          	sub    $0x1,%r13d
  402379:	66 66 66 90          	data16 data16 xchg %ax,%ax
  40237d:	66 66 90             	data16 xchg %ax,%ax
  402380:	41 83 c5 01          	add    $0x1,%r13d
  402384:	49 63 c5             	movslq %r13d,%rax
  402387:	48 8b 95 f0 fe ff ff 	mov    -0x110(%rbp),%rdx
  40238e:	48 8b 1c c2          	mov    (%rdx,%rax,8),%rbx
  402392:	48 85 db             	test   %rbx,%rbx
  402395:	74 5a                	je     4023f1 <fpc_shortstr_concat_multi+0x191>
  402397:	44 8a 23             	mov    (%rbx),%r12b
  40239a:	49 63 d7             	movslq %r15d,%rdx
  40239d:	41 0f b6 c4          	movzbl %r12b,%eax
  4023a1:	48 8d 04 02          	lea    (%rdx,%rax,1),%rax
  4023a5:	48 3b 85 d8 fe ff ff 	cmp    -0x128(%rbp),%rax
  4023ac:	7e 10                	jle    4023be <fpc_shortstr_concat_multi+0x15e>
  4023ae:	49 63 d7             	movslq %r15d,%rdx
  4023b1:	48 8b 85 d8 fe ff ff 	mov    -0x128(%rbp),%rax
  4023b8:	48 29 d0             	sub    %rdx,%rax
  4023bb:	41 88 c4             	mov    %al,%r12b
  4023be:	67 41 8d 77 01       	lea    0x1(%r15d),%esi
  4023c3:	48 89 d8             	mov    %rbx,%rax
  4023c6:	48 89 c2             	mov    %rax,%rdx
  4023c9:	41 0f b6 c4          	movzbl %r12b,%eax
  4023cd:	81 e6 ff 00 00 00    	and    $0xff,%esi
  4023d3:	48 8b 8d f8 fe ff ff 	mov    -0x108(%rbp),%rcx
  4023da:	48 8d 34 31          	lea    (%rcx,%rsi,1),%rsi
  4023de:	48 8d 7a 01          	lea    0x1(%rdx),%rdi
  4023e2:	48 89 c2             	mov    %rax,%rdx
  4023e5:	e8 76 ea ff ff       	callq  400e60 <FPC_MOVE>
  4023ea:	41 0f b6 c4          	movzbl %r12b,%eax
  4023ee:	41 01 c7             	add    %eax,%r15d
  4023f1:	45 39 ee             	cmp    %r13d,%r14d
  4023f4:	7f 8a                	jg     402380 <fpc_shortstr_concat_multi+0x120>
  4023f6:	48 8b 95 f8 fe ff ff 	mov    -0x108(%rbp),%rdx
  4023fd:	44 88 f8             	mov    %r15b,%al
  402400:	88 02                	mov    %al,(%rdx)
  402402:	8a 85 e8 fe ff ff    	mov    -0x118(%rbp),%al
  402408:	84 c0                	test   %al,%al
  40240a:	74 1a                	je     402426 <fpc_shortstr_concat_multi+0x1c6>
  40240c:	48 8b bd e0 fe ff ff 	mov    -0x120(%rbp),%rdi
  402413:	48 8d 95 00 ff ff ff 	lea    -0x100(%rbp),%rdx
  40241a:	48 8b b5 d8 fe ff ff 	mov    -0x128(%rbp),%rsi
  402421:	e8 7a fc ff ff       	callq  4020a0 <FPC_SHORTSTR_TO_SHORTSTR>
  402426:	48 8b 9d b0 fe ff ff 	mov    -0x150(%rbp),%rbx
  40242d:	4c 8b a5 b8 fe ff ff 	mov    -0x148(%rbp),%r12
  402434:	4c 8b ad c0 fe ff ff 	mov    -0x140(%rbp),%r13
  40243b:	4c 8b b5 c8 fe ff ff 	mov    -0x138(%rbp),%r14
  402442:	4c 8b bd d0 fe ff ff 	mov    -0x130(%rbp),%r15
  402449:	c9                   	leaveq 
  40244a:	c3                   	retq   
  40244b:	00 00                	add    %al,(%rax)
  40244d:	00 00                	add    %al,(%rax)
	...

0000000000402450 <FPC_SHORTSTR_APPEND_SHORTSTR>:
  402450:	53                   	push   %rbx
  402451:	41 54                	push   %r12
  402453:	41 55                	push   %r13
  402455:	48 89 fb             	mov    %rdi,%rbx
  402458:	44 0f b6 2b          	movzbl (%rbx),%r13d
  40245c:	44 0f b6 22          	movzbl (%rdx),%r12d
  402460:	4b 8d 44 25 00       	lea    0x0(%r13,%r12,1),%rax
  402465:	48 39 f0             	cmp    %rsi,%rax
  402468:	7e 06                	jle    402470 <FPC_SHORTSTR_APPEND_SHORTSTR+0x20>
  40246a:	4c 29 ee             	sub    %r13,%rsi
  40246d:	49 89 f4             	mov    %rsi,%r12
  402470:	49 8d 45 01          	lea    0x1(%r13),%rax
  402474:	25 ff 00 00 00       	and    $0xff,%eax
  402479:	48 8d 34 03          	lea    (%rbx,%rax,1),%rsi
  40247d:	48 8d 7a 01          	lea    0x1(%rdx),%rdi
  402481:	4c 89 e2             	mov    %r12,%rdx
  402484:	e8 d7 e9 ff ff       	callq  400e60 <FPC_MOVE>
  402489:	4b 8d 44 25 00       	lea    0x0(%r13,%r12,1),%rax
  40248e:	88 03                	mov    %al,(%rbx)
  402490:	41 5d                	pop    %r13
  402492:	41 5c                	pop    %r12
  402494:	5b                   	pop    %rbx
  402495:	c3                   	retq   
	...

00000000004024a0 <FPC_SHORTSTR_COMPARE>:
  4024a0:	53                   	push   %rbx
  4024a1:	8a 0f                	mov    (%rdi),%cl
  4024a3:	44 8a 06             	mov    (%rsi),%r8b
  4024a6:	44 38 c1             	cmp    %r8b,%cl
  4024a9:	73 04                	jae    4024af <FPC_SHORTSTR_COMPARE+0xf>
  4024ab:	88 ca                	mov    %cl,%dl
  4024ad:	eb 03                	jmp    4024b2 <FPC_SHORTSTR_COMPARE+0x12>
  4024af:	44 88 c2             	mov    %r8b,%dl
  4024b2:	41 b2 01             	mov    $0x1,%r10b
  4024b5:	44 38 d2             	cmp    %r10b,%dl
  4024b8:	72 3f                	jb     4024f9 <FPC_SHORTSTR_COMPARE+0x59>
  4024ba:	41 80 ea 01          	sub    $0x1,%r10b
  4024be:	66 90                	xchg   %ax,%ax
  4024c0:	41 80 c2 01          	add    $0x1,%r10b
  4024c4:	45 0f b6 ca          	movzbl %r10b,%r9d
  4024c8:	46 0f b6 1c 0f       	movzbl (%rdi,%r9,1),%r11d
  4024cd:	45 0f b6 ca          	movzbl %r10b,%r9d
  4024d1:	46 0f b6 0c 0e       	movzbl (%rsi,%r9,1),%r9d
  4024d6:	45 29 cb             	sub    %r9d,%r11d
  4024d9:	44 89 db             	mov    %r11d,%ebx
  4024dc:	83 fb 00             	cmp    $0x0,%ebx
  4024df:	7e 07                	jle    4024e8 <FPC_SHORTSTR_COMPARE+0x48>
  4024e1:	b8 01 00 00 00       	mov    $0x1,%eax
  4024e6:	eb 2e                	jmp    402516 <FPC_SHORTSTR_COMPARE+0x76>
  4024e8:	83 fb 00             	cmp    $0x0,%ebx
  4024eb:	7d 07                	jge    4024f4 <FPC_SHORTSTR_COMPARE+0x54>
  4024ed:	b8 ff ff ff ff       	mov    $0xffffffff,%eax
  4024f2:	eb 22                	jmp    402516 <FPC_SHORTSTR_COMPARE+0x76>
  4024f4:	44 38 d2             	cmp    %r10b,%dl
  4024f7:	77 c7                	ja     4024c0 <FPC_SHORTSTR_COMPARE+0x20>
  4024f9:	44 38 c1             	cmp    %r8b,%cl
  4024fc:	76 07                	jbe    402505 <FPC_SHORTSTR_COMPARE+0x65>
  4024fe:	b8 01 00 00 00       	mov    $0x1,%eax
  402503:	eb 11                	jmp    402516 <FPC_SHORTSTR_COMPARE+0x76>
  402505:	44 38 c1             	cmp    %r8b,%cl
  402508:	73 07                	jae    402511 <FPC_SHORTSTR_COMPARE+0x71>
  40250a:	b8 ff ff ff ff       	mov    $0xffffffff,%eax
  40250f:	eb 05                	jmp    402516 <FPC_SHORTSTR_COMPARE+0x76>
  402511:	b8 00 00 00 00       	mov    $0x0,%eax
  402516:	5b                   	pop    %rbx
  402517:	c3                   	retq   
	...

0000000000402520 <FPC_SHORTSTR_COMPARE_EQUAL>:
  402520:	53                   	push   %rbx
  402521:	0f b6 1f             	movzbl (%rdi),%ebx
  402524:	0f b6 06             	movzbl (%rsi),%eax
  402527:	29 c3                	sub    %eax,%ebx
  402529:	85 db                	test   %ebx,%ebx
  40252b:	75 15                	jne    402542 <FPC_SHORTSTR_COMPARE_EQUAL+0x22>
  40252d:	0f b6 17             	movzbl (%rdi),%edx
  402530:	48 63 d2             	movslq %edx,%rdx
  402533:	48 8d 76 01          	lea    0x1(%rsi),%rsi
  402537:	48 8d 7f 01          	lea    0x1(%rdi),%rdi
  40253b:	e8 d0 ee ff ff       	callq  401410 <SYSTEM_$$_COMPAREBYTE$formal$formal$INT64$$INT64>
  402540:	89 c3                	mov    %eax,%ebx
  402542:	89 d8                	mov    %ebx,%eax
  402544:	5b                   	pop    %rbx
  402545:	c3                   	retq   
	...

0000000000402550 <FPC_PCHAR_TO_SHORTSTR>:
  402550:	53                   	push   %rbx
  402551:	41 54                	push   %r12
  402553:	41 55                	push   %r13
  402555:	41 56                	push   %r14
  402557:	48 8d a4 24 f8 fe ff 	lea    -0x108(%rsp),%rsp
  40255e:	ff 
  40255f:	49 89 fc             	mov    %rdi,%r12
  402562:	49 89 f5             	mov    %rsi,%r13
  402565:	49 89 d6             	mov    %rdx,%r14
  402568:	4d 85 f6             	test   %r14,%r14
  40256b:	75 07                	jne    402574 <FPC_PCHAR_TO_SHORTSTR+0x24>
  40256d:	bb 00 00 00 00       	mov    $0x0,%ebx
  402572:	eb 0a                	jmp    40257e <FPC_PCHAR_TO_SHORTSTR+0x2e>
  402574:	4c 89 f7             	mov    %r14,%rdi
  402577:	e8 b4 03 00 00       	callq  402930 <FPC_PCHAR_LENGTH>
  40257c:	89 c3                	mov    %eax,%ebx
  40257e:	48 63 c3             	movslq %ebx,%rax
  402581:	4c 39 e8             	cmp    %r13,%rax
  402584:	7e 05                	jle    40258b <FPC_PCHAR_TO_SHORTSTR+0x3b>
  402586:	44 89 e8             	mov    %r13d,%eax
  402589:	89 c3                	mov    %eax,%ebx
  40258b:	83 fb 00             	cmp    $0x0,%ebx
  40258e:	7e 10                	jle    4025a0 <FPC_PCHAR_TO_SHORTSTR+0x50>
  402590:	48 63 d3             	movslq %ebx,%rdx
  402593:	4c 89 f7             	mov    %r14,%rdi
  402596:	48 8d 74 24 01       	lea    0x1(%rsp),%rsi
  40259b:	e8 c0 e8 ff ff       	callq  400e60 <FPC_MOVE>
  4025a0:	88 d8                	mov    %bl,%al
  4025a2:	88 04 24             	mov    %al,(%rsp)
  4025a5:	4c 89 e7             	mov    %r12,%rdi
  4025a8:	48 89 e2             	mov    %rsp,%rdx
  4025ab:	4c 89 ee             	mov    %r13,%rsi
  4025ae:	e8 ed fa ff ff       	callq  4020a0 <FPC_SHORTSTR_TO_SHORTSTR>
  4025b3:	48 8d a4 24 08 01 00 	lea    0x108(%rsp),%rsp
  4025ba:	00 
  4025bb:	41 5e                	pop    %r14
  4025bd:	41 5d                	pop    %r13
  4025bf:	41 5c                	pop    %r12
  4025c1:	5b                   	pop    %rbx
  4025c2:	c3                   	retq   
	...

00000000004025d0 <SYSTEM_$$_STRPAS$PCHAR$$SHORTSTRING>:
  4025d0:	48 8d 64 24 f8       	lea    -0x8(%rsp),%rsp
  4025d5:	48 89 f8             	mov    %rdi,%rax
  4025d8:	48 89 f2             	mov    %rsi,%rdx
  4025db:	48 89 c7             	mov    %rax,%rdi
  4025de:	48 be ff 00 00 00 00 	movabs $0xff,%rsi
  4025e5:	00 00 00 
  4025e8:	e8 63 ff ff ff       	callq  402550 <FPC_PCHAR_TO_SHORTSTR>
  4025ed:	48 8d 64 24 08       	lea    0x8(%rsp),%rsp
  4025f2:	c3                   	retq   
	...

0000000000402600 <SYSTEM_$$_UTF8CODEPOINTLEN$PCHAR$INT64$BOOLEAN$$INT64>:
  402600:	48 83 fe 00          	cmp    $0x0,%rsi
  402604:	7f 0f                	jg     402615 <SYSTEM_$$_UTF8CODEPOINTLEN$PCHAR$INT64$BOOLEAN$$INT64+0x15>
  402606:	48 b8 00 00 00 00 00 	movabs $0x0,%rax
  40260d:	00 00 00 
  402610:	e9 03 02 00 00       	jmpq   402818 <SYSTEM_$$_UTF8CODEPOINTLEN$PCHAR$INT64$BOOLEAN$$INT64+0x218>
  402615:	48 b8 01 00 00 00 00 	movabs $0x1,%rax
  40261c:	00 00 00 
  40261f:	80 3f 7f             	cmpb   $0x7f,(%rdi)
  402622:	0f 86 8d 00 00 00    	jbe    4026b5 <SYSTEM_$$_UTF8CODEPOINTLEN$PCHAR$INT64$BOOLEAN$$INT64+0xb5>
  402628:	8a 0f                	mov    (%rdi),%cl
  40262a:	f6 d1                	not    %cl
  40262c:	81 e1 ff 00 00 00    	and    $0xff,%ecx
  402632:	48 0f bd c9          	bsr    %rcx,%rcx
  402636:	75 0a                	jne    402642 <SYSTEM_$$_UTF8CODEPOINTLEN$PCHAR$INT64$BOOLEAN$$INT64+0x42>
  402638:	48 b9 ff 00 00 00 00 	movabs $0xff,%rcx
  40263f:	00 00 00 
  402642:	80 f9 01             	cmp    $0x1,%cl
  402645:	76 05                	jbe    40264c <SYSTEM_$$_UTF8CODEPOINTLEN$PCHAR$INT64$BOOLEAN$$INT64+0x4c>
  402647:	80 f9 06             	cmp    $0x6,%cl
  40264a:	72 0e                	jb     40265a <SYSTEM_$$_UTF8CODEPOINTLEN$PCHAR$INT64$BOOLEAN$$INT64+0x5a>
  40264c:	49 89 c0             	mov    %rax,%r8
  40264f:	49 f7 d8             	neg    %r8
  402652:	4c 89 c0             	mov    %r8,%rax
  402655:	e9 be 01 00 00       	jmpq   402818 <SYSTEM_$$_UTF8CODEPOINTLEN$PCHAR$INT64$BOOLEAN$$INT64+0x218>
  40265a:	81 e1 ff 00 00 00    	and    $0xff,%ecx
  402660:	49 b8 06 00 00 00 00 	movabs $0x6,%r8
  402667:	00 00 00 
  40266a:	49 29 c8             	sub    %rcx,%r8
  40266d:	eb 09                	jmp    402678 <SYSTEM_$$_UTF8CODEPOINTLEN$PCHAR$INT64$BOOLEAN$$INT64+0x78>
  40266f:	90                   	nop
  402670:	48 83 c0 01          	add    $0x1,%rax
  402674:	49 83 e8 01          	sub    $0x1,%r8
  402678:	48 39 f0             	cmp    %rsi,%rax
  40267b:	7d 11                	jge    40268e <SYSTEM_$$_UTF8CODEPOINTLEN$PCHAR$INT64$BOOLEAN$$INT64+0x8e>
  40267d:	49 83 f8 00          	cmp    $0x0,%r8
  402681:	7e 0b                	jle    40268e <SYSTEM_$$_UTF8CODEPOINTLEN$PCHAR$INT64$BOOLEAN$$INT64+0x8e>
  402683:	8a 0c 07             	mov    (%rdi,%rax,1),%cl
  402686:	80 e1 c0             	and    $0xc0,%cl
  402689:	80 f9 80             	cmp    $0x80,%cl
  40268c:	74 e2                	je     402670 <SYSTEM_$$_UTF8CODEPOINTLEN$PCHAR$INT64$BOOLEAN$$INT64+0x70>
  40268e:	4d 85 c0             	test   %r8,%r8
  402691:	74 22                	je     4026b5 <SYSTEM_$$_UTF8CODEPOINTLEN$PCHAR$INT64$BOOLEAN$$INT64+0xb5>
  402693:	48 39 f0             	cmp    %rsi,%rax
  402696:	7c 0f                	jl     4026a7 <SYSTEM_$$_UTF8CODEPOINTLEN$PCHAR$INT64$BOOLEAN$$INT64+0xa7>
  402698:	48 b8 00 00 00 00 00 	movabs $0x0,%rax
  40269f:	00 00 00 
  4026a2:	e9 71 01 00 00       	jmpq   402818 <SYSTEM_$$_UTF8CODEPOINTLEN$PCHAR$INT64$BOOLEAN$$INT64+0x218>
  4026a7:	48 89 c1             	mov    %rax,%rcx
  4026aa:	48 f7 d9             	neg    %rcx
  4026ad:	48 89 c8             	mov    %rcx,%rax
  4026b0:	e9 63 01 00 00       	jmpq   402818 <SYSTEM_$$_UTF8CODEPOINTLEN$PCHAR$INT64$BOOLEAN$$INT64+0x218>
  4026b5:	84 d2                	test   %dl,%dl
  4026b7:	0f 84 5b 01 00 00    	je     402818 <SYSTEM_$$_UTF8CODEPOINTLEN$PCHAR$INT64$BOOLEAN$$INT64+0x218>
  4026bd:	66 66 90             	data16 xchg %ax,%ax
  4026c0:	49 89 c0             	mov    %rax,%r8
  4026c3:	48 8d 50 01          	lea    0x1(%rax),%rdx
  4026c7:	48 39 f2             	cmp    %rsi,%rdx
  4026ca:	0f 8d b4 00 00 00    	jge    402784 <SYSTEM_$$_UTF8CODEPOINTLEN$PCHAR$INT64$BOOLEAN$$INT64+0x184>
  4026d0:	8a 14 07             	mov    (%rdi,%rax,1),%dl
  4026d3:	80 e2 cc             	and    $0xcc,%dl
  4026d6:	80 fa cc             	cmp    $0xcc,%dl
  4026d9:	75 17                	jne    4026f2 <SYSTEM_$$_UTF8CODEPOINTLEN$PCHAR$INT64$BOOLEAN$$INT64+0xf2>
  4026db:	8a 54 07 01          	mov    0x1(%rdi,%rax,1),%dl
  4026df:	80 fa 80             	cmp    $0x80,%dl
  4026e2:	72 0e                	jb     4026f2 <SYSTEM_$$_UTF8CODEPOINTLEN$PCHAR$INT64$BOOLEAN$$INT64+0xf2>
  4026e4:	80 fa af             	cmp    $0xaf,%dl
  4026e7:	77 09                	ja     4026f2 <SYSTEM_$$_UTF8CODEPOINTLEN$PCHAR$INT64$BOOLEAN$$INT64+0xf2>
  4026e9:	48 83 c0 02          	add    $0x2,%rax
  4026ed:	e9 92 00 00 00       	jmpq   402784 <SYSTEM_$$_UTF8CODEPOINTLEN$PCHAR$INT64$BOOLEAN$$INT64+0x184>
  4026f2:	48 8d 50 02          	lea    0x2(%rax),%rdx
  4026f6:	48 39 f2             	cmp    %rsi,%rdx
  4026f9:	0f 8d 85 00 00 00    	jge    402784 <SYSTEM_$$_UTF8CODEPOINTLEN$PCHAR$INT64$BOOLEAN$$INT64+0x184>
  4026ff:	80 3c 07 e1          	cmpb   $0xe1,(%rdi,%rax,1)
  402703:	0f 82 7b 00 00 00    	jb     402784 <SYSTEM_$$_UTF8CODEPOINTLEN$PCHAR$INT64$BOOLEAN$$INT64+0x184>
  402709:	44 8a 0c 07          	mov    (%rdi,%rax,1),%r9b
  40270d:	41 80 f9 e1          	cmp    $0xe1,%r9b
  402711:	0f 94 c2             	sete   %dl
  402714:	84 d2                	test   %dl,%dl
  402716:	74 19                	je     402731 <SYSTEM_$$_UTF8CODEPOINTLEN$PCHAR$INT64$BOOLEAN$$INT64+0x131>
  402718:	80 7c 07 01 aa       	cmpb   $0xaa,0x1(%rdi,%rax,1)
  40271d:	75 12                	jne    402731 <SYSTEM_$$_UTF8CODEPOINTLEN$PCHAR$INT64$BOOLEAN$$INT64+0x131>
  40271f:	8a 4c 07 02          	mov    0x2(%rdi,%rax,1),%cl
  402723:	80 f9 b0             	cmp    $0xb0,%cl
  402726:	72 09                	jb     402731 <SYSTEM_$$_UTF8CODEPOINTLEN$PCHAR$INT64$BOOLEAN$$INT64+0x131>
  402728:	80 f9 bf             	cmp    $0xbf,%cl
  40272b:	0f 86 4f 00 00 00    	jbe    402780 <SYSTEM_$$_UTF8CODEPOINTLEN$PCHAR$INT64$BOOLEAN$$INT64+0x180>
  402731:	84 d2                	test   %dl,%dl
  402733:	74 15                	je     40274a <SYSTEM_$$_UTF8CODEPOINTLEN$PCHAR$INT64$BOOLEAN$$INT64+0x14a>
  402735:	80 7c 07 01 b7       	cmpb   $0xb7,0x1(%rdi,%rax,1)
  40273a:	75 0e                	jne    40274a <SYSTEM_$$_UTF8CODEPOINTLEN$PCHAR$INT64$BOOLEAN$$INT64+0x14a>
  40273c:	8a 54 07 02          	mov    0x2(%rdi,%rax,1),%dl
  402740:	80 fa 80             	cmp    $0x80,%dl
  402743:	72 05                	jb     40274a <SYSTEM_$$_UTF8CODEPOINTLEN$PCHAR$INT64$BOOLEAN$$INT64+0x14a>
  402745:	80 fa bf             	cmp    $0xbf,%dl
  402748:	76 36                	jbe    402780 <SYSTEM_$$_UTF8CODEPOINTLEN$PCHAR$INT64$BOOLEAN$$INT64+0x180>
  40274a:	41 80 f9 e2          	cmp    $0xe2,%r9b
  40274e:	75 15                	jne    402765 <SYSTEM_$$_UTF8CODEPOINTLEN$PCHAR$INT64$BOOLEAN$$INT64+0x165>
  402750:	80 7c 07 01 83       	cmpb   $0x83,0x1(%rdi,%rax,1)
  402755:	75 0e                	jne    402765 <SYSTEM_$$_UTF8CODEPOINTLEN$PCHAR$INT64$BOOLEAN$$INT64+0x165>
  402757:	8a 54 07 02          	mov    0x2(%rdi,%rax,1),%dl
  40275b:	80 fa 90             	cmp    $0x90,%dl
  40275e:	72 05                	jb     402765 <SYSTEM_$$_UTF8CODEPOINTLEN$PCHAR$INT64$BOOLEAN$$INT64+0x165>
  402760:	80 fa bf             	cmp    $0xbf,%dl
  402763:	76 1b                	jbe    402780 <SYSTEM_$$_UTF8CODEPOINTLEN$PCHAR$INT64$BOOLEAN$$INT64+0x180>
  402765:	41 80 f9 ef          	cmp    $0xef,%r9b
  402769:	75 19                	jne    402784 <SYSTEM_$$_UTF8CODEPOINTLEN$PCHAR$INT64$BOOLEAN$$INT64+0x184>
  40276b:	80 7c 07 01 b8       	cmpb   $0xb8,0x1(%rdi,%rax,1)
  402770:	75 12                	jne    402784 <SYSTEM_$$_UTF8CODEPOINTLEN$PCHAR$INT64$BOOLEAN$$INT64+0x184>
  402772:	8a 54 07 02          	mov    0x2(%rdi,%rax,1),%dl
  402776:	80 fa a0             	cmp    $0xa0,%dl
  402779:	72 09                	jb     402784 <SYSTEM_$$_UTF8CODEPOINTLEN$PCHAR$INT64$BOOLEAN$$INT64+0x184>
  40277b:	80 fa af             	cmp    $0xaf,%dl
  40277e:	77 04                	ja     402784 <SYSTEM_$$_UTF8CODEPOINTLEN$PCHAR$INT64$BOOLEAN$$INT64+0x184>
  402780:	48 83 c0 03          	add    $0x3,%rax
  402784:	49 39 c0             	cmp    %rax,%r8
  402787:	0f 85 33 ff ff ff    	jne    4026c0 <SYSTEM_$$_UTF8CODEPOINTLEN$PCHAR$INT64$BOOLEAN$$INT64+0xc0>
  40278d:	48 39 f0             	cmp    %rsi,%rax
  402790:	0f 8d 82 00 00 00    	jge    402818 <SYSTEM_$$_UTF8CODEPOINTLEN$PCHAR$INT64$BOOLEAN$$INT64+0x218>
  402796:	8a 0c 07             	mov    (%rdi,%rax,1),%cl
  402799:	88 ca                	mov    %cl,%dl
  40279b:	80 e2 cc             	and    $0xcc,%dl
  40279e:	80 fa cc             	cmp    $0xcc,%dl
  4027a1:	75 0d                	jne    4027b0 <SYSTEM_$$_UTF8CODEPOINTLEN$PCHAR$INT64$BOOLEAN$$INT64+0x1b0>
  4027a3:	48 8d 50 01          	lea    0x1(%rax),%rdx
  4027a7:	48 39 f2             	cmp    %rsi,%rdx
  4027aa:	0f 8d 5e 00 00 00    	jge    40280e <SYSTEM_$$_UTF8CODEPOINTLEN$PCHAR$INT64$BOOLEAN$$INT64+0x20e>
  4027b0:	80 f9 e1             	cmp    $0xe1,%cl
  4027b3:	75 1f                	jne    4027d4 <SYSTEM_$$_UTF8CODEPOINTLEN$PCHAR$INT64$BOOLEAN$$INT64+0x1d4>
  4027b5:	48 8d 50 01          	lea    0x1(%rax),%rdx
  4027b9:	48 39 f2             	cmp    %rsi,%rdx
  4027bc:	7d 50                	jge    40280e <SYSTEM_$$_UTF8CODEPOINTLEN$PCHAR$INT64$BOOLEAN$$INT64+0x20e>
  4027be:	8a 14 17             	mov    (%rdi,%rdx,1),%dl
  4027c1:	80 fa aa             	cmp    $0xaa,%dl
  4027c4:	74 05                	je     4027cb <SYSTEM_$$_UTF8CODEPOINTLEN$PCHAR$INT64$BOOLEAN$$INT64+0x1cb>
  4027c6:	80 fa b7             	cmp    $0xb7,%dl
  4027c9:	75 09                	jne    4027d4 <SYSTEM_$$_UTF8CODEPOINTLEN$PCHAR$INT64$BOOLEAN$$INT64+0x1d4>
  4027cb:	48 8d 50 02          	lea    0x2(%rax),%rdx
  4027cf:	48 39 f2             	cmp    %rsi,%rdx
  4027d2:	7d 3a                	jge    40280e <SYSTEM_$$_UTF8CODEPOINTLEN$PCHAR$INT64$BOOLEAN$$INT64+0x20e>
  4027d4:	80 f9 e2             	cmp    $0xe2,%cl
  4027d7:	75 18                	jne    4027f1 <SYSTEM_$$_UTF8CODEPOINTLEN$PCHAR$INT64$BOOLEAN$$INT64+0x1f1>
  4027d9:	48 8d 50 01          	lea    0x1(%rax),%rdx
  4027dd:	48 39 f2             	cmp    %rsi,%rdx
  4027e0:	7d 2c                	jge    40280e <SYSTEM_$$_UTF8CODEPOINTLEN$PCHAR$INT64$BOOLEAN$$INT64+0x20e>
  4027e2:	80 3c 17 83          	cmpb   $0x83,(%rdi,%rdx,1)
  4027e6:	75 09                	jne    4027f1 <SYSTEM_$$_UTF8CODEPOINTLEN$PCHAR$INT64$BOOLEAN$$INT64+0x1f1>
  4027e8:	48 8d 50 02          	lea    0x2(%rax),%rdx
  4027ec:	48 39 f2             	cmp    %rsi,%rdx
  4027ef:	7d 1d                	jge    40280e <SYSTEM_$$_UTF8CODEPOINTLEN$PCHAR$INT64$BOOLEAN$$INT64+0x20e>
  4027f1:	80 f9 ef             	cmp    $0xef,%cl
  4027f4:	75 22                	jne    402818 <SYSTEM_$$_UTF8CODEPOINTLEN$PCHAR$INT64$BOOLEAN$$INT64+0x218>
  4027f6:	48 8d 50 01          	lea    0x1(%rax),%rdx
  4027fa:	48 39 f2             	cmp    %rsi,%rdx
  4027fd:	7d 0f                	jge    40280e <SYSTEM_$$_UTF8CODEPOINTLEN$PCHAR$INT64$BOOLEAN$$INT64+0x20e>
  4027ff:	80 3c 17 b8          	cmpb   $0xb8,(%rdi,%rdx,1)
  402803:	75 13                	jne    402818 <SYSTEM_$$_UTF8CODEPOINTLEN$PCHAR$INT64$BOOLEAN$$INT64+0x218>
  402805:	48 8d 50 02          	lea    0x2(%rax),%rdx
  402809:	48 39 f2             	cmp    %rsi,%rdx
  40280c:	7c 0a                	jl     402818 <SYSTEM_$$_UTF8CODEPOINTLEN$PCHAR$INT64$BOOLEAN$$INT64+0x218>
  40280e:	48 b8 00 00 00 00 00 	movabs $0x0,%rax
  402815:	00 00 00 
  402818:	c3                   	retq   
  402819:	00 00                	add    %al,(%rax)
  40281b:	00 00                	add    %al,(%rax)
  40281d:	00 00                	add    %al,(%rax)
	...

0000000000402820 <FPC_CHARARRAY_TO_SHORTSTR>:
  402820:	55                   	push   %rbp
  402821:	48 89 e5             	mov    %rsp,%rbp
  402824:	48 8d 64 24 e0       	lea    -0x20(%rsp),%rsp
  402829:	48 89 5d e0          	mov    %rbx,-0x20(%rbp)
  40282d:	4c 89 65 e8          	mov    %r12,-0x18(%rbp)
  402831:	4c 89 6d f0          	mov    %r13,-0x10(%rbp)
  402835:	4c 89 75 f8          	mov    %r14,-0x8(%rbp)
  402839:	48 89 fb             	mov    %rdi,%rbx
  40283c:	49 89 d4             	mov    %rdx,%r12
  40283f:	4c 8d 69 01          	lea    0x1(%rcx),%r13
  402843:	49 63 c5             	movslq %r13d,%rax
  402846:	48 8d 56 01          	lea    0x1(%rsi),%rdx
  40284a:	48 39 d0             	cmp    %rdx,%rax
  40284d:	7c 05                	jl     402854 <FPC_CHARARRAY_TO_SHORTSTR+0x34>
  40284f:	41 89 f5             	mov    %esi,%r13d
  402852:	eb 0c                	jmp    402860 <FPC_CHARARRAY_TO_SHORTSTR+0x40>
  402854:	41 83 fd 00          	cmp    $0x0,%r13d
  402858:	7d 06                	jge    402860 <FPC_CHARARRAY_TO_SHORTSTR+0x40>
  40285a:	41 bd 00 00 00 00    	mov    $0x0,%r13d
  402860:	45 84 c0             	test   %r8b,%r8b
  402863:	74 1f                	je     402884 <FPC_CHARARRAY_TO_SHORTSTR+0x64>
  402865:	49 63 f5             	movslq %r13d,%rsi
  402868:	4c 89 e7             	mov    %r12,%rdi
  40286b:	ba 00 00 00 00       	mov    $0x0,%edx
  402870:	e8 1b ea ff ff       	callq  401290 <SYSTEM_$$_INDEXBYTE$formal$INT64$BYTE$$INT64>
  402875:	83 f8 00             	cmp    $0x0,%eax
  402878:	7d 05                	jge    40287f <FPC_CHARARRAY_TO_SHORTSTR+0x5f>
  40287a:	45 88 ee             	mov    %r13b,%r14b
  40287d:	eb 08                	jmp    402887 <FPC_CHARARRAY_TO_SHORTSTR+0x67>
  40287f:	41 88 c6             	mov    %al,%r14b
  402882:	eb 03                	jmp    402887 <FPC_CHARARRAY_TO_SHORTSTR+0x67>
  402884:	45 88 ee             	mov    %r13b,%r14b
  402887:	41 0f b6 d6          	movzbl %r14b,%edx
  40288b:	48 8d 73 01          	lea    0x1(%rbx),%rsi
  40288f:	4c 89 e7             	mov    %r12,%rdi
  402892:	e8 c9 e5 ff ff       	callq  400e60 <FPC_MOVE>
  402897:	44 88 33             	mov    %r14b,(%rbx)
  40289a:	48 8b 5d e0          	mov    -0x20(%rbp),%rbx
  40289e:	4c 8b 65 e8          	mov    -0x18(%rbp),%r12
  4028a2:	4c 8b 6d f0          	mov    -0x10(%rbp),%r13
  4028a6:	4c 8b 75 f8          	mov    -0x8(%rbp),%r14
  4028aa:	c9                   	leaveq 
  4028ab:	c3                   	retq   
  4028ac:	00 00                	add    %al,(%rax)
	...

00000000004028b0 <fpc_shortstr_to_chararray>:
  4028b0:	55                   	push   %rbp
  4028b1:	48 89 e5             	mov    %rsp,%rbp
  4028b4:	48 8d 64 24 e0       	lea    -0x20(%rsp),%rsp
  4028b9:	48 89 5d e8          	mov    %rbx,-0x18(%rbp)
  4028bd:	4c 89 65 f0          	mov    %r12,-0x10(%rbp)
  4028c1:	4c 89 6d f8          	mov    %r13,-0x8(%rbp)
  4028c5:	48 89 fb             	mov    %rdi,%rbx
  4028c8:	49 89 f4             	mov    %rsi,%r12
  4028cb:	48 89 d0             	mov    %rdx,%rax
  4028ce:	44 0f b6 28          	movzbl (%rax),%r13d
  4028d2:	49 63 d5             	movslq %r13d,%rdx
  4028d5:	49 8d 4c 24 01       	lea    0x1(%r12),%rcx
  4028da:	48 39 ca             	cmp    %rcx,%rdx
  4028dd:	7e 08                	jle    4028e7 <fpc_shortstr_to_chararray+0x37>
  4028df:	49 8d 54 24 01       	lea    0x1(%r12),%rdx
  4028e4:	41 89 d5             	mov    %edx,%r13d
  4028e7:	41 83 fd 00          	cmp    $0x0,%r13d
  4028eb:	7e 0f                	jle    4028fc <fpc_shortstr_to_chararray+0x4c>
  4028ed:	49 63 d5             	movslq %r13d,%rdx
  4028f0:	48 89 de             	mov    %rbx,%rsi
  4028f3:	48 8d 78 01          	lea    0x1(%rax),%rdi
  4028f7:	e8 64 e5 ff ff       	callq  400e60 <FPC_MOVE>
  4028fc:	49 8d 74 24 01       	lea    0x1(%r12),%rsi
  402901:	49 63 c5             	movslq %r13d,%rax
  402904:	48 29 c6             	sub    %rax,%rsi
  402907:	4d 63 ed             	movslq %r13d,%r13
  40290a:	4a 8d 3c 2b          	lea    (%rbx,%r13,1),%rdi
  40290e:	ba 00 00 00 00       	mov    $0x0,%edx
  402913:	e8 58 e8 ff ff       	callq  401170 <SYSTEM_$$_FILLCHAR$formal$INT64$BYTE>
  402918:	48 8b 5d e8          	mov    -0x18(%rbp),%rbx
  40291c:	4c 8b 65 f0          	mov    -0x10(%rbp),%r12
  402920:	4c 8b 6d f8          	mov    -0x8(%rbp),%r13
  402924:	c9                   	leaveq 
  402925:	c3                   	retq   
	...

0000000000402930 <FPC_PCHAR_LENGTH>:
  402930:	48 b8 00 00 00 00 00 	movabs $0x0,%rax
  402937:	00 00 00 
  40293a:	48 85 ff             	test   %rdi,%rdi
  40293d:	74 13                	je     402952 <FPC_PCHAR_LENGTH+0x22>
  40293f:	eb 0b                	jmp    40294c <FPC_PCHAR_LENGTH+0x1c>
  402941:	66 66 66 90          	data16 data16 xchg %ax,%ax
  402945:	66 66 90             	data16 xchg %ax,%ax
  402948:	48 83 c0 01          	add    $0x1,%rax
  40294c:	80 3c 07 00          	cmpb   $0x0,(%rdi,%rax,1)
  402950:	75 f6                	jne    402948 <FPC_PCHAR_LENGTH+0x18>
  402952:	c3                   	retq   
	...

0000000000402960 <FPC_PWIDECHAR_LENGTH>:
  402960:	48 b8 00 00 00 00 00 	movabs $0x0,%rax
  402967:	00 00 00 
  40296a:	48 85 ff             	test   %rdi,%rdi
  40296d:	74 15                	je     402984 <FPC_PWIDECHAR_LENGTH+0x24>
  40296f:	eb 0b                	jmp    40297c <FPC_PWIDECHAR_LENGTH+0x1c>
  402971:	66 66 66 90          	data16 data16 xchg %ax,%ax
  402975:	66 66 90             	data16 xchg %ax,%ax
  402978:	48 83 c0 01          	add    $0x1,%rax
  40297c:	66 81 3c 47 00 00    	cmpw   $0x0,(%rdi,%rax,2)
  402982:	75 f4                	jne    402978 <FPC_PWIDECHAR_LENGTH+0x18>
  402984:	c3                   	retq   
	...

0000000000402990 <SYSTEM_$$_ODD$LONGINT$$BOOLEAN>:
  402990:	89 f8                	mov    %edi,%eax
  402992:	83 e0 01             	and    $0x1,%eax
  402995:	c3                   	retq   
	...

00000000004029a0 <SYSTEM_$$_ODD$LONGWORD$$BOOLEAN>:
  4029a0:	89 f8                	mov    %edi,%eax
  4029a2:	83 e0 01             	and    $0x1,%eax
  4029a5:	c3                   	retq   
	...

00000000004029b0 <SYSTEM_$$_ODD$INT64$$BOOLEAN>:
  4029b0:	48 89 f8             	mov    %rdi,%rax
  4029b3:	83 e0 01             	and    $0x1,%eax
  4029b6:	c3                   	retq   
	...

00000000004029c0 <SYSTEM_$$_ODD$QWORD$$BOOLEAN>:
  4029c0:	48 89 f8             	mov    %rdi,%rax
  4029c3:	83 e0 01             	and    $0x1,%eax
  4029c6:	c3                   	retq   
	...

00000000004029d0 <SYSTEM_$$_SQR$LONGINT$$LONGINT>:
  4029d0:	89 f8                	mov    %edi,%eax
  4029d2:	0f af c7             	imul   %edi,%eax
  4029d5:	c3                   	retq   
	...

00000000004029e0 <SYSTEM_$$_SQR$INT64$$INT64>:
  4029e0:	48 89 f8             	mov    %rdi,%rax
  4029e3:	48 0f af c7          	imul   %rdi,%rax
  4029e7:	c3                   	retq   
	...

00000000004029f0 <SYSTEM_$$_SQR$QWORD$$QWORD>:
  4029f0:	48 89 f8             	mov    %rdi,%rax
  4029f3:	48 0f af c7          	imul   %rdi,%rax
  4029f7:	c3                   	retq   
	...

0000000000402a00 <SYSTEM_$$_ALIGN$QWORD$QWORD$$QWORD>:
  402a00:	48 8d 46 ff          	lea    -0x1(%rsi),%rax
  402a04:	48 8d 0c 38          	lea    (%rax,%rdi,1),%rcx
  402a08:	48 89 c8             	mov    %rcx,%rax
  402a0b:	48 31 d2             	xor    %rdx,%rdx
  402a0e:	48 f7 f6             	div    %rsi
  402a11:	48 89 c8             	mov    %rcx,%rax
  402a14:	48 29 d0             	sub    %rdx,%rax
  402a17:	c3                   	retq   
	...

0000000000402a20 <SYSTEM_$$_ALIGN$POINTER$QWORD$$POINTER>:
  402a20:	48 8d 46 ff          	lea    -0x1(%rsi),%rax
  402a24:	48 8d 0c 38          	lea    (%rax,%rdi,1),%rcx
  402a28:	48 89 c8             	mov    %rcx,%rax
  402a2b:	48 31 d2             	xor    %rdx,%rdx
  402a2e:	48 f7 f6             	div    %rsi
  402a31:	48 89 c8             	mov    %rcx,%rax
  402a34:	48 29 d0             	sub    %rdx,%rax
  402a37:	c3                   	retq   
	...

0000000000402a40 <SYSTEM_$$_INT_STR$LONGINT$OPENSTRING>:
  402a40:	53                   	push   %rbx
  402a41:	48 8d 64 24 d0       	lea    -0x30(%rsp),%rsp
  402a46:	49 89 d0             	mov    %rdx,%r8
  402a49:	4c 8d 4e 01          	lea    0x1(%rsi),%r9
  402a4d:	4d 89 ca             	mov    %r9,%r10
  402a50:	83 ff 00             	cmp    $0x0,%edi
  402a53:	7d 12                	jge    402a67 <SYSTEM_$$_INT_STR$LONGINT$OPENSTRING+0x27>
  402a55:	41 c6 02 2d          	movb   $0x2d,(%r10)
  402a59:	49 83 c2 01          	add    $0x1,%r10
  402a5d:	48 63 c7             	movslq %edi,%rax
  402a60:	48 f7 d8             	neg    %rax
  402a63:	89 c1                	mov    %eax,%ecx
  402a65:	eb 02                	jmp    402a69 <SYSTEM_$$_INT_STR$LONGINT$OPENSTRING+0x29>
  402a67:	89 f9                	mov    %edi,%ecx
  402a69:	48 89 e7             	mov    %rsp,%rdi
  402a6c:	49 89 fb             	mov    %rdi,%r11
  402a6f:	90                   	nop
  402a70:	89 ca                	mov    %ecx,%edx
  402a72:	b8 cd cc cc cc       	mov    $0xcccccccd,%eax
  402a77:	f7 e2                	mul    %edx
  402a79:	c1 ea 03             	shr    $0x3,%edx
  402a7c:	89 d3                	mov    %edx,%ebx
  402a7e:	49 83 c3 01          	add    $0x1,%r11
  402a82:	89 d8                	mov    %ebx,%eax
  402a84:	6b d0 0a             	imul   $0xa,%eax,%edx
  402a87:	89 c8                	mov    %ecx,%eax
  402a89:	29 d0                	sub    %edx,%eax
  402a8b:	67 8d 40 30          	lea    0x30(%eax),%eax
  402a8f:	41 88 03             	mov    %al,(%r11)
  402a92:	89 d9                	mov    %ebx,%ecx
  402a94:	85 c9                	test   %ecx,%ecx
  402a96:	75 d8                	jne    402a70 <SYSTEM_$$_INT_STR$LONGINT$OPENSTRING+0x30>
  402a98:	4c 89 d8             	mov    %r11,%rax
  402a9b:	48 29 f8             	sub    %rdi,%rax
  402a9e:	4c 89 d2             	mov    %r10,%rdx
  402aa1:	4c 29 ca             	sub    %r9,%rdx
  402aa4:	48 8d 04 10          	lea    (%rax,%rdx,1),%rax
  402aa8:	4c 29 c0             	sub    %r8,%rax
  402aab:	83 f8 00             	cmp    $0x0,%eax
  402aae:	7e 16                	jle    402ac6 <SYSTEM_$$_INT_STR$LONGINT$OPENSTRING+0x86>
  402ab0:	48 63 c0             	movslq %eax,%rax
  402ab3:	48 01 c7             	add    %rax,%rdi
  402ab6:	eb 0e                	jmp    402ac6 <SYSTEM_$$_INT_STR$LONGINT$OPENSTRING+0x86>
  402ab8:	41 8a 03             	mov    (%r11),%al
  402abb:	41 88 02             	mov    %al,(%r10)
  402abe:	49 83 c2 01          	add    $0x1,%r10
  402ac2:	49 83 eb 01          	sub    $0x1,%r11
  402ac6:	49 39 fb             	cmp    %rdi,%r11
  402ac9:	77 ed                	ja     402ab8 <SYSTEM_$$_INT_STR$LONGINT$OPENSTRING+0x78>
  402acb:	4d 29 ca             	sub    %r9,%r10
  402ace:	44 88 16             	mov    %r10b,(%rsi)
  402ad1:	48 8d 64 24 30       	lea    0x30(%rsp),%rsp
  402ad6:	5b                   	pop    %rbx
  402ad7:	c3                   	retq   
	...

0000000000402ae0 <SYSTEM_$$_INT_STR_UNSIGNED$LONGWORD$OPENSTRING>:
  402ae0:	53                   	push   %rbx
  402ae1:	48 8d 64 24 d0       	lea    -0x30(%rsp),%rsp
  402ae6:	48 89 d1             	mov    %rdx,%rcx
  402ae9:	4c 8d 46 01          	lea    0x1(%rsi),%r8
  402aed:	4d 89 c1             	mov    %r8,%r9
  402af0:	49 89 e2             	mov    %rsp,%r10
  402af3:	4d 89 d3             	mov    %r10,%r11
  402af6:	66 90                	xchg   %ax,%ax
  402af8:	49 83 c3 01          	add    $0x1,%r11
  402afc:	89 fa                	mov    %edi,%edx
  402afe:	b8 cd cc cc cc       	mov    $0xcccccccd,%eax
  402b03:	f7 e2                	mul    %edx
  402b05:	c1 ea 03             	shr    $0x3,%edx
  402b08:	89 d3                	mov    %edx,%ebx
  402b0a:	89 d8                	mov    %ebx,%eax
  402b0c:	6b d0 0a             	imul   $0xa,%eax,%edx
  402b0f:	89 f8                	mov    %edi,%eax
  402b11:	29 d0                	sub    %edx,%eax
  402b13:	67 8d 40 30          	lea    0x30(%eax),%eax
  402b17:	41 88 03             	mov    %al,(%r11)
  402b1a:	89 df                	mov    %ebx,%edi
  402b1c:	85 ff                	test   %edi,%edi
  402b1e:	75 d8                	jne    402af8 <SYSTEM_$$_INT_STR_UNSIGNED$LONGWORD$OPENSTRING+0x18>
  402b20:	4c 89 d8             	mov    %r11,%rax
  402b23:	4c 29 d0             	sub    %r10,%rax
  402b26:	48 29 c8             	sub    %rcx,%rax
  402b29:	83 f8 00             	cmp    $0x0,%eax
  402b2c:	7e 18                	jle    402b46 <SYSTEM_$$_INT_STR_UNSIGNED$LONGWORD$OPENSTRING+0x66>
  402b2e:	48 63 c0             	movslq %eax,%rax
  402b31:	49 01 c2             	add    %rax,%r10
  402b34:	eb 10                	jmp    402b46 <SYSTEM_$$_INT_STR_UNSIGNED$LONGWORD$OPENSTRING+0x66>
  402b36:	66 90                	xchg   %ax,%ax
  402b38:	41 8a 03             	mov    (%r11),%al
  402b3b:	41 88 01             	mov    %al,(%r9)
  402b3e:	49 83 c1 01          	add    $0x1,%r9
  402b42:	49 83 eb 01          	sub    $0x1,%r11
  402b46:	4d 39 d3             	cmp    %r10,%r11
  402b49:	77 ed                	ja     402b38 <SYSTEM_$$_INT_STR_UNSIGNED$LONGWORD$OPENSTRING+0x58>
  402b4b:	4d 29 c1             	sub    %r8,%r9
  402b4e:	44 88 0e             	mov    %r9b,(%rsi)
  402b51:	48 8d 64 24 30       	lea    0x30(%rsp),%rsp
  402b56:	5b                   	pop    %rbx
  402b57:	c3                   	retq   
	...

0000000000402b60 <SYSTEM_$$_INT_STR$INT64$OPENSTRING>:
  402b60:	53                   	push   %rbx
  402b61:	48 8d 64 24 d0       	lea    -0x30(%rsp),%rsp
  402b66:	49 89 d0             	mov    %rdx,%r8
  402b69:	4c 8d 4e 01          	lea    0x1(%rsi),%r9
  402b6d:	4d 89 ca             	mov    %r9,%r10
  402b70:	48 83 ff 00          	cmp    $0x0,%rdi
  402b74:	7d 13                	jge    402b89 <SYSTEM_$$_INT_STR$INT64$OPENSTRING+0x29>
  402b76:	41 c6 02 2d          	movb   $0x2d,(%r10)
  402b7a:	49 83 c2 01          	add    $0x1,%r10
  402b7e:	48 89 f8             	mov    %rdi,%rax
  402b81:	48 f7 d8             	neg    %rax
  402b84:	48 89 c1             	mov    %rax,%rcx
  402b87:	eb 03                	jmp    402b8c <SYSTEM_$$_INT_STR$INT64$OPENSTRING+0x2c>
  402b89:	48 89 f9             	mov    %rdi,%rcx
  402b8c:	48 89 e7             	mov    %rsp,%rdi
  402b8f:	49 89 fb             	mov    %rdi,%r11
  402b92:	66 66 66 90          	data16 data16 xchg %ax,%ax
  402b96:	66 90                	xchg   %ax,%ax
  402b98:	48 89 ca             	mov    %rcx,%rdx
  402b9b:	48 b8 cd cc cc cc cc 	movabs $0xcccccccccccccccd,%rax
  402ba2:	cc cc cc 
  402ba5:	48 f7 e2             	mul    %rdx
  402ba8:	48 c1 ea 03          	shr    $0x3,%rdx
  402bac:	48 89 d3             	mov    %rdx,%rbx
  402baf:	49 83 c3 01          	add    $0x1,%r11
  402bb3:	48 6b d3 0a          	imul   $0xa,%rbx,%rdx
  402bb7:	48 89 c8             	mov    %rcx,%rax
  402bba:	48 29 d0             	sub    %rdx,%rax
  402bbd:	48 8d 40 30          	lea    0x30(%rax),%rax
  402bc1:	41 88 03             	mov    %al,(%r11)
  402bc4:	48 89 d9             	mov    %rbx,%rcx
  402bc7:	48 85 c9             	test   %rcx,%rcx
  402bca:	75 cc                	jne    402b98 <SYSTEM_$$_INT_STR$INT64$OPENSTRING+0x38>
  402bcc:	4c 89 d8             	mov    %r11,%rax
  402bcf:	48 29 f8             	sub    %rdi,%rax
  402bd2:	4c 89 d2             	mov    %r10,%rdx
  402bd5:	4c 29 ca             	sub    %r9,%rdx
  402bd8:	48 8d 04 10          	lea    (%rax,%rdx,1),%rax
  402bdc:	4c 29 c0             	sub    %r8,%rax
  402bdf:	83 f8 00             	cmp    $0x0,%eax
  402be2:	7e 1a                	jle    402bfe <SYSTEM_$$_INT_STR$INT64$OPENSTRING+0x9e>
  402be4:	48 63 c0             	movslq %eax,%rax
  402be7:	48 01 c7             	add    %rax,%rdi
  402bea:	eb 12                	jmp    402bfe <SYSTEM_$$_INT_STR$INT64$OPENSTRING+0x9e>
  402bec:	66 66 66 90          	data16 data16 xchg %ax,%ax
  402bf0:	41 8a 03             	mov    (%r11),%al
  402bf3:	41 88 02             	mov    %al,(%r10)
  402bf6:	49 83 c2 01          	add    $0x1,%r10
  402bfa:	49 83 eb 01          	sub    $0x1,%r11
  402bfe:	49 39 fb             	cmp    %rdi,%r11
  402c01:	77 ed                	ja     402bf0 <SYSTEM_$$_INT_STR$INT64$OPENSTRING+0x90>
  402c03:	4d 29 ca             	sub    %r9,%r10
  402c06:	44 88 16             	mov    %r10b,(%rsi)
  402c09:	48 8d 64 24 30       	lea    0x30(%rsp),%rsp
  402c0e:	5b                   	pop    %rbx
  402c0f:	c3                   	retq   

0000000000402c10 <SYSTEM_$$_INT_STR_UNSIGNED$QWORD$OPENSTRING>:
  402c10:	53                   	push   %rbx
  402c11:	48 8d 64 24 b0       	lea    -0x50(%rsp),%rsp
  402c16:	48 89 d1             	mov    %rdx,%rcx
  402c19:	4c 8d 46 01          	lea    0x1(%rsi),%r8
  402c1d:	4d 89 c1             	mov    %r8,%r9
  402c20:	49 89 e2             	mov    %rsp,%r10
  402c23:	4d 89 d3             	mov    %r10,%r11
  402c26:	66 90                	xchg   %ax,%ax
  402c28:	49 83 c3 01          	add    $0x1,%r11
  402c2c:	48 89 fa             	mov    %rdi,%rdx
  402c2f:	48 b8 cd cc cc cc cc 	movabs $0xcccccccccccccccd,%rax
  402c36:	cc cc cc 
  402c39:	48 f7 e2             	mul    %rdx
  402c3c:	48 c1 ea 03          	shr    $0x3,%rdx
  402c40:	48 89 d3             	mov    %rdx,%rbx
  402c43:	48 6b d3 0a          	imul   $0xa,%rbx,%rdx
  402c47:	48 89 f8             	mov    %rdi,%rax
  402c4a:	48 29 d0             	sub    %rdx,%rax
  402c4d:	48 8d 40 30          	lea    0x30(%rax),%rax
  402c51:	41 88 03             	mov    %al,(%r11)
  402c54:	48 89 df             	mov    %rbx,%rdi
  402c57:	48 85 ff             	test   %rdi,%rdi
  402c5a:	75 cc                	jne    402c28 <SYSTEM_$$_INT_STR_UNSIGNED$QWORD$OPENSTRING+0x18>
  402c5c:	4c 89 d8             	mov    %r11,%rax
  402c5f:	4c 29 d0             	sub    %r10,%rax
  402c62:	48 29 c8             	sub    %rcx,%rax
  402c65:	83 f8 00             	cmp    $0x0,%eax
  402c68:	7e 1c                	jle    402c86 <SYSTEM_$$_INT_STR_UNSIGNED$QWORD$OPENSTRING+0x76>
  402c6a:	48 63 c0             	movslq %eax,%rax
  402c6d:	49 01 c2             	add    %rax,%r10
  402c70:	eb 14                	jmp    402c86 <SYSTEM_$$_INT_STR_UNSIGNED$QWORD$OPENSTRING+0x76>
  402c72:	66 66 66 90          	data16 data16 xchg %ax,%ax
  402c76:	66 90                	xchg   %ax,%ax
  402c78:	41 8a 03             	mov    (%r11),%al
  402c7b:	41 88 01             	mov    %al,(%r9)
  402c7e:	49 83 c1 01          	add    $0x1,%r9
  402c82:	49 83 eb 01          	sub    $0x1,%r11
  402c86:	4d 39 d3             	cmp    %r10,%r11
  402c89:	77 ed                	ja     402c78 <SYSTEM_$$_INT_STR_UNSIGNED$QWORD$OPENSTRING+0x68>
  402c8b:	4d 29 c1             	sub    %r8,%r9
  402c8e:	44 88 0e             	mov    %r9b,(%rsi)
  402c91:	48 8d 64 24 50       	lea    0x50(%rsp),%rsp
  402c96:	5b                   	pop    %rbx
  402c97:	c3                   	retq   
	...

0000000000402ca0 <SYSTEM_$$_BETON$SMALLINT$$SMALLINT>:
  402ca0:	66 89 f8             	mov    %di,%ax
  402ca3:	25 ff ff 00 00       	and    $0xffff,%eax
  402ca8:	89 c2                	mov    %eax,%edx
  402caa:	c1 ea 08             	shr    $0x8,%edx
  402cad:	c1 e0 08             	shl    $0x8,%eax
  402cb0:	09 d0                	or     %edx,%eax
  402cb2:	0f bf c0             	movswl %ax,%eax
  402cb5:	c3                   	retq   
	...

0000000000402cc0 <SYSTEM_$$_BETON$WORD$$WORD>:
  402cc0:	66 89 f8             	mov    %di,%ax
  402cc3:	25 ff ff 00 00       	and    $0xffff,%eax
  402cc8:	89 c2                	mov    %eax,%edx
  402cca:	c1 ea 08             	shr    $0x8,%edx
  402ccd:	c1 e0 08             	shl    $0x8,%eax
  402cd0:	09 d0                	or     %edx,%eax
  402cd2:	25 ff ff 00 00       	and    $0xffff,%eax
  402cd7:	c3                   	retq   
	...

0000000000402ce0 <SYSTEM_$$_BETON$LONGINT$$LONGINT>:
  402ce0:	48 8d 64 24 f8       	lea    -0x8(%rsp),%rsp
  402ce5:	e8 c6 e9 ff ff       	callq  4016b0 <SYSTEM_$$_SWAPENDIAN$LONGINT$$LONGINT>
  402cea:	48 8d 64 24 08       	lea    0x8(%rsp),%rsp
  402cef:	c3                   	retq   

0000000000402cf0 <SYSTEM_$$_BETON$LONGWORD$$LONGWORD>:
  402cf0:	48 8d 64 24 f8       	lea    -0x8(%rsp),%rsp
  402cf5:	e8 c6 e9 ff ff       	callq  4016c0 <SYSTEM_$$_SWAPENDIAN$LONGWORD$$LONGWORD>
  402cfa:	48 8d 64 24 08       	lea    0x8(%rsp),%rsp
  402cff:	c3                   	retq   

0000000000402d00 <SYSTEM_$$_BETON$INT64$$INT64>:
  402d00:	48 8d 64 24 f8       	lea    -0x8(%rsp),%rsp
  402d05:	e8 c6 e9 ff ff       	callq  4016d0 <SYSTEM_$$_SWAPENDIAN$INT64$$INT64>
  402d0a:	48 8d 64 24 08       	lea    0x8(%rsp),%rsp
  402d0f:	c3                   	retq   

0000000000402d10 <SYSTEM_$$_BETON$QWORD$$QWORD>:
  402d10:	48 8d 64 24 f8       	lea    -0x8(%rsp),%rsp
  402d15:	e8 c6 e9 ff ff       	callq  4016e0 <SYSTEM_$$_SWAPENDIAN$QWORD$$QWORD>
  402d1a:	48 8d 64 24 08       	lea    0x8(%rsp),%rsp
  402d1f:	c3                   	retq   

0000000000402d20 <SYSTEM_$$_LETON$SMALLINT$$SMALLINT>:
  402d20:	66 89 f8             	mov    %di,%ax
  402d23:	0f bf c0             	movswl %ax,%eax
  402d26:	c3                   	retq   
	...

0000000000402d30 <SYSTEM_$$_LETON$WORD$$WORD>:
  402d30:	66 89 f8             	mov    %di,%ax
  402d33:	25 ff ff 00 00       	and    $0xffff,%eax
  402d38:	c3                   	retq   
  402d39:	00 00                	add    %al,(%rax)
  402d3b:	00 00                	add    %al,(%rax)
  402d3d:	00 00                	add    %al,(%rax)
	...

0000000000402d40 <SYSTEM_$$_LETON$LONGINT$$LONGINT>:
  402d40:	89 f8                	mov    %edi,%eax
  402d42:	c3                   	retq   
	...

0000000000402d50 <SYSTEM_$$_LETON$LONGWORD$$LONGWORD>:
  402d50:	89 f8                	mov    %edi,%eax
  402d52:	c3                   	retq   
	...

0000000000402d60 <SYSTEM_$$_LETON$INT64$$INT64>:
  402d60:	48 89 f8             	mov    %rdi,%rax
  402d63:	c3                   	retq   
	...

0000000000402d70 <SYSTEM_$$_LETON$QWORD$$QWORD>:
  402d70:	48 89 f8             	mov    %rdi,%rax
  402d73:	c3                   	retq   
	...

0000000000402d80 <SYSTEM_$$_NTOBE$SMALLINT$$SMALLINT>:
  402d80:	66 89 f8             	mov    %di,%ax
  402d83:	25 ff ff 00 00       	and    $0xffff,%eax
  402d88:	89 c2                	mov    %eax,%edx
  402d8a:	c1 ea 08             	shr    $0x8,%edx
  402d8d:	c1 e0 08             	shl    $0x8,%eax
  402d90:	09 d0                	or     %edx,%eax
  402d92:	0f bf c0             	movswl %ax,%eax
  402d95:	c3                   	retq   
	...

0000000000402da0 <SYSTEM_$$_NTOBE$WORD$$WORD>:
  402da0:	66 89 f8             	mov    %di,%ax
  402da3:	25 ff ff 00 00       	and    $0xffff,%eax
  402da8:	89 c2                	mov    %eax,%edx
  402daa:	c1 ea 08             	shr    $0x8,%edx
  402dad:	c1 e0 08             	shl    $0x8,%eax
  402db0:	09 d0                	or     %edx,%eax
  402db2:	25 ff ff 00 00       	and    $0xffff,%eax
  402db7:	c3                   	retq   
	...

0000000000402dc0 <SYSTEM_$$_NTOBE$LONGINT$$LONGINT>:
  402dc0:	48 8d 64 24 f8       	lea    -0x8(%rsp),%rsp
  402dc5:	e8 e6 e8 ff ff       	callq  4016b0 <SYSTEM_$$_SWAPENDIAN$LONGINT$$LONGINT>
  402dca:	48 8d 64 24 08       	lea    0x8(%rsp),%rsp
  402dcf:	c3                   	retq   

0000000000402dd0 <SYSTEM_$$_NTOBE$LONGWORD$$LONGWORD>:
  402dd0:	48 8d 64 24 f8       	lea    -0x8(%rsp),%rsp
  402dd5:	e8 e6 e8 ff ff       	callq  4016c0 <SYSTEM_$$_SWAPENDIAN$LONGWORD$$LONGWORD>
  402dda:	48 8d 64 24 08       	lea    0x8(%rsp),%rsp
  402ddf:	c3                   	retq   

0000000000402de0 <SYSTEM_$$_NTOBE$INT64$$INT64>:
  402de0:	48 8d 64 24 f8       	lea    -0x8(%rsp),%rsp
  402de5:	e8 e6 e8 ff ff       	callq  4016d0 <SYSTEM_$$_SWAPENDIAN$INT64$$INT64>
  402dea:	48 8d 64 24 08       	lea    0x8(%rsp),%rsp
  402def:	c3                   	retq   

0000000000402df0 <SYSTEM_$$_NTOBE$QWORD$$QWORD>:
  402df0:	48 8d 64 24 f8       	lea    -0x8(%rsp),%rsp
  402df5:	e8 e6 e8 ff ff       	callq  4016e0 <SYSTEM_$$_SWAPENDIAN$QWORD$$QWORD>
  402dfa:	48 8d 64 24 08       	lea    0x8(%rsp),%rsp
  402dff:	c3                   	retq   

0000000000402e00 <SYSTEM_$$_NTOLE$SMALLINT$$SMALLINT>:
  402e00:	66 89 f8             	mov    %di,%ax
  402e03:	0f bf c0             	movswl %ax,%eax
  402e06:	c3                   	retq   
	...

0000000000402e10 <SYSTEM_$$_NTOLE$WORD$$WORD>:
  402e10:	66 89 f8             	mov    %di,%ax
  402e13:	25 ff ff 00 00       	and    $0xffff,%eax
  402e18:	c3                   	retq   
  402e19:	00 00                	add    %al,(%rax)
  402e1b:	00 00                	add    %al,(%rax)
  402e1d:	00 00                	add    %al,(%rax)
	...

0000000000402e20 <SYSTEM_$$_NTOLE$LONGINT$$LONGINT>:
  402e20:	89 f8                	mov    %edi,%eax
  402e22:	c3                   	retq   
	...

0000000000402e30 <SYSTEM_$$_NTOLE$LONGWORD$$LONGWORD>:
  402e30:	89 f8                	mov    %edi,%eax
  402e32:	c3                   	retq   
	...

0000000000402e40 <SYSTEM_$$_NTOLE$INT64$$INT64>:
  402e40:	48 89 f8             	mov    %rdi,%rax
  402e43:	c3                   	retq   
	...

0000000000402e50 <SYSTEM_$$_NTOLE$QWORD$$QWORD>:
  402e50:	48 89 f8             	mov    %rdi,%rax
  402e53:	c3                   	retq   
	...

0000000000402e60 <FPC_POPCNT_BYTE>:
  402e60:	48 8d 05 19 0d 22 00 	lea    0x220d19(%rip),%rax        # 623b80 <TC_$SYSTEM_$$_POPCNTDATA>
  402e67:	40 0f b6 d7          	movzbl %dil,%edx
  402e6b:	c1 ea 04             	shr    $0x4,%edx
  402e6e:	83 e2 0f             	and    $0xf,%edx
  402e71:	0f b6 14 10          	movzbl (%rax,%rdx,1),%edx
  402e75:	66 81 e7 0f 00       	and    $0xf,%di
  402e7a:	81 e7 ff ff 00 00    	and    $0xffff,%edi
  402e80:	0f b6 04 38          	movzbl (%rax,%rdi,1),%eax
  402e84:	67 8d 04 02          	lea    (%edx,%eax,1),%eax
  402e88:	25 ff 00 00 00       	and    $0xff,%eax
  402e8d:	c3                   	retq   
	...

0000000000402e90 <FPC_POPCNT_WORD>:
  402e90:	66 b8 00 00          	mov    $0x0,%ax
  402e94:	48 be 00 00 00 00 00 	movabs $0x0,%rsi
  402e9b:	00 00 00 
  402e9e:	48 83 ee 01          	sub    $0x1,%rsi
  402ea2:	66 66 66 90          	data16 data16 xchg %ax,%ax
  402ea6:	66 90                	xchg   %ax,%ax
  402ea8:	48 83 c6 01          	add    $0x1,%rsi
  402eac:	89 fa                	mov    %edi,%edx
  402eae:	83 e2 0f             	and    $0xf,%edx
  402eb1:	48 8d 0d c8 0c 22 00 	lea    0x220cc8(%rip),%rcx        # 623b80 <TC_$SYSTEM_$$_POPCNTDATA>
  402eb8:	66 0f b6 14 11       	movzbw (%rcx,%rdx,1),%dx
  402ebd:	66 01 d0             	add    %dx,%ax
  402ec0:	66 c1 ef 04          	shr    $0x4,%di
  402ec4:	48 83 fe 03          	cmp    $0x3,%rsi
  402ec8:	7c de                	jl     402ea8 <FPC_POPCNT_WORD+0x18>
  402eca:	25 ff ff 00 00       	and    $0xffff,%eax
  402ecf:	c3                   	retq   

0000000000402ed0 <FPC_POPCNT_DWORD>:
  402ed0:	b8 00 00 00 00       	mov    $0x0,%eax
  402ed5:	48 be 00 00 00 00 00 	movabs $0x0,%rsi
  402edc:	00 00 00 
  402edf:	48 83 ee 01          	sub    $0x1,%rsi
  402ee3:	66 66 66 90          	data16 data16 xchg %ax,%ax
  402ee7:	90                   	nop
  402ee8:	48 83 c6 01          	add    $0x1,%rsi
  402eec:	89 fa                	mov    %edi,%edx
  402eee:	83 e2 0f             	and    $0xf,%edx
  402ef1:	48 8d 0d 88 0c 22 00 	lea    0x220c88(%rip),%rcx        # 623b80 <TC_$SYSTEM_$$_POPCNTDATA>
  402ef8:	0f b6 14 11          	movzbl (%rcx,%rdx,1),%edx
  402efc:	01 d0                	add    %edx,%eax
  402efe:	89 fa                	mov    %edi,%edx
  402f00:	c1 ea 04             	shr    $0x4,%edx
  402f03:	89 d7                	mov    %edx,%edi
  402f05:	48 83 fe 07          	cmp    $0x7,%rsi
  402f09:	7c dd                	jl     402ee8 <FPC_POPCNT_DWORD+0x18>
  402f0b:	c3                   	retq   
  402f0c:	00 00                	add    %al,(%rax)
	...

0000000000402f10 <FPC_POPCNT_QWORD>:
  402f10:	53                   	push   %rbx
  402f11:	41 54                	push   %r12
  402f13:	48 8d 64 24 f8       	lea    -0x8(%rsp),%rsp
  402f18:	48 89 fb             	mov    %rdi,%rbx
  402f1b:	89 df                	mov    %ebx,%edi
  402f1d:	e8 ae ff ff ff       	callq  402ed0 <FPC_POPCNT_DWORD>
  402f22:	41 89 c4             	mov    %eax,%r12d
  402f25:	41 81 e4 ff ff ff ff 	and    $0xffffffff,%r12d
  402f2c:	48 89 df             	mov    %rbx,%rdi
  402f2f:	48 c1 ef 20          	shr    $0x20,%rdi
  402f33:	e8 98 ff ff ff       	callq  402ed0 <FPC_POPCNT_DWORD>
  402f38:	25 ff ff ff ff       	and    $0xffffffff,%eax
  402f3d:	49 8d 04 04          	lea    (%r12,%rax,1),%rax
  402f41:	48 8d 64 24 08       	lea    0x8(%rsp),%rsp
  402f46:	41 5c                	pop    %r12
  402f48:	5b                   	pop    %rbx
  402f49:	c3                   	retq   
  402f4a:	00 00                	add    %al,(%rax)
  402f4c:	00 00                	add    %al,(%rax)
	...

0000000000402f50 <fpc_varset_load>:
  402f50:	53                   	push   %rbx
  402f51:	41 54                	push   %r12
  402f53:	41 55                	push   %r13
  402f55:	41 56                	push   %r14
  402f57:	41 57                	push   %r15
  402f59:	41 89 f6             	mov    %esi,%r14d
  402f5c:	49 89 cf             	mov    %rcx,%r15
  402f5f:	4c 89 c3             	mov    %r8,%rbx
  402f62:	49 89 fc             	mov    %rdi,%r12
  402f65:	49 89 d5             	mov    %rdx,%r13
  402f68:	48 83 fb 00          	cmp    $0x0,%rbx
  402f6c:	7e 18                	jle    402f86 <fpc_varset_load+0x36>
  402f6e:	4c 89 ef             	mov    %r13,%rdi
  402f71:	48 89 de             	mov    %rbx,%rsi
  402f74:	ba 00 00 00 00       	mov    $0x0,%edx
  402f79:	e8 f2 e1 ff ff       	callq  401170 <SYSTEM_$$_FILLCHAR$formal$INT64$BYTE>
  402f7e:	49 01 dd             	add    %rbx,%r13
  402f81:	49 29 df             	sub    %rbx,%r15
  402f84:	eb 0e                	jmp    402f94 <fpc_varset_load+0x44>
  402f86:	48 83 fb 00          	cmp    $0x0,%rbx
  402f8a:	7d 08                	jge    402f94 <fpc_varset_load+0x44>
  402f8c:	49 29 dc             	sub    %rbx,%r12
  402f8f:	89 d8                	mov    %ebx,%eax
  402f91:	41 01 c6             	add    %eax,%r14d
  402f94:	49 63 c6             	movslq %r14d,%rax
  402f97:	4c 39 f8             	cmp    %r15,%rax
  402f9a:	7e 06                	jle    402fa2 <fpc_varset_load+0x52>
  402f9c:	44 89 f8             	mov    %r15d,%eax
  402f9f:	41 89 c6             	mov    %eax,%r14d
  402fa2:	49 63 d6             	movslq %r14d,%rdx
  402fa5:	4c 89 eb             	mov    %r13,%rbx
  402fa8:	48 89 de             	mov    %rbx,%rsi
  402fab:	4c 89 e7             	mov    %r12,%rdi
  402fae:	e8 ad de ff ff       	callq  400e60 <FPC_MOVE>
  402fb3:	49 63 c6             	movslq %r14d,%rax
  402fb6:	48 8d 3c 18          	lea    (%rax,%rbx,1),%rdi
  402fba:	49 63 c6             	movslq %r14d,%rax
  402fbd:	4c 89 fe             	mov    %r15,%rsi
  402fc0:	48 29 c6             	sub    %rax,%rsi
  402fc3:	ba 00 00 00 00       	mov    $0x0,%edx
  402fc8:	e8 a3 e1 ff ff       	callq  401170 <SYSTEM_$$_FILLCHAR$formal$INT64$BYTE>
  402fcd:	41 5f                	pop    %r15
  402fcf:	41 5e                	pop    %r14
  402fd1:	41 5d                	pop    %r13
  402fd3:	41 5c                	pop    %r12
  402fd5:	5b                   	pop    %rbx
  402fd6:	c3                   	retq   
	...

0000000000402fe0 <fpc_varset_create_element>:
  402fe0:	53                   	push   %rbx
  402fe1:	41 54                	push   %r12
  402fe3:	48 8d 64 24 f8       	lea    -0x8(%rsp),%rsp
  402fe8:	48 89 fb             	mov    %rdi,%rbx
  402feb:	49 89 d4             	mov    %rdx,%r12
  402fee:	4c 89 e7             	mov    %r12,%rdi
  402ff1:	ba 00 00 00 00       	mov    $0x0,%edx
  402ff6:	e8 75 e1 ff ff       	callq  401170 <SYSTEM_$$_FILLCHAR$formal$INT64$BYTE>
  402ffb:	48 89 d9             	mov    %rbx,%rcx
  402ffe:	48 89 c8             	mov    %rcx,%rax
  403001:	48 c1 e8 03          	shr    $0x3,%rax
  403005:	48 83 e1 07          	and    $0x7,%rcx
  403009:	41 0f b6 14 04       	movzbl (%r12,%rax,1),%edx
  40300e:	48 be 01 00 00 00 00 	movabs $0x1,%rsi
  403015:	00 00 00 
  403018:	48 d3 e6             	shl    %cl,%rsi
  40301b:	48 09 f2             	or     %rsi,%rdx
  40301e:	41 88 14 04          	mov    %dl,(%r12,%rax,1)
  403022:	48 8d 64 24 08       	lea    0x8(%rsp),%rsp
  403027:	41 5c                	pop    %r12
  403029:	5b                   	pop    %rbx
  40302a:	c3                   	retq   
  40302b:	00 00                	add    %al,(%rax)
  40302d:	00 00                	add    %al,(%rax)
	...

0000000000403030 <fpc_varset_set>:
  403030:	53                   	push   %rbx
  403031:	41 54                	push   %r12
  403033:	48 8d 64 24 f8       	lea    -0x8(%rsp),%rsp
  403038:	48 89 f8             	mov    %rdi,%rax
  40303b:	48 89 f3             	mov    %rsi,%rbx
  40303e:	49 89 d4             	mov    %rdx,%r12
  403041:	48 89 ca             	mov    %rcx,%rdx
  403044:	48 89 de             	mov    %rbx,%rsi
  403047:	48 89 c7             	mov    %rax,%rdi
  40304a:	e8 11 de ff ff       	callq  400e60 <FPC_MOVE>
  40304f:	4c 89 e1             	mov    %r12,%rcx
  403052:	48 89 c8             	mov    %rcx,%rax
  403055:	48 c1 e8 03          	shr    $0x3,%rax
  403059:	48 83 e1 07          	and    $0x7,%rcx
  40305d:	0f b6 14 03          	movzbl (%rbx,%rax,1),%edx
  403061:	48 be 01 00 00 00 00 	movabs $0x1,%rsi
  403068:	00 00 00 
  40306b:	48 d3 e6             	shl    %cl,%rsi
  40306e:	48 09 f2             	or     %rsi,%rdx
  403071:	88 14 03             	mov    %dl,(%rbx,%rax,1)
  403074:	48 8d 64 24 08       	lea    0x8(%rsp),%rsp
  403079:	41 5c                	pop    %r12
  40307b:	5b                   	pop    %rbx
  40307c:	c3                   	retq   
  40307d:	00 00                	add    %al,(%rax)
	...

0000000000403080 <fpc_varset_unset>:
  403080:	53                   	push   %rbx
  403081:	41 54                	push   %r12
  403083:	48 8d 64 24 f8       	lea    -0x8(%rsp),%rsp
  403088:	48 89 f8             	mov    %rdi,%rax
  40308b:	48 89 f3             	mov    %rsi,%rbx
  40308e:	49 89 d4             	mov    %rdx,%r12
  403091:	48 89 ca             	mov    %rcx,%rdx
  403094:	48 89 de             	mov    %rbx,%rsi
  403097:	48 89 c7             	mov    %rax,%rdi
  40309a:	e8 c1 dd ff ff       	callq  400e60 <FPC_MOVE>
  40309f:	4c 89 e1             	mov    %r12,%rcx
  4030a2:	48 89 c8             	mov    %rcx,%rax
  4030a5:	48 c1 e8 03          	shr    $0x3,%rax
  4030a9:	48 83 e1 07          	and    $0x7,%rcx
  4030ad:	0f b6 14 03          	movzbl (%rbx,%rax,1),%edx
  4030b1:	48 be 01 00 00 00 00 	movabs $0x1,%rsi
  4030b8:	00 00 00 
  4030bb:	48 d3 e6             	shl    %cl,%rsi
  4030be:	48 f7 d6             	not    %rsi
  4030c1:	48 21 f2             	and    %rsi,%rdx
  4030c4:	88 14 03             	mov    %dl,(%rbx,%rax,1)
  4030c7:	48 8d 64 24 08       	lea    0x8(%rsp),%rsp
  4030cc:	41 5c                	pop    %r12
  4030ce:	5b                   	pop    %rbx
  4030cf:	c3                   	retq   

00000000004030d0 <fpc_varset_set_range>:
  4030d0:	53                   	push   %rbx
  4030d1:	41 54                	push   %r12
  4030d3:	41 55                	push   %r13
  4030d5:	48 89 f3             	mov    %rsi,%rbx
  4030d8:	49 89 d4             	mov    %rdx,%r12
  4030db:	49 89 cd             	mov    %rcx,%r13
  4030de:	4c 89 c2             	mov    %r8,%rdx
  4030e1:	48 89 de             	mov    %rbx,%rsi
  4030e4:	e8 77 dd ff ff       	callq  400e60 <FPC_MOVE>
  4030e9:	4d 39 e5             	cmp    %r12,%r13
  4030ec:	7c 38                	jl     403126 <fpc_varset_set_range+0x56>
  4030ee:	49 83 ec 01          	sub    $0x1,%r12
  4030f2:	66 66 66 90          	data16 data16 xchg %ax,%ax
  4030f6:	66 90                	xchg   %ax,%ax
  4030f8:	49 83 c4 01          	add    $0x1,%r12
  4030fc:	4c 89 e1             	mov    %r12,%rcx
  4030ff:	48 89 c8             	mov    %rcx,%rax
  403102:	48 c1 e8 03          	shr    $0x3,%rax
  403106:	48 83 e1 07          	and    $0x7,%rcx
  40310a:	0f b6 14 03          	movzbl (%rbx,%rax,1),%edx
  40310e:	48 be 01 00 00 00 00 	movabs $0x1,%rsi
  403115:	00 00 00 
  403118:	48 d3 e6             	shl    %cl,%rsi
  40311b:	48 09 f2             	or     %rsi,%rdx
  40311e:	88 14 03             	mov    %dl,(%rbx,%rax,1)
  403121:	4d 39 e5             	cmp    %r12,%r13
  403124:	7f d2                	jg     4030f8 <fpc_varset_set_range+0x28>
  403126:	41 5d                	pop    %r13
  403128:	41 5c                	pop    %r12
  40312a:	5b                   	pop    %rbx
  40312b:	c3                   	retq   
  40312c:	00 00                	add    %al,(%rax)
	...

0000000000403130 <fpc_varset_add_sets>:
  403130:	48 8d 41 ff          	lea    -0x1(%rcx),%rax
  403134:	49 b8 00 00 00 00 00 	movabs $0x0,%r8
  40313b:	00 00 00 
  40313e:	4c 39 c0             	cmp    %r8,%rax
  403141:	7c 1d                	jl     403160 <fpc_varset_add_sets+0x30>
  403143:	49 83 e8 01          	sub    $0x1,%r8
  403147:	90                   	nop
  403148:	49 83 c0 01          	add    $0x1,%r8
  40314c:	46 8a 0c 07          	mov    (%rdi,%r8,1),%r9b
  403150:	42 8a 0c 06          	mov    (%rsi,%r8,1),%cl
  403154:	44 08 c9             	or     %r9b,%cl
  403157:	42 88 0c 02          	mov    %cl,(%rdx,%r8,1)
  40315b:	4c 39 c0             	cmp    %r8,%rax
  40315e:	7f e8                	jg     403148 <fpc_varset_add_sets+0x18>
  403160:	c3                   	retq   
	...

0000000000403170 <fpc_varset_mul_sets>:
  403170:	48 8d 41 ff          	lea    -0x1(%rcx),%rax
  403174:	49 b8 00 00 00 00 00 	movabs $0x0,%r8
  40317b:	00 00 00 
  40317e:	4c 39 c0             	cmp    %r8,%rax
  403181:	7c 1d                	jl     4031a0 <fpc_varset_mul_sets+0x30>
  403183:	49 83 e8 01          	sub    $0x1,%r8
  403187:	90                   	nop
  403188:	49 83 c0 01          	add    $0x1,%r8
  40318c:	46 8a 0c 07          	mov    (%rdi,%r8,1),%r9b
  403190:	42 8a 0c 06          	mov    (%rsi,%r8,1),%cl
  403194:	44 20 c9             	and    %r9b,%cl
  403197:	42 88 0c 02          	mov    %cl,(%rdx,%r8,1)
  40319b:	4c 39 c0             	cmp    %r8,%rax
  40319e:	7f e8                	jg     403188 <fpc_varset_mul_sets+0x18>
  4031a0:	c3                   	retq   
	...

00000000004031b0 <fpc_varset_sub_sets>:
  4031b0:	48 8d 41 ff          	lea    -0x1(%rcx),%rax
  4031b4:	49 b9 00 00 00 00 00 	movabs $0x0,%r9
  4031bb:	00 00 00 
  4031be:	4c 39 c8             	cmp    %r9,%rax
  4031c1:	7c 1f                	jl     4031e2 <fpc_varset_sub_sets+0x32>
  4031c3:	49 83 e9 01          	sub    $0x1,%r9
  4031c7:	90                   	nop
  4031c8:	49 83 c1 01          	add    $0x1,%r9
  4031cc:	42 8a 0c 0e          	mov    (%rsi,%r9,1),%cl
  4031d0:	f6 d1                	not    %cl
  4031d2:	46 8a 04 0f          	mov    (%rdi,%r9,1),%r8b
  4031d6:	41 20 c8             	and    %cl,%r8b
  4031d9:	46 88 04 0a          	mov    %r8b,(%rdx,%r9,1)
  4031dd:	4c 39 c8             	cmp    %r9,%rax
  4031e0:	7f e6                	jg     4031c8 <fpc_varset_sub_sets+0x18>
  4031e2:	c3                   	retq   
	...

00000000004031f0 <fpc_varset_symdif_sets>:
  4031f0:	48 8d 41 ff          	lea    -0x1(%rcx),%rax
  4031f4:	49 b8 00 00 00 00 00 	movabs $0x0,%r8
  4031fb:	00 00 00 
  4031fe:	4c 39 c0             	cmp    %r8,%rax
  403201:	7c 1d                	jl     403220 <fpc_varset_symdif_sets+0x30>
  403203:	49 83 e8 01          	sub    $0x1,%r8
  403207:	90                   	nop
  403208:	49 83 c0 01          	add    $0x1,%r8
  40320c:	46 8a 0c 07          	mov    (%rdi,%r8,1),%r9b
  403210:	42 8a 0c 06          	mov    (%rsi,%r8,1),%cl
  403214:	44 30 c9             	xor    %r9b,%cl
  403217:	42 88 0c 02          	mov    %cl,(%rdx,%r8,1)
  40321b:	4c 39 c0             	cmp    %r8,%rax
  40321e:	7f e8                	jg     403208 <fpc_varset_symdif_sets+0x18>
  403220:	c3                   	retq   
	...

0000000000403230 <fpc_varset_comp_sets>:
  403230:	b0 00                	mov    $0x0,%al
  403232:	48 8d 52 ff          	lea    -0x1(%rdx),%rdx
  403236:	49 b8 00 00 00 00 00 	movabs $0x0,%r8
  40323d:	00 00 00 
  403240:	4c 39 c2             	cmp    %r8,%rdx
  403243:	7c 1e                	jl     403263 <fpc_varset_comp_sets+0x33>
  403245:	49 83 e8 01          	sub    $0x1,%r8
  403249:	66 66 66 90          	data16 data16 xchg %ax,%ax
  40324d:	66 66 90             	data16 xchg %ax,%ax
  403250:	49 83 c0 01          	add    $0x1,%r8
  403254:	42 8a 0c 07          	mov    (%rdi,%r8,1),%cl
  403258:	42 3a 0c 06          	cmp    (%rsi,%r8,1),%cl
  40325c:	75 07                	jne    403265 <fpc_varset_comp_sets+0x35>
  40325e:	4c 39 c2             	cmp    %r8,%rdx
  403261:	7f ed                	jg     403250 <fpc_varset_comp_sets+0x20>
  403263:	b0 01                	mov    $0x1,%al
  403265:	25 ff 00 00 00       	and    $0xff,%eax
  40326a:	c3                   	retq   
  40326b:	00 00                	add    %al,(%rax)
  40326d:	00 00                	add    %al,(%rax)
	...

0000000000403270 <fpc_varset_contains_sets>:
  403270:	b0 00                	mov    $0x0,%al
  403272:	48 8d 52 ff          	lea    -0x1(%rdx),%rdx
  403276:	49 b9 00 00 00 00 00 	movabs $0x0,%r9
  40327d:	00 00 00 
  403280:	4c 39 ca             	cmp    %r9,%rdx
  403283:	7c 26                	jl     4032ab <fpc_varset_contains_sets+0x3b>
  403285:	49 83 e9 01          	sub    $0x1,%r9
  403289:	66 66 66 90          	data16 data16 xchg %ax,%ax
  40328d:	66 66 90             	data16 xchg %ax,%ax
  403290:	49 83 c1 01          	add    $0x1,%r9
  403294:	42 8a 0c 0e          	mov    (%rsi,%r9,1),%cl
  403298:	f6 d1                	not    %cl
  40329a:	46 8a 04 0f          	mov    (%rdi,%r9,1),%r8b
  40329e:	41 20 c8             	and    %cl,%r8b
  4032a1:	45 84 c0             	test   %r8b,%r8b
  4032a4:	75 07                	jne    4032ad <fpc_varset_contains_sets+0x3d>
  4032a6:	4c 39 ca             	cmp    %r9,%rdx
  4032a9:	7f e5                	jg     403290 <fpc_varset_contains_sets+0x20>
  4032ab:	b0 01                	mov    $0x1,%al
  4032ad:	25 ff 00 00 00       	and    $0xff,%eax
  4032b2:	c3                   	retq   
	...

00000000004032c0 <SYSTEM_$$_HI$BYTE$$BYTE>:
  4032c0:	40 88 f8             	mov    %dil,%al
  4032c3:	25 ff 00 00 00       	and    $0xff,%eax
  4032c8:	c1 e8 04             	shr    $0x4,%eax
  4032cb:	25 ff 00 00 00       	and    $0xff,%eax
  4032d0:	c3                   	retq   
	...

00000000004032e0 <SYSTEM_$$_LO$BYTE$$BYTE>:
  4032e0:	40 88 f8             	mov    %dil,%al
  4032e3:	66 25 0f 00          	and    $0xf,%ax
  4032e7:	25 ff 00 00 00       	and    $0xff,%eax
  4032ec:	c3                   	retq   
  4032ed:	00 00                	add    %al,(%rax)
	...

00000000004032f0 <SYSTEM_$$_SWAP$WORD$$WORD>:
  4032f0:	66 89 f8             	mov    %di,%ax
  4032f3:	25 ff ff 00 00       	and    $0xffff,%eax
  4032f8:	89 c2                	mov    %eax,%edx
  4032fa:	c1 ea 08             	shr    $0x8,%edx
  4032fd:	c1 e0 08             	shl    $0x8,%eax
  403300:	09 d0                	or     %edx,%eax
  403302:	25 ff ff 00 00       	and    $0xffff,%eax
  403307:	c3                   	retq   
	...

0000000000403310 <SYSTEM_$$_SWAP$SMALLINT$$SMALLINT>:
  403310:	66 89 f8             	mov    %di,%ax
  403313:	25 ff ff 00 00       	and    $0xffff,%eax
  403318:	89 c2                	mov    %eax,%edx
  40331a:	c1 ea 08             	shr    $0x8,%edx
  40331d:	c1 e0 08             	shl    $0x8,%eax
  403320:	09 d0                	or     %edx,%eax
  403322:	0f bf c0             	movswl %ax,%eax
  403325:	c3                   	retq   
	...

0000000000403330 <SYSTEM_$$_SWAP$LONGINT$$LONGINT>:
  403330:	89 f8                	mov    %edi,%eax
  403332:	c1 e0 10             	shl    $0x10,%eax
  403335:	c1 ef 10             	shr    $0x10,%edi
  403338:	67 8d 04 38          	lea    (%eax,%edi,1),%eax
  40333c:	c3                   	retq   
  40333d:	00 00                	add    %al,(%rax)
	...

0000000000403340 <SYSTEM_$$_SWAP$LONGWORD$$LONGWORD>:
  403340:	89 f8                	mov    %edi,%eax
  403342:	c1 e0 10             	shl    $0x10,%eax
  403345:	c1 ef 10             	shr    $0x10,%edi
  403348:	67 8d 04 38          	lea    (%eax,%edi,1),%eax
  40334c:	c3                   	retq   
  40334d:	00 00                	add    %al,(%rax)
	...

0000000000403350 <SYSTEM_$$_SWAP$QWORD$$QWORD>:
  403350:	48 89 f8             	mov    %rdi,%rax
  403353:	48 c1 e0 20          	shl    $0x20,%rax
  403357:	48 c1 ef 20          	shr    $0x20,%rdi
  40335b:	48 8d 04 38          	lea    (%rax,%rdi,1),%rax
  40335f:	c3                   	retq   

0000000000403360 <SYSTEM_$$_SWAP$INT64$$INT64>:
  403360:	48 89 f8             	mov    %rdi,%rax
  403363:	48 c1 e0 20          	shl    $0x20,%rax
  403367:	48 c1 ef 20          	shr    $0x20,%rdi
  40336b:	48 8d 04 38          	lea    (%rax,%rdi,1),%rax
  40336f:	c3                   	retq   

0000000000403370 <SYSTEM_$$_assign$REAL48$$DOUBLE>:
  403370:	48 8d 64 24 e8       	lea    -0x18(%rsp),%rsp
  403375:	48 89 3c 24          	mov    %rdi,(%rsp)
  403379:	48 8b 14 24          	mov    (%rsp),%rdx
  40337d:	8b 02                	mov    (%rdx),%eax
  40337f:	89 44 24 08          	mov    %eax,0x8(%rsp)
  403383:	66 8b 42 04          	mov    0x4(%rdx),%ax
  403387:	66 89 44 24 0c       	mov    %ax,0xc(%rsp)
  40338c:	48 8d 7c 24 08       	lea    0x8(%rsp),%rdi
  403391:	e8 3a 1a 00 00       	callq  404dd0 <SYSTEM_$$_REAL2DOUBLE$REAL48$$DOUBLE>
  403396:	48 8d 64 24 18       	lea    0x18(%rsp),%rsp
  40339b:	c3                   	retq   
  40339c:	00 00                	add    %al,(%rax)
	...

00000000004033a0 <SYSTEM_$$_assign$REAL48$$EXTENDED>:
  4033a0:	48 8d 64 24 d8       	lea    -0x28(%rsp),%rsp
  4033a5:	48 89 3c 24          	mov    %rdi,(%rsp)
  4033a9:	48 8b 14 24          	mov    (%rsp),%rdx
  4033ad:	8b 02                	mov    (%rdx),%eax
  4033af:	89 44 24 20          	mov    %eax,0x20(%rsp)
  4033b3:	66 8b 42 04          	mov    0x4(%rdx),%ax
  4033b7:	66 89 44 24 24       	mov    %ax,0x24(%rsp)
  4033bc:	48 8d 7c 24 20       	lea    0x20(%rsp),%rdi
  4033c1:	e8 0a 1a 00 00       	callq  404dd0 <SYSTEM_$$_REAL2DOUBLE$REAL48$$DOUBLE>
  4033c6:	f2 0f 11 04 24       	movsd  %xmm0,(%rsp)
  4033cb:	dd 04 24             	fldl   (%rsp)
  4033ce:	db 7c 24 10          	fstpt  0x10(%rsp)
  4033d2:	db 6c 24 10          	fldt   0x10(%rsp)
  4033d6:	48 8d 64 24 28       	lea    0x28(%rsp),%rsp
  4033db:	c3                   	retq   
  4033dc:	00 00                	add    %al,(%rax)
	...

00000000004033e0 <SYSTEM_$$_SET8087CW$WORD>:
  4033e0:	55                   	push   %rbp
  4033e1:	48 89 e5             	mov    %rsp,%rbp
  4033e4:	48 8d 64 24 f0       	lea    -0x10(%rsp),%rsp
  4033e9:	66 89 7d f8          	mov    %di,-0x8(%rbp)
  4033ed:	66 8b 55 f8          	mov    -0x8(%rbp),%dx
  4033f1:	48 8d 05 48 05 22 00 	lea    0x220548(%rip),%rax        # 623940 <TC_$SYSTEM_$$_DEFAULT8087CW>
  4033f8:	66 89 10             	mov    %dx,(%rax)
  4033fb:	db e2                	fnclex 
  4033fd:	d9 6d f8             	fldcw  -0x8(%rbp)
  403400:	c9                   	leaveq 
  403401:	c3                   	retq   
	...

0000000000403410 <SYSTEM_$$_GET8087CW$$WORD>:
  403410:	55                   	push   %rbp
  403411:	48 89 e5             	mov    %rsp,%rbp
  403414:	48 8d 64 24 f0       	lea    -0x10(%rsp),%rsp
  403419:	d9 7d f8             	fnstcw -0x8(%rbp)
  40341c:	66 8b 45 f8          	mov    -0x8(%rbp),%ax
  403420:	25 ff ff 00 00       	and    $0xffff,%eax
  403425:	c9                   	leaveq 
  403426:	c3                   	retq   
	...

0000000000403430 <SYSTEM_$$_SETMXCSR$LONGWORD>:
  403430:	55                   	push   %rbp
  403431:	48 89 e5             	mov    %rsp,%rbp
  403434:	48 8d 64 24 f0       	lea    -0x10(%rsp),%rsp
  403439:	89 7d f8             	mov    %edi,-0x8(%rbp)
  40343c:	8b 55 f8             	mov    -0x8(%rbp),%edx
  40343f:	48 8d 05 0a 05 22 00 	lea    0x22050a(%rip),%rax        # 623950 <TC_$SYSTEM_$$_DEFAULTMXCSR>
  403446:	89 10                	mov    %edx,(%rax)
  403448:	0f ae 55 f8          	ldmxcsr -0x8(%rbp)
  40344c:	c9                   	leaveq 
  40344d:	c3                   	retq   
	...

0000000000403450 <SYSTEM_$$_GETMXCSR$$LONGWORD>:
  403450:	55                   	push   %rbp
  403451:	48 89 e5             	mov    %rsp,%rbp
  403454:	48 8d 64 24 f0       	lea    -0x10(%rsp),%rsp
  403459:	0f ae 5d f8          	stmxcsr -0x8(%rbp)
  40345d:	8b 45 f8             	mov    -0x8(%rbp),%eax
  403460:	c9                   	leaveq 
  403461:	c3                   	retq   
	...

0000000000403470 <SYSTEM_$$_SETSSECSR$LONGWORD>:
  403470:	48 8d 64 24 f8       	lea    -0x8(%rsp),%rsp
  403475:	89 f8                	mov    %edi,%eax
  403477:	89 c7                	mov    %eax,%edi
  403479:	e8 b2 ff ff ff       	callq  403430 <SYSTEM_$$_SETMXCSR$LONGWORD>
  40347e:	48 8d 64 24 08       	lea    0x8(%rsp),%rsp
  403483:	c3                   	retq   
	...

0000000000403490 <SYSTEM_$$_GETSSECSR$$LONGWORD>:
  403490:	48 8d 64 24 f8       	lea    -0x8(%rsp),%rsp
  403495:	e8 b6 ff ff ff       	callq  403450 <SYSTEM_$$_GETMXCSR$$LONGWORD>
  40349a:	48 8d 64 24 08       	lea    0x8(%rsp),%rsp
  40349f:	c3                   	retq   

00000000004034a0 <fpc_abs_real>:
  4034a0:	55                   	push   %rbp
  4034a1:	48 89 e5             	mov    %rsp,%rbp
  4034a4:	48 8d 64 24 f0       	lea    -0x10(%rsp),%rsp
  4034a9:	b8 cf 00 00 00       	mov    $0xcf,%eax
  4034ae:	89 c7                	mov    %eax,%edi
  4034b0:	e8 9b 3a 01 00       	callq  416f50 <FPC_RUNERROR>
  4034b5:	d9 ee                	fldz   
  4034b7:	db 7d f0             	fstpt  -0x10(%rbp)
  4034ba:	db 6d f0             	fldt   -0x10(%rbp)
  4034bd:	c9                   	leaveq 
  4034be:	c3                   	retq   
	...

00000000004034c0 <fpc_sqr_real>:
  4034c0:	55                   	push   %rbp
  4034c1:	48 89 e5             	mov    %rsp,%rbp
  4034c4:	48 8d 64 24 f0       	lea    -0x10(%rsp),%rsp
  4034c9:	b8 cf 00 00 00       	mov    $0xcf,%eax
  4034ce:	89 c7                	mov    %eax,%edi
  4034d0:	e8 7b 3a 01 00       	callq  416f50 <FPC_RUNERROR>
  4034d5:	d9 ee                	fldz   
  4034d7:	db 7d f0             	fstpt  -0x10(%rbp)
  4034da:	db 6d f0             	fldt   -0x10(%rbp)
  4034dd:	c9                   	leaveq 
  4034de:	c3                   	retq   
	...

00000000004034e0 <fpc_sqrt_real>:
  4034e0:	55                   	push   %rbp
  4034e1:	48 89 e5             	mov    %rsp,%rbp
  4034e4:	48 8d 64 24 f0       	lea    -0x10(%rsp),%rsp
  4034e9:	b8 cf 00 00 00       	mov    $0xcf,%eax
  4034ee:	89 c7                	mov    %eax,%edi
  4034f0:	e8 5b 3a 01 00       	callq  416f50 <FPC_RUNERROR>
  4034f5:	d9 ee                	fldz   
  4034f7:	db 7d f0             	fstpt  -0x10(%rbp)
  4034fa:	db 6d f0             	fldt   -0x10(%rbp)
  4034fd:	c9                   	leaveq 
  4034fe:	c3                   	retq   
	...

0000000000403500 <fpc_arctan_real>:
  403500:	55                   	push   %rbp
  403501:	48 89 e5             	mov    %rsp,%rbp
  403504:	48 8d 64 24 f0       	lea    -0x10(%rsp),%rsp
  403509:	b8 cf 00 00 00       	mov    $0xcf,%eax
  40350e:	89 c7                	mov    %eax,%edi
  403510:	e8 3b 3a 01 00       	callq  416f50 <FPC_RUNERROR>
  403515:	d9 ee                	fldz   
  403517:	db 7d f0             	fstpt  -0x10(%rbp)
  40351a:	db 6d f0             	fldt   -0x10(%rbp)
  40351d:	c9                   	leaveq 
  40351e:	c3                   	retq   
	...

0000000000403520 <fpc_ln_real>:
  403520:	55                   	push   %rbp
  403521:	48 89 e5             	mov    %rsp,%rbp
  403524:	48 8d 64 24 f0       	lea    -0x10(%rsp),%rsp
  403529:	b8 cf 00 00 00       	mov    $0xcf,%eax
  40352e:	89 c7                	mov    %eax,%edi
  403530:	e8 1b 3a 01 00       	callq  416f50 <FPC_RUNERROR>
  403535:	d9 ee                	fldz   
  403537:	db 7d f0             	fstpt  -0x10(%rbp)
  40353a:	db 6d f0             	fldt   -0x10(%rbp)
  40353d:	c9                   	leaveq 
  40353e:	c3                   	retq   
	...

0000000000403540 <fpc_sin_real>:
  403540:	55                   	push   %rbp
  403541:	48 89 e5             	mov    %rsp,%rbp
  403544:	48 8d 64 24 f0       	lea    -0x10(%rsp),%rsp
  403549:	b8 cf 00 00 00       	mov    $0xcf,%eax
  40354e:	89 c7                	mov    %eax,%edi
  403550:	e8 fb 39 01 00       	callq  416f50 <FPC_RUNERROR>
  403555:	d9 ee                	fldz   
  403557:	db 7d f0             	fstpt  -0x10(%rbp)
  40355a:	db 6d f0             	fldt   -0x10(%rbp)
  40355d:	c9                   	leaveq 
  40355e:	c3                   	retq   
	...

0000000000403560 <fpc_cos_real>:
  403560:	55                   	push   %rbp
  403561:	48 89 e5             	mov    %rsp,%rbp
  403564:	48 8d 64 24 f0       	lea    -0x10(%rsp),%rsp
  403569:	b8 cf 00 00 00       	mov    $0xcf,%eax
  40356e:	89 c7                	mov    %eax,%edi
  403570:	e8 db 39 01 00       	callq  416f50 <FPC_RUNERROR>
  403575:	d9 ee                	fldz   
  403577:	db 7d f0             	fstpt  -0x10(%rbp)
  40357a:	db 6d f0             	fldt   -0x10(%rbp)
  40357d:	c9                   	leaveq 
  40357e:	c3                   	retq   
	...

0000000000403580 <fpc_exp_real>:
  403580:	55                   	push   %rbp
  403581:	48 89 e5             	mov    %rsp,%rbp
  403584:	48 8d 64 24 f0       	lea    -0x10(%rsp),%rsp
  403589:	db 6d 10             	fldt   0x10(%rbp)
  40358c:	d9 ea                	fldl2e 
  40358e:	d8 c9                	fmul   %st(1),%st
  403590:	d9 fc                	frndint 
  403592:	dd 05 18 06 22 00    	fldl   0x220618(%rip)        # 623bb0 <TC_$SYSTEM$_$fpc_exp_real$EXTENDED$$EXTENDED_$$_LN2HI>
  403598:	d8 c9                	fmul   %st(1),%st
  40359a:	de ea                	fsubrp %st,%st(2)
  40359c:	dd 05 1e 06 22 00    	fldl   0x22061e(%rip)        # 623bc0 <TC_$SYSTEM$_$fpc_exp_real$EXTENDED$$EXTENDED_$$_LN2LO>
  4035a2:	d8 c9                	fmul   %st(1),%st
  4035a4:	de ea                	fsubrp %st,%st(2)
  4035a6:	d9 c9                	fxch   %st(1)
  4035a8:	d9 ea                	fldl2e 
  4035aa:	de c9                	fmulp  %st,%st(1)
  4035ac:	d9 c0                	fld    %st(0)
  4035ae:	d9 e1                	fabs   
  4035b0:	d9 e8                	fld1   
  4035b2:	de d9                	fcompp 
  4035b4:	9b df e0             	fstsw  %ax
  4035b7:	9e                   	sahf   
  4035b8:	7a 12                	jp     4035cc <fpc_exp_real+0x4c>
  4035ba:	73 2a                	jae    4035e6 <fpc_exp_real+0x66>
  4035bc:	d9 c1                	fld    %st(1)
  4035be:	d9 e1                	fabs   
  4035c0:	d8 1d 0a 06 22 00    	fcomps 0x22060a(%rip)        # 623bd0 <TC_$SYSTEM$_$fpc_exp_real$EXTENDED$$EXTENDED_$$_LARGE>
  4035c6:	9b df e0             	fstsw  %ax
  4035c9:	9e                   	sahf   
  4035ca:	72 06                	jb     4035d2 <fpc_exp_real+0x52>
  4035cc:	dd d8                	fstp   %st(0)
  4035ce:	d9 ee                	fldz   
  4035d0:	eb 14                	jmp    4035e6 <fpc_exp_real+0x66>
  4035d2:	d8 0d 18 06 22 00    	fmuls  0x220618(%rip)        # 623bf0 <TC_$SYSTEM$_$fpc_exp_real$EXTENDED$$EXTENDED_$$_HALF>
  4035d8:	d9 f0                	f2xm1  
  4035da:	d9 c0                	fld    %st(0)
  4035dc:	d8 05 fe 05 22 00    	fadds  0x2205fe(%rip)        # 623be0 <TC_$SYSTEM$_$fpc_exp_real$EXTENDED$$EXTENDED_$$_TWO>
  4035e2:	de c9                	fmulp  %st,%st(1)
  4035e4:	eb 02                	jmp    4035e8 <fpc_exp_real+0x68>
  4035e6:	d9 f0                	f2xm1  
  4035e8:	d9 e8                	fld1   
  4035ea:	de c1                	faddp  %st,%st(1)
  4035ec:	d9 fd                	fscale 
  4035ee:	dd d9                	fstp   %st(1)
  4035f0:	c9                   	leaveq 
  4035f1:	c3                   	retq   
	...

0000000000403600 <fpc_frac_real>:
  403600:	55                   	push   %rbp
  403601:	48 89 e5             	mov    %rsp,%rbp
  403604:	48 8d 64 24 e0       	lea    -0x20(%rsp),%rsp
  403609:	d9 7d ec             	fnstcw -0x14(%rbp)
  40360c:	9b                   	fwait
  40360d:	66 8b 4d ec          	mov    -0x14(%rbp),%cx
  403611:	66 81 c9 3f 0c       	or     $0xc3f,%cx
  403616:	66 89 4d e8          	mov    %cx,-0x18(%rbp)
  40361a:	d9 6d e8             	fldcw  -0x18(%rbp)
  40361d:	9b db 6d 10          	fldt   0x10(%rbp)
  403621:	d9 fc                	frndint 
  403623:	db 6d 10             	fldt   0x10(%rbp)
  403626:	d8 e1                	fsub   %st(1),%st
  403628:	dd d9                	fstp   %st(1)
  40362a:	db e2                	fnclex 
  40362c:	d9 6d ec             	fldcw  -0x14(%rbp)
  40362f:	c9                   	leaveq 
  403630:	c3                   	retq   
	...

0000000000403640 <fpc_int_real>:
  403640:	55                   	push   %rbp
  403641:	48 89 e5             	mov    %rsp,%rbp
  403644:	48 8d 64 24 e0       	lea    -0x20(%rsp),%rsp
  403649:	d9 7d ec             	fnstcw -0x14(%rbp)
  40364c:	9b                   	fwait
  40364d:	66 8b 4d ec          	mov    -0x14(%rbp),%cx
  403651:	66 81 c9 3f 0c       	or     $0xc3f,%cx
  403656:	66 89 4d e8          	mov    %cx,-0x18(%rbp)
  40365a:	d9 6d e8             	fldcw  -0x18(%rbp)
  40365d:	9b db 6d 10          	fldt   0x10(%rbp)
  403661:	d9 fc                	frndint 
  403663:	9b d9 6d ec          	fldcw  -0x14(%rbp)
  403667:	c9                   	leaveq 
  403668:	c3                   	retq   
  403669:	00 00                	add    %al,(%rax)
  40366b:	00 00                	add    %al,(%rax)
  40366d:	00 00                	add    %al,(%rax)
	...

0000000000403670 <fpc_trunc_real>:
  403670:	55                   	push   %rbp
  403671:	48 89 e5             	mov    %rsp,%rbp
  403674:	48 8d 64 24 e0       	lea    -0x20(%rsp),%rsp
  403679:	d9 7d f4             	fnstcw -0xc(%rbp)
  40367c:	9b                   	fwait
  40367d:	66 8b 4d f4          	mov    -0xc(%rbp),%cx
  403681:	66 81 c9 3f 0c       	or     $0xc3f,%cx
  403686:	66 89 4d f0          	mov    %cx,-0x10(%rbp)
  40368a:	d9 6d f0             	fldcw  -0x10(%rbp)
  40368d:	db 6d 10             	fldt   0x10(%rbp)
  403690:	df 7d e8             	fistpll -0x18(%rbp)
  403693:	9b                   	fwait
  403694:	48 8b 45 e8          	mov    -0x18(%rbp),%rax
  403698:	d9 6d f4             	fldcw  -0xc(%rbp)
  40369b:	c9                   	leaveq 
  40369c:	c3                   	retq   
  40369d:	00 00                	add    %al,(%rax)
	...

00000000004036a0 <fpc_round_real>:
  4036a0:	55                   	push   %rbp
  4036a1:	48 89 e5             	mov    %rsp,%rbp
  4036a4:	48 8d 64 24 f0       	lea    -0x10(%rsp),%rsp
  4036a9:	db 6d 10             	fldt   0x10(%rbp)
  4036ac:	df 7d f0             	fistpll -0x10(%rbp)
  4036af:	9b                   	fwait
  4036b0:	48 8b 45 f0          	mov    -0x10(%rbp),%rax
  4036b4:	c9                   	leaveq 
  4036b5:	c3                   	retq   
	...

00000000004036c0 <SYSTEM_$$_FLOAT_RAISE$TFPUEXCEPTION>:
  4036c0:	48 8d 64 24 f8       	lea    -0x8(%rsp),%rsp
  4036c5:	89 f8                	mov    %edi,%eax
  4036c7:	bf 00 00 00 00       	mov    $0x0,%edi
  4036cc:	ba 01 00 00 00       	mov    $0x1,%edx
  4036d1:	89 c1                	mov    %eax,%ecx
  4036d3:	81 e1 ff ff ff ff    	and    $0xffffffff,%ecx
  4036d9:	d3 e2                	shl    %cl,%edx
  4036db:	09 d7                	or     %edx,%edi
  4036dd:	e8 0e 00 00 00       	callq  4036f0 <SYSTEM_$$_FLOAT_RAISE$TFPUEXCEPTIONMASK>
  4036e2:	48 8d 64 24 08       	lea    0x8(%rsp),%rsp
  4036e7:	c3                   	retq   
	...

00000000004036f0 <SYSTEM_$$_FLOAT_RAISE$TFPUEXCEPTIONMASK>:
  4036f0:	53                   	push   %rbx
  4036f1:	41 54                	push   %r12
  4036f3:	48 8d 64 24 f8       	lea    -0x8(%rsp),%rsp
  4036f8:	89 fb                	mov    %edi,%ebx
  4036fa:	48 8d 05 df 99 22 00 	lea    0x2299df(%rip),%rax        # 62d0e0 <FPC_THREADVAR_RELOCATE>
  403701:	48 8b 00             	mov    (%rax),%rax
  403704:	48 85 c0             	test   %rax,%rax
  403707:	74 10                	je     403719 <SYSTEM_$$_FLOAT_RAISE$TFPUEXCEPTIONMASK+0x29>
  403709:	48 8d 15 d0 89 22 00 	lea    0x2289d0(%rip),%rdx        # 62c0e0 <U_$SYSTEM_$$_SOFTFLOAT_EXCEPTION_FLAGS>
  403710:	8b 3a                	mov    (%rdx),%edi
  403712:	ff d0                	callq  *%rax
  403714:	49 89 c4             	mov    %rax,%r12
  403717:	eb 0b                	jmp    403724 <SYSTEM_$$_FLOAT_RAISE$TFPUEXCEPTIONMASK+0x34>
  403719:	4c 8d 25 c0 89 22 00 	lea    0x2289c0(%rip),%r12        # 62c0e0 <U_$SYSTEM_$$_SOFTFLOAT_EXCEPTION_FLAGS>
  403720:	49 83 c4 08          	add    $0x8,%r12
  403724:	41 8b 04 24          	mov    (%r12),%eax
  403728:	09 d8                	or     %ebx,%eax
  40372a:	41 89 04 24          	mov    %eax,(%r12)
  40372e:	48 8d 05 ab 99 22 00 	lea    0x2299ab(%rip),%rax        # 62d0e0 <FPC_THREADVAR_RELOCATE>
  403735:	48 8b 00             	mov    (%rax),%rax
  403738:	48 85 c0             	test   %rax,%rax
  40373b:	74 0d                	je     40374a <SYSTEM_$$_FLOAT_RAISE$TFPUEXCEPTIONMASK+0x5a>
  40373d:	48 8d 15 8c 89 22 00 	lea    0x22898c(%rip),%rdx        # 62c0d0 <U_$SYSTEM_$$_SOFTFLOAT_EXCEPTION_MASK>
  403744:	8b 3a                	mov    (%rdx),%edi
  403746:	ff d0                	callq  *%rax
  403748:	eb 0b                	jmp    403755 <SYSTEM_$$_FLOAT_RAISE$TFPUEXCEPTIONMASK+0x65>
  40374a:	48 8d 05 7f 89 22 00 	lea    0x22897f(%rip),%rax        # 62c0d0 <U_$SYSTEM_$$_SOFTFLOAT_EXCEPTION_MASK>
  403751:	48 83 c0 08          	add    $0x8,%rax
  403755:	8b 18                	mov    (%rax),%ebx
  403757:	f7 d3                	not    %ebx
  403759:	41 8b 04 24          	mov    (%r12),%eax
  40375d:	21 d8                	and    %ebx,%eax
  40375f:	89 c3                	mov    %eax,%ebx
  403761:	f7 c3 01 00 00 00    	test   $0x1,%ebx
  403767:	74 0c                	je     403775 <SYSTEM_$$_FLOAT_RAISE$TFPUEXCEPTIONMASK+0x85>
  403769:	bf cf 00 00 00       	mov    $0xcf,%edi
  40376e:	e8 ad 37 01 00       	callq  416f20 <FPC_HANDLEERROR>
  403773:	eb 4e                	jmp    4037c3 <SYSTEM_$$_FLOAT_RAISE$TFPUEXCEPTIONMASK+0xd3>
  403775:	f7 c3 04 00 00 00    	test   $0x4,%ebx
  40377b:	74 0c                	je     403789 <SYSTEM_$$_FLOAT_RAISE$TFPUEXCEPTIONMASK+0x99>
  40377d:	bf c8 00 00 00       	mov    $0xc8,%edi
  403782:	e8 99 37 01 00       	callq  416f20 <FPC_HANDLEERROR>
  403787:	eb 3a                	jmp    4037c3 <SYSTEM_$$_FLOAT_RAISE$TFPUEXCEPTIONMASK+0xd3>
  403789:	f7 c3 08 00 00 00    	test   $0x8,%ebx
  40378f:	74 0c                	je     40379d <SYSTEM_$$_FLOAT_RAISE$TFPUEXCEPTIONMASK+0xad>
  403791:	bf cd 00 00 00       	mov    $0xcd,%edi
  403796:	e8 85 37 01 00       	callq  416f20 <FPC_HANDLEERROR>
  40379b:	eb 26                	jmp    4037c3 <SYSTEM_$$_FLOAT_RAISE$TFPUEXCEPTIONMASK+0xd3>
  40379d:	f7 c3 10 00 00 00    	test   $0x10,%ebx
  4037a3:	74 0c                	je     4037b1 <SYSTEM_$$_FLOAT_RAISE$TFPUEXCEPTIONMASK+0xc1>
  4037a5:	bf ce 00 00 00       	mov    $0xce,%edi
  4037aa:	e8 71 37 01 00       	callq  416f20 <FPC_HANDLEERROR>
  4037af:	eb 12                	jmp    4037c3 <SYSTEM_$$_FLOAT_RAISE$TFPUEXCEPTIONMASK+0xd3>
  4037b1:	f7 c3 20 00 00 00    	test   $0x20,%ebx
  4037b7:	74 0a                	je     4037c3 <SYSTEM_$$_FLOAT_RAISE$TFPUEXCEPTIONMASK+0xd3>
  4037b9:	bf cf 00 00 00       	mov    $0xcf,%edi
  4037be:	e8 5d 37 01 00       	callq  416f20 <FPC_HANDLEERROR>
  4037c3:	48 8d 64 24 08       	lea    0x8(%rsp),%rsp
  4037c8:	41 5c                	pop    %r12
  4037ca:	5b                   	pop    %rbx
  4037cb:	c3                   	retq   
  4037cc:	00 00                	add    %al,(%rax)
	...

00000000004037d0 <SYSTEM_$$_FPE_HELPER$EXTENDED$$BOOLEAN>:
  4037d0:	55                   	push   %rbp
  4037d1:	48 89 e5             	mov    %rsp,%rbp
  4037d4:	b0 01                	mov    $0x1,%al
  4037d6:	25 ff 00 00 00       	and    $0xff,%eax
  4037db:	c9                   	leaveq 
  4037dc:	c3                   	retq   
  4037dd:	00 00                	add    %al,(%rax)
	...

00000000004037e0 <SYSTEM_$$_FLOAT64HIGH$DOUBLE$$LONGINT>:
  4037e0:	48 8d 64 24 f8       	lea    -0x8(%rsp),%rsp
  4037e5:	f2 0f 11 04 24       	movsd  %xmm0,(%rsp)
  4037ea:	8b 44 24 04          	mov    0x4(%rsp),%eax
  4037ee:	48 8d 64 24 08       	lea    0x8(%rsp),%rsp
  4037f3:	c3                   	retq   
	...

0000000000403800 <SYSTEM_$$_FLOAT64SETHIGH$DOUBLE$LONGINT>:
  403800:	48 89 f8             	mov    %rdi,%rax
  403803:	89 70 04             	mov    %esi,0x4(%rax)
  403806:	c3                   	retq   
	...

0000000000403810 <SYSTEM_$$_FLOAT64LOW$DOUBLE$$LONGINT>:
  403810:	48 8d 64 24 f8       	lea    -0x8(%rsp),%rsp
  403815:	f2 0f 11 04 24       	movsd  %xmm0,(%rsp)
  40381a:	8b 04 24             	mov    (%rsp),%eax
  40381d:	48 8d 64 24 08       	lea    0x8(%rsp),%rsp
  403822:	c3                   	retq   
	...

0000000000403830 <SYSTEM_$$_FLOAT64SETLOW$DOUBLE$LONGINT>:
  403830:	48 89 f8             	mov    %rdi,%rax
  403833:	89 30                	mov    %esi,(%rax)
  403835:	c3                   	retq   
	...

0000000000403840 <SYSTEM_$$_FREXP$REAL$SMALLINT$$REAL>:
  403840:	48 89 f8             	mov    %rdi,%rax
  403843:	66 c7 00 00 00       	movw   $0x0,(%rax)
  403848:	66 0f 29 c1          	movapd %xmm0,%xmm1
  40384c:	48 8d 15 4d 03 22 00 	lea    0x22034d(%rip),%rdx        # 623ba0 <FPC_ABSMASK_DOUBLE>
  403853:	66 0f 54 0a          	andpd  (%rdx),%xmm1
  403857:	48 8d 15 d2 f4 01 00 	lea    0x1f4d2(%rip),%rdx        # 422d30 <_$SYSTEM$_Ld3>
  40385e:	66 0f 2f 0a          	comisd (%rdx),%xmm1
  403862:	7a 54                	jp     4038b8 <SYSTEM_$$_FREXP$REAL$SMALLINT$$REAL+0x78>
  403864:	73 52                	jae    4038b8 <SYSTEM_$$_FREXP$REAL$SMALLINT$$REAL+0x78>
  403866:	eb 18                	jmp    403880 <SYSTEM_$$_FREXP$REAL$SMALLINT$$REAL+0x40>
  403868:	66 0f 29 c1          	movapd %xmm0,%xmm1
  40386c:	48 8d 15 cd f4 01 00 	lea    0x1f4cd(%rip),%rdx        # 422d40 <_$SYSTEM$_Ld4>
  403873:	f2 0f 59 0a          	mulsd  (%rdx),%xmm1
  403877:	66 0f 29 c8          	movapd %xmm1,%xmm0
  40387b:	66 81 28 01 00       	subw   $0x1,(%rax)
  403880:	66 0f 29 c1          	movapd %xmm0,%xmm1
  403884:	48 8d 15 15 03 22 00 	lea    0x220315(%rip),%rdx        # 623ba0 <FPC_ABSMASK_DOUBLE>
  40388b:	66 0f 54 0a          	andpd  (%rdx),%xmm1
  40388f:	48 8d 15 9a f4 01 00 	lea    0x1f49a(%rip),%rdx        # 422d30 <_$SYSTEM$_Ld3>
  403896:	66 0f 2f 0a          	comisd (%rdx),%xmm1
  40389a:	7a 3a                	jp     4038d6 <SYSTEM_$$_FREXP$REAL$SMALLINT$$REAL+0x96>
  40389c:	72 ca                	jb     403868 <SYSTEM_$$_FREXP$REAL$SMALLINT$$REAL+0x28>
  40389e:	eb 36                	jmp    4038d6 <SYSTEM_$$_FREXP$REAL$SMALLINT$$REAL+0x96>
  4038a0:	66 0f 29 c1          	movapd %xmm0,%xmm1
  4038a4:	48 8d 15 85 f4 01 00 	lea    0x1f485(%rip),%rdx        # 422d30 <_$SYSTEM$_Ld3>
  4038ab:	f2 0f 59 0a          	mulsd  (%rdx),%xmm1
  4038af:	66 0f 29 c8          	movapd %xmm1,%xmm0
  4038b3:	66 81 00 01 00       	addw   $0x1,(%rax)
  4038b8:	66 0f 29 c1          	movapd %xmm0,%xmm1
  4038bc:	48 8d 15 dd 02 22 00 	lea    0x2202dd(%rip),%rdx        # 623ba0 <FPC_ABSMASK_DOUBLE>
  4038c3:	66 0f 54 0a          	andpd  (%rdx),%xmm1
  4038c7:	48 8d 15 82 f4 01 00 	lea    0x1f482(%rip),%rdx        # 422d50 <_$SYSTEM$_Ld5>
  4038ce:	66 0f 2f 0a          	comisd (%rdx),%xmm1
  4038d2:	7a 02                	jp     4038d6 <SYSTEM_$$_FREXP$REAL$SMALLINT$$REAL+0x96>
  4038d4:	77 ca                	ja     4038a0 <SYSTEM_$$_FREXP$REAL$SMALLINT$$REAL+0x60>
  4038d6:	c3                   	retq   
	...

00000000004038e0 <SYSTEM_$$_LDEXP$REAL$SMALLINT$$REAL>:
  4038e0:	48 8d 64 24 e8       	lea    -0x18(%rsp),%rsp
  4038e5:	f2 0f 11 04 24       	movsd  %xmm0,(%rsp)
  4038ea:	48 8b 04 24          	mov    (%rsp),%rax
  4038ee:	48 89 44 24 08       	mov    %rax,0x8(%rsp)
  4038f3:	8b 44 24 0c          	mov    0xc(%rsp),%eax
  4038f7:	25 00 00 f0 7f       	and    $0x7ff00000,%eax
  4038fc:	c1 e8 14             	shr    $0x14,%eax
  4038ff:	66 89 c2             	mov    %ax,%dx
  403902:	66 81 fa ff 07       	cmp    $0x7ff,%dx
  403907:	74 19                	je     403922 <SYSTEM_$$_LDEXP$REAL$SMALLINT$$REAL+0x42>
  403909:	66 85 ff             	test   %di,%di
  40390c:	74 14                	je     403922 <SYSTEM_$$_LDEXP$REAL$SMALLINT$$REAL+0x42>
  40390e:	48 8d 05 4b f4 01 00 	lea    0x1f44b(%rip),%rax        # 422d60 <_$SYSTEM$_Ld6>
  403915:	f2 0f 10 00          	movsd  (%rax),%xmm0
  403919:	66 0f 2f 04 24       	comisd (%rsp),%xmm0
  40391e:	7a 0c                	jp     40392c <SYSTEM_$$_LDEXP$REAL$SMALLINT$$REAL+0x4c>
  403920:	75 0a                	jne    40392c <SYSTEM_$$_LDEXP$REAL$SMALLINT$$REAL+0x4c>
  403922:	f2 0f 10 0c 24       	movsd  (%rsp),%xmm1
  403927:	e9 eb 00 00 00       	jmpq   403a17 <SYSTEM_$$_LDEXP$REAL$SMALLINT$$REAL+0x137>
  40392c:	66 85 d2             	test   %dx,%dx
  40392f:	75 1e                	jne    40394f <SYSTEM_$$_LDEXP$REAL$SMALLINT$$REAL+0x6f>
  403931:	f2 0f 10 04 24       	movsd  (%rsp),%xmm0
  403936:	f2 0f 59 05 c2 02 22 	mulsd  0x2202c2(%rip),%xmm0        # 623c00 <TC_$SYSTEM_$$_H2_54>
  40393d:	00 
  40393e:	0f bf c7             	movswl %di,%eax
  403941:	67 8d 40 ca          	lea    -0x36(%eax),%eax
  403945:	f2 0f 11 04 24       	movsd  %xmm0,(%rsp)
  40394a:	66 89 c7             	mov    %ax,%di
  40394d:	eb 9b                	jmp    4038ea <SYSTEM_$$_LDEXP$REAL$SMALLINT$$REAL+0xa>
  40394f:	0f bf c7             	movswl %di,%eax
  403952:	0f bf ca             	movswl %dx,%ecx
  403955:	67 8d 04 08          	lea    (%eax,%ecx,1),%eax
  403959:	66 89 c7             	mov    %ax,%di
  40395c:	66 81 ff fe 07       	cmp    $0x7fe,%di
  403961:	7e 49                	jle    4039ac <SYSTEM_$$_LDEXP$REAL$SMALLINT$$REAL+0xcc>
  403963:	48 8d 05 f6 f3 01 00 	lea    0x1f3f6(%rip),%rax        # 422d60 <_$SYSTEM$_Ld6>
  40396a:	f2 0f 10 00          	movsd  (%rax),%xmm0
  40396e:	66 0f 2f 04 24       	comisd (%rsp),%xmm0
  403973:	7a 1e                	jp     403993 <SYSTEM_$$_LDEXP$REAL$SMALLINT$$REAL+0xb3>
  403975:	73 1c                	jae    403993 <SYSTEM_$$_LDEXP$REAL$SMALLINT$$REAL+0xb3>
  403977:	48 8d 05 c2 f3 01 00 	lea    0x1f3c2(%rip),%rax        # 422d40 <_$SYSTEM$_Ld4>
  40397e:	f2 0f 10 00          	movsd  (%rax),%xmm0
  403982:	f2 0f 59 05 86 02 22 	mulsd  0x220286(%rip),%xmm0        # 623c10 <TC_$SYSTEM_$$_HUGE>
  403989:	00 
  40398a:	66 0f 29 c1          	movapd %xmm0,%xmm1
  40398e:	e9 84 00 00 00       	jmpq   403a17 <SYSTEM_$$_LDEXP$REAL$SMALLINT$$REAL+0x137>
  403993:	48 8d 05 d6 f3 01 00 	lea    0x1f3d6(%rip),%rax        # 422d70 <_$SYSTEM$_Ld7>
  40399a:	f2 0f 10 00          	movsd  (%rax),%xmm0
  40399e:	f2 0f 59 05 6a 02 22 	mulsd  0x22026a(%rip),%xmm0        # 623c10 <TC_$SYSTEM_$$_HUGE>
  4039a5:	00 
  4039a6:	66 0f 29 c1          	movapd %xmm0,%xmm1
  4039aa:	eb 6b                	jmp    403a17 <SYSTEM_$$_LDEXP$REAL$SMALLINT$$REAL+0x137>
  4039ac:	66 81 ff 01 00       	cmp    $0x1,%di
  4039b1:	7d 4a                	jge    4039fd <SYSTEM_$$_LDEXP$REAL$SMALLINT$$REAL+0x11d>
  4039b3:	66 81 ff cb ff       	cmp    $0xffcb,%di
  4039b8:	7d 0d                	jge    4039c7 <SYSTEM_$$_LDEXP$REAL$SMALLINT$$REAL+0xe7>
  4039ba:	48 8d 05 9f f3 01 00 	lea    0x1f39f(%rip),%rax        # 422d60 <_$SYSTEM$_Ld6>
  4039c1:	f2 0f 10 08          	movsd  (%rax),%xmm1
  4039c5:	eb 50                	jmp    403a17 <SYSTEM_$$_LDEXP$REAL$SMALLINT$$REAL+0x137>
  4039c7:	66 81 c7 36 00       	add    $0x36,%di
  4039cc:	48 8b 04 24          	mov    (%rsp),%rax
  4039d0:	48 89 44 24 08       	mov    %rax,0x8(%rsp)
  4039d5:	8b 44 24 0c          	mov    0xc(%rsp),%eax
  4039d9:	25 ff ff 0f 80       	and    $0x800fffff,%eax
  4039de:	0f bf cf             	movswl %di,%ecx
  4039e1:	c1 e1 14             	shl    $0x14,%ecx
  4039e4:	09 c1                	or     %eax,%ecx
  4039e6:	89 4c 24 04          	mov    %ecx,0x4(%rsp)
  4039ea:	f2 0f 10 04 24       	movsd  (%rsp),%xmm0
  4039ef:	f2 0f 5e 05 09 02 22 	divsd  0x220209(%rip),%xmm0        # 623c00 <TC_$SYSTEM_$$_H2_54>
  4039f6:	00 
  4039f7:	66 0f 29 c1          	movapd %xmm0,%xmm1
  4039fb:	eb 1a                	jmp    403a17 <SYSTEM_$$_LDEXP$REAL$SMALLINT$$REAL+0x137>
  4039fd:	8b 44 24 04          	mov    0x4(%rsp),%eax
  403a01:	25 ff ff 0f 80       	and    $0x800fffff,%eax
  403a06:	0f bf cf             	movswl %di,%ecx
  403a09:	c1 e1 14             	shl    $0x14,%ecx
  403a0c:	09 c1                	or     %eax,%ecx
  403a0e:	89 4c 24 04          	mov    %ecx,0x4(%rsp)
  403a12:	f2 0f 10 0c 24       	movsd  (%rsp),%xmm1
  403a17:	66 0f 29 c8          	movapd %xmm1,%xmm0
  403a1b:	48 8d 64 24 18       	lea    0x18(%rsp),%rsp
  403a20:	c3                   	retq   
	...

0000000000403a30 <SYSTEM_$$_POLEVL$REAL$PREAL$INT64$$REAL>:
  403a30:	66 0f 29 c1          	movapd %xmm0,%xmm1
  403a34:	f2 0f 10 07          	movsd  (%rdi),%xmm0
  403a38:	48 b8 01 00 00 00 00 	movabs $0x1,%rax
  403a3f:	00 00 00 
  403a42:	48 39 c6             	cmp    %rax,%rsi
  403a45:	7c 23                	jl     403a6a <SYSTEM_$$_POLEVL$REAL$PREAL$INT64$$REAL+0x3a>
  403a47:	48 83 e8 01          	sub    $0x1,%rax
  403a4b:	66 66 66 90          	data16 data16 xchg %ax,%ax
  403a4f:	90                   	nop
  403a50:	48 83 c0 01          	add    $0x1,%rax
  403a54:	66 0f 29 c2          	movapd %xmm0,%xmm2
  403a58:	f2 0f 59 d1          	mulsd  %xmm1,%xmm2
  403a5c:	f2 0f 58 14 c7       	addsd  (%rdi,%rax,8),%xmm2
  403a61:	66 0f 29 d0          	movapd %xmm2,%xmm0
  403a65:	48 39 c6             	cmp    %rax,%rsi
  403a68:	7f e6                	jg     403a50 <SYSTEM_$$_POLEVL$REAL$PREAL$INT64$$REAL+0x20>
  403a6a:	c3                   	retq   
  403a6b:	00 00                	add    %al,(%rax)
  403a6d:	00 00                	add    %al,(%rax)
	...

0000000000403a70 <SYSTEM_$$_P1EVL$REAL$PREAL$INT64$$REAL>:
  403a70:	66 0f 29 c1          	movapd %xmm0,%xmm1
  403a74:	66 0f 29 c8          	movapd %xmm1,%xmm0
  403a78:	f2 0f 58 07          	addsd  (%rdi),%xmm0
  403a7c:	48 8d 46 ff          	lea    -0x1(%rsi),%rax
  403a80:	48 ba 01 00 00 00 00 	movabs $0x1,%rdx
  403a87:	00 00 00 
  403a8a:	48 39 d0             	cmp    %rdx,%rax
  403a8d:	7c 23                	jl     403ab2 <SYSTEM_$$_P1EVL$REAL$PREAL$INT64$$REAL+0x42>
  403a8f:	48 83 ea 01          	sub    $0x1,%rdx
  403a93:	66 66 66 90          	data16 data16 xchg %ax,%ax
  403a97:	90                   	nop
  403a98:	48 83 c2 01          	add    $0x1,%rdx
  403a9c:	66 0f 29 c2          	movapd %xmm0,%xmm2
  403aa0:	f2 0f 59 d1          	mulsd  %xmm1,%xmm2
  403aa4:	f2 0f 58 14 d7       	addsd  (%rdi,%rdx,8),%xmm2
  403aa9:	66 0f 29 d0          	movapd %xmm2,%xmm0
  403aad:	48 39 d0             	cmp    %rdx,%rax
  403ab0:	7f e6                	jg     403a98 <SYSTEM_$$_P1EVL$REAL$PREAL$INT64$$REAL+0x28>
  403ab2:	c3                   	retq   
	...

0000000000403ac0 <SYSTEM_$$_FLOORD$DOUBLE$$DOUBLE>:
  403ac0:	48 8d 64 24 d8       	lea    -0x28(%rsp),%rsp
  403ac5:	f2 0f 11 44 24 18    	movsd  %xmm0,0x18(%rsp)
  403acb:	f2 0f 10 44 24 18    	movsd  0x18(%rsp),%xmm0
  403ad1:	f2 0f 11 44 24 10    	movsd  %xmm0,0x10(%rsp)
  403ad7:	dd 44 24 10          	fldl   0x10(%rsp)
  403adb:	db 3c 24             	fstpt  (%rsp)
  403ade:	e8 5d fb ff ff       	callq  403640 <fpc_int_real>
  403ae3:	dd 5c 24 10          	fstpl  0x10(%rsp)
  403ae7:	f2 0f 10 4c 24 10    	movsd  0x10(%rsp),%xmm1
  403aed:	48 8d 05 6c f2 01 00 	lea    0x1f26c(%rip),%rax        # 422d60 <_$SYSTEM$_Ld6>
  403af4:	f2 0f 10 44 24 18    	movsd  0x18(%rsp),%xmm0
  403afa:	66 0f 2f 00          	comisd (%rax),%xmm0
  403afe:	7a 02                	jp     403b02 <SYSTEM_$$_FLOORD$DOUBLE$$DOUBLE+0x42>
  403b00:	73 0a                	jae    403b0c <SYSTEM_$$_FLOORD$DOUBLE$$DOUBLE+0x4c>
  403b02:	66 0f 2f 4c 24 18    	comisd 0x18(%rsp),%xmm1
  403b08:	7a 08                	jp     403b12 <SYSTEM_$$_FLOORD$DOUBLE$$DOUBLE+0x52>
  403b0a:	75 06                	jne    403b12 <SYSTEM_$$_FLOORD$DOUBLE$$DOUBLE+0x52>
  403b0c:	66 0f 29 c8          	movapd %xmm1,%xmm0
  403b10:	eb 0f                	jmp    403b21 <SYSTEM_$$_FLOORD$DOUBLE$$DOUBLE+0x61>
  403b12:	48 8d 05 37 f2 01 00 	lea    0x1f237(%rip),%rax        # 422d50 <_$SYSTEM$_Ld5>
  403b19:	f2 0f 5c 08          	subsd  (%rax),%xmm1
  403b1d:	66 0f 29 c8          	movapd %xmm1,%xmm0
  403b21:	48 8d 64 24 28       	lea    0x28(%rsp),%rsp
  403b26:	c3                   	retq   
	...

0000000000403b30 <SYSTEM_$$_K_REM_PIO2$TDA02$TDA02$SMALLINT$SMALLINT$SMALLINT$$INT64>:
  403b30:	53                   	push   %rbx
  403b31:	41 54                	push   %r12
  403b33:	41 55                	push   %r13
  403b35:	41 56                	push   %r14
  403b37:	41 57                	push   %r15
  403b39:	48 8d a4 24 50 fd ff 	lea    -0x2b0(%rsp),%rsp
  403b40:	ff 
  403b41:	48 89 bc 24 68 02 00 	mov    %rdi,0x268(%rsp)
  403b48:	00 
  403b49:	48 89 b4 24 a0 02 00 	mov    %rsi,0x2a0(%rsp)
  403b50:	00 
  403b51:	66 89 d6             	mov    %dx,%si
  403b54:	66 44 89 84 24 98 02 	mov    %r8w,0x298(%rsp)
  403b5b:	00 00 
  403b5d:	66 8b 84 24 98 02 00 	mov    0x298(%rsp),%ax
  403b64:	00 
  403b65:	25 ff ff 00 00       	and    $0xffff,%eax
  403b6a:	48 8d 15 1f 02 22 00 	lea    0x22021f(%rip),%rdx        # 623d90 <TC_$SYSTEM_$$_INIT_JK>
  403b71:	0f bf 3c 42          	movswl (%rdx,%rax,2),%edi
  403b75:	89 f8                	mov    %edi,%eax
  403b77:	48 89 84 24 90 02 00 	mov    %rax,0x290(%rsp)
  403b7e:	00 
  403b7f:	0f bf c9             	movswl %cx,%ecx
  403b82:	67 8d 51 ff          	lea    -0x1(%ecx),%edx
  403b86:	89 d0                	mov    %edx,%eax
  403b88:	48 89 84 24 58 02 00 	mov    %rax,0x258(%rsp)
  403b8f:	00 
  403b90:	48 0f bf c6          	movswq %si,%rax
  403b94:	48 8d 48 fd          	lea    -0x3(%rax),%rcx
  403b98:	48 b8 ab aa aa aa aa 	movabs $0x2aaaaaaaaaaaaaab,%rax
  403b9f:	aa aa 2a 
  403ba2:	48 f7 e9             	imul   %rcx
  403ba5:	48 c1 fa 02          	sar    $0x2,%rdx
  403ba9:	48 c1 e9 3f          	shr    $0x3f,%rcx
  403bad:	48 01 ca             	add    %rcx,%rdx
  403bb0:	89 d0                	mov    %edx,%eax
  403bb2:	48 89 84 24 50 02 00 	mov    %rax,0x250(%rsp)
  403bb9:	00 
  403bba:	8b 84 24 50 02 00 00 	mov    0x250(%rsp),%eax
  403bc1:	83 f8 00             	cmp    $0x0,%eax
  403bc4:	7d 0d                	jge    403bd3 <SYSTEM_$$_K_REM_PIO2$TDA02$TDA02$SMALLINT$SMALLINT$SMALLINT$$INT64+0xa3>
  403bc6:	b8 00 00 00 00       	mov    $0x0,%eax
  403bcb:	48 89 84 24 50 02 00 	mov    %rax,0x250(%rsp)
  403bd2:	00 
  403bd3:	8b 84 24 50 02 00 00 	mov    0x250(%rsp),%eax
  403bda:	67 8d 50 01          	lea    0x1(%eax),%edx
  403bde:	6b c2 18             	imul   $0x18,%edx,%eax
  403be1:	0f bf f6             	movswl %si,%esi
  403be4:	29 c6                	sub    %eax,%esi
  403be6:	89 f0                	mov    %esi,%eax
  403be8:	48 89 84 24 70 02 00 	mov    %rax,0x270(%rsp)
  403bef:	00 
  403bf0:	8b 84 24 50 02 00 00 	mov    0x250(%rsp),%eax
  403bf7:	89 c2                	mov    %eax,%edx
  403bf9:	8b 84 24 58 02 00 00 	mov    0x258(%rsp),%eax
  403c00:	29 c2                	sub    %eax,%edx
  403c02:	41 89 d7             	mov    %edx,%r15d
  403c05:	8b 84 24 58 02 00 00 	mov    0x258(%rsp),%eax
  403c0c:	67 8d 34 38          	lea    (%eax,%edi,1),%esi
  403c10:	ba 00 00 00 00       	mov    $0x0,%edx
  403c15:	39 d6                	cmp    %edx,%esi
  403c17:	7c 51                	jl     403c6a <SYSTEM_$$_K_REM_PIO2$TDA02$TDA02$SMALLINT$SMALLINT$SMALLINT$$INT64+0x13a>
  403c19:	83 ea 01             	sub    $0x1,%edx
  403c1c:	66 66 66 90          	data16 data16 xchg %ax,%ax
  403c20:	83 c2 01             	add    $0x1,%edx
  403c23:	41 83 ff 00          	cmp    $0x0,%r15d
  403c27:	7d 18                	jge    403c41 <SYSTEM_$$_K_REM_PIO2$TDA02$TDA02$SMALLINT$SMALLINT$SMALLINT$$INT64+0x111>
  403c29:	89 d0                	mov    %edx,%eax
  403c2b:	25 ff ff ff ff       	and    $0xffffffff,%eax
  403c30:	48 8d 0d 29 f1 01 00 	lea    0x1f129(%rip),%rcx        # 422d60 <_$SYSTEM$_Ld6>
  403c37:	48 8b 09             	mov    (%rcx),%rcx
  403c3a:	48 89 4c c4 50       	mov    %rcx,0x50(%rsp,%rax,8)
  403c3f:	eb 21                	jmp    403c62 <SYSTEM_$$_K_REM_PIO2$TDA02$TDA02$SMALLINT$SMALLINT$SMALLINT$$INT64+0x132>
  403c41:	44 89 f8             	mov    %r15d,%eax
  403c44:	25 ff ff ff ff       	and    $0xffffffff,%eax
  403c49:	48 8d 0d 30 00 22 00 	lea    0x220030(%rip),%rcx        # 623c80 <TC_$SYSTEM_$$_IPIO2>
  403c50:	f2 0f 2a 04 81       	cvtsi2sdl (%rcx,%rax,4),%xmm0
  403c55:	89 d0                	mov    %edx,%eax
  403c57:	25 ff ff ff ff       	and    $0xffffffff,%eax
  403c5c:	f2 0f 11 44 c4 50    	movsd  %xmm0,0x50(%rsp,%rax,8)
  403c62:	41 83 c7 01          	add    $0x1,%r15d
  403c66:	39 d6                	cmp    %edx,%esi
  403c68:	7f b6                	jg     403c20 <SYSTEM_$$_K_REM_PIO2$TDA02$TDA02$SMALLINT$SMALLINT$SMALLINT$$INT64+0xf0>
  403c6a:	89 f9                	mov    %edi,%ecx
  403c6c:	89 ce                	mov    %ecx,%esi
  403c6e:	41 be 00 00 00 00    	mov    $0x0,%r14d
  403c74:	44 39 f6             	cmp    %r14d,%esi
  403c77:	0f 8c ad 00 00 00    	jl     403d2a <SYSTEM_$$_K_REM_PIO2$TDA02$TDA02$SMALLINT$SMALLINT$SMALLINT$$INT64+0x1fa>
  403c7d:	41 83 ee 01          	sub    $0x1,%r14d
  403c81:	66 66 66 90          	data16 data16 xchg %ax,%ax
  403c85:	66 66 90             	data16 xchg %ax,%ax
  403c88:	41 83 c6 01          	add    $0x1,%r14d
  403c8c:	48 8d 05 cd f0 01 00 	lea    0x1f0cd(%rip),%rax        # 422d60 <_$SYSTEM$_Ld6>
  403c93:	f2 0f 10 00          	movsd  (%rax),%xmm0
  403c97:	f2 0f 11 84 24 48 02 	movsd  %xmm0,0x248(%rsp)
  403c9e:	00 00 
  403ca0:	8b 84 24 58 02 00 00 	mov    0x258(%rsp),%eax
  403ca7:	89 c7                	mov    %eax,%edi
  403ca9:	41 bf 00 00 00 00    	mov    $0x0,%r15d
  403caf:	44 39 ff             	cmp    %r15d,%edi
  403cb2:	7c 53                	jl     403d07 <SYSTEM_$$_K_REM_PIO2$TDA02$TDA02$SMALLINT$SMALLINT$SMALLINT$$INT64+0x1d7>
  403cb4:	41 83 ef 01          	sub    $0x1,%r15d
  403cb8:	41 83 c7 01          	add    $0x1,%r15d
  403cbc:	48 63 84 24 58 02 00 	movslq 0x258(%rsp),%rax
  403cc3:	00 
  403cc4:	49 63 d6             	movslq %r14d,%rdx
  403cc7:	48 8d 04 10          	lea    (%rax,%rdx,1),%rax
  403ccb:	49 63 d7             	movslq %r15d,%rdx
  403cce:	49 89 c0             	mov    %rax,%r8
  403cd1:	49 29 d0             	sub    %rdx,%r8
  403cd4:	44 89 f8             	mov    %r15d,%eax
  403cd7:	25 ff ff ff ff       	and    $0xffffffff,%eax
  403cdc:	48 8b 94 24 68 02 00 	mov    0x268(%rsp),%rdx
  403ce3:	00 
  403ce4:	f2 0f 10 04 c2       	movsd  (%rdx,%rax,8),%xmm0
  403ce9:	f2 42 0f 59 44 c4 50 	mulsd  0x50(%rsp,%r8,8),%xmm0
  403cf0:	f2 0f 58 84 24 48 02 	addsd  0x248(%rsp),%xmm0
  403cf7:	00 00 
  403cf9:	f2 0f 11 84 24 48 02 	movsd  %xmm0,0x248(%rsp)
  403d00:	00 00 
  403d02:	44 39 ff             	cmp    %r15d,%edi
  403d05:	7f b1                	jg     403cb8 <SYSTEM_$$_K_REM_PIO2$TDA02$TDA02$SMALLINT$SMALLINT$SMALLINT$$INT64+0x188>
  403d07:	44 89 f0             	mov    %r14d,%eax
  403d0a:	25 ff ff ff ff       	and    $0xffffffff,%eax
  403d0f:	f2 0f 10 84 24 48 02 	movsd  0x248(%rsp),%xmm0
  403d16:	00 00 
  403d18:	f2 0f 11 84 c4 90 01 	movsd  %xmm0,0x190(%rsp,%rax,8)
  403d1f:	00 00 
  403d21:	44 39 f6             	cmp    %r14d,%esi
  403d24:	0f 8f 5e ff ff ff    	jg     403c88 <SYSTEM_$$_K_REM_PIO2$TDA02$TDA02$SMALLINT$SMALLINT$SMALLINT$$INT64+0x158>
  403d2a:	41 89 cd             	mov    %ecx,%r13d
  403d2d:	44 89 e8             	mov    %r13d,%eax
  403d30:	48 89 84 24 78 02 00 	mov    %rax,0x278(%rsp)
  403d37:	00 
  403d38:	41 be 00 00 00 00    	mov    $0x0,%r14d
  403d3e:	8b 94 24 78 02 00 00 	mov    0x278(%rsp),%edx
  403d45:	89 d0                	mov    %edx,%eax
  403d47:	25 ff ff ff ff       	and    $0xffffffff,%eax
  403d4c:	f2 0f 10 84 c4 90 01 	movsd  0x190(%rsp,%rax,8),%xmm0
  403d53:	00 00 
  403d55:	f2 0f 11 84 24 40 02 	movsd  %xmm0,0x240(%rsp)
  403d5c:	00 00 
  403d5e:	8b 84 24 78 02 00 00 	mov    0x278(%rsp),%eax
  403d65:	41 89 c7             	mov    %eax,%r15d
  403d68:	41 83 ff 01          	cmp    $0x1,%r15d
  403d6c:	0f 8c 09 01 00 00    	jl     403e7b <SYSTEM_$$_K_REM_PIO2$TDA02$TDA02$SMALLINT$SMALLINT$SMALLINT$$INT64+0x34b>
  403d72:	41 83 c7 01          	add    $0x1,%r15d
  403d76:	66 90                	xchg   %ax,%ax
  403d78:	41 83 ef 01          	sub    $0x1,%r15d
  403d7c:	d9 bc 24 34 02 00 00 	fnstcw 0x234(%rsp)
  403d83:	d9 bc 24 30 02 00 00 	fnstcw 0x230(%rsp)
  403d8a:	66 81 8c 24 34 02 00 	orw    $0xf00,0x234(%rsp)
  403d91:	00 00 0f 
  403d94:	f2 0f 10 05 14 00 22 	movsd  0x220014(%rip),%xmm0        # 623db0 <TC_$SYSTEM_$$_TWON24>
  403d9b:	00 
  403d9c:	f2 0f 59 84 24 40 02 	mulsd  0x240(%rsp),%xmm0
  403da3:	00 00 
  403da5:	f2 0f 11 84 24 38 02 	movsd  %xmm0,0x238(%rsp)
  403dac:	00 00 
  403dae:	dd 84 24 38 02 00 00 	fldl   0x238(%rsp)
  403db5:	d9 ac 24 34 02 00 00 	fldcw  0x234(%rsp)
  403dbc:	df bc 24 38 02 00 00 	fistpll 0x238(%rsp)
  403dc3:	d9 ac 24 30 02 00 00 	fldcw  0x230(%rsp)
  403dca:	9b                   	fwait
  403dcb:	f2 48 0f 2a 84 24 38 	cvtsi2sdq 0x238(%rsp),%xmm0
  403dd2:	02 00 00 
  403dd5:	f2 0f 11 84 24 48 02 	movsd  %xmm0,0x248(%rsp)
  403ddc:	00 00 
  403dde:	d9 bc 24 34 02 00 00 	fnstcw 0x234(%rsp)
  403de5:	d9 bc 24 30 02 00 00 	fnstcw 0x230(%rsp)
  403dec:	66 81 8c 24 34 02 00 	orw    $0xf00,0x234(%rsp)
  403df3:	00 00 0f 
  403df6:	f2 0f 10 05 a2 ff 21 	movsd  0x21ffa2(%rip),%xmm0        # 623da0 <TC_$SYSTEM_$$_TWO24>
  403dfd:	00 
  403dfe:	f2 0f 59 84 24 48 02 	mulsd  0x248(%rsp),%xmm0
  403e05:	00 00 
  403e07:	f2 0f 10 8c 24 40 02 	movsd  0x240(%rsp),%xmm1
  403e0e:	00 00 
  403e10:	f2 0f 5c c8          	subsd  %xmm0,%xmm1
  403e14:	f2 0f 11 8c 24 38 02 	movsd  %xmm1,0x238(%rsp)
  403e1b:	00 00 
  403e1d:	dd 84 24 38 02 00 00 	fldl   0x238(%rsp)
  403e24:	d9 ac 24 34 02 00 00 	fldcw  0x234(%rsp)
  403e2b:	df bc 24 38 02 00 00 	fistpll 0x238(%rsp)
  403e32:	d9 ac 24 30 02 00 00 	fldcw  0x230(%rsp)
  403e39:	9b                   	fwait
  403e3a:	44 89 f0             	mov    %r14d,%eax
  403e3d:	89 c2                	mov    %eax,%edx
  403e3f:	81 e2 ff ff ff ff    	and    $0xffffffff,%edx
  403e45:	8b 84 24 38 02 00 00 	mov    0x238(%rsp),%eax
  403e4c:	89 04 94             	mov    %eax,(%rsp,%rdx,4)
  403e4f:	49 63 c7             	movslq %r15d,%rax
  403e52:	f2 0f 10 84 c4 88 01 	movsd  0x188(%rsp,%rax,8),%xmm0
  403e59:	00 00 
  403e5b:	f2 0f 58 84 24 48 02 	addsd  0x248(%rsp),%xmm0
  403e62:	00 00 
  403e64:	f2 0f 11 84 24 40 02 	movsd  %xmm0,0x240(%rsp)
  403e6b:	00 00 
  403e6d:	41 83 c6 01          	add    $0x1,%r14d
  403e71:	41 83 ff 01          	cmp    $0x1,%r15d
  403e75:	0f 8f fd fe ff ff    	jg     403d78 <SYSTEM_$$_K_REM_PIO2$TDA02$TDA02$SMALLINT$SMALLINT$SMALLINT$$INT64+0x248>
  403e7b:	66 8b bc 24 70 02 00 	mov    0x270(%rsp),%di
  403e82:	00 
  403e83:	0f bf ff             	movswl %di,%edi
  403e86:	f2 0f 10 84 24 40 02 	movsd  0x240(%rsp),%xmm0
  403e8d:	00 00 
  403e8f:	e8 4c fa ff ff       	callq  4038e0 <SYSTEM_$$_LDEXP$REAL$SMALLINT$$REAL>
  403e94:	f2 0f 11 84 24 40 02 	movsd  %xmm0,0x240(%rsp)
  403e9b:	00 00 
  403e9d:	f2 0f 10 84 24 40 02 	movsd  0x240(%rsp),%xmm0
  403ea4:	00 00 
  403ea6:	48 8d 05 e3 ee 01 00 	lea    0x1eee3(%rip),%rax        # 422d90 <_$SYSTEM$_Ld9>
  403ead:	f2 0f 59 00          	mulsd  (%rax),%xmm0
  403eb1:	e8 0a fc ff ff       	callq  403ac0 <SYSTEM_$$_FLOORD$DOUBLE$$DOUBLE>
  403eb6:	48 8d 05 c3 ee 01 00 	lea    0x1eec3(%rip),%rax        # 422d80 <_$SYSTEM$_Ld8>
  403ebd:	f2 0f 59 00          	mulsd  (%rax),%xmm0
  403ec1:	f2 0f 10 8c 24 40 02 	movsd  0x240(%rsp),%xmm1
  403ec8:	00 00 
  403eca:	f2 0f 5c c8          	subsd  %xmm0,%xmm1
  403ece:	f2 0f 11 8c 24 40 02 	movsd  %xmm1,0x240(%rsp)
  403ed5:	00 00 
  403ed7:	d9 bc 24 34 02 00 00 	fnstcw 0x234(%rsp)
  403ede:	d9 bc 24 30 02 00 00 	fnstcw 0x230(%rsp)
  403ee5:	66 81 8c 24 34 02 00 	orw    $0xf00,0x234(%rsp)
  403eec:	00 00 0f 
  403eef:	f2 0f 10 84 24 40 02 	movsd  0x240(%rsp),%xmm0
  403ef6:	00 00 
  403ef8:	f2 0f 11 84 24 38 02 	movsd  %xmm0,0x238(%rsp)
  403eff:	00 00 
  403f01:	dd 84 24 38 02 00 00 	fldl   0x238(%rsp)
  403f08:	d9 ac 24 34 02 00 00 	fldcw  0x234(%rsp)
  403f0f:	df bc 24 38 02 00 00 	fistpll 0x238(%rsp)
  403f16:	d9 ac 24 30 02 00 00 	fldcw  0x230(%rsp)
  403f1d:	9b                   	fwait
  403f1e:	8b 84 24 38 02 00 00 	mov    0x238(%rsp),%eax
  403f25:	48 89 84 24 88 02 00 	mov    %rax,0x288(%rsp)
  403f2c:	00 
  403f2d:	8b 84 24 88 02 00 00 	mov    0x288(%rsp),%eax
  403f34:	f2 0f 2a c0          	cvtsi2sd %eax,%xmm0
  403f38:	f2 0f 10 8c 24 40 02 	movsd  0x240(%rsp),%xmm1
  403f3f:	00 00 
  403f41:	f2 0f 5c c8          	subsd  %xmm0,%xmm1
  403f45:	f2 0f 11 8c 24 40 02 	movsd  %xmm1,0x240(%rsp)
  403f4c:	00 00 
  403f4e:	b8 00 00 00 00       	mov    $0x0,%eax
  403f53:	48 89 84 24 80 02 00 	mov    %rax,0x280(%rsp)
  403f5a:	00 
  403f5b:	8b 84 24 70 02 00 00 	mov    0x270(%rsp),%eax
  403f62:	83 f8 00             	cmp    $0x0,%eax
  403f65:	0f 8e 9e 00 00 00    	jle    404009 <SYSTEM_$$_K_REM_PIO2$TDA02$TDA02$SMALLINT$SMALLINT$SMALLINT$$INT64+0x4d9>
  403f6b:	48 63 b4 24 78 02 00 	movslq 0x278(%rsp),%rsi
  403f72:	00 
  403f73:	48 63 94 24 70 02 00 	movslq 0x270(%rsp),%rdx
  403f7a:	00 
  403f7b:	48 b8 18 00 00 00 00 	movabs $0x18,%rax
  403f82:	00 00 00 
  403f85:	48 89 c1             	mov    %rax,%rcx
  403f88:	48 29 d1             	sub    %rdx,%rcx
  403f8b:	8b 44 b4 fc          	mov    -0x4(%rsp,%rsi,4),%eax
  403f8f:	48 63 c9             	movslq %ecx,%rcx
  403f92:	d3 e8                	shr    %cl,%eax
  403f94:	89 c3                	mov    %eax,%ebx
  403f96:	8b 84 24 88 02 00 00 	mov    0x288(%rsp),%eax
  403f9d:	01 d8                	add    %ebx,%eax
  403f9f:	48 89 84 24 88 02 00 	mov    %rax,0x288(%rsp)
  403fa6:	00 
  403fa7:	48 63 94 24 70 02 00 	movslq 0x270(%rsp),%rdx
  403fae:	00 
  403faf:	48 b8 18 00 00 00 00 	movabs $0x18,%rax
  403fb6:	00 00 00 
  403fb9:	48 89 c1             	mov    %rax,%rcx
  403fbc:	48 29 d1             	sub    %rdx,%rcx
  403fbf:	89 d8                	mov    %ebx,%eax
  403fc1:	48 63 c9             	movslq %ecx,%rcx
  403fc4:	d3 e0                	shl    %cl,%eax
  403fc6:	48 63 94 24 78 02 00 	movslq 0x278(%rsp),%rdx
  403fcd:	00 
  403fce:	29 44 94 fc          	sub    %eax,-0x4(%rsp,%rdx,4)
  403fd2:	48 63 b4 24 78 02 00 	movslq 0x278(%rsp),%rsi
  403fd9:	00 
  403fda:	48 63 94 24 70 02 00 	movslq 0x270(%rsp),%rdx
  403fe1:	00 
  403fe2:	48 b8 17 00 00 00 00 	movabs $0x17,%rax
  403fe9:	00 00 00 
  403fec:	48 89 c1             	mov    %rax,%rcx
  403fef:	48 29 d1             	sub    %rdx,%rcx
  403ff2:	8b 44 b4 fc          	mov    -0x4(%rsp,%rsi,4),%eax
  403ff6:	89 c2                	mov    %eax,%edx
  403ff8:	48 63 c9             	movslq %ecx,%rcx
  403ffb:	d3 ea                	shr    %cl,%edx
  403ffd:	89 d0                	mov    %edx,%eax
  403fff:	48 89 84 24 80 02 00 	mov    %rax,0x280(%rsp)
  404006:	00 
  404007:	eb 4b                	jmp    404054 <SYSTEM_$$_K_REM_PIO2$TDA02$TDA02$SMALLINT$SMALLINT$SMALLINT$$INT64+0x524>
  404009:	8b 84 24 70 02 00 00 	mov    0x270(%rsp),%eax
  404010:	85 c0                	test   %eax,%eax
  404012:	75 1b                	jne    40402f <SYSTEM_$$_K_REM_PIO2$TDA02$TDA02$SMALLINT$SMALLINT$SMALLINT$$INT64+0x4ff>
  404014:	48 63 84 24 78 02 00 	movslq 0x278(%rsp),%rax
  40401b:	00 
  40401c:	8b 44 84 fc          	mov    -0x4(%rsp,%rax,4),%eax
  404020:	c1 e8 17             	shr    $0x17,%eax
  404023:	89 c2                	mov    %eax,%edx
  404025:	48 89 94 24 80 02 00 	mov    %rdx,0x280(%rsp)
  40402c:	00 
  40402d:	eb 25                	jmp    404054 <SYSTEM_$$_K_REM_PIO2$TDA02$TDA02$SMALLINT$SMALLINT$SMALLINT$$INT64+0x524>
  40402f:	48 8d 05 fa ec 01 00 	lea    0x1ecfa(%rip),%rax        # 422d30 <_$SYSTEM$_Ld3>
  404036:	f2 0f 10 84 24 40 02 	movsd  0x240(%rsp),%xmm0
  40403d:	00 00 
  40403f:	66 0f 2f 00          	comisd (%rax),%xmm0
  404043:	7a 0f                	jp     404054 <SYSTEM_$$_K_REM_PIO2$TDA02$TDA02$SMALLINT$SMALLINT$SMALLINT$$INT64+0x524>
  404045:	72 0d                	jb     404054 <SYSTEM_$$_K_REM_PIO2$TDA02$TDA02$SMALLINT$SMALLINT$SMALLINT$$INT64+0x524>
  404047:	b8 02 00 00 00       	mov    $0x2,%eax
  40404c:	48 89 84 24 80 02 00 	mov    %rax,0x280(%rsp)
  404053:	00 
  404054:	8b 84 24 80 02 00 00 	mov    0x280(%rsp),%eax
  40405b:	83 f8 00             	cmp    $0x0,%eax
  40405e:	0f 8e 3e 01 00 00    	jle    4041a2 <SYSTEM_$$_K_REM_PIO2$TDA02$TDA02$SMALLINT$SMALLINT$SMALLINT$$INT64+0x672>
  404064:	8b 84 24 88 02 00 00 	mov    0x288(%rsp),%eax
  40406b:	83 c0 01             	add    $0x1,%eax
  40406e:	48 89 84 24 88 02 00 	mov    %rax,0x288(%rsp)
  404075:	00 
  404076:	41 bc 00 00 00 00    	mov    $0x0,%r12d
  40407c:	8b 94 24 78 02 00 00 	mov    0x278(%rsp),%edx
  404083:	67 8d 42 ff          	lea    -0x1(%edx),%eax
  404087:	89 c2                	mov    %eax,%edx
  404089:	41 be 00 00 00 00    	mov    $0x0,%r14d
  40408f:	44 39 f2             	cmp    %r14d,%edx
  404092:	7c 53                	jl     4040e7 <SYSTEM_$$_K_REM_PIO2$TDA02$TDA02$SMALLINT$SMALLINT$SMALLINT$$INT64+0x5b7>
  404094:	41 83 ee 01          	sub    $0x1,%r14d
