
add.o:     file format elf64-x86-64


Disassembly of section .text.n_main:

0000000000000000 <PASCALMAIN>:
   0:	55                   	push   rbp
   1:	48 89 e5             	mov    rbp,rsp
   4:	e8 00 00 00 00       	call   9 <PASCALMAIN+0x9>
   9:	66 c7 04 25 00 00 00 	mov    WORD PTR ds:0x0,0x3
  10:	00 03 00 
  13:	66 c7 04 25 00 00 00 	mov    WORD PTR ds:0x0,0x5
  1a:	00 05 00 
  1d:	0f bf 14 25 00 00 00 	movsx  edx,WORD PTR ds:0x0
  24:	00 
  25:	0f bf 04 25 00 00 00 	movsx  eax,WORD PTR ds:0x0
  2c:	00 
  2d:	67 8d 04 02          	lea    eax,[edx+eax*1]
  31:	66 a3 00 00 00 00 00 	movabs ds:0x0,ax
  38:	00 00 00 
  3b:	e8 00 00 00 00       	call   40 <PASCALMAIN+0x40>
  40:	c9                   	leave  
  41:	c3                   	ret    
	...

Disassembly of section .fpc.n_links:

0000000000000000 <.fpc.n_links>:
	...

Disassembly of section .fpc.n_version:

0000000000000000 <.fpc.n_version>:
   0:	46 50                	rex.RX push rax
   2:	43 20 33             	rex.XB and BYTE PTR [r11],sil
   5:	2e 30 2e             	xor    BYTE PTR cs:[rsi],ch
   8:	30 2b                	xor    BYTE PTR [rbx],ch
   a:	64 66 73 67          	fs data16 jae 75 <.Ledebug_line0+0x20>
   e:	2d 32 20 5b 32       	sub    eax,0x325b2032
  13:	30 31                	xor    BYTE PTR [rcx],dh
  15:	36 2f                	ss (bad) 
  17:	30 31                	xor    BYTE PTR [rcx],dh
  19:	2f                   	(bad)  
  1a:	32 38                	xor    bh,BYTE PTR [rax]
  1c:	5d                   	pop    rbp
  1d:	20 66 6f             	and    BYTE PTR [rsi+0x6f],ah
  20:	72 20                	jb     42 <.Lehdebug_line0+0x1b>
  22:	78 38                	js     5c <.Ledebug_line0+0x7>
  24:	36 5f                	ss pop rdi
  26:	36 34 20             	ss xor al,0x20
  29:	2d 20 4c 69 6e       	sub    eax,0x6e694c20
  2e:	75 78                	jne    a8 <.Ledebug_line0+0x53>
