
add_int_Ada_ARM64:     file format elf64-littleaarch64
add_int_Ada_ARM64
architecture: aarch64, flags 0x00000150:
HAS_SYMS, DYNAMIC, D_PAGED
start address 0x0000000000001090

Program Header:
    PHDR off    0x0000000000000040 vaddr 0x0000000000000040 paddr 0x0000000000000040 align 2**3
         filesz 0x00000000000001f8 memsz 0x00000000000001f8 flags r--
  INTERP off    0x0000000000000238 vaddr 0x0000000000000238 paddr 0x0000000000000238 align 2**0
         filesz 0x000000000000001b memsz 0x000000000000001b flags r--
    LOAD off    0x0000000000000000 vaddr 0x0000000000000000 paddr 0x0000000000000000 align 2**16
         filesz 0x0000000000001744 memsz 0x0000000000001744 flags r-x
    LOAD off    0x0000000000001cd8 vaddr 0x0000000000011cd8 paddr 0x0000000000011cd8 align 2**16
         filesz 0x00000000000003ab memsz 0x00000000000003b0 flags rw-
 DYNAMIC off    0x0000000000001ce8 vaddr 0x0000000000011ce8 paddr 0x0000000000011ce8 align 2**3
         filesz 0x0000000000000200 memsz 0x0000000000000200 flags rw-
    NOTE off    0x0000000000000254 vaddr 0x0000000000000254 paddr 0x0000000000000254 align 2**2
         filesz 0x0000000000000044 memsz 0x0000000000000044 flags r--
EH_FRAME off    0x0000000000001624 vaddr 0x0000000000001624 paddr 0x0000000000001624 align 2**2
         filesz 0x000000000000003c memsz 0x000000000000003c flags r--
   STACK off    0x0000000000000000 vaddr 0x0000000000000000 paddr 0x0000000000000000 align 2**4
         filesz 0x0000000000000000 memsz 0x0000000000000000 flags rw-
   RELRO off    0x0000000000001cd8 vaddr 0x0000000000011cd8 paddr 0x0000000000011cd8 align 2**0
         filesz 0x0000000000000328 memsz 0x0000000000000328 flags r--

Dynamic Section:
  NEEDED               libgnat-7.so.1
  NEEDED               libgcc_s.so.1
  NEEDED               libc.so.6
  INIT                 0x0000000000000f70
  FINI                 0x00000000000014fc
  INIT_ARRAY           0x0000000000011cd8
  INIT_ARRAYSZ         0x0000000000000008
  FINI_ARRAY           0x0000000000011ce0
  FINI_ARRAYSZ         0x0000000000000008
  GNU_HASH             0x0000000000000298
  STRTAB               0x00000000000006c0
  SYMTAB               0x00000000000002b8
  STRSZ                0x00000000000003b5
  SYMENT               0x0000000000000018
  DEBUG                0x0000000000000000
  PLTGOT               0x0000000000011fe8
  PLTRELSZ             0x0000000000000150
  PLTREL               0x0000000000000007
  JMPREL               0x0000000000000e20
  RELA                 0x0000000000000af0
  RELASZ               0x0000000000000330
  RELAENT              0x0000000000000018
  FLAGS_1              0x0000000008000000
  VERNEED              0x0000000000000ad0
  VERNEEDNUM           0x0000000000000001
  VERSYM               0x0000000000000a76
  RELACOUNT            0x0000000000000006

Version References:
  required from libc.so.6:
    0x06969197 0x00 02 GLIBC_2.17
private flags = 0:

Sections:
Idx Name          Size      VMA               LMA               File off  Algn
  0 .interp       0000001b  0000000000000238  0000000000000238  00000238  2**0
                  CONTENTS, ALLOC, LOAD, READONLY, DATA
  1 .note.ABI-tag 00000020  0000000000000254  0000000000000254  00000254  2**2
                  CONTENTS, ALLOC, LOAD, READONLY, DATA
  2 .note.gnu.build-id 00000024  0000000000000274  0000000000000274  00000274  2**2
                  CONTENTS, ALLOC, LOAD, READONLY, DATA
  3 .gnu.hash     0000001c  0000000000000298  0000000000000298  00000298  2**3
                  CONTENTS, ALLOC, LOAD, READONLY, DATA
  4 .dynsym       00000408  00000000000002b8  00000000000002b8  000002b8  2**3
                  CONTENTS, ALLOC, LOAD, READONLY, DATA
  5 .dynstr       000003b5  00000000000006c0  00000000000006c0  000006c0  2**0
                  CONTENTS, ALLOC, LOAD, READONLY, DATA
  6 .gnu.version  00000056  0000000000000a76  0000000000000a76  00000a76  2**1
                  CONTENTS, ALLOC, LOAD, READONLY, DATA
  7 .gnu.version_r 00000020  0000000000000ad0  0000000000000ad0  00000ad0  2**3
                  CONTENTS, ALLOC, LOAD, READONLY, DATA
  8 .rela.dyn     00000330  0000000000000af0  0000000000000af0  00000af0  2**3
                  CONTENTS, ALLOC, LOAD, READONLY, DATA
  9 .rela.plt     00000150  0000000000000e20  0000000000000e20  00000e20  2**3
                  CONTENTS, ALLOC, LOAD, READONLY, DATA
 10 .init         00000014  0000000000000f70  0000000000000f70  00000f70  2**2
                  CONTENTS, ALLOC, LOAD, READONLY, CODE
 11 .plt          00000100  0000000000000f90  0000000000000f90  00000f90  2**4
                  CONTENTS, ALLOC, LOAD, READONLY, CODE
 12 .text         0000046c  0000000000001090  0000000000001090  00001090  2**3
                  CONTENTS, ALLOC, LOAD, READONLY, CODE
 13 .fini         00000010  00000000000014fc  00000000000014fc  000014fc  2**2
                  CONTENTS, ALLOC, LOAD, READONLY, CODE
 14 .rodata       00000111  0000000000001510  0000000000001510  00001510  2**3
                  CONTENTS, ALLOC, LOAD, READONLY, DATA
 15 .eh_frame_hdr 0000003c  0000000000001624  0000000000001624  00001624  2**2
                  CONTENTS, ALLOC, LOAD, READONLY, DATA
 16 .eh_frame     000000e4  0000000000001660  0000000000001660  00001660  2**3
                  CONTENTS, ALLOC, LOAD, READONLY, DATA
 17 .init_array   00000008  0000000000011cd8  0000000000011cd8  00001cd8  2**3
                  CONTENTS, ALLOC, LOAD, DATA
 18 .fini_array   00000008  0000000000011ce0  0000000000011ce0  00001ce0  2**3
                  CONTENTS, ALLOC, LOAD, DATA
 19 .dynamic      00000200  0000000000011ce8  0000000000011ce8  00001ce8  2**3
                  CONTENTS, ALLOC, LOAD, DATA
 20 .got          00000100  0000000000011ee8  0000000000011ee8  00001ee8  2**3
                  CONTENTS, ALLOC, LOAD, DATA
 21 .got.plt      00000088  0000000000011fe8  0000000000011fe8  00001fe8  2**3
                  CONTENTS, ALLOC, LOAD, DATA
 22 .data         00000013  0000000000012070  0000000000012070  00002070  2**3
                  CONTENTS, ALLOC, LOAD, DATA
 23 .bss          00000005  0000000000012083  0000000000012083  00002083  2**0
                  ALLOC
 24 .comment      0000001c  0000000000000000  0000000000000000  00002083  2**0
                  CONTENTS, READONLY
SYMBOL TABLE:
0000000000000238 l    d  .interp	0000000000000000              .interp
0000000000000254 l    d  .note.ABI-tag	0000000000000000              .note.ABI-tag
0000000000000274 l    d  .note.gnu.build-id	0000000000000000              .note.gnu.build-id
0000000000000298 l    d  .gnu.hash	0000000000000000              .gnu.hash
00000000000002b8 l    d  .dynsym	0000000000000000              .dynsym
00000000000006c0 l    d  .dynstr	0000000000000000              .dynstr
0000000000000a76 l    d  .gnu.version	0000000000000000              .gnu.version
0000000000000ad0 l    d  .gnu.version_r	0000000000000000              .gnu.version_r
0000000000000af0 l    d  .rela.dyn	0000000000000000              .rela.dyn
0000000000000e20 l    d  .rela.plt	0000000000000000              .rela.plt
0000000000000f70 l    d  .init	0000000000000000              .init
0000000000000f90 l    d  .plt	0000000000000000              .plt
0000000000001090 l    d  .text	0000000000000000              .text
00000000000014fc l    d  .fini	0000000000000000              .fini
0000000000001510 l    d  .rodata	0000000000000000              .rodata
0000000000001624 l    d  .eh_frame_hdr	0000000000000000              .eh_frame_hdr
0000000000001660 l    d  .eh_frame	0000000000000000              .eh_frame
0000000000011cd8 l    d  .init_array	0000000000000000              .init_array
0000000000011ce0 l    d  .fini_array	0000000000000000              .fini_array
0000000000011ce8 l    d  .dynamic	0000000000000000              .dynamic
0000000000011ee8 l    d  .got	0000000000000000              .got
0000000000011fe8 l    d  .got.plt	0000000000000000              .got.plt
0000000000012070 l    d  .data	0000000000000000              .data
0000000000012083 l    d  .bss	0000000000000000              .bss
0000000000000000 l    d  .comment	0000000000000000              .comment
0000000000000000 l    df *ABS*	0000000000000000              /usr/lib/gcc/aarch64-linux-gnu/7/../../../aarch64-linux-gnu/Scrt1.o
0000000000000000 l    df *ABS*	0000000000000000              /usr/lib/gcc/aarch64-linux-gnu/7/../../../aarch64-linux-gnu/crti.o
00000000000010c8 l     F .text	0000000000000014              call_weak_fn
0000000000000000 l    df *ABS*	0000000000000000              /usr/lib/gcc/aarch64-linux-gnu/7/../../../aarch64-linux-gnu/crtn.o
0000000000000000 l    df *ABS*	0000000000000000              crtstuff.c
00000000000010e0 l     F .text	0000000000000000              deregister_tm_clones
0000000000001110 l     F .text	0000000000000000              register_tm_clones
0000000000001150 l     F .text	0000000000000000              __do_global_dtors_aux
0000000000012083 l     O .bss	0000000000000001              completed.7814
0000000000011ce0 l     O .fini_array	0000000000000000              __do_global_dtors_aux_fini_array_entry
0000000000001198 l     F .text	0000000000000000              frame_dummy
0000000000011cd8 l     O .init_array	0000000000000000              __frame_dummy_init_array_entry
0000000000000000 l    df *ABS*	0000000000000000              b~add_int.adb
0000000000012082 l     O .data	0000000000000001              ada_main__is_elaborated
0000000000001618 l     O .rodata	0000000000000001              ada_main__local_priority_specific_dispatching
0000000000001620 l     O .rodata	0000000000000001              ada_main__local_interrupt_states
0000000000000000 l    df *ABS*	0000000000000000              add_int.adb
0000000000000000 l    df *ABS*	0000000000000000              elf-init.oS
0000000000000000 l    df *ABS*	0000000000000000              crtstuff.c
0000000000001740 l     O .eh_frame	0000000000000000              __FRAME_END__
0000000000000000 l    df *ABS*	0000000000000000              
0000000000001624 l       .eh_frame_hdr	0000000000000000              __GNU_EH_FRAME_HDR
0000000000011ee8 l     O *ABS*	0000000000000000              _GLOBAL_OFFSET_TABLE_
0000000000011ce0 l       .init_array	0000000000000000              __init_array_end
0000000000011cd8 l       .init_array	0000000000000000              __init_array_start
0000000000011ce8 l     O *ABS*	0000000000000000              _DYNAMIC
0000000000000f70 l     F .init	0000000000000000              _init
0000000000012070  w      .data	0000000000000000              data_start
0000000000001584 g     O .rodata	0000000000000004              system__parametersS
0000000000000000       O *UND*	0000000000000000              __gl_task_dispatching_policy
0000000000001598 g     O .rodata	0000000000000004              system__stack_checkingB
0000000000001554 g     O .rodata	0000000000000004              gnat__ioS
00000000000014f8 g     F .text	0000000000000004              __libc_csu_fini
00000000000015e4 g     O .rodata	0000000000000004              system__address_imageB
0000000000001090 g     F .text	0000000000000000              _start
0000000000000000       F *UND*	0000000000000000              __libc_start_main@@GLIBC_2.17
0000000000001450 g     F .text	0000000000000028              _ada_add_int
0000000000000000       F *UND*	0000000000000000              __gnat_finalize
0000000000000000  w      *UND*	0000000000000000              __gmon_start__
0000000000001580 g     O .rodata	0000000000000004              system__parametersB
0000000000001530 g     O .rodata	000000000000000d              __gnat_ada_main_program_name
0000000000000000       O *UND*	0000000000000000              system__secondary_stack_E
00000000000015b8 g     O .rodata	0000000000000004              system__exceptions_debugS
0000000000000000       O *UND*	0000000000000000              system__soft_links_E
0000000000001590 g     O .rodata	0000000000000004              system__storage_elementsB
00000000000014fc g     F .fini	0000000000000000              .hidden _fini
000000000000154c g     O .rodata	0000000000000004              gnatS
0000000000001540 g     O .rodata	0000000000000004              add_intB
0000000000001544 g     O .rodata	0000000000000004              system__standard_libraryB
0000000000000000       F *UND*	0000000000000000              system__secondary_stack___elabb
0000000000000000       O *UND*	0000000000000000              gnat_envp
00000000000015bc g     O .rodata	0000000000000004              system__img_intB
000000000000160c g     O .rodata	0000000000000004              system__wch_jisS
000000000000157c g     O .rodata	0000000000000004              system__soft_linksS
0000000000001610 g     O .rodata	0000000000000004              system__crtlS
000000000000156c g     O .rodata	0000000000000004              adaS
0000000000000000       F *UND*	0000000000000000              system__soft_links___elabb
0000000000001570 g     O .rodata	0000000000000004              ada__exceptions__last_chance_handlerB
00000000000015ac g     O .rodata	0000000000000004              system__exceptionsS
0000000000001568 g     O .rodata	0000000000000004              ada__exceptionsS
0000000000000000  w    F *UND*	0000000000000000              __cxa_finalize@@GLIBC_2.17
0000000000000000       O *UND*	0000000000000000              __gl_interrupt_states
0000000000000000  w      *UND*	0000000000000000              _ITM_deregisterTMCloneTable
0000000000001510 g     O .rodata	0000000000000004              _IO_stdin_used
0000000000000000       O *UND*	0000000000000000              __gnat_finalize_library_objects
00000000000015c8 g     O .rodata	0000000000000004              system__tracebackS
0000000000000000  w      *UND*	0000000000000000              _ITM_registerTMCloneTable
0000000000012070 g       .data	0000000000000000              __data_start
0000000000000000       F *UND*	0000000000000000              system__exceptions___elabs
0000000000000000       F *UND*	0000000000000000              system__exception_table___elabb
0000000000000000       F *UND*	0000000000000000              abort@@GLIBC_2.17
0000000000012083 g       .bss	0000000000000000              __bss_start__
000000000000155c g     O .rodata	0000000000000004              system__memoryB
0000000000000000       F *UND*	0000000000000000              system__standard_library__adafinal
00000000000015b4 g     O .rodata	0000000000000004              system__exceptions_debugB
00000000000011a0 g     F .text	000000000000004c              adafinal
00000000000015dc g     O .rodata	0000000000000004              ada__exceptions__tracebackB
0000000000000000       F *UND*	0000000000000000              __gnat_initialize
00000000000015ec g     O .rodata	0000000000000004              system__wch_conB
00000000000015f8 g     O .rodata	0000000000000004              system__wch_stwS
00000000000011f0 g     F .text	00000000000001dc              adainit
0000000000012088 g     O .data	0000000000000000              .hidden __TMC_END__
00000000000015a0 g     O .rodata	0000000000000004              system__exception_tableB
0000000000000000       F *UND*	0000000000000000              __gnat_runtime_finalize
0000000000000000       O *UND*	0000000000000000              __gl_main_cpu
0000000000012078 g     O .data	0000000000000000              .hidden __dso_handle
00000000000015c0 g     O .rodata	0000000000000004              system__img_intS
000000000000158c g     O .rodata	0000000000000004              system__secondary_stackS
0000000000012088 g       .bss	0000000000000000              __end__
0000000000001600 g     O .rodata	0000000000000004              system__wch_cnvS
0000000000001478 g     F .text	000000000000007c              __libc_csu_init
0000000000012088 g       .bss	0000000000000000              __bss_end__
00000000000015b0 g     O .rodata	0000000000000004              system__exceptions__machineS
0000000000000000       F *UND*	0000000000000000              system__soft_links___elabs
0000000000001560 g     O .rodata	0000000000000004              system__memoryS
0000000000000000       O *UND*	0000000000000000              __gl_locking_policy
00000000000015cc g     O .rodata	0000000000000004              system__traceback_entriesB
0000000000000000       O *UND*	0000000000000000              __gl_time_slice_val
0000000000000000       O *UND*	0000000000000000              gnat_exit_status
0000000000000000       O *UND*	0000000000000000              __gl_leap_seconds_support
0000000000001574 g     O .rodata	0000000000000004              ada__exceptions__last_chance_handlerS
0000000000000000       O *UND*	0000000000000000              __gl_unreserve_all_interrupts
0000000000001578 g     O .rodata	0000000000000004              system__soft_linksB
0000000000001564 g     O .rodata	0000000000000004              ada__exceptionsB
0000000000012083 g       .bss	0000000000000000              __bss_start
0000000000001604 g     O .rodata	0000000000000004              interfacesS
0000000000001594 g     O .rodata	0000000000000004              system__storage_elementsS
0000000000012088 g       .bss	0000000000000000              _bss_end__
0000000000000000       O *UND*	0000000000000000              __gl_wc_encoding
000000000000159c g     O .rodata	0000000000000004              system__stack_checkingS
0000000000001550 g     O .rodata	0000000000000004              gnat__ioB
0000000000012080 g     O .data	0000000000000002              ada_main_E
00000000000015c4 g     O .rodata	0000000000000004              system__tracebackB
0000000000001518 g     O .rodata	0000000000000014              __gnat_version
00000000000015fc g     O .rodata	0000000000000004              system__wch_cnvB
0000000000000000       O *UND*	0000000000000000              gnat_argv
00000000000015a4 g     O .rodata	0000000000000004              system__exception_tableS
0000000000012088 g       .bss	0000000000000000              _end
00000000000015e8 g     O .rodata	0000000000000004              system__address_imageS
00000000000015a8 g     O .rodata	0000000000000004              system__exceptionsB
0000000000001588 g     O .rodata	0000000000000004              system__secondary_stackB
0000000000000000       O *UND*	0000000000000000              __gl_queuing_policy
00000000000015f0 g     O .rodata	0000000000000004              system__wch_conS
0000000000000000       O *UND*	0000000000000000              __gl_num_specific_dispatching
00000000000015f4 g     O .rodata	0000000000000004              system__wch_stwB
0000000000000000       O *UND*	0000000000000000              __gl_main_priority
0000000000000000       O *UND*	0000000000000000              __gl_priority_specific_dispatching
00000000000015d0 g     O .rodata	0000000000000004              system__traceback_entriesS
0000000000000000       O *UND*	0000000000000000              system__exceptions_E
0000000000000000       O *UND*	0000000000000000              __gl_detect_blocking
00000000000015e0 g     O .rodata	0000000000000004              ada__exceptions__tracebackS
0000000000000000       O *UND*	0000000000000000              gnat_argc
0000000000000000       O *UND*	0000000000000000              __gl_num_interrupt_states
00000000000015d8 g     O .rodata	0000000000000004              system__traceback__symbolicS
0000000000012083 g       .data	0000000000000000              _edata
0000000000000000       O *UND*	0000000000000000              system__exception_table_E
0000000000000000       O *UND*	0000000000000000              __gl_default_stack_size
0000000000000000       F *UND*	0000000000000000              __gnat_runtime_initialize
0000000000001558 g     O .rodata	0000000000000004              systemS
0000000000001608 g     O .rodata	0000000000000004              system__wch_jisB
00000000000015d4 g     O .rodata	0000000000000004              system__traceback__symbolicB
00000000000013d0 g     F .text	000000000000007c              main
0000000000001548 g     O .rodata	0000000000000004              system__standard_libraryS


Contents of section .interp:
 0238 2f6c6962 2f6c642d 6c696e75 782d6161  /lib/ld-linux-aa
 0248 72636836 342e736f 2e3100             rch64.so.1.     
Contents of section .note.ABI-tag:
 0254 04000000 10000000 01000000 474e5500  ............GNU.
 0264 00000000 03000000 07000000 00000000  ................
Contents of section .note.gnu.build-id:
 0274 04000000 14000000 03000000 474e5500  ............GNU.
 0284 ba309500 b8a7cfff 7628d849 72e4b1ce  .0......v(.Ir...
 0294 54e53534                             T.54            
Contents of section .gnu.hash:
 0298 01000000 01000000 01000000 00000000  ................
 02a8 00000000 00000000 00000000           ............    
Contents of section .dynsym:
 02b8 00000000 00000000 00000000 00000000  ................
 02c8 00000000 00000000 00000000 03000b00  ................
 02d8 700f0000 00000000 00000000 00000000  p...............
 02e8 00000000 03001700 70200100 00000000  ........p ......
 02f8 00000000 00000000 55000000 11000000  ........U.......
 0308 00000000 00000000 00000000 00000000  ................
 0318 98030000 12000000 00000000 00000000  ................
 0328 00000000 00000000 36010000 12000000  ........6.......
 0338 00000000 00000000 00000000 00000000  ................
 0348 10000000 20000000 00000000 00000000  .... ...........
 0358 00000000 00000000 46010000 11000000  ........F.......
 0368 00000000 00000000 00000000 00000000  ................
 0378 23020000 11000000 00000000 00000000  #...............
 0388 00000000 00000000 de010000 12000000  ................
 0398 00000000 00000000 00000000 00000000  ................
 03a8 a9000000 11000000 00000000 00000000  ................
 03b8 00000000 00000000 02030000 12000000  ................
 03c8 00000000 00000000 00000000 00000000  ................
 03d8 89030000 22000000 00000000 00000000  ...."...........
 03e8 00000000 00000000 83020000 11000000  ................
 03f8 00000000 00000000 00000000 00000000  ................
 0408 1f000000 20000000 00000000 00000000  .... ...........
 0418 00000000 00000000 38030000 11000000  ........8.......
 0428 00000000 00000000 00000000 00000000  ................
 0438 3b000000 20000000 00000000 00000000  ;... ...........
 0448 00000000 00000000 68020000 12000000  ........h.......
 0458 00000000 00000000 00000000 00000000  ................
 0468 e2020000 12000000 00000000 00000000  ................
 0478 00000000 00000000 83030000 12000000  ................
 0488 00000000 00000000 00000000 00000000  ................
 0498 86000000 12000000 00000000 00000000  ................
 04a8 00000000 00000000 56020000 12000000  ........V.......
 04b8 00000000 00000000 00000000 00000000  ................
 04c8 b5010000 12000000 00000000 00000000  ................
 04d8 00000000 00000000 60010000 11000000  ........`.......
 04e8 00000000 00000000 00000000 00000000  ................
 04f8 1d030000 12000000 00000000 00000000  ................
 0508 00000000 00000000 e5000000 11000000  ................
 0518 00000000 00000000 00000000 00000000  ................
 0528 d1000000 11000000 00000000 00000000  ................
 0538 00000000 00000000 cd010000 11000000  ................
 0548 00000000 00000000 00000000 00000000  ................
 0558 83010000 11000000 00000000 00000000  ................
 0568 00000000 00000000 38020000 11000000  ........8.......
 0578 00000000 00000000 00000000 00000000  ................
 0588 12020000 11000000 00000000 00000000  ................
 0598 00000000 00000000 7c000000 11000000  ........|.......
 05a8 00000000 00000000 00000000 00000000  ................
 05b8 fe010000 11000000 00000000 00000000  ................
 05c8 00000000 00000000 b3000000 11000000  ................
 05d8 00000000 00000000 00000000 00000000  ................
 05e8 58030000 11000000 00000000 00000000  X...............
 05f8 00000000 00000000 f9000000 11000000  ................
 0608 00000000 00000000 00000000 00000000  ................
 0618 99020000 11000000 00000000 00000000  ................
 0628 00000000 00000000 6e010000 11000000  ........n.......
 0638 00000000 00000000 00000000 00000000  ................
 0648 72000000 11000000 00000000 00000000  r...............
 0658 00000000 00000000 1c010000 11000000  ................
 0668 00000000 00000000 00000000 00000000  ................
 0678 c8020000 11000000 00000000 00000000  ................
 0688 00000000 00000000 9d010000 11000000  ................
 0698 00000000 00000000 00000000 00000000  ................
 06a8 ae020000 12000000 00000000 00000000  ................
 06b8 00000000 00000000                    ........        
Contents of section .dynstr:
 06c0 006c6962 676e6174 2d372e73 6f2e3100  .libgnat-7.so.1.
 06d0 5f5f676d 6f6e5f73 74617274 5f5f005f  __gmon_start__._
 06e0 49544d5f 64657265 67697374 6572544d  ITM_deregisterTM
 06f0 436c6f6e 65546162 6c65005f 49544d5f  CloneTable._ITM_
 0700 72656769 73746572 544d436c 6f6e6554  registerTMCloneT
 0710 61626c65 005f5f67 6c5f7461 736b5f64  able.__gl_task_d
 0720 69737061 74636869 6e675f70 6f6c6963  ispatching_polic
 0730 7900676e 61745f61 72676300 676e6174  y.gnat_argc.gnat
 0740 5f617267 76007379 7374656d 5f5f7374  _argv.system__st
 0750 616e6461 72645f6c 69627261 72795f5f  andard_library__
 0760 61646166 696e616c 00676e61 745f656e  adafinal.gnat_en
 0770 7670005f 5f676c5f 6e756d5f 73706563  vp.__gl_num_spec
 0780 69666963 5f646973 70617463 68696e67  ific_dispatching
 0790 005f5f67 6c5f7469 6d655f73 6c696365  .__gl_time_slice
 07a0 5f76616c 005f5f67 6c5f6c6f 636b696e  _val.__gl_lockin
 07b0 675f706f 6c696379 005f5f67 6c5f7072  g_policy.__gl_pr
 07c0 696f7269 74795f73 70656369 6669635f  iority_specific_
 07d0 64697370 61746368 696e6700 5f5f676c  dispatching.__gl
 07e0 5f6e756d 5f696e74 65727275 70745f73  _num_interrupt_s
 07f0 74617465 73005f5f 676e6174 5f66696e  tates.__gnat_fin
 0800 616c697a 65007379 7374656d 5f5f7365  alize.system__se
 0810 636f6e64 6172795f 73746163 6b5f4500  condary_stack_E.
 0820 5f5f676c 5f6d6169 6e5f6370 75005f5f  __gl_main_cpu.__
 0830 676c5f64 65746563 745f626c 6f636b69  gl_detect_blocki
 0840 6e67005f 5f676c5f 6c656170 5f736563  ng.__gl_leap_sec
 0850 6f6e6473 5f737570 706f7274 005f5f67  onds_support.__g
 0860 6c5f6465 6661756c 745f7374 61636b5f  l_default_stack_
 0870 73697a65 005f5f67 6e61745f 72756e74  size.__gnat_runt
 0880 696d655f 66696e61 6c697a65 00676e61  ime_finalize.gna
 0890 745f6578 69745f73 74617475 73007379  t_exit_status.sy
 08a0 7374656d 5f5f7365 636f6e64 6172795f  stem__secondary_
 08b0 73746163 6b5f5f5f 656c6162 62005f5f  stack___elabb.__
 08c0 676c5f71 75657569 6e675f70 6f6c6963  gl_queuing_polic
 08d0 79005f5f 676c5f77 635f656e 636f6469  y.__gl_wc_encodi
 08e0 6e670073 79737465 6d5f5f73 6f66745f  ng.system__soft_
 08f0 6c696e6b 735f4500 5f5f676c 5f756e72  links_E.__gl_unr
 0900 65736572 76655f61 6c6c5f69 6e746572  eserve_all_inter
 0910 72757074 73005f5f 676e6174 5f696e69  rupts.__gnat_ini
 0920 7469616c 697a6500 73797374 656d5f5f  tialize.system__
 0930 65786365 7074696f 6e735f5f 5f656c61  exceptions___ela
 0940 6273005f 5f676c5f 696e7465 72727570  bs.__gl_interrup
 0950 745f7374 61746573 00737973 74656d5f  t_states.system_
 0960 5f657863 65707469 6f6e735f 45005f5f  _exceptions_E.__
 0970 676e6174 5f72756e 74696d65 5f696e69  gnat_runtime_ini
 0980 7469616c 697a6500 73797374 656d5f5f  tialize.system__
 0990 65786365 7074696f 6e5f7461 626c655f  exception_table_
 09a0 45007379 7374656d 5f5f6578 63657074  E.system__except
 09b0 696f6e5f 7461626c 655f5f5f 656c6162  ion_table___elab
 09c0 62007379 7374656d 5f5f736f 66745f6c  b.system__soft_l
 09d0 696e6b73 5f5f5f65 6c616262 00737973  inks___elabb.sys
 09e0 74656d5f 5f736f66 745f6c69 6e6b735f  tem__soft_links_
 09f0 5f5f656c 61627300 5f5f676e 61745f66  __elabs.__gnat_f
 0a00 696e616c 697a655f 6c696272 6172795f  inalize_library_
 0a10 6f626a65 63747300 5f5f676c 5f6d6169  objects.__gl_mai
 0a20 6e5f7072 696f7269 7479006c 69626763  n_priority.libgc
 0a30 635f732e 736f2e31 006c6962 632e736f  c_s.so.1.libc.so
 0a40 2e360061 626f7274 005f5f63 78615f66  .6.abort.__cxa_f
 0a50 696e616c 697a6500 5f5f6c69 62635f73  inalize.__libc_s
 0a60 74617274 5f6d6169 6e00474c 4942435f  tart_main.GLIBC_
 0a70 322e3137 00                          2.17.           
Contents of section .gnu.version:
 0a76 00000000 00000000 02000000 00000000  ................
 0a86 00000000 00000000 02000000 00000000  ................
 0a96 00000000 00000200 00000000 00000000  ................
 0aa6 00000000 00000000 00000000 00000000  ................
 0ab6 00000000 00000000 00000000 00000000  ................
 0ac6 00000000 0000                        ......          
Contents of section .gnu.version_r:
 0ad0 01000100 79030000 10000000 00000000  ....y...........
 0ae0 97919606 00000200 aa030000 00000000  ................
Contents of section .rela.dyn:
 0af0 d81c0100 00000000 03040000 00000000  ................
 0b00 98110000 00000000 e01c0100 00000000  ................
 0b10 03040000 00000000 50110000 00000000  ........P.......
 0b20 f81e0100 00000000 03040000 00000000  ................
 0b30 f8140000 00000000 501f0100 00000000  ........P.......
 0b40 03040000 00000000 78140000 00000000  ........x.......
 0b50 e01f0100 00000000 03040000 00000000  ................
 0b60 d0130000 00000000 78200100 00000000  ........x ......
 0b70 03040000 00000000 78200100 00000000  ........x ......
 0b80 f01e0100 00000000 01040000 03000000  ................
 0b90 00000000 00000000 001f0100 00000000  ................
 0ba0 01040000 06000000 00000000 00000000  ................
 0bb0 081f0100 00000000 01040000 07000000  ................
 0bc0 00000000 00000000 101f0100 00000000  ................
 0bd0 01040000 08000000 00000000 00000000  ................
 0be0 181f0100 00000000 01040000 0a000000  ................
 0bf0 00000000 00000000 201f0100 00000000  ........ .......
 0c00 01040000 0c000000 00000000 00000000  ................
 0c10 281f0100 00000000 01040000 0d000000  (...............
 0c20 00000000 00000000 301f0100 00000000  ........0.......
 0c30 01040000 0e000000 00000000 00000000  ................
 0c40 381f0100 00000000 01040000 0f000000  8...............
 0c50 00000000 00000000 401f0100 00000000  ........@.......
 0c60 01040000 10000000 00000000 00000000  ................
 0c70 481f0100 00000000 01040000 17000000  H...............
 0c80 00000000 00000000 581f0100 00000000  ........X.......
 0c90 01040000 19000000 00000000 00000000  ................
 0ca0 601f0100 00000000 01040000 1a000000  `...............
 0cb0 00000000 00000000 681f0100 00000000  ........h.......
 0cc0 01040000 1b000000 00000000 00000000  ................
 0cd0 701f0100 00000000 01040000 1c000000  p...............
 0ce0 00000000 00000000 781f0100 00000000  ........x.......
 0cf0 01040000 1d000000 00000000 00000000  ................
 0d00 801f0100 00000000 01040000 1e000000  ................
 0d10 00000000 00000000 881f0100 00000000  ................
 0d20 01040000 1f000000 00000000 00000000  ................
 0d30 901f0100 00000000 01040000 20000000  ............ ...
 0d40 00000000 00000000 981f0100 00000000  ................
 0d50 01040000 21000000 00000000 00000000  ....!...........
 0d60 a01f0100 00000000 01040000 22000000  ............"...
 0d70 00000000 00000000 a81f0100 00000000  ................
 0d80 01040000 23000000 00000000 00000000  ....#...........
 0d90 b01f0100 00000000 01040000 24000000  ............$...
 0da0 00000000 00000000 b81f0100 00000000  ................
 0db0 01040000 25000000 00000000 00000000  ....%...........
 0dc0 c01f0100 00000000 01040000 26000000  ............&...
 0dd0 00000000 00000000 c81f0100 00000000  ................
 0de0 01040000 27000000 00000000 00000000  ....'...........
 0df0 d01f0100 00000000 01040000 28000000  ............(...
 0e00 00000000 00000000 d81f0100 00000000  ................
 0e10 01040000 29000000 00000000 00000000  ....)...........
Contents of section .rela.plt:
 0e20 00200100 00000000 02040000 04000000  . ..............
 0e30 00000000 00000000 08200100 00000000  ......... ......
 0e40 02040000 05000000 00000000 00000000  ................
 0e50 10200100 00000000 02040000 06000000  . ..............
 0e60 00000000 00000000 18200100 00000000  ......... ......
 0e70 02040000 09000000 00000000 00000000  ................
 0e80 20200100 00000000 02040000 0b000000    ..............
 0e90 00000000 00000000 28200100 00000000  ........( ......
 0ea0 02040000 0c000000 00000000 00000000  ................
 0eb0 30200100 00000000 02040000 11000000  0 ..............
 0ec0 00000000 00000000 38200100 00000000  ........8 ......
 0ed0 02040000 12000000 00000000 00000000  ................
 0ee0 40200100 00000000 02040000 13000000  @ ..............
 0ef0 00000000 00000000 48200100 00000000  ........H ......
 0f00 02040000 14000000 00000000 00000000  ................
 0f10 50200100 00000000 02040000 15000000  P ..............
 0f20 00000000 00000000 58200100 00000000  ........X ......
 0f30 02040000 16000000 00000000 00000000  ................
 0f40 60200100 00000000 02040000 18000000  ` ..............
 0f50 00000000 00000000 68200100 00000000  ........h ......
 0f60 02040000 2a000000 00000000 00000000  ....*...........
Contents of section .init:
 0f70 fd7bbfa9 fd030091 54000094 fd7bc1a8  .{......T....{..
 0f80 c0035fd6                             .._.            
Contents of section .plt:
 0f90 f07bbfa9 900000b0 11fe47f9 10e23f91  .{........G...?.
 0fa0 20021fd6 1f2003d5 1f2003d5 1f2003d5   .... ... ... ..
 0fb0 900000d0 110240f9 10020091 20021fd6  ......@..... ...
 0fc0 900000d0 110640f9 10220091 20021fd6  ......@..".. ...
 0fd0 900000d0 110a40f9 10420091 20021fd6  ......@..B.. ...
 0fe0 900000d0 110e40f9 10620091 20021fd6  ......@..b.. ...
 0ff0 900000d0 111240f9 10820091 20021fd6  ......@..... ...
 1000 900000b0 111640f9 10a20091 20021fd6  ......@..... ...
 1010 900000b0 111a40f9 10c20091 20021fd6  ......@..... ...
 1020 900000b0 111e40f9 10e20091 20021fd6  ......@..... ...
 1030 900000b0 112240f9 10020191 20021fd6  ....."@..... ...
 1040 900000b0 112640f9 10220191 20021fd6  .....&@..".. ...
 1050 900000b0 112a40f9 10420191 20021fd6  .....*@..B.. ...
 1060 900000b0 112e40f9 10620191 20021fd6  ......@..b.. ...
 1070 900000b0 113240f9 10820191 20021fd6  .....2@..... ...
 1080 900000b0 113640f9 10a20191 20021fd6  .....6@..... ...
Contents of section .text:
 1090 1d0080d2 1e0080d2 e50300aa e10340f9  ..............@.
 10a0 e2230091 e6030091 80000090 00f047f9  .#............G.
 10b0 83000090 63a847f9 84000090 847c47f9  ....c.G......|G.
 10c0 bcffff97 dbffff97 80000090 008047f9  ..............G.
 10d0 400000b4 bfffff17 c0035fd6 1f2003d5  @........._.. ..
 10e0 800000b0 00200291 810000b0 21200291  ..... ......! ..
 10f0 3f0000eb a0000054 81000090 219847f9  ?......T....!.G.
 1100 410000b4 20001fd6 c0035fd6 1f2003d5  A... ....._.. ..
 1110 800000b0 00200291 810000b0 21200291  ..... ......! ..
 1120 210000cb 21fc4393 21fc418b 21fc4193  !...!.C.!.A.!.A.
 1130 c10000b4 82000090 42a047f9 620000b4  ........B.G.b...
 1140 40001fd6 1f2003d5 c0035fd6 1f2003d5  @.... ...._.. ..
 1150 fd7bbea9 fd030091 f30b00f9 930000b0  .{..............
 1160 600e4239 40010035 80000090 009047f9  `.B9@..5......G.
 1170 800000b4 800000b0 003c40f9 a1ffff97  .........<@.....
 1180 d8ffff97 20008052 600e0239 f30b40f9  .... ..R`..9..@.
 1190 fd7bc2a8 c0035fd6 deffff17 1f2003d5  .{...._...... ..
 11a0 fd7bbfa9 fd030091 800000b0 00080291  .{..............
 11b0 00004039 00000052 001c0012 1f000071  ..@9...R.......q
 11c0 01010054 800000b0 00080291 1f000039  ...T...........9
 11d0 a4ffff97 9bffff97 1f2003d5 02000014  ......... ......
 11e0 1f2003d5 fd7bc1a8 c0035fd6 1f2003d5  . ...{...._.. ..
 11f0 fd7bbfa9 fd030091 800000b0 00080291  .{..............
 1200 00004039 1f000071 c10d0054 800000b0  ..@9...q...T....
 1210 00080291 21008052 01000039 80000090  ....!..R...9....
 1220 00d047f9 01008012 010000b9 80000090  ..G.............
 1230 00b047f9 01008012 010000b9 80000090  ..G.............
 1240 00c047f9 410c8052 01000039 80000090  ..G.A..R...9....
 1250 00ac47f9 01048052 01000039 80000090  ..G....R...9....
 1260 00c847f9 01048052 01000039 80000090  ..G....R...9....
 1270 007847f9 01048052 01000039 80000090  .xG....R...9....
 1280 00d447f9 01000090 21601891 010000f9  ..G.....!`......
 1290 80000090 00cc47f9 1f0000b9 80000090  ......G.........
 12a0 00a447f9 01008012 010000b9 80000090  ..G.............
 12b0 009447f9 01000090 21801891 010000f9  ..G.....!.......
 12c0 80000090 00e447f9 1f0000b9 80000090  ......G.........
 12d0 00bc47f9 1f0000b9 80000090 00dc47f9  ..G...........G.
 12e0 1f0000b9 80000090 00ec47f9 01008012  ..........G.....
 12f0 010000b9 80000090 00b847f9 1f0000b9  ..........G.....
 1300 20008052 5fffff97 80000090 009c47f9   ..R_.........G.
 1310 1f0000f9 57ffff97 42ffff97 80000090  ....W...B.......
 1320 00e847f9 00004079 003c0013 00040011  ..G...@y.<......
 1330 013c0013 80000090 00e847f9 01000079  .<........G....y
 1340 34ffff97 80000090 00d847f9 00004079  4.........G...@y
 1350 003c0013 00040011 013c0013 80000090  .<.......<......
 1360 00d847f9 01000079 22ffff97 80000090  ..G....y".......
 1370 008847f9 00004079 003c0013 00040011  ..G...@y.<......
 1380 013c0013 80000090 008847f9 01000079  .<........G....y
 1390 14ffff97 80000090 008447f9 00004079  ..........G...@y
 13a0 003c0013 00040011 013c0013 80000090  .<.......<......
 13b0 008447f9 01000079 1f2003d5 02000014  ..G....y. ......
 13c0 1f2003d5 fd7bc1a8 c0035fd6 1f2003d5  . ...{...._.. ..
 13d0 fd7bbca9 fd030091 a02f00b9 a11300f9  .{......./......
 13e0 a20f00f9 00000090 00c01491 a01b00f9  ................
 13f0 80000090 00e047f9 a12f40b9 010000b9  ......G../@.....
 1400 80000090 00c447f9 a11340f9 010000f9  ......G...@.....
 1410 80000090 008c47f9 a10f40f9 010000f9  ......G...@.....
 1420 a0e30091 0bffff97 72ffff97 09000094  ........r.......
 1430 5cffff97 e3feff97 80000090 00b447f9  \.............G.
 1440 000040b9 fd7bc4a8 c0035fd6 1f2003d5  ..@..{...._.. ..
 1450 ff4300d1 60008052 e00f00b9 a0008052  .C..`..R.......R
 1460 e00b00b9 00018052 e00700b9 1f2003d5  .......R..... ..
 1470 ff430091 c0035fd6 fd7bbca9 fd030091  .C...._..{......
 1480 f35301a9 94000090 94823391 f55b02a9  .S........3..[..
 1490 95000090 b5623391 940215cb f603002a  .....b3........*
 14a0 f76303a9 f70301aa f80302aa 94fe4393  .c............C.
 14b0 b0feff97 740100b4 130080d2 1f2003d5  ....t........ ..
 14c0 a37a73f8 e20318aa 73060091 e10317aa  .zs.....s.......
 14d0 e003162a 60003fd6 9f0213eb 21ffff54  ...*`.?.....!..T
 14e0 f35341a9 f55b42a9 f76343a9 fd7bc4a8  .SA..[B..cC..{..
 14f0 c0035fd6 1f2003d5 c0035fd6           .._.. ...._.    
Contents of section .fini:
 14fc fd7bbfa9 fd030091 fd7bc1a8 c0035fd6  .{.......{...._.
Contents of section .rodata:
 1510 01000200 00000000 474e4154 20566572  ........GNAT Ver
 1520 73696f6e 3a20372e 342e3000 00000000  sion: 7.4.0.....
 1530 5f616461 5f616464 5f696e74 00000000  _ada_add_int....
 1540 fa8e6f1d 0e93dfb6 9524134f f1d22afd  ..o......$.O..*.
 1550 f50281b4 43e82762 425be677 059035a6  ....C.'bB[.w..5.
 1560 763d9b2e 9cd8e1f3 79164b5f a19d7876  v=......y.K_..xv
 1570 a9e647e9 2e55e541 b885774e 178362e9  ..G..U.A..wN..b.
 1580 17ad1db0 3d56cc09 e509ad30 38a474cd  ....=V.....08.t.
 1590 68f403f1 4611255a 1e7d8341 aa3059f9  h...F.%Z.}.A.0Y.
 15a0 ff48a487 0032482a 20f04ace b436851f  .H...2H* .J..6..
 15b0 dc483d84 fc6305aa 86a26c09 02882f6c  .H=..c....l.../l
 15c0 80bb3d75 178cdf39 8685c429 2595d49e  ..=u...9...)%...
 15d0 32adbd77 f210d26f 7af619dd 889d1f70  2..w...oz......p
 15e0 755e2420 d3b3009f 78c60ad6 17a5338c  u^$ ....x.....3.
 15f0 90799b6c 40e82197 91558a41 9c6731a8  .y.l@.!..U.A.g1.
 1600 63c32c63 6852b55a b6fde6ec 42da5ce3  c.,chR.Z....B.\.
 1610 4c8d7707 00000000 00000000 00000000  L.w.............
 1620 00                                   .               
Contents of section .eh_frame_hdr:
 1624 011b033b 38000000 06000000 7cfbffff  ...;8.......|...
 1634 50000000 ccfbffff 74000000 acfdffff  P.......t.......
 1644 98000000 2cfeffff bc000000 54feffff  ....,.......T...
 1654 d4000000 d4feffff 08010000           ............    
Contents of section .eh_frame:
 1660 10000000 00000000 017a5200 04781e01  .........zR..x..
 1670 1b0c1f00 20000000 18000000 24fbffff  .... .......$...
 1680 4c000000 00410e10 9d029e01 410d1d50  L....A......A..P
 1690 dedd0c1f 00000000 20000000 3c000000  ........ ...<...
 16a0 50fbffff dc010000 00410e10 9d029e01  P........A......
 16b0 410d1d02 74dedd0c 1f000000 20000000  A...t....... ...
 16c0 60000000 0cfdffff 7c000000 00410e40  `.......|....A.@
 16d0 9d089e07 410d1d5c dedd0c1f 00000000  ....A..\........
 16e0 14000000 84000000 68fdffff 28000000  ........h...(...
 16f0 00410e10 480e0000 30000000 9c000000  .A..H...0.......
 1700 78fdffff 7c000000 00410e40 9d089e07  x...|....A.@....
 1710 42930694 05439504 96034597 02980153  B....C....E....S
 1720 deddd7d8 d5d6d3d4 0e000000 10000000  ................
 1730 d0000000 c4fdffff 04000000 00000000  ................
 1740 00000000                             ....            
Contents of section .init_array:
 11cd8 98110000 00000000                    ........        
Contents of section .fini_array:
 11ce0 50110000 00000000                    P.......        
Contents of section .dynamic:
 11ce8 01000000 00000000 01000000 00000000  ................
 11cf8 01000000 00000000 6b030000 00000000  ........k.......
 11d08 01000000 00000000 79030000 00000000  ........y.......
 11d18 0c000000 00000000 700f0000 00000000  ........p.......
 11d28 0d000000 00000000 fc140000 00000000  ................
 11d38 19000000 00000000 d81c0100 00000000  ................
 11d48 1b000000 00000000 08000000 00000000  ................
 11d58 1a000000 00000000 e01c0100 00000000  ................
 11d68 1c000000 00000000 08000000 00000000  ................
 11d78 f5feff6f 00000000 98020000 00000000  ...o............
 11d88 05000000 00000000 c0060000 00000000  ................
 11d98 06000000 00000000 b8020000 00000000  ................
 11da8 0a000000 00000000 b5030000 00000000  ................
 11db8 0b000000 00000000 18000000 00000000  ................
 11dc8 15000000 00000000 00000000 00000000  ................
 11dd8 03000000 00000000 e81f0100 00000000  ................
 11de8 02000000 00000000 50010000 00000000  ........P.......
 11df8 14000000 00000000 07000000 00000000  ................
 11e08 17000000 00000000 200e0000 00000000  ........ .......
 11e18 07000000 00000000 f00a0000 00000000  ................
 11e28 08000000 00000000 30030000 00000000  ........0.......
 11e38 09000000 00000000 18000000 00000000  ................
 11e48 fbffff6f 00000000 00000008 00000000  ...o............
 11e58 feffff6f 00000000 d00a0000 00000000  ...o............
 11e68 ffffff6f 00000000 01000000 00000000  ...o............
 11e78 f0ffff6f 00000000 760a0000 00000000  ...o....v.......
 11e88 f9ffff6f 00000000 06000000 00000000  ...o............
 11e98 00000000 00000000 00000000 00000000  ................
 11ea8 00000000 00000000 00000000 00000000  ................
 11eb8 00000000 00000000 00000000 00000000  ................
 11ec8 00000000 00000000 00000000 00000000  ................
 11ed8 00000000 00000000 00000000 00000000  ................
Contents of section .got:
 11ee8 e81c0100 00000000 00000000 00000000  ................
 11ef8 f8140000 00000000 00000000 00000000  ................
 11f08 00000000 00000000 00000000 00000000  ................
 11f18 00000000 00000000 00000000 00000000  ................
 11f28 00000000 00000000 00000000 00000000  ................
 11f38 00000000 00000000 00000000 00000000  ................
 11f48 00000000 00000000 78140000 00000000  ........x.......
 11f58 00000000 00000000 00000000 00000000  ................
 11f68 00000000 00000000 00000000 00000000  ................
 11f78 00000000 00000000 00000000 00000000  ................
 11f88 00000000 00000000 00000000 00000000  ................
 11f98 00000000 00000000 00000000 00000000  ................
 11fa8 00000000 00000000 00000000 00000000  ................
 11fb8 00000000 00000000 00000000 00000000  ................
 11fc8 00000000 00000000 00000000 00000000  ................
 11fd8 00000000 00000000 d0130000 00000000  ................
Contents of section .got.plt:
 11fe8 00000000 00000000 00000000 00000000  ................
 11ff8 00000000 00000000 900f0000 00000000  ................
 12008 900f0000 00000000 900f0000 00000000  ................
 12018 900f0000 00000000 900f0000 00000000  ................
 12028 900f0000 00000000 900f0000 00000000  ................
 12038 900f0000 00000000 900f0000 00000000  ................
 12048 900f0000 00000000 900f0000 00000000  ................
 12058 900f0000 00000000 900f0000 00000000  ................
 12068 900f0000 00000000                    ........        
Contents of section .data:
 12070 00000000 00000000 78200100 00000000  ........x ......
 12080 000000                               ...             
Contents of section .comment:
 0000 4743433a 20284465 6269616e 20372e34  GCC: (Debian 7.4
 0010 2e302d32 2920372e 342e3000           .0-2) 7.4.0.    

Disassembly of section .init:

0000000000000f70 <_init>:
 f70:	a9bf7bfd 	stp	x29, x30, [sp, #-16]!
 f74:	910003fd 	mov	x29, sp
 f78:	94000054 	bl	10c8 <call_weak_fn>
 f7c:	a8c17bfd 	ldp	x29, x30, [sp], #16
 f80:	d65f03c0 	ret

Disassembly of section .plt:

0000000000000f90 <.plt>:
     f90:	a9bf7bf0 	stp	x16, x30, [sp, #-16]!
     f94:	b0000090 	adrp	x16, 11000 <__FRAME_END__+0xf8c0>
     f98:	f947fe11 	ldr	x17, [x16, #4088]
     f9c:	913fe210 	add	x16, x16, #0xff8
     fa0:	d61f0220 	br	x17
     fa4:	d503201f 	nop
     fa8:	d503201f 	nop
     fac:	d503201f 	nop

0000000000000fb0 <__libc_start_main@plt>:
     fb0:	d0000090 	adrp	x16, 12000 <__libc_start_main@GLIBC_2.17>
     fb4:	f9400211 	ldr	x17, [x16]
     fb8:	91000210 	add	x16, x16, #0x0
     fbc:	d61f0220 	br	x17

0000000000000fc0 <__gnat_finalize@plt>:
     fc0:	d0000090 	adrp	x16, 12000 <__libc_start_main@GLIBC_2.17>
     fc4:	f9400611 	ldr	x17, [x16, #8]
     fc8:	91002210 	add	x16, x16, #0x8
     fcc:	d61f0220 	br	x17

0000000000000fd0 <__gmon_start__@plt>:
     fd0:	d0000090 	adrp	x16, 12000 <__libc_start_main@GLIBC_2.17>
     fd4:	f9400a11 	ldr	x17, [x16, #16]
     fd8:	91004210 	add	x16, x16, #0x10
     fdc:	d61f0220 	br	x17

0000000000000fe0 <system__secondary_stack___elabb@plt>:
     fe0:	d0000090 	adrp	x16, 12000 <__libc_start_main@GLIBC_2.17>
     fe4:	f9400e11 	ldr	x17, [x16, #24]
     fe8:	91006210 	add	x16, x16, #0x18
     fec:	d61f0220 	br	x17

0000000000000ff0 <system__soft_links___elabb@plt>:
     ff0:	d0000090 	adrp	x16, 12000 <__libc_start_main@GLIBC_2.17>
     ff4:	f9401211 	ldr	x17, [x16, #32]
     ff8:	91008210 	add	x16, x16, #0x20
     ffc:	d61f0220 	br	x17

0000000000001000 <__cxa_finalize@plt>:
    1000:	b0000090 	adrp	x16, 12000 <__libc_start_main@GLIBC_2.17>
    1004:	f9401611 	ldr	x17, [x16, #40]
    1008:	9100a210 	add	x16, x16, #0x28
    100c:	d61f0220 	br	x17

0000000000001010 <system__exceptions___elabs@plt>:
    1010:	b0000090 	adrp	x16, 12000 <__libc_start_main@GLIBC_2.17>
    1014:	f9401a11 	ldr	x17, [x16, #48]
    1018:	9100c210 	add	x16, x16, #0x30
    101c:	d61f0220 	br	x17

0000000000001020 <system__exception_table___elabb@plt>:
    1020:	b0000090 	adrp	x16, 12000 <__libc_start_main@GLIBC_2.17>
    1024:	f9401e11 	ldr	x17, [x16, #56]
    1028:	9100e210 	add	x16, x16, #0x38
    102c:	d61f0220 	br	x17

0000000000001030 <abort@plt>:
    1030:	b0000090 	adrp	x16, 12000 <__libc_start_main@GLIBC_2.17>
    1034:	f9402211 	ldr	x17, [x16, #64]
    1038:	91010210 	add	x16, x16, #0x40
    103c:	d61f0220 	br	x17

0000000000001040 <system__standard_library__adafinal@plt>:
    1040:	b0000090 	adrp	x16, 12000 <__libc_start_main@GLIBC_2.17>
    1044:	f9402611 	ldr	x17, [x16, #72]
    1048:	91012210 	add	x16, x16, #0x48
    104c:	d61f0220 	br	x17

0000000000001050 <__gnat_initialize@plt>:
    1050:	b0000090 	adrp	x16, 12000 <__libc_start_main@GLIBC_2.17>
    1054:	f9402a11 	ldr	x17, [x16, #80]
    1058:	91014210 	add	x16, x16, #0x50
    105c:	d61f0220 	br	x17

0000000000001060 <__gnat_runtime_finalize@plt>:
    1060:	b0000090 	adrp	x16, 12000 <__libc_start_main@GLIBC_2.17>
    1064:	f9402e11 	ldr	x17, [x16, #88]
    1068:	91016210 	add	x16, x16, #0x58
    106c:	d61f0220 	br	x17

0000000000001070 <system__soft_links___elabs@plt>:
    1070:	b0000090 	adrp	x16, 12000 <__libc_start_main@GLIBC_2.17>
    1074:	f9403211 	ldr	x17, [x16, #96]
    1078:	91018210 	add	x16, x16, #0x60
    107c:	d61f0220 	br	x17

0000000000001080 <__gnat_runtime_initialize@plt>:
    1080:	b0000090 	adrp	x16, 12000 <__libc_start_main@GLIBC_2.17>
    1084:	f9403611 	ldr	x17, [x16, #104]
    1088:	9101a210 	add	x16, x16, #0x68
    108c:	d61f0220 	br	x17

Disassembly of section .text:

0000000000001090 <_start>:
    1090:	d280001d 	mov	x29, #0x0                   	// #0
    1094:	d280001e 	mov	x30, #0x0                   	// #0
    1098:	aa0003e5 	mov	x5, x0
    109c:	f94003e1 	ldr	x1, [sp]
    10a0:	910023e2 	add	x2, sp, #0x8
    10a4:	910003e6 	mov	x6, sp
    10a8:	90000080 	adrp	x0, 11000 <__FRAME_END__+0xf8c0>
    10ac:	f947f000 	ldr	x0, [x0, #4064]
    10b0:	90000083 	adrp	x3, 11000 <__FRAME_END__+0xf8c0>
    10b4:	f947a863 	ldr	x3, [x3, #3920]
    10b8:	90000084 	adrp	x4, 11000 <__FRAME_END__+0xf8c0>
    10bc:	f9477c84 	ldr	x4, [x4, #3832]
    10c0:	97ffffbc 	bl	fb0 <__libc_start_main@plt>
    10c4:	97ffffdb 	bl	1030 <abort@plt>

00000000000010c8 <call_weak_fn>:
    10c8:	90000080 	adrp	x0, 11000 <__FRAME_END__+0xf8c0>
    10cc:	f9478000 	ldr	x0, [x0, #3840]
    10d0:	b4000040 	cbz	x0, 10d8 <call_weak_fn+0x10>
    10d4:	17ffffbf 	b	fd0 <__gmon_start__@plt>
    10d8:	d65f03c0 	ret
    10dc:	d503201f 	nop

00000000000010e0 <deregister_tm_clones>:
    10e0:	b0000080 	adrp	x0, 12000 <__libc_start_main@GLIBC_2.17>
    10e4:	91022000 	add	x0, x0, #0x88
    10e8:	b0000081 	adrp	x1, 12000 <__libc_start_main@GLIBC_2.17>
    10ec:	91022021 	add	x1, x1, #0x88
    10f0:	eb00003f 	cmp	x1, x0
    10f4:	540000a0 	b.eq	1108 <deregister_tm_clones+0x28>  // b.none
    10f8:	90000081 	adrp	x1, 11000 <__FRAME_END__+0xf8c0>
    10fc:	f9479821 	ldr	x1, [x1, #3888]
    1100:	b4000041 	cbz	x1, 1108 <deregister_tm_clones+0x28>
    1104:	d61f0020 	br	x1
    1108:	d65f03c0 	ret
    110c:	d503201f 	nop

0000000000001110 <register_tm_clones>:
    1110:	b0000080 	adrp	x0, 12000 <__libc_start_main@GLIBC_2.17>
    1114:	91022000 	add	x0, x0, #0x88
    1118:	b0000081 	adrp	x1, 12000 <__libc_start_main@GLIBC_2.17>
    111c:	91022021 	add	x1, x1, #0x88
    1120:	cb000021 	sub	x1, x1, x0
    1124:	9343fc21 	asr	x1, x1, #3
    1128:	8b41fc21 	add	x1, x1, x1, lsr #63
    112c:	9341fc21 	asr	x1, x1, #1
    1130:	b40000c1 	cbz	x1, 1148 <register_tm_clones+0x38>
    1134:	90000082 	adrp	x2, 11000 <__FRAME_END__+0xf8c0>
    1138:	f947a042 	ldr	x2, [x2, #3904]
    113c:	b4000062 	cbz	x2, 1148 <register_tm_clones+0x38>
    1140:	d61f0040 	br	x2
    1144:	d503201f 	nop
    1148:	d65f03c0 	ret
    114c:	d503201f 	nop

0000000000001150 <__do_global_dtors_aux>:
    1150:	a9be7bfd 	stp	x29, x30, [sp, #-32]!
    1154:	910003fd 	mov	x29, sp
    1158:	f9000bf3 	str	x19, [sp, #16]
    115c:	b0000093 	adrp	x19, 12000 <__libc_start_main@GLIBC_2.17>
    1160:	39420e60 	ldrb	w0, [x19, #131]
    1164:	35000140 	cbnz	w0, 118c <__do_global_dtors_aux+0x3c>
    1168:	90000080 	adrp	x0, 11000 <__FRAME_END__+0xf8c0>
    116c:	f9479000 	ldr	x0, [x0, #3872]
    1170:	b4000080 	cbz	x0, 1180 <__do_global_dtors_aux+0x30>
    1174:	b0000080 	adrp	x0, 12000 <__libc_start_main@GLIBC_2.17>
    1178:	f9403c00 	ldr	x0, [x0, #120]
    117c:	97ffffa1 	bl	1000 <__cxa_finalize@plt>
    1180:	97ffffd8 	bl	10e0 <deregister_tm_clones>
    1184:	52800020 	mov	w0, #0x1                   	// #1
    1188:	39020e60 	strb	w0, [x19, #131]
    118c:	f9400bf3 	ldr	x19, [sp, #16]
    1190:	a8c27bfd 	ldp	x29, x30, [sp], #32
    1194:	d65f03c0 	ret

0000000000001198 <frame_dummy>:
    1198:	17ffffde 	b	1110 <register_tm_clones>
    119c:	d503201f 	nop

00000000000011a0 <adafinal>:
    11a0:	a9bf7bfd 	stp	x29, x30, [sp, #-16]!
    11a4:	910003fd 	mov	x29, sp
    11a8:	b0000080 	adrp	x0, 12000 <__libc_start_main@GLIBC_2.17>
    11ac:	91020800 	add	x0, x0, #0x82
    11b0:	39400000 	ldrb	w0, [x0]
    11b4:	52000000 	eor	w0, w0, #0x1
    11b8:	12001c00 	and	w0, w0, #0xff
    11bc:	7100001f 	cmp	w0, #0x0
    11c0:	54000101 	b.ne	11e0 <adafinal+0x40>  // b.any
    11c4:	b0000080 	adrp	x0, 12000 <__libc_start_main@GLIBC_2.17>
    11c8:	91020800 	add	x0, x0, #0x82
    11cc:	3900001f 	strb	wzr, [x0]
    11d0:	97ffffa4 	bl	1060 <__gnat_runtime_finalize@plt>
    11d4:	97ffff9b 	bl	1040 <system__standard_library__adafinal@plt>
    11d8:	d503201f 	nop
    11dc:	14000002 	b	11e4 <adafinal+0x44>
    11e0:	d503201f 	nop
    11e4:	a8c17bfd 	ldp	x29, x30, [sp], #16
    11e8:	d65f03c0 	ret
    11ec:	d503201f 	nop

00000000000011f0 <adainit>:
    11f0:	a9bf7bfd 	stp	x29, x30, [sp, #-16]!
    11f4:	910003fd 	mov	x29, sp
    11f8:	b0000080 	adrp	x0, 12000 <__libc_start_main@GLIBC_2.17>
    11fc:	91020800 	add	x0, x0, #0x82
    1200:	39400000 	ldrb	w0, [x0]
    1204:	7100001f 	cmp	w0, #0x0
    1208:	54000dc1 	b.ne	13c0 <adainit+0x1d0>  // b.any
    120c:	b0000080 	adrp	x0, 12000 <__libc_start_main@GLIBC_2.17>
    1210:	91020800 	add	x0, x0, #0x82
    1214:	52800021 	mov	w1, #0x1                   	// #1
    1218:	39000001 	strb	w1, [x0]
    121c:	90000080 	adrp	x0, 11000 <__FRAME_END__+0xf8c0>
    1220:	f947d000 	ldr	x0, [x0, #4000]
    1224:	12800001 	mov	w1, #0xffffffff            	// #-1
    1228:	b9000001 	str	w1, [x0]
    122c:	90000080 	adrp	x0, 11000 <__FRAME_END__+0xf8c0>
    1230:	f947b000 	ldr	x0, [x0, #3936]
    1234:	12800001 	mov	w1, #0xffffffff            	// #-1
    1238:	b9000001 	str	w1, [x0]
    123c:	90000080 	adrp	x0, 11000 <__FRAME_END__+0xf8c0>
    1240:	f947c000 	ldr	x0, [x0, #3968]
    1244:	52800c41 	mov	w1, #0x62                  	// #98
    1248:	39000001 	strb	w1, [x0]
    124c:	90000080 	adrp	x0, 11000 <__FRAME_END__+0xf8c0>
    1250:	f947ac00 	ldr	x0, [x0, #3928]
    1254:	52800401 	mov	w1, #0x20                  	// #32
    1258:	39000001 	strb	w1, [x0]
    125c:	90000080 	adrp	x0, 11000 <__FRAME_END__+0xf8c0>
    1260:	f947c800 	ldr	x0, [x0, #3984]
    1264:	52800401 	mov	w1, #0x20                  	// #32
    1268:	39000001 	strb	w1, [x0]
    126c:	90000080 	adrp	x0, 11000 <__FRAME_END__+0xf8c0>
    1270:	f9477800 	ldr	x0, [x0, #3824]
    1274:	52800401 	mov	w1, #0x20                  	// #32
    1278:	39000001 	strb	w1, [x0]
    127c:	90000080 	adrp	x0, 11000 <__FRAME_END__+0xf8c0>
    1280:	f947d400 	ldr	x0, [x0, #4008]
    1284:	90000001 	adrp	x1, 1000 <__cxa_finalize@plt>
    1288:	91186021 	add	x1, x1, #0x618
    128c:	f9000001 	str	x1, [x0]
    1290:	90000080 	adrp	x0, 11000 <__FRAME_END__+0xf8c0>
    1294:	f947cc00 	ldr	x0, [x0, #3992]
    1298:	b900001f 	str	wzr, [x0]
    129c:	90000080 	adrp	x0, 11000 <__FRAME_END__+0xf8c0>
    12a0:	f947a400 	ldr	x0, [x0, #3912]
    12a4:	12800001 	mov	w1, #0xffffffff            	// #-1
    12a8:	b9000001 	str	w1, [x0]
    12ac:	90000080 	adrp	x0, 11000 <__FRAME_END__+0xf8c0>
    12b0:	f9479400 	ldr	x0, [x0, #3880]
    12b4:	90000001 	adrp	x1, 1000 <__cxa_finalize@plt>
    12b8:	91188021 	add	x1, x1, #0x620
    12bc:	f9000001 	str	x1, [x0]
    12c0:	90000080 	adrp	x0, 11000 <__FRAME_END__+0xf8c0>
    12c4:	f947e400 	ldr	x0, [x0, #4040]
    12c8:	b900001f 	str	wzr, [x0]
    12cc:	90000080 	adrp	x0, 11000 <__FRAME_END__+0xf8c0>
    12d0:	f947bc00 	ldr	x0, [x0, #3960]
    12d4:	b900001f 	str	wzr, [x0]
    12d8:	90000080 	adrp	x0, 11000 <__FRAME_END__+0xf8c0>
    12dc:	f947dc00 	ldr	x0, [x0, #4024]
    12e0:	b900001f 	str	wzr, [x0]
    12e4:	90000080 	adrp	x0, 11000 <__FRAME_END__+0xf8c0>
    12e8:	f947ec00 	ldr	x0, [x0, #4056]
    12ec:	12800001 	mov	w1, #0xffffffff            	// #-1
    12f0:	b9000001 	str	w1, [x0]
    12f4:	90000080 	adrp	x0, 11000 <__FRAME_END__+0xf8c0>
    12f8:	f947b800 	ldr	x0, [x0, #3952]
    12fc:	b900001f 	str	wzr, [x0]
    1300:	52800020 	mov	w0, #0x1                   	// #1
    1304:	97ffff5f 	bl	1080 <__gnat_runtime_initialize@plt>
    1308:	90000080 	adrp	x0, 11000 <__FRAME_END__+0xf8c0>
    130c:	f9479c00 	ldr	x0, [x0, #3896]
    1310:	f900001f 	str	xzr, [x0]
    1314:	97ffff57 	bl	1070 <system__soft_links___elabs@plt>
    1318:	97ffff42 	bl	1020 <system__exception_table___elabb@plt>
    131c:	90000080 	adrp	x0, 11000 <__FRAME_END__+0xf8c0>
    1320:	f947e800 	ldr	x0, [x0, #4048]
    1324:	79400000 	ldrh	w0, [x0]
    1328:	13003c00 	sxth	w0, w0
    132c:	11000400 	add	w0, w0, #0x1
    1330:	13003c01 	sxth	w1, w0
    1334:	90000080 	adrp	x0, 11000 <__FRAME_END__+0xf8c0>
    1338:	f947e800 	ldr	x0, [x0, #4048]
    133c:	79000001 	strh	w1, [x0]
    1340:	97ffff34 	bl	1010 <system__exceptions___elabs@plt>
    1344:	90000080 	adrp	x0, 11000 <__FRAME_END__+0xf8c0>
    1348:	f947d800 	ldr	x0, [x0, #4016]
    134c:	79400000 	ldrh	w0, [x0]
    1350:	13003c00 	sxth	w0, w0
    1354:	11000400 	add	w0, w0, #0x1
    1358:	13003c01 	sxth	w1, w0
    135c:	90000080 	adrp	x0, 11000 <__FRAME_END__+0xf8c0>
    1360:	f947d800 	ldr	x0, [x0, #4016]
    1364:	79000001 	strh	w1, [x0]
    1368:	97ffff22 	bl	ff0 <system__soft_links___elabb@plt>
    136c:	90000080 	adrp	x0, 11000 <__FRAME_END__+0xf8c0>
    1370:	f9478800 	ldr	x0, [x0, #3856]
    1374:	79400000 	ldrh	w0, [x0]
    1378:	13003c00 	sxth	w0, w0
    137c:	11000400 	add	w0, w0, #0x1
    1380:	13003c01 	sxth	w1, w0
    1384:	90000080 	adrp	x0, 11000 <__FRAME_END__+0xf8c0>
    1388:	f9478800 	ldr	x0, [x0, #3856]
    138c:	79000001 	strh	w1, [x0]
    1390:	97ffff14 	bl	fe0 <system__secondary_stack___elabb@plt>
    1394:	90000080 	adrp	x0, 11000 <__FRAME_END__+0xf8c0>
    1398:	f9478400 	ldr	x0, [x0, #3848]
    139c:	79400000 	ldrh	w0, [x0]
    13a0:	13003c00 	sxth	w0, w0
    13a4:	11000400 	add	w0, w0, #0x1
    13a8:	13003c01 	sxth	w1, w0
    13ac:	90000080 	adrp	x0, 11000 <__FRAME_END__+0xf8c0>
    13b0:	f9478400 	ldr	x0, [x0, #3848]
    13b4:	79000001 	strh	w1, [x0]
    13b8:	d503201f 	nop
    13bc:	14000002 	b	13c4 <adainit+0x1d4>
    13c0:	d503201f 	nop
    13c4:	a8c17bfd 	ldp	x29, x30, [sp], #16
    13c8:	d65f03c0 	ret
    13cc:	d503201f 	nop

00000000000013d0 <main>:
    13d0:	a9bc7bfd 	stp	x29, x30, [sp, #-64]!
    13d4:	910003fd 	mov	x29, sp
    13d8:	b9002fa0 	str	w0, [x29, #44]
    13dc:	f90013a1 	str	x1, [x29, #32]
    13e0:	f9000fa2 	str	x2, [x29, #24]
    13e4:	90000000 	adrp	x0, 1000 <__cxa_finalize@plt>
    13e8:	9114c000 	add	x0, x0, #0x530
    13ec:	f9001ba0 	str	x0, [x29, #48]
    13f0:	90000080 	adrp	x0, 11000 <__FRAME_END__+0xf8c0>
    13f4:	f947e000 	ldr	x0, [x0, #4032]
    13f8:	b9402fa1 	ldr	w1, [x29, #44]
    13fc:	b9000001 	str	w1, [x0]
    1400:	90000080 	adrp	x0, 11000 <__FRAME_END__+0xf8c0>
    1404:	f947c400 	ldr	x0, [x0, #3976]
    1408:	f94013a1 	ldr	x1, [x29, #32]
    140c:	f9000001 	str	x1, [x0]
    1410:	90000080 	adrp	x0, 11000 <__FRAME_END__+0xf8c0>
    1414:	f9478c00 	ldr	x0, [x0, #3864]
    1418:	f9400fa1 	ldr	x1, [x29, #24]
    141c:	f9000001 	str	x1, [x0]
    1420:	9100e3a0 	add	x0, x29, #0x38
    1424:	97ffff0b 	bl	1050 <__gnat_initialize@plt>
    1428:	97ffff72 	bl	11f0 <adainit>
    142c:	94000009 	bl	1450 <_ada_add_int>
    1430:	97ffff5c 	bl	11a0 <adafinal>
    1434:	97fffee3 	bl	fc0 <__gnat_finalize@plt>
    1438:	90000080 	adrp	x0, 11000 <__FRAME_END__+0xf8c0>
    143c:	f947b400 	ldr	x0, [x0, #3944]
    1440:	b9400000 	ldr	w0, [x0]
    1444:	a8c47bfd 	ldp	x29, x30, [sp], #64
    1448:	d65f03c0 	ret
    144c:	d503201f 	nop

0000000000001450 <_ada_add_int>:
    1450:	d10043ff 	sub	sp, sp, #0x10
    1454:	52800060 	mov	w0, #0x3                   	// #3
    1458:	b9000fe0 	str	w0, [sp, #12]
    145c:	528000a0 	mov	w0, #0x5                   	// #5
    1460:	b9000be0 	str	w0, [sp, #8]
    1464:	52800100 	mov	w0, #0x8                   	// #8
    1468:	b90007e0 	str	w0, [sp, #4]
    146c:	d503201f 	nop
    1470:	910043ff 	add	sp, sp, #0x10
    1474:	d65f03c0 	ret

0000000000001478 <__libc_csu_init>:
    1478:	a9bc7bfd 	stp	x29, x30, [sp, #-64]!
    147c:	910003fd 	mov	x29, sp
    1480:	a90153f3 	stp	x19, x20, [sp, #16]
    1484:	90000094 	adrp	x20, 11000 <__FRAME_END__+0xf8c0>
    1488:	91338294 	add	x20, x20, #0xce0
    148c:	a9025bf5 	stp	x21, x22, [sp, #32]
    1490:	90000095 	adrp	x21, 11000 <__FRAME_END__+0xf8c0>
    1494:	913362b5 	add	x21, x21, #0xcd8
    1498:	cb150294 	sub	x20, x20, x21
    149c:	2a0003f6 	mov	w22, w0
    14a0:	a90363f7 	stp	x23, x24, [sp, #48]
    14a4:	aa0103f7 	mov	x23, x1
    14a8:	aa0203f8 	mov	x24, x2
    14ac:	9343fe94 	asr	x20, x20, #3
    14b0:	97fffeb0 	bl	f70 <_init>
    14b4:	b4000174 	cbz	x20, 14e0 <__libc_csu_init+0x68>
    14b8:	d2800013 	mov	x19, #0x0                   	// #0
    14bc:	d503201f 	nop
    14c0:	f8737aa3 	ldr	x3, [x21, x19, lsl #3]
    14c4:	aa1803e2 	mov	x2, x24
    14c8:	91000673 	add	x19, x19, #0x1
    14cc:	aa1703e1 	mov	x1, x23
    14d0:	2a1603e0 	mov	w0, w22
    14d4:	d63f0060 	blr	x3
    14d8:	eb13029f 	cmp	x20, x19
    14dc:	54ffff21 	b.ne	14c0 <__libc_csu_init+0x48>  // b.any
    14e0:	a94153f3 	ldp	x19, x20, [sp, #16]
    14e4:	a9425bf5 	ldp	x21, x22, [sp, #32]
    14e8:	a94363f7 	ldp	x23, x24, [sp, #48]
    14ec:	a8c47bfd 	ldp	x29, x30, [sp], #64
    14f0:	d65f03c0 	ret
    14f4:	d503201f 	nop

00000000000014f8 <__libc_csu_fini>:
    14f8:	d65f03c0 	ret

Disassembly of section .fini:

00000000000014fc <_fini>:
    14fc:	a9bf7bfd 	stp	x29, x30, [sp, #-16]!
    1500:	910003fd 	mov	x29, sp
    1504:	a8c17bfd 	ldp	x29, x30, [sp], #16
    1508:	d65f03c0 	ret
