
div_int.o:     file format elf64-littleaarch64
div_int.o
architecture: aarch64, flags 0x00000011:
HAS_RELOC, HAS_SYMS
start address 0x0000000000000000
private flags = 0:

Sections:
Idx Name          Size      VMA               LMA               File off  Algn
  0 .group        0000000c  0000000000000000  0000000000000000  00000040  2**2
                  CONTENTS, READONLY, GROUP, LINK_ONCE_DISCARD
  1 .group        0000000c  0000000000000000  0000000000000000  0000004c  2**2
                  CONTENTS, READONLY, GROUP, LINK_ONCE_DISCARD
  2 .group        0000000c  0000000000000000  0000000000000000  00000058  2**2
                  CONTENTS, READONLY, GROUP, LINK_ONCE_DISCARD
  3 .group        0000000c  0000000000000000  0000000000000000  00000064  2**2
                  CONTENTS, READONLY, GROUP, LINK_ONCE_DISCARD
  4 .group        0000000c  0000000000000000  0000000000000000  00000070  2**2
                  CONTENTS, READONLY, GROUP, LINK_ONCE_DISCARD
  5 .group        0000000c  0000000000000000  0000000000000000  0000007c  2**2
                  CONTENTS, READONLY, GROUP, LINK_ONCE_DISCARD
  6 .group        0000000c  0000000000000000  0000000000000000  00000088  2**2
                  CONTENTS, READONLY, GROUP, LINK_ONCE_DISCARD
  7 .group        0000000c  0000000000000000  0000000000000000  00000094  2**2
                  CONTENTS, READONLY, GROUP, LINK_ONCE_DISCARD
  8 .group        0000000c  0000000000000000  0000000000000000  000000a0  2**2
                  CONTENTS, READONLY, GROUP, LINK_ONCE_DISCARD
  9 .group        0000000c  0000000000000000  0000000000000000  000000ac  2**2
                  CONTENTS, READONLY, GROUP, LINK_ONCE_DISCARD
 10 .group        0000000c  0000000000000000  0000000000000000  000000b8  2**2
                  CONTENTS, READONLY, GROUP, LINK_ONCE_DISCARD
 11 .group        0000000c  0000000000000000  0000000000000000  000000c4  2**2
                  CONTENTS, READONLY, GROUP, LINK_ONCE_DISCARD
 12 .group        0000000c  0000000000000000  0000000000000000  000000d0  2**2
                  CONTENTS, READONLY, GROUP, LINK_ONCE_DISCARD
 13 .group        0000000c  0000000000000000  0000000000000000  000000dc  2**2
                  CONTENTS, READONLY, GROUP, LINK_ONCE_DISCARD
 14 .group        0000000c  0000000000000000  0000000000000000  000000e8  2**2
                  CONTENTS, READONLY, GROUP, LINK_ONCE_DISCARD
 15 .group        0000000c  0000000000000000  0000000000000000  000000f4  2**2
                  CONTENTS, READONLY, GROUP, LINK_ONCE_DISCARD
 16 .group        0000000c  0000000000000000  0000000000000000  00000100  2**2
                  CONTENTS, READONLY, GROUP, LINK_ONCE_DISCARD
 17 .group        0000000c  0000000000000000  0000000000000000  0000010c  2**2
                  CONTENTS, READONLY, GROUP, LINK_ONCE_DISCARD
 18 .text         00000038  0000000000000000  0000000000000000  00000118  2**2
                  CONTENTS, ALLOC, LOAD, READONLY, CODE
 19 .data         00000000  0000000000000000  0000000000000000  00000150  2**0
                  CONTENTS, ALLOC, LOAD, DATA
 20 .bss          00000000  0000000000000000  0000000000000000  00000150  2**0
                  ALLOC
 21 .debug_info   00000355  0000000000000000  0000000000000000  00000150  2**0
                  CONTENTS, RELOC, READONLY, DEBUGGING
 22 .debug_abbrev 000000f5  0000000000000000  0000000000000000  000004a5  2**0
                  CONTENTS, READONLY, DEBUGGING
 23 .debug_aranges 00000030  0000000000000000  0000000000000000  0000059a  2**0
                  CONTENTS, RELOC, READONLY, DEBUGGING
 24 .debug_macro  0000010a  0000000000000000  0000000000000000  000005ca  2**0
                  CONTENTS, RELOC, READONLY, DEBUGGING
 25 .debug_macro  00000922  0000000000000000  0000000000000000  000006d4  2**0
                  CONTENTS, RELOC, READONLY, DEBUGGING
 26 .debug_macro  0000001c  0000000000000000  0000000000000000  00000ff6  2**0
                  CONTENTS, RELOC, READONLY, DEBUGGING
 27 .debug_macro  00000010  0000000000000000  0000000000000000  00001012  2**0
                  CONTENTS, RELOC, READONLY, DEBUGGING
 28 .debug_macro  0000019e  0000000000000000  0000000000000000  00001022  2**0
                  CONTENTS, RELOC, READONLY, DEBUGGING
 29 .debug_macro  00000171  0000000000000000  0000000000000000  000011c0  2**0
                  CONTENTS, RELOC, READONLY, DEBUGGING
 30 .debug_macro  00000010  0000000000000000  0000000000000000  00001331  2**0
                  CONTENTS, RELOC, READONLY, DEBUGGING
 31 .debug_macro  0000004a  0000000000000000  0000000000000000  00001341  2**0
                  CONTENTS, RELOC, READONLY, DEBUGGING
 32 .debug_macro  00000082  0000000000000000  0000000000000000  0000138b  2**0
                  CONTENTS, RELOC, READONLY, DEBUGGING
 33 .debug_macro  00000034  0000000000000000  0000000000000000  0000140d  2**0
                  CONTENTS, RELOC, READONLY, DEBUGGING
 34 .debug_macro  00000010  0000000000000000  0000000000000000  00001441  2**0
                  CONTENTS, RELOC, READONLY, DEBUGGING
 35 .debug_macro  00000097  0000000000000000  0000000000000000  00001451  2**0
                  CONTENTS, RELOC, READONLY, DEBUGGING
 36 .debug_macro  00000010  0000000000000000  0000000000000000  000014e8  2**0
                  CONTENTS, RELOC, READONLY, DEBUGGING
 37 .debug_macro  00000066  0000000000000000  0000000000000000  000014f8  2**0
                  CONTENTS, RELOC, READONLY, DEBUGGING
 38 .debug_macro  000000ee  0000000000000000  0000000000000000  0000155e  2**0
                  CONTENTS, RELOC, READONLY, DEBUGGING
 39 .debug_macro  00000034  0000000000000000  0000000000000000  0000164c  2**0
                  CONTENTS, RELOC, READONLY, DEBUGGING
 40 .debug_macro  0000004c  0000000000000000  0000000000000000  00001680  2**0
                  CONTENTS, RELOC, READONLY, DEBUGGING
 41 .debug_macro  0000002e  0000000000000000  0000000000000000  000016cc  2**0
                  CONTENTS, RELOC, READONLY, DEBUGGING
 42 .debug_macro  00000019  0000000000000000  0000000000000000  000016fa  2**0
                  CONTENTS, RELOC, READONLY, DEBUGGING
 43 .debug_line   0000023d  0000000000000000  0000000000000000  00001713  2**0
                  CONTENTS, RELOC, READONLY, DEBUGGING
 44 .debug_str    00004bf7  0000000000000000  0000000000000000  00001950  2**0
                  CONTENTS, READONLY, DEBUGGING
 45 .comment      0000001e  0000000000000000  0000000000000000  00006547  2**0
                  CONTENTS, READONLY
 46 .note.GNU-stack 00000000  0000000000000000  0000000000000000  00006565  2**0
                  CONTENTS, READONLY
 47 .eh_frame     00000030  0000000000000000  0000000000000000  00006568  2**3
                  CONTENTS, ALLOC, LOAD, RELOC, READONLY, DATA
SYMBOL TABLE:
0000000000000000 l    df *ABS*	0000000000000000 div_int.c
0000000000000000 l    d  .text	0000000000000000 .text
0000000000000000 l    d  .data	0000000000000000 .data
0000000000000000 l    d  .bss	0000000000000000 .bss
0000000000000000 l    d  .debug_info	0000000000000000 .debug_info
0000000000000000 l    d  .debug_abbrev	0000000000000000 .debug_abbrev
0000000000000000 l    d  .debug_aranges	0000000000000000 .debug_aranges
0000000000000000 l    d  .debug_macro	0000000000000000 .debug_macro
0000000000000000 l    d  .debug_line	0000000000000000 .debug_line
0000000000000000 l    d  .debug_str	0000000000000000 .debug_str
0000000000000000 l    d  .note.GNU-stack	0000000000000000 .note.GNU-stack
0000000000000000 l    d  .debug_macro	0000000000000000 .debug_macro
0000000000000000 l    d  .debug_macro	0000000000000000 .debug_macro
0000000000000000 l    d  .debug_macro	0000000000000000 .debug_macro
0000000000000000 l    d  .debug_macro	0000000000000000 .debug_macro
0000000000000000 l    d  .debug_macro	0000000000000000 .debug_macro
0000000000000000 l    d  .debug_macro	0000000000000000 .debug_macro
0000000000000000 l    d  .debug_macro	0000000000000000 .debug_macro
0000000000000000 l    d  .debug_macro	0000000000000000 .debug_macro
0000000000000000 l    d  .debug_macro	0000000000000000 .debug_macro
0000000000000000 l    d  .debug_macro	0000000000000000 .debug_macro
0000000000000000 l    d  .debug_macro	0000000000000000 .debug_macro
0000000000000000 l    d  .debug_macro	0000000000000000 .debug_macro
0000000000000000 l    d  .debug_macro	0000000000000000 .debug_macro
0000000000000000 l    d  .debug_macro	0000000000000000 .debug_macro
0000000000000000 l    d  .debug_macro	0000000000000000 .debug_macro
0000000000000000 l    d  .debug_macro	0000000000000000 .debug_macro
0000000000000000 l    d  .debug_macro	0000000000000000 .debug_macro
0000000000000000 l    d  .debug_macro	0000000000000000 .debug_macro
0000000000000000 l    d  .eh_frame	0000000000000000 .eh_frame
0000000000000000 l       .group	0000000000000000 wm4.0.3e3438ff6d69db311251f360da9c9545
0000000000000000 l       .group	0000000000000000 wm4.stdcpredef.h.19.8dc41bed5d9037ff9622e015fb5f0ce3
0000000000000000 l       .group	0000000000000000 wm4.stdio.h.24.5c1b97eef3c86b7a2549420f69f4f128
0000000000000000 l       .group	0000000000000000 wm4.features.h.19.d60c641d219fd3f718e48c46912b670c
0000000000000000 l       .group	0000000000000000 wm4.cdefs.h.19.f182768b6019883e9a7dbcd856e9540f
0000000000000000 l       .group	0000000000000000 wm4.wordsize.h.21.0d8a5704ba3489361a6fe9eac6e1ef6d
0000000000000000 l       .group	0000000000000000 wm4.cdefs.h.465.e86fa8fe1993ad87024a3b93c5a3b1a8
0000000000000000 l       .group	0000000000000000 wm4.stubslp64.h.10.f17cb59cf4fd01a8dcfe0a40811df641
0000000000000000 l       .group	0000000000000000 wm4.libcheaderstart.h.37.59f0e5f6a6103fb6c1d4abef1aacf8fb
0000000000000000 l       .group	0000000000000000 wm4.stdio.h.31.e39a94e203ad4e1d978c0fc68ce016ee
0000000000000000 l       .group	0000000000000000 wm4.stddef.h.187.2ff233552538c6ff9b8575ca8ea52cb3
0000000000000000 l       .group	0000000000000000 wm4.stdarg.h.34.3a23a216c0c293b3d2ea2e89281481e6
0000000000000000 l       .group	0000000000000000 wm4.types.h.108.df524432123d742a55477fc8c4446826
0000000000000000 l       .group	0000000000000000 wm4.typesizes.h.25.cffc9a7ff8f99351bd3ee2c7bb8e097e
0000000000000000 l       .group	0000000000000000 wm4.struct_FILE.h.19.0888ac70396abe1031c03d393554032f
0000000000000000 l       .group	0000000000000000 wm4.stdio.h.53.78a7f18f3bc87ded52f05aa6f6a64310
0000000000000000 l       .group	0000000000000000 wm4.stdio_lim.h.19.e4b00b560d878dcfbc6635b3406640c5
0000000000000000 l       .group	0000000000000000 wm4.stdio.h.141.d7a290e19ca077c9e4aa7c43ede17a73
0000000000000000 l    d  .comment	0000000000000000 .comment
0000000000000000 l    d  .group	0000000000000000 .group
0000000000000000 l    d  .group	0000000000000000 .group
0000000000000000 l    d  .group	0000000000000000 .group
0000000000000000 l    d  .group	0000000000000000 .group
0000000000000000 l    d  .group	0000000000000000 .group
0000000000000000 l    d  .group	0000000000000000 .group
0000000000000000 l    d  .group	0000000000000000 .group
0000000000000000 l    d  .group	0000000000000000 .group
0000000000000000 l    d  .group	0000000000000000 .group
0000000000000000 l    d  .group	0000000000000000 .group
0000000000000000 l    d  .group	0000000000000000 .group
0000000000000000 l    d  .group	0000000000000000 .group
0000000000000000 l    d  .group	0000000000000000 .group
0000000000000000 l    d  .group	0000000000000000 .group
0000000000000000 l    d  .group	0000000000000000 .group
0000000000000000 l    d  .group	0000000000000000 .group
0000000000000000 l    d  .group	0000000000000000 .group
0000000000000000 l    d  .group	0000000000000000 .group
0000000000000000 g     F .text	0000000000000038 main



Disassembly of section .group:

0000000000000000 <wm4.0.3e3438ff6d69db311251f360da9c9545>:
   0:	00000001 	.inst	0x00000001 ; undefined
#include <stdio.h>

int main(int argc, char * argv[])
{
   4:	0000001d 	.inst	0x0000001d ; undefined
   8:	0000001e 	.inst	0x0000001e ; undefined

Disassembly of section .group:

0000000000000000 <wm4.stdcpredef.h.19.8dc41bed5d9037ff9622e015fb5f0ce3>:
   0:	00000001 	.inst	0x00000001 ; undefined
   4:	0000001f 	.inst	0x0000001f ; undefined
   8:	00000020 	.inst	0x00000020 ; undefined

Disassembly of section .group:

0000000000000000 <wm4.stdio.h.24.5c1b97eef3c86b7a2549420f69f4f128>:
   0:	00000001 	.inst	0x00000001 ; undefined
   4:	00000021 	.inst	0x00000021 ; undefined
   8:	00000022 	.inst	0x00000022 ; undefined

Disassembly of section .group:

0000000000000000 <wm4.features.h.19.d60c641d219fd3f718e48c46912b670c>:
   0:	00000001 	.inst	0x00000001 ; undefined
   4:	00000023 	.inst	0x00000023 ; undefined
   8:	00000024 	.inst	0x00000024 ; undefined

Disassembly of section .group:

0000000000000000 <wm4.cdefs.h.19.f182768b6019883e9a7dbcd856e9540f>:
   0:	00000001 	.inst	0x00000001 ; undefined
   4:	00000025 	.inst	0x00000025 ; undefined
   8:	00000026 	.inst	0x00000026 ; undefined

Disassembly of section .group:

0000000000000000 <wm4.wordsize.h.21.0d8a5704ba3489361a6fe9eac6e1ef6d>:
   0:	00000001 	.inst	0x00000001 ; undefined
   4:	00000027 	.inst	0x00000027 ; undefined
   8:	00000028 	.inst	0x00000028 ; undefined

Disassembly of section .group:

0000000000000000 <wm4.cdefs.h.465.e86fa8fe1993ad87024a3b93c5a3b1a8>:
   0:	00000001 	.inst	0x00000001 ; undefined
   4:	00000029 	.inst	0x00000029 ; undefined
   8:	0000002a 	.inst	0x0000002a ; undefined

Disassembly of section .group:

0000000000000000 <wm4.stubslp64.h.10.f17cb59cf4fd01a8dcfe0a40811df641>:
   0:	00000001 	.inst	0x00000001 ; undefined
   4:	0000002b 	.inst	0x0000002b ; undefined
   8:	0000002c 	.inst	0x0000002c ; undefined

Disassembly of section .group:

0000000000000000 <wm4.libcheaderstart.h.37.59f0e5f6a6103fb6c1d4abef1aacf8fb>:
   0:	00000001 	.inst	0x00000001 ; undefined
   4:	0000002d 	.inst	0x0000002d ; undefined
   8:	0000002e 	.inst	0x0000002e ; undefined

Disassembly of section .group:

0000000000000000 <wm4.stdio.h.31.e39a94e203ad4e1d978c0fc68ce016ee>:
   0:	00000001 	.inst	0x00000001 ; undefined
   4:	0000002f 	.inst	0x0000002f ; undefined
   8:	00000030 	.inst	0x00000030 ; undefined

Disassembly of section .group:

0000000000000000 <wm4.stddef.h.187.2ff233552538c6ff9b8575ca8ea52cb3>:
   0:	00000001 	.inst	0x00000001 ; undefined
   4:	00000031 	.inst	0x00000031 ; undefined
   8:	00000032 	.inst	0x00000032 ; undefined

Disassembly of section .group:

0000000000000000 <wm4.stdarg.h.34.3a23a216c0c293b3d2ea2e89281481e6>:
   0:	00000001 	.inst	0x00000001 ; undefined
   4:	00000033 	.inst	0x00000033 ; undefined
   8:	00000034 	.inst	0x00000034 ; undefined

Disassembly of section .group:

0000000000000000 <wm4.types.h.108.df524432123d742a55477fc8c4446826>:
   0:	00000001 	.inst	0x00000001 ; undefined
   4:	00000035 	.inst	0x00000035 ; undefined
   8:	00000036 	.inst	0x00000036 ; undefined

Disassembly of section .group:

0000000000000000 <wm4.typesizes.h.25.cffc9a7ff8f99351bd3ee2c7bb8e097e>:
   0:	00000001 	.inst	0x00000001 ; undefined
   4:	00000037 	.inst	0x00000037 ; undefined
   8:	00000038 	.inst	0x00000038 ; undefined

Disassembly of section .group:

0000000000000000 <wm4.struct_FILE.h.19.0888ac70396abe1031c03d393554032f>:
   0:	00000001 	.inst	0x00000001 ; undefined
   4:	00000039 	.inst	0x00000039 ; undefined
   8:	0000003a 	.inst	0x0000003a ; undefined

Disassembly of section .group:

0000000000000000 <wm4.stdio.h.53.78a7f18f3bc87ded52f05aa6f6a64310>:
   0:	00000001 	.inst	0x00000001 ; undefined
   4:	0000003b 	.inst	0x0000003b ; undefined
   8:	0000003c 	.inst	0x0000003c ; undefined

Disassembly of section .group:

0000000000000000 <wm4.stdio_lim.h.19.e4b00b560d878dcfbc6635b3406640c5>:
   0:	00000001 	.inst	0x00000001 ; undefined
   4:	0000003d 	.inst	0x0000003d ; undefined
   8:	0000003e 	.inst	0x0000003e ; undefined

Disassembly of section .group:

0000000000000000 <wm4.stdio.h.141.d7a290e19ca077c9e4aa7c43ede17a73>:
   0:	00000001 	.inst	0x00000001 ; undefined
   4:	0000003f 	.inst	0x0000003f ; undefined
   8:	00000040 	.inst	0x00000040 ; undefined

Disassembly of section .text:

0000000000000000 <main>:
   0:	d10083ff 	sub	sp, sp, #0x20
   4:	b9000fe0 	str	w0, [sp, #12]
   8:	f90003e1 	str	x1, [sp]
	int a, b, c;
	
	a = 10;
   c:	52800140 	mov	w0, #0xa                   	// #10
  10:	b9001fe0 	str	w0, [sp, #28]
	b = 2;
  14:	52800040 	mov	w0, #0x2                   	// #2
  18:	b9001be0 	str	w0, [sp, #24]

	c = a / b;
  1c:	b9401fe1 	ldr	w1, [sp, #28]
  20:	b9401be0 	ldr	w0, [sp, #24]
  24:	1ac00c20 	sdiv	w0, w1, w0
  28:	b90017e0 	str	w0, [sp, #20]
  2c:	52800000 	mov	w0, #0x0                   	// #0
}
  30:	910083ff 	add	sp, sp, #0x20
  34:	d65f03c0 	ret
