
add.o:     file format elf64-littleaarch64
add.o
architecture: aarch64, flags 0x00000011:
HAS_RELOC, HAS_SYMS
start address 0x0000000000000000
private flags = 0:

Sections:
Idx Name          Size      VMA               LMA               File off  Algn
  0 .text         00000000  0000000000000000  0000000000000000  00000040  2**0
                  CONTENTS, ALLOC, LOAD, READONLY, CODE
  1 .data         00000000  0000000000000000  0000000000000000  00000040  2**0
                  CONTENTS, ALLOC, LOAD, DATA
  2 .bss          00000006  0000000000000000  0000000000000000  00000040  2**1
                  ALLOC
  3 .debug_line   00000055  0000000000000000  0000000000000000  00000040  2**0
                  CONTENTS, RELOC, READONLY, DEBUGGING
  4 .debug_abbrev 0000004b  0000000000000000  0000000000000000  00000095  2**0
                  CONTENTS, READONLY, DEBUGGING
  5 .text.b_DEBUGSTART_$P$ADD 00000000  0000000000000000  0000000000000000  000000e0  2**0
                  CONTENTS, ALLOC, LOAD, READONLY, CODE
  6 .text.n_main  00000058  0000000000000000  0000000000000000  000000e0  2**3
                  CONTENTS, ALLOC, LOAD, RELOC, READONLY, CODE
  7 .fpc.n_links  00000010  0000000000000000  0000000000000000  00000138  2**0
                  CONTENTS, RELOC, READONLY
  8 .data.n_INITFINAL 00000020  0000000000000000  0000000000000000  00000148  2**3
                  CONTENTS, ALLOC, LOAD, RELOC, DATA
  9 .data.n_FPC_THREADVARTABLES 0000000c  0000000000000000  0000000000000000  00000168  2**3
                  CONTENTS, ALLOC, LOAD, RELOC, DATA
 10 .data.n_FPC_RESOURCESTRINGTABLES 00000008  0000000000000000  0000000000000000  00000178  2**3
                  CONTENTS, ALLOC, LOAD, DATA
 11 .data.n_FPC_WIDEINITTABLES 00000008  0000000000000000  0000000000000000  00000180  2**3
                  CONTENTS, ALLOC, LOAD, DATA
 12 .data.n_FPC_RESSTRINITTABLES 00000008  0000000000000000  0000000000000000  00000188  2**3
                  CONTENTS, ALLOC, LOAD, DATA
 13 .fpc.n_version 00000039  0000000000000000  0000000000000000  00000190  2**3
                  CONTENTS, READONLY
 14 .data.n___stklen 00000008  0000000000000000  0000000000000000  000001d0  2**3
                  CONTENTS, ALLOC, LOAD, DATA
 15 .data.n___heapsize 00000008  0000000000000000  0000000000000000  000001d8  2**3
                  CONTENTS, ALLOC, LOAD, DATA
 16 .data.n___fpc_valgrind 00000001  0000000000000000  0000000000000000  000001e0  2**0
                  CONTENTS, ALLOC, LOAD, DATA
 17 .data.n_FPC_RESLOCATION 00000008  0000000000000000  0000000000000000  000001e8  2**3
                  CONTENTS, ALLOC, LOAD, DATA
 18 .debug_info   00000144  0000000000000000  0000000000000000  000001f0  2**0
                  CONTENTS, RELOC, READONLY, DEBUGGING
 19 .text.z_DEBUGEND_$P$ADD 00000000  0000000000000000  0000000000000000  00000334  2**0
                  CONTENTS, ALLOC, LOAD, READONLY, CODE
 20 .note.GNU-stack 00000000  0000000000000000  0000000000000000  00000334  2**0
                  CONTENTS, READONLY
SYMBOL TABLE:
0000000000000000 l    df *ABS*	0000000000000000 add.pp
0000000000000000 l    d  .text	0000000000000000 .text
0000000000000000 l    d  .data	0000000000000000 .data
0000000000000000 l    d  .bss	0000000000000000 .bss
0000000000000000 l    d  .debug_line	0000000000000000 .debug_line
0000000000000000 l    d  .debug_abbrev	0000000000000000 .debug_abbrev
0000000000000000 l    d  .text.b_DEBUGSTART_$P$ADD	0000000000000000 .text.b_DEBUGSTART_$P$ADD
0000000000000000 l    d  .text.n_main	0000000000000000 .text.n_main
0000000000000000 l     O .bss	0000000000000002 U_$P$ADD_$$_A
0000000000000002 l     O .bss	0000000000000002 U_$P$ADD_$$_B
0000000000000004 l     O .bss	0000000000000002 U_$P$ADD_$$_C
0000000000000000 l    d  .fpc.n_links	0000000000000000 .fpc.n_links
0000000000000000 l    d  .data.n_INITFINAL	0000000000000000 .data.n_INITFINAL
0000000000000000 l    d  .data.n_FPC_THREADVARTABLES	0000000000000000 .data.n_FPC_THREADVARTABLES
0000000000000000 l    d  .data.n_FPC_RESOURCESTRINGTABLES	0000000000000000 .data.n_FPC_RESOURCESTRINGTABLES
0000000000000000 l    d  .data.n_FPC_WIDEINITTABLES	0000000000000000 .data.n_FPC_WIDEINITTABLES
0000000000000000 l    d  .data.n_FPC_RESSTRINITTABLES	0000000000000000 .data.n_FPC_RESSTRINITTABLES
0000000000000000 l    d  .fpc.n_version	0000000000000000 .fpc.n_version
0000000000000000 l    d  .data.n___stklen	0000000000000000 .data.n___stklen
0000000000000000 l    d  .data.n___heapsize	0000000000000000 .data.n___heapsize
0000000000000000 l    d  .data.n___fpc_valgrind	0000000000000000 .data.n___fpc_valgrind
0000000000000000 l    d  .data.n_FPC_RESLOCATION	0000000000000000 .data.n_FPC_RESLOCATION
0000000000000000 l    d  .debug_info	0000000000000000 .debug_info
0000000000000000 l    d  .text.z_DEBUGEND_$P$ADD	0000000000000000 .text.z_DEBUGEND_$P$ADD
0000000000000000 l    d  .note.GNU-stack	0000000000000000 .note.GNU-stack
0000000000000000 g     O .text.b_DEBUGSTART_$P$ADD	0000000000000000 DEBUGSTART_$P$ADD
0000000000000000 g     F .text.n_main	0000000000000000 PASCALMAIN
0000000000000000 g     F .text.n_main	0000000000000058 main
0000000000000000         *UND*	0000000000000000 FPC_INITIALIZEUNITS
0000000000000000         *UND*	0000000000000000 FPC_DO_EXIT
0000000000000000 g     O .text.z_DEBUGEND_$P$ADD	0000000000000000 DEBUGEND_$P$ADD
0000000000000000 g     O .data.n_INITFINAL	0000000000000020 INITFINAL
0000000000000000         *UND*	0000000000000000 INIT$_$SYSTEM
0000000000000000 g     O .data.n_FPC_THREADVARTABLES	000000000000000c FPC_THREADVARTABLES
0000000000000000         *UND*	0000000000000000 THREADVARLIST_$SYSTEM
0000000000000000 g     O .data.n_FPC_RESOURCESTRINGTABLES	0000000000000008 FPC_RESOURCESTRINGTABLES
0000000000000000 g     O .data.n_FPC_WIDEINITTABLES	0000000000000008 FPC_WIDEINITTABLES
0000000000000000 g     O .data.n_FPC_RESSTRINITTABLES	0000000000000008 FPC_RESSTRINITTABLES
0000000000000000 g     O .data.n___stklen	0000000000000000 __stklen
0000000000000000 g     O .data.n___heapsize	0000000000000000 __heapsize
0000000000000000 g     O .data.n___fpc_valgrind	0000000000000000 __fpc_valgrind
0000000000000000 g     O .data.n_FPC_RESLOCATION	0000000000000000 FPC_RESLOCATION
000000000000011c g     O .debug_info	0000000000000000 _$ADD$_Ld1
000000000000013a g     O .debug_info	0000000000000000 _$ADD$_Ld2


Contents of section .debug_line:
 0000 51000000 02001d00 00000101 01ff0d00  Q...............
 0010 01010101 00000001 00000100 6164642e  ............add.
 0020 70700000 00000000 09020000 00000000  pp..............
 0030 00000501 11020c05 020e0210 0d021005  ................
 0040 070d0220 05010d00 09020000 00000000  ... ............
 0050 00000001 01                          .....           
Contents of section .debug_abbrev:
 0000 01110103 0825081b 08130b42 0b100611  .....%.....B....
 0010 01120100 00023400 0308020a 49100000  ......4.....I...
 0020 032e0103 08270c3f 0c110112 01000004  .....'.?........
 0030 16000308 49100000 05240003 083e0b0b  ....I....$...>..
 0040 0b000006 10004910 000000             ......I....     
Contents of section .text.n_main:
 0000 fd7bbfa9 fd030091 00000094 60008052  .{..........`..R
 0010 01000090 21000091 20000078 a1008052  ....!... ..x...R
 0020 00000090 00000091 01000078 00000090  ...........x....
 0030 00000091 0000c078 00140011 003c0013  .......x.....<..
 0040 01000090 21000091 20000078 00000094  ....!... ..x....
 0050 fd7bc1a8 c0035fd6                    .{...._.        
Contents of section .fpc.n_links:
 0000 00000000 00000000 00000000 00000000  ................
Contents of section .data.n_INITFINAL:
 0000 01000000 00000000 00000000 00000000  ................
 0010 00000000 00000000 00000000 00000000  ................
Contents of section .data.n_FPC_THREADVARTABLES:
 0000 01000000 00000000 00000000           ............    
Contents of section .data.n_FPC_RESOURCESTRINGTABLES:
 0000 00000000 00000000                    ........        
Contents of section .data.n_FPC_WIDEINITTABLES:
 0000 00000000 00000000                    ........        
Contents of section .data.n_FPC_RESSTRINITTABLES:
 0000 00000000 00000000                    ........        
Contents of section .fpc.n_version:
 0000 46504320 332e302e 342b6466 73672d31  FPC 3.0.4+dfsg-1
 0010 38756275 6e747532 205b3230 31382f30  8ubuntu2 [2018/0
 0020 382f3239 5d20666f 72206161 72636836  8/29] for aarch6
 0030 34202d20 4c696e75 78                 4 - Linux       
Contents of section .data.n___stklen:
 0000 00008000 00000000                    ........        
Contents of section .data.n___heapsize:
 0000 00000000 00000000                    ........        
Contents of section .data.n___fpc_valgrind:
 0000 00                                   .               
Contents of section .data.n_FPC_RESLOCATION:
 0000 00000000 00000000                    ........        
Contents of section .debug_info:
 0000 40010000 02000000 00000801 6164642e  @...........add.
 0010 70700046 72656520 50617363 616c2033  pp.Free Pascal 3
 0020 2e302e34 2b646673 672d3138 7562756e  .0.4+dfsg-18ubun
 0030 74753220 32303138 2f30382f 3239002f  tu2 2018/08/29./
 0040 686f6d65 2f756275 6e74752f 456e6769  home/ubuntu/Engi
 0050 6e656572 696e672f 47495448 55422f44  neering/GITHUB/D
 0060 69736173 73656d62 6c696e67 2d42696e  isassembling-Bin
 0070 61726965 732f5061 7363616c 2f41524d  aries/Pascal/ARM
 0080 5f417263 68697465 63747572 652f4152  _Architecture/AR
 0090 4d36342f 4164645f 496e7473 2f576974  M64/Add_Ints/Wit
 00a0 685f4465 6275675f 496e666f 2f000903  h_Debug_Info/...
 00b0 00000000 00000000 00000000 00000000  ................
 00c0 00000000 02410009 03000000 00000000  .....A..........
 00d0 00000000 00000000 00024200 09030000  ..........B.....
 00e0 00000000 00000000 00000000 00000243  ...............C
 00f0 00090300 00000000 00000000 00000000  ................
 0100 00000003 6d61696e 00010100 00000000  ....main........
 0110 00000000 00000000 00000000 04534d41  .............SMA
 0120 4c4c494e 54000000 00000000 00000553  LLINT..........S
 0130 4d414c4c 494e5400 05020600 00000000  MALLINT.........
 0140 00000000                             ....            

Disassembly of section .text.n_main:

0000000000000000 <main>:
BEGIN
   0:	a9bf7bfd 	stp	x29, x30, [sp, #-16]!
   4:	910003fd 	mov	x29, sp
   8:	94000000 	bl	0 <FPC_INITIALIZEUNITS>
			8: R_AARCH64_CALL26	FPC_INITIALIZEUNITS
	a := 3;
   c:	52800060 	mov	w0, #0x3                   	// #3
  10:	90000001 	adrp	x1, 0 <main>
			10: R_AARCH64_ADR_PREL_PG_HI21	.bss
  14:	91000021 	add	x1, x1, #0x0
			14: R_AARCH64_ADD_ABS_LO12_NC	.bss
  18:	78000020 	sturh	w0, [x1]
	b := 5;
  1c:	528000a1 	mov	w1, #0x5                   	// #5
  20:	90000000 	adrp	x0, 0 <main>
			20: R_AARCH64_ADR_PREL_PG_HI21	.bss+0x2
  24:	91000000 	add	x0, x0, #0x0
			24: R_AARCH64_ADD_ABS_LO12_NC	.bss+0x2
  28:	78000001 	sturh	w1, [x0]
	c := a + 5;
  2c:	90000000 	adrp	x0, 0 <main>
			2c: R_AARCH64_ADR_PREL_PG_HI21	.bss
  30:	91000000 	add	x0, x0, #0x0
			30: R_AARCH64_ADD_ABS_LO12_NC	.bss
  34:	78c00000 	ldursh	w0, [x0]
  38:	11001400 	add	w0, w0, #0x5
  3c:	13003c00 	sxth	w0, w0
  40:	90000001 	adrp	x1, 0 <main>
			40: R_AARCH64_ADR_PREL_PG_HI21	.bss+0x4
  44:	91000021 	add	x1, x1, #0x0
			44: R_AARCH64_ADD_ABS_LO12_NC	.bss+0x4
  48:	78000020 	sturh	w0, [x1]
END.
  4c:	94000000 	bl	0 <FPC_DO_EXIT>
			4c: R_AARCH64_CALL26	FPC_DO_EXIT
  50:	a8c17bfd 	ldp	x29, x30, [sp], #16
  54:	d65f03c0 	ret

Disassembly of section .fpc.n_links:

0000000000000000 <.fpc.n_links>:
	...
			0: R_AARCH64_ABS64	DEBUGSTART_$P$ADD
			8: R_AARCH64_ABS64	DEBUGEND_$P$ADD

Disassembly of section .fpc.n_version:

0000000000000000 <.fpc.n_version>:
   0:	5046      	.short	0x5046
   2:	2043      	.short	0x2043
   4:	2e302e33 	.word	0x2e302e33
BEGIN
   8:	66642b34 	.word	0x66642b34
   c:	312d6773 	.word	0x312d6773
  10:	75627538 	.word	0x75627538
	a := 3;
  14:	3275746e 	.word	0x3275746e
  18:	30325b20 	.word	0x30325b20
  1c:	302f3831 	.word	0x302f3831
  20:	39322f38 	.word	0x39322f38
	b := 5;
  24:	6f66205d 	.word	0x6f66205d
  28:	61612072 	.word	0x61612072
  2c:	36686372 	.word	0x36686372
  30:	202d2034 	.word	0x202d2034
	c := a + 5;
  34:	756e694c 	.word	0x756e694c
  38:	Address 0x0000000000000038 is out of bounds.

