
div_int.o:     file format elf32-i386

Sections:
Idx Name          Size      VMA       LMA       File off  Algn
  0 .group        00000008  00000000  00000000  00000034  2**2
                  CONTENTS, READONLY, GROUP, LINK_ONCE_DISCARD
  1 .group        00000008  00000000  00000000  0000003c  2**2
                  CONTENTS, READONLY, GROUP, LINK_ONCE_DISCARD
  2 .text         0000007f  00000000  00000000  00000044  2**0
                  CONTENTS, ALLOC, LOAD, RELOC, READONLY, CODE
  3 .data         00000000  00000000  00000000  000000c3  2**0
                  CONTENTS, ALLOC, LOAD, DATA
  4 .bss          00000000  00000000  00000000  000000c3  2**0
                  ALLOC
  5 .rodata       0000001c  00000000  00000000  000000c4  2**2
                  CONTENTS, ALLOC, LOAD, READONLY, DATA
  6 .text.__x86.get_pc_thunk.ax 00000004  00000000  00000000  000000e0  2**0
                  CONTENTS, ALLOC, LOAD, READONLY, CODE
  7 .text.__x86.get_pc_thunk.bx 00000004  00000000  00000000  000000e4  2**0
                  CONTENTS, ALLOC, LOAD, READONLY, CODE
  8 .debug_info   000000b2  00000000  00000000  000000e8  2**0
                  CONTENTS, RELOC, READONLY, DEBUGGING
  9 .debug_abbrev 00000084  00000000  00000000  0000019a  2**0
                  CONTENTS, READONLY, DEBUGGING
 10 .debug_aranges 00000020  00000000  00000000  0000021e  2**0
                  CONTENTS, RELOC, READONLY, DEBUGGING
 11 .debug_macro  0000000c  00000000  00000000  0000023e  2**0
                  CONTENTS, RELOC, READONLY, DEBUGGING
 12 .debug_line   00000040  00000000  00000000  0000024a  2**0
                  CONTENTS, RELOC, READONLY, DEBUGGING
 13 .debug_str    0000012c  00000000  00000000  0000028a  2**0
                  CONTENTS, READONLY, DEBUGGING
 14 .comment      0000002b  00000000  00000000  000003b6  2**0
                  CONTENTS, READONLY
 15 .note.GNU-stack 00000000  00000000  00000000  000003e1  2**0
                  CONTENTS, READONLY
 16 .eh_frame     00000094  00000000  00000000  000003e4  2**2
                  CONTENTS, ALLOC, LOAD, RELOC, READONLY, DATA
SYMBOL TABLE:
00000000 l    df *ABS*	00000000 div_int.f08
00000000 l    d  .text	00000000 .text
00000000 l    d  .data	00000000 .data
00000000 l    d  .bss	00000000 .bss
00000000 l     F .text	0000002b MAIN__
00000000 l     O .rodata	0000001c options.0.3423
00000000 l    d  .rodata	00000000 .rodata
00000000 l    d  .text.__x86.get_pc_thunk.ax	00000000 .text.__x86.get_pc_thunk.ax
00000000 l    d  .text.__x86.get_pc_thunk.bx	00000000 .text.__x86.get_pc_thunk.bx
00000000 l    d  .debug_info	00000000 .debug_info
00000000 l    d  .debug_abbrev	00000000 .debug_abbrev
00000000 l    d  .debug_aranges	00000000 .debug_aranges
00000000 l    d  .debug_macro	00000000 .debug_macro
00000000 l    d  .debug_line	00000000 .debug_line
00000000 l    d  .debug_str	00000000 .debug_str
00000000 l    d  .note.GNU-stack	00000000 .note.GNU-stack
00000000 l    d  .eh_frame	00000000 .eh_frame
00000000 l    d  .comment	00000000 .comment
00000000 l    d  .group	00000000 .group
00000000 l    d  .group	00000000 .group
00000000 g     F .text.__x86.get_pc_thunk.ax	00000000 .hidden __x86.get_pc_thunk.ax
00000000         *UND*	00000000 _GLOBAL_OFFSET_TABLE_
0000002b g     F .text	00000054 main
00000000 g     F .text.__x86.get_pc_thunk.bx	00000000 .hidden __x86.get_pc_thunk.bx
00000000         *UND*	00000000 _gfortran_set_args
00000000         *UND*	00000000 _gfortran_set_options



Disassembly of section .group:

00000000 <.group>:
   0:	01 00                	add    DWORD PTR [eax],eax
   2:	00 00                	add    BYTE PTR [eax],al
   4:	08 00                	or     BYTE PTR [eax],al
	...

Disassembly of section .group:

00000000 <.group>:
   0:	01 00                	add    DWORD PTR [eax],eax
   2:	00 00                	add    BYTE PTR [eax],al
   4:	09 00                	or     DWORD PTR [eax],eax
	...

Disassembly of section .text:

00000000 <MAIN__>:
   0:	55                   	push   ebp
   1:	89 e5                	mov    ebp,esp
   3:	83 ec 10             	sub    esp,0x10
   6:	e8 fc ff ff ff       	call   7 <MAIN__+0x7>
   b:	05 01 00 00 00       	add    eax,0x1
  10:	c7 45 fc 0a 00 00 00 	mov    DWORD PTR [ebp-0x4],0xa
  17:	c7 45 f8 05 00 00 00 	mov    DWORD PTR [ebp-0x8],0x5
  1e:	8b 45 fc             	mov    eax,DWORD PTR [ebp-0x4]
  21:	99                   	cdq    
  22:	f7 7d f8             	idiv   DWORD PTR [ebp-0x8]
  25:	89 45 f4             	mov    DWORD PTR [ebp-0xc],eax
  28:	90                   	nop
  29:	c9                   	leave  
  2a:	c3                   	ret    

0000002b <main>:
  2b:	8d 4c 24 04          	lea    ecx,[esp+0x4]
  2f:	83 e4 f0             	and    esp,0xfffffff0
  32:	ff 71 fc             	push   DWORD PTR [ecx-0x4]
  35:	55                   	push   ebp
  36:	89 e5                	mov    ebp,esp
  38:	53                   	push   ebx
  39:	51                   	push   ecx
  3a:	e8 fc ff ff ff       	call   3b <main+0x10>
  3f:	81 c3 02 00 00 00    	add    ebx,0x2
  45:	89 c8                	mov    eax,ecx
  47:	83 ec 08             	sub    esp,0x8
  4a:	ff 70 04             	push   DWORD PTR [eax+0x4]
  4d:	ff 30                	push   DWORD PTR [eax]
  4f:	e8 fc ff ff ff       	call   50 <main+0x25>
  54:	83 c4 10             	add    esp,0x10
  57:	83 ec 08             	sub    esp,0x8
  5a:	8d 83 00 00 00 00    	lea    eax,[ebx+0x0]
  60:	50                   	push   eax
  61:	6a 07                	push   0x7
  63:	e8 fc ff ff ff       	call   64 <main+0x39>
  68:	83 c4 10             	add    esp,0x10
  6b:	e8 90 ff ff ff       	call   0 <MAIN__>
  70:	b8 00 00 00 00       	mov    eax,0x0
  75:	8d 65 f8             	lea    esp,[ebp-0x8]
  78:	59                   	pop    ecx
  79:	5b                   	pop    ebx
  7a:	5d                   	pop    ebp
  7b:	8d 61 fc             	lea    esp,[ecx-0x4]
  7e:	c3                   	ret    

Disassembly of section .text.__x86.get_pc_thunk.ax:

00000000 <__x86.get_pc_thunk.ax>:
   0:	8b 04 24             	mov    eax,DWORD PTR [esp]
   3:	c3                   	ret    

Disassembly of section .text.__x86.get_pc_thunk.bx:

00000000 <__x86.get_pc_thunk.bx>:
   0:	8b 1c 24             	mov    ebx,DWORD PTR [esp]
   3:	c3                   	ret    
