
add_int.o:     file format elf32-littlearm
add_int.o
architecture: arm, flags 0x00000011:
HAS_RELOC, HAS_SYMS
start address 0x00000000
private flags = 5000000: [Version5 EABI]

Sections:
Idx Name          Size      VMA       LMA       File off  Algn
  0 .text         00000080  00000000  00000000  00000034  2**2
                  CONTENTS, ALLOC, LOAD, RELOC, READONLY, CODE
  1 .data         00000000  00000000  00000000  000000b4  2**0
                  CONTENTS, ALLOC, LOAD, DATA
  2 .bss          00000000  00000000  00000000  000000b4  2**0
                  ALLOC
  3 .rodata       00000024  00000000  00000000  000000b4  2**2
                  CONTENTS, ALLOC, LOAD, READONLY, DATA
  4 .comment      00000035  00000000  00000000  000000d8  2**0
                  CONTENTS, READONLY
  5 .note.GNU-stack 00000000  00000000  00000000  0000010d  2**0
                  CONTENTS, READONLY
  6 .ARM.attributes 0000002d  00000000  00000000  0000010d  2**0
                  CONTENTS, READONLY
SYMBOL TABLE:
00000000 l    df *ABS*	00000000 add.f08
00000000 l    d  .text	00000000 .text
00000000 l    d  .data	00000000 .data
00000000 l    d  .bss	00000000 .bss
00000000 l     F .text	0000003c MAIN__
00000000 l     O .rodata	00000024 options.0.4702
00000000 l    d  .rodata	00000000 .rodata
00000000 l    d  .note.GNU-stack	00000000 .note.GNU-stack
00000000 l    d  .comment	00000000 .comment
00000000 l    d  .ARM.attributes	00000000 .ARM.attributes
0000003c g     F .text	00000044 main
00000000         *UND*	00000000 _gfortran_set_args
00000000         *UND*	00000000 _gfortran_set_options


Contents of section .text:
 0000 04b02de5 00b08de2 14d04de2 0130a0e3  ..-.......M..0..
 0010 08300be5 0930a0e3 0c300be5 08201be5  .0...0...0... ..
 0020 0c301be5 033082e0 10300be5 0000a0e1  .0...0...0......
 0030 00d08be2 04b09de4 1eff2fe1 00482de9  ........../..H-.
 0040 04b08de2 08d04de2 08000be5 0c100be5  ......M.........
 0050 0c101be5 08001be5 feffffeb 18109fe5  ................
 0060 0900a0e3 feffffeb e4ffffeb 0030a0e3  .............0..
 0070 0300a0e1 04d04be2 0088bde8 00000000  ......K.........
Contents of section .rodata:
 0000 44000000 ff030000 00000000 00000000  D...............
 0010 01000000 01000000 00000000 00000000  ................
 0020 1f000000                             ....            
Contents of section .comment:
 0000 00474343 3a202852 61737062 69616e20  .GCC: (Raspbian 
 0010 362e332e 302d3138 2b727069 312b6465  6.3.0-18+rpi1+de
 0020 62397531 2920362e 332e3020 32303137  b9u1) 6.3.0 2017
 0030 30353136 00                          0516.           
Contents of section .ARM.attributes:
 0000 412c0000 00616561 62690001 22000000  A,...aeabi.."...
 0010 05360006 06080109 010a0214 01150117  .6..............
 0020 03180119 011a021c 011e0622 01        ...........".   

Disassembly of section .text:

00000000 <MAIN__>:
   0:	e52db004 	push	{fp}		; (str fp, [sp, #-4]!)
   4:	e28db000 	add	fp, sp, #0
   8:	e24dd014 	sub	sp, sp, #20
   c:	e3a03001 	mov	r3, #1
  10:	e50b3008 	str	r3, [fp, #-8]
  14:	e3a03009 	mov	r3, #9
  18:	e50b300c 	str	r3, [fp, #-12]
  1c:	e51b2008 	ldr	r2, [fp, #-8]
  20:	e51b300c 	ldr	r3, [fp, #-12]
  24:	e0823003 	add	r3, r2, r3
  28:	e50b3010 	str	r3, [fp, #-16]
  2c:	e1a00000 	nop			; (mov r0, r0)
  30:	e28bd000 	add	sp, fp, #0
  34:	e49db004 	pop	{fp}		; (ldr fp, [sp], #4)
  38:	e12fff1e 	bx	lr

0000003c <main>:
  3c:	e92d4800 	push	{fp, lr}
  40:	e28db004 	add	fp, sp, #4
  44:	e24dd008 	sub	sp, sp, #8
  48:	e50b0008 	str	r0, [fp, #-8]
  4c:	e50b100c 	str	r1, [fp, #-12]
  50:	e51b100c 	ldr	r1, [fp, #-12]
  54:	e51b0008 	ldr	r0, [fp, #-8]
  58:	ebfffffe 	bl	0 <_gfortran_set_args>
			58: R_ARM_CALL	_gfortran_set_args
  5c:	e59f1018 	ldr	r1, [pc, #24]	; 7c <main+0x40>
  60:	e3a00009 	mov	r0, #9
  64:	ebfffffe 	bl	0 <_gfortran_set_options>
			64: R_ARM_CALL	_gfortran_set_options
  68:	ebffffe4 	bl	0 <MAIN__>
  6c:	e3a03000 	mov	r3, #0
  70:	e1a00003 	mov	r0, r3
  74:	e24bd004 	sub	sp, fp, #4
  78:	e8bd8800 	pop	{fp, pc}
  7c:	00000000 	andeq	r0, r0, r0
			7c: R_ARM_ABS32	.rodata
