	.file	"add.f08"
	.text
	.type	MAIN__, @function
MAIN__:
.LFB0:
	.cfi_startproc
	pushl	%ebp
	.cfi_def_cfa_offset 8
	.cfi_offset 5, -8
	movl	%esp, %ebp
	.cfi_def_cfa_register 5
	subl	$16, %esp
	movl	$1, -4(%ebp)
	movl	$9, -8(%ebp)
	movl	-4(%ebp), %edx
	movl	-8(%ebp), %eax
	addl	%edx, %eax
	movl	%eax, -12(%ebp)
	nop
	leave
	.cfi_restore 5
	.cfi_def_cfa 4, 4
	ret
	.cfi_endproc
.LFE0:
	.size	MAIN__, .-MAIN__
	.globl	main
	.type	main, @function
main:
.LFB1:
	.cfi_startproc
	leal	4(%esp), %ecx
	.cfi_def_cfa 1, 0
	andl	$-16, %esp
	pushl	-4(%ecx)
	pushl	%ebp
	.cfi_escape 0x10,0x5,0x2,0x75,0
	movl	%esp, %ebp
	pushl	%ecx
	.cfi_escape 0xf,0x3,0x75,0x7c,0x6
	subl	$4, %esp
	movl	%ecx, %eax
	subl	$8, %esp
	pushl	4(%eax)
	pushl	(%eax)
	call	_gfortran_set_args
	addl	$16, %esp
	subl	$8, %esp
	pushl	$options.0.3309
	pushl	$9
	call	_gfortran_set_options
	addl	$16, %esp
	call	MAIN__
	movl	$0, %eax
	movl	-4(%ebp), %ecx
	.cfi_def_cfa 1, 0
	leave
	.cfi_restore 5
	leal	-4(%ecx), %esp
	.cfi_def_cfa 4, 4
	ret
	.cfi_endproc
.LFE1:
	.size	main, .-main
	.section	.rodata
	.align 32
	.type	options.0.3309, @object
	.size	options.0.3309, 36
options.0.3309:
	.long	68
	.long	1023
	.long	0
	.long	0
	.long	1
	.long	1
	.long	0
	.long	0
	.long	31
	.ident	"GCC: (Ubuntu 5.4.0-6ubuntu1~16.04.11) 5.4.0 20160609"
	.section	.note.GNU-stack,"",@progbits
