
add.o:     file format elf32-i386
add.o
architecture: i386, flags 0x00000011:
HAS_RELOC, HAS_SYMS
start address 0x00000000

Sections:
Idx Name          Size      VMA       LMA       File off  Algn
  0 .group        00000008  00000000  00000000  00000034  2**2
                  CONTENTS, READONLY, GROUP, LINK_ONCE_DISCARD
  1 .group        00000008  00000000  00000000  0000003c  2**2
                  CONTENTS, READONLY, GROUP, LINK_ONCE_DISCARD
  2 .text         00000080  00000000  00000000  00000044  2**0
                  CONTENTS, ALLOC, LOAD, RELOC, READONLY, CODE
  3 .data         00000000  00000000  00000000  000000c4  2**0
                  CONTENTS, ALLOC, LOAD, DATA
  4 .bss          00000000  00000000  00000000  000000c4  2**0
                  ALLOC
  5 .rodata       0000001c  00000000  00000000  000000c4  2**2
                  CONTENTS, ALLOC, LOAD, READONLY, DATA
  6 .text.__x86.get_pc_thunk.ax 00000004  00000000  00000000  000000e0  2**0
                  CONTENTS, ALLOC, LOAD, READONLY, CODE
  7 .text.__x86.get_pc_thunk.bx 00000004  00000000  00000000  000000e4  2**0
                  CONTENTS, ALLOC, LOAD, READONLY, CODE
  8 .comment      0000002b  00000000  00000000  000000e8  2**0
                  CONTENTS, READONLY
  9 .note.GNU-stack 00000000  00000000  00000000  00000113  2**0
                  CONTENTS, READONLY
 10 .eh_frame     00000094  00000000  00000000  00000114  2**2
                  CONTENTS, ALLOC, LOAD, RELOC, READONLY, DATA
SYMBOL TABLE:
00000000 l    df *ABS*	00000000 add.f08
00000000 l    d  .text	00000000 .text
00000000 l    d  .data	00000000 .data
00000000 l    d  .bss	00000000 .bss
00000000 l     F .text	0000002c MAIN__
00000000 l     O .rodata	0000001c options.0.3423
00000000 l    d  .rodata	00000000 .rodata
00000000 l    d  .text.__x86.get_pc_thunk.ax	00000000 .text.__x86.get_pc_thunk.ax
00000000 l    d  .text.__x86.get_pc_thunk.bx	00000000 .text.__x86.get_pc_thunk.bx
00000000 l    d  .note.GNU-stack	00000000 .note.GNU-stack
00000000 l    d  .eh_frame	00000000 .eh_frame
00000000 l    d  .comment	00000000 .comment
00000000 l    d  .group	00000000 .group
00000000 l    d  .group	00000000 .group
00000000 g     F .text.__x86.get_pc_thunk.ax	00000000 .hidden __x86.get_pc_thunk.ax
00000000         *UND*	00000000 _GLOBAL_OFFSET_TABLE_
0000002c g     F .text	00000054 main
00000000 g     F .text.__x86.get_pc_thunk.bx	00000000 .hidden __x86.get_pc_thunk.bx
00000000         *UND*	00000000 _gfortran_set_args
00000000         *UND*	00000000 _gfortran_set_options



Disassembly of section .group:

00000000 <.group>:
   0:	01 00                	add    DWORD PTR [eax],eax
   2:	00 00                	add    BYTE PTR [eax],al
   4:	08 00                	or     BYTE PTR [eax],al
	...

Disassembly of section .group:

00000000 <.group>:
   0:	01 00                	add    DWORD PTR [eax],eax
   2:	00 00                	add    BYTE PTR [eax],al
   4:	09 00                	or     DWORD PTR [eax],eax
	...

Disassembly of section .text:

00000000 <MAIN__>:
   0:	55                   	push   ebp
   1:	89 e5                	mov    ebp,esp
   3:	83 ec 10             	sub    esp,0x10
   6:	e8 fc ff ff ff       	call   7 <MAIN__+0x7>
			7: R_386_PC32	__x86.get_pc_thunk.ax
   b:	05 01 00 00 00       	add    eax,0x1
			c: R_386_GOTPC	_GLOBAL_OFFSET_TABLE_
  10:	c7 45 fc 01 00 00 00 	mov    DWORD PTR [ebp-0x4],0x1
  17:	c7 45 f8 09 00 00 00 	mov    DWORD PTR [ebp-0x8],0x9
  1e:	8b 55 fc             	mov    edx,DWORD PTR [ebp-0x4]
  21:	8b 45 f8             	mov    eax,DWORD PTR [ebp-0x8]
  24:	01 d0                	add    eax,edx
  26:	89 45 f4             	mov    DWORD PTR [ebp-0xc],eax
  29:	90                   	nop
  2a:	c9                   	leave  
  2b:	c3                   	ret    

0000002c <main>:
  2c:	8d 4c 24 04          	lea    ecx,[esp+0x4]
  30:	83 e4 f0             	and    esp,0xfffffff0
  33:	ff 71 fc             	push   DWORD PTR [ecx-0x4]
  36:	55                   	push   ebp
  37:	89 e5                	mov    ebp,esp
  39:	53                   	push   ebx
  3a:	51                   	push   ecx
  3b:	e8 fc ff ff ff       	call   3c <main+0x10>
			3c: R_386_PC32	__x86.get_pc_thunk.bx
  40:	81 c3 02 00 00 00    	add    ebx,0x2
			42: R_386_GOTPC	_GLOBAL_OFFSET_TABLE_
  46:	89 c8                	mov    eax,ecx
  48:	83 ec 08             	sub    esp,0x8
  4b:	ff 70 04             	push   DWORD PTR [eax+0x4]
  4e:	ff 30                	push   DWORD PTR [eax]
  50:	e8 fc ff ff ff       	call   51 <main+0x25>
			51: R_386_PLT32	_gfortran_set_args
  55:	83 c4 10             	add    esp,0x10
  58:	83 ec 08             	sub    esp,0x8
  5b:	8d 83 00 00 00 00    	lea    eax,[ebx+0x0]
			5d: R_386_GOTOFF	.rodata
  61:	50                   	push   eax
  62:	6a 07                	push   0x7
  64:	e8 fc ff ff ff       	call   65 <main+0x39>
			65: R_386_PLT32	_gfortran_set_options
  69:	83 c4 10             	add    esp,0x10
  6c:	e8 8f ff ff ff       	call   0 <MAIN__>
  71:	b8 00 00 00 00       	mov    eax,0x0
  76:	8d 65 f8             	lea    esp,[ebp-0x8]
  79:	59                   	pop    ecx
  7a:	5b                   	pop    ebx
  7b:	5d                   	pop    ebp
  7c:	8d 61 fc             	lea    esp,[ecx-0x4]
  7f:	c3                   	ret    

Disassembly of section .text.__x86.get_pc_thunk.ax:

00000000 <__x86.get_pc_thunk.ax>:
   0:	8b 04 24             	mov    eax,DWORD PTR [esp]
   3:	c3                   	ret    

Disassembly of section .text.__x86.get_pc_thunk.bx:

00000000 <__x86.get_pc_thunk.bx>:
   0:	8b 1c 24             	mov    ebx,DWORD PTR [esp]
   3:	c3                   	ret    
