
add_float_C_AMD64:     file format elf64-x86-64
add_float_C_AMD64
architecture: i386:x86-64, flags 0x00000150:
HAS_SYMS, DYNAMIC, D_PAGED
start address 0x00000000000004f0

Program Header:
    PHDR off    0x0000000000000040 vaddr 0x0000000000000040 paddr 0x0000000000000040 align 2**3
         filesz 0x00000000000001f8 memsz 0x00000000000001f8 flags r--
  INTERP off    0x0000000000000238 vaddr 0x0000000000000238 paddr 0x0000000000000238 align 2**0
         filesz 0x000000000000001c memsz 0x000000000000001c flags r--
    LOAD off    0x0000000000000000 vaddr 0x0000000000000000 paddr 0x0000000000000000 align 2**21
         filesz 0x0000000000000810 memsz 0x0000000000000810 flags r-x
    LOAD off    0x0000000000000df0 vaddr 0x0000000000200df0 paddr 0x0000000000200df0 align 2**21
         filesz 0x0000000000000220 memsz 0x0000000000000228 flags rw-
 DYNAMIC off    0x0000000000000e00 vaddr 0x0000000000200e00 paddr 0x0000000000200e00 align 2**3
         filesz 0x00000000000001c0 memsz 0x00000000000001c0 flags rw-
    NOTE off    0x0000000000000254 vaddr 0x0000000000000254 paddr 0x0000000000000254 align 2**2
         filesz 0x0000000000000044 memsz 0x0000000000000044 flags r--
EH_FRAME off    0x00000000000006cc vaddr 0x00000000000006cc paddr 0x00000000000006cc align 2**2
         filesz 0x000000000000003c memsz 0x000000000000003c flags r--
   STACK off    0x0000000000000000 vaddr 0x0000000000000000 paddr 0x0000000000000000 align 2**4
         filesz 0x0000000000000000 memsz 0x0000000000000000 flags rw-
   RELRO off    0x0000000000000df0 vaddr 0x0000000000200df0 paddr 0x0000000000200df0 align 2**0
         filesz 0x0000000000000210 memsz 0x0000000000000210 flags r--

Dynamic Section:
  NEEDED               libc.so.6
  INIT                 0x00000000000004b8
  FINI                 0x00000000000006b4
  INIT_ARRAY           0x0000000000200df0
  INIT_ARRAYSZ         0x0000000000000008
  FINI_ARRAY           0x0000000000200df8
  FINI_ARRAYSZ         0x0000000000000008
  GNU_HASH             0x0000000000000298
  STRTAB               0x0000000000000348
  SYMTAB               0x00000000000002b8
  STRSZ                0x000000000000007d
  SYMENT               0x0000000000000018
  DEBUG                0x0000000000000000
  PLTGOT               0x0000000000200fc0
  RELA                 0x00000000000003f8
  RELASZ               0x00000000000000c0
  RELAENT              0x0000000000000018
  FLAGS                0x0000000000000008
  FLAGS_1              0x0000000008000001
  VERNEED              0x00000000000003d8
  VERNEEDNUM           0x0000000000000001
  VERSYM               0x00000000000003c6
  RELACOUNT            0x0000000000000003

Version References:
  required from libc.so.6:
    0x09691a75 0x00 02 GLIBC_2.2.5

Sections:
Idx Name          Size      VMA               LMA               File off  Algn
  0 .interp       0000001c  0000000000000238  0000000000000238  00000238  2**0
                  CONTENTS, ALLOC, LOAD, READONLY, DATA
  1 .note.ABI-tag 00000020  0000000000000254  0000000000000254  00000254  2**2
                  CONTENTS, ALLOC, LOAD, READONLY, DATA
  2 .note.gnu.build-id 00000024  0000000000000274  0000000000000274  00000274  2**2
                  CONTENTS, ALLOC, LOAD, READONLY, DATA
  3 .gnu.hash     0000001c  0000000000000298  0000000000000298  00000298  2**3
                  CONTENTS, ALLOC, LOAD, READONLY, DATA
  4 .dynsym       00000090  00000000000002b8  00000000000002b8  000002b8  2**3
                  CONTENTS, ALLOC, LOAD, READONLY, DATA
  5 .dynstr       0000007d  0000000000000348  0000000000000348  00000348  2**0
                  CONTENTS, ALLOC, LOAD, READONLY, DATA
  6 .gnu.version  0000000c  00000000000003c6  00000000000003c6  000003c6  2**1
                  CONTENTS, ALLOC, LOAD, READONLY, DATA
  7 .gnu.version_r 00000020  00000000000003d8  00000000000003d8  000003d8  2**3
                  CONTENTS, ALLOC, LOAD, READONLY, DATA
  8 .rela.dyn     000000c0  00000000000003f8  00000000000003f8  000003f8  2**3
                  CONTENTS, ALLOC, LOAD, READONLY, DATA
  9 .init         00000017  00000000000004b8  00000000000004b8  000004b8  2**2
                  CONTENTS, ALLOC, LOAD, READONLY, CODE
 10 .plt          00000010  00000000000004d0  00000000000004d0  000004d0  2**4
                  CONTENTS, ALLOC, LOAD, READONLY, CODE
 11 .plt.got      00000008  00000000000004e0  00000000000004e0  000004e0  2**3
                  CONTENTS, ALLOC, LOAD, READONLY, CODE
 12 .text         000001c2  00000000000004f0  00000000000004f0  000004f0  2**4
                  CONTENTS, ALLOC, LOAD, READONLY, CODE
 13 .fini         00000009  00000000000006b4  00000000000006b4  000006b4  2**2
                  CONTENTS, ALLOC, LOAD, READONLY, CODE
 14 .rodata       0000000c  00000000000006c0  00000000000006c0  000006c0  2**2
                  CONTENTS, ALLOC, LOAD, READONLY, DATA
 15 .eh_frame_hdr 0000003c  00000000000006cc  00000000000006cc  000006cc  2**2
                  CONTENTS, ALLOC, LOAD, READONLY, DATA
 16 .eh_frame     00000108  0000000000000708  0000000000000708  00000708  2**3
                  CONTENTS, ALLOC, LOAD, READONLY, DATA
 17 .init_array   00000008  0000000000200df0  0000000000200df0  00000df0  2**3
                  CONTENTS, ALLOC, LOAD, DATA
 18 .fini_array   00000008  0000000000200df8  0000000000200df8  00000df8  2**3
                  CONTENTS, ALLOC, LOAD, DATA
 19 .dynamic      000001c0  0000000000200e00  0000000000200e00  00000e00  2**3
                  CONTENTS, ALLOC, LOAD, DATA
 20 .got          00000040  0000000000200fc0  0000000000200fc0  00000fc0  2**3
                  CONTENTS, ALLOC, LOAD, DATA
 21 .data         00000010  0000000000201000  0000000000201000  00001000  2**3
                  CONTENTS, ALLOC, LOAD, DATA
 22 .bss          00000008  0000000000201010  0000000000201010  00001010  2**0
                  ALLOC
 23 .comment      0000002a  0000000000000000  0000000000000000  00001010  2**0
                  CONTENTS, READONLY
SYMBOL TABLE:
0000000000000238 l    d  .interp	0000000000000000              .interp
0000000000000254 l    d  .note.ABI-tag	0000000000000000              .note.ABI-tag
0000000000000274 l    d  .note.gnu.build-id	0000000000000000              .note.gnu.build-id
0000000000000298 l    d  .gnu.hash	0000000000000000              .gnu.hash
00000000000002b8 l    d  .dynsym	0000000000000000              .dynsym
0000000000000348 l    d  .dynstr	0000000000000000              .dynstr
00000000000003c6 l    d  .gnu.version	0000000000000000              .gnu.version
00000000000003d8 l    d  .gnu.version_r	0000000000000000              .gnu.version_r
00000000000003f8 l    d  .rela.dyn	0000000000000000              .rela.dyn
00000000000004b8 l    d  .init	0000000000000000              .init
00000000000004d0 l    d  .plt	0000000000000000              .plt
00000000000004e0 l    d  .plt.got	0000000000000000              .plt.got
00000000000004f0 l    d  .text	0000000000000000              .text
00000000000006b4 l    d  .fini	0000000000000000              .fini
00000000000006c0 l    d  .rodata	0000000000000000              .rodata
00000000000006cc l    d  .eh_frame_hdr	0000000000000000              .eh_frame_hdr
0000000000000708 l    d  .eh_frame	0000000000000000              .eh_frame
0000000000200df0 l    d  .init_array	0000000000000000              .init_array
0000000000200df8 l    d  .fini_array	0000000000000000              .fini_array
0000000000200e00 l    d  .dynamic	0000000000000000              .dynamic
0000000000200fc0 l    d  .got	0000000000000000              .got
0000000000201000 l    d  .data	0000000000000000              .data
0000000000201010 l    d  .bss	0000000000000000              .bss
0000000000000000 l    d  .comment	0000000000000000              .comment
0000000000000000 l    df *ABS*	0000000000000000              crtstuff.c
0000000000000520 l     F .text	0000000000000000              deregister_tm_clones
0000000000000560 l     F .text	0000000000000000              register_tm_clones
00000000000005b0 l     F .text	0000000000000000              __do_global_dtors_aux
0000000000201010 l     O .bss	0000000000000001              completed.7696
0000000000200df8 l     O .fini_array	0000000000000000              __do_global_dtors_aux_fini_array_entry
00000000000005f0 l     F .text	0000000000000000              frame_dummy
0000000000200df0 l     O .init_array	0000000000000000              __frame_dummy_init_array_entry
0000000000000000 l    df *ABS*	0000000000000000              add_float.c
0000000000000000 l    df *ABS*	0000000000000000              crtstuff.c
000000000000080c l     O .eh_frame	0000000000000000              __FRAME_END__
0000000000000000 l    df *ABS*	0000000000000000              
0000000000200df8 l       .init_array	0000000000000000              __init_array_end
0000000000200e00 l     O .dynamic	0000000000000000              _DYNAMIC
0000000000200df0 l       .init_array	0000000000000000              __init_array_start
00000000000006cc l       .eh_frame_hdr	0000000000000000              __GNU_EH_FRAME_HDR
0000000000200fc0 l     O .got	0000000000000000              _GLOBAL_OFFSET_TABLE_
00000000000006b0 g     F .text	0000000000000002              __libc_csu_fini
0000000000000000  w      *UND*	0000000000000000              _ITM_deregisterTMCloneTable
0000000000201000  w      .data	0000000000000000              data_start
0000000000201010 g       .data	0000000000000000              _edata
00000000000006b4 g     F .fini	0000000000000000              _fini
0000000000000000       F *UND*	0000000000000000              __libc_start_main@@GLIBC_2.2.5
0000000000201000 g       .data	0000000000000000              __data_start
0000000000000000  w      *UND*	0000000000000000              __gmon_start__
0000000000201008 g     O .data	0000000000000000              .hidden __dso_handle
00000000000006c0 g     O .rodata	0000000000000004              _IO_stdin_used
0000000000000640 g     F .text	0000000000000065              __libc_csu_init
0000000000201018 g       .bss	0000000000000000              _end
00000000000004f0 g     F .text	000000000000002b              _start
0000000000201010 g       .bss	0000000000000000              __bss_start
00000000000005fa g     F .text	000000000000003b              main
0000000000201010 g     O .data	0000000000000000              .hidden __TMC_END__
0000000000000000  w      *UND*	0000000000000000              _ITM_registerTMCloneTable
0000000000000000  w    F *UND*	0000000000000000              __cxa_finalize@@GLIBC_2.2.5
00000000000004b8 g     F .init	0000000000000000              _init


Contents of section .interp:
 0238 2f6c6962 36342f6c 642d6c69 6e75782d  /lib64/ld-linux-
 0248 7838362d 36342e73 6f2e3200           x86-64.so.2.    
Contents of section .note.ABI-tag:
 0254 04000000 10000000 01000000 474e5500  ............GNU.
 0264 00000000 03000000 02000000 00000000  ................
Contents of section .note.gnu.build-id:
 0274 04000000 14000000 03000000 474e5500  ............GNU.
 0284 47e3472c ea4fabc0 c629ff61 e398dc90  G.G,.O...).a....
 0294 d35bd326                             .[.&            
Contents of section .gnu.hash:
 0298 01000000 01000000 01000000 00000000  ................
 02a8 00000000 00000000 00000000           ............    
Contents of section .dynsym:
 02b8 00000000 00000000 00000000 00000000  ................
 02c8 00000000 00000000 38000000 20000000  ........8... ...
 02d8 00000000 00000000 00000000 00000000  ................
 02e8 1a000000 12000000 00000000 00000000  ................
 02f8 00000000 00000000 54000000 20000000  ........T... ...
 0308 00000000 00000000 00000000 00000000  ................
 0318 63000000 20000000 00000000 00000000  c... ...........
 0328 00000000 00000000 0b000000 22000000  ............"...
 0338 00000000 00000000 00000000 00000000  ................
Contents of section .dynstr:
 0348 006c6962 632e736f 2e36005f 5f637861  .libc.so.6.__cxa
 0358 5f66696e 616c697a 65005f5f 6c696263  _finalize.__libc
 0368 5f737461 72745f6d 61696e00 474c4942  _start_main.GLIB
 0378 435f322e 322e3500 5f49544d 5f646572  C_2.2.5._ITM_der
 0388 65676973 74657254 4d436c6f 6e655461  egisterTMCloneTa
 0398 626c6500 5f5f676d 6f6e5f73 74617274  ble.__gmon_start
 03a8 5f5f005f 49544d5f 72656769 73746572  __._ITM_register
 03b8 544d436c 6f6e6554 61626c65 00        TMCloneTable.   
Contents of section .gnu.version:
 03c6 00000000 02000000 00000200           ............    
Contents of section .gnu.version_r:
 03d8 01000100 01000000 10000000 00000000  ................
 03e8 751a6909 00000200 2c000000 00000000  u.i.....,.......
Contents of section .rela.dyn:
 03f8 f00d2000 00000000 08000000 00000000  .. .............
 0408 f0050000 00000000 f80d2000 00000000  .......... .....
 0418 08000000 00000000 b0050000 00000000  ................
 0428 08102000 00000000 08000000 00000000  .. .............
 0438 08102000 00000000 d80f2000 00000000  .. ....... .....
 0448 06000000 01000000 00000000 00000000  ................
 0458 e00f2000 00000000 06000000 02000000  .. .............
 0468 00000000 00000000 e80f2000 00000000  .......... .....
 0478 06000000 03000000 00000000 00000000  ................
 0488 f00f2000 00000000 06000000 04000000  .. .............
 0498 00000000 00000000 f80f2000 00000000  .......... .....
 04a8 06000000 05000000 00000000 00000000  ................
Contents of section .init:
 04b8 4883ec08 488b0525 0b200048 85c07402  H...H..%. .H..t.
 04c8 ffd04883 c408c3                      ..H....         
Contents of section .plt:
 04d0 ff35f20a 2000ff25 f40a2000 0f1f4000  .5.. ..%.. ...@.
Contents of section .plt.got:
 04e0 ff25120b 20006690                    .%.. .f.        
Contents of section .text:
 04f0 31ed4989 d15e4889 e24883e4 f050544c  1.I..^H..H...PTL
 0500 8d05aa01 0000488d 0d330100 00488d3d  ......H..3...H.=
 0510 e6000000 ff15c60a 2000f40f 1f440000  ........ ....D..
 0520 488d3de9 0a200055 488d05e1 0a200048  H.=.. .UH.... .H
 0530 39f84889 e5741948 8b059a0a 20004885  9.H..t.H.... .H.
 0540 c0740d5d ffe0662e 0f1f8400 00000000  .t.]..f.........
 0550 5dc30f1f 4000662e 0f1f8400 00000000  ]...@.f.........
 0560 488d3da9 0a200048 8d35a20a 20005548  H.=.. .H.5.. .UH
 0570 29fe4889 e548c1fe 034889f0 48c1e83f  ).H..H...H..H..?
 0580 4801c648 d1fe7418 488b0561 0a200048  H..H..t.H..a. .H
 0590 85c0740c 5dffe066 0f1f8400 00000000  ..t.]..f........
 05a0 5dc30f1f 4000662e 0f1f8400 00000000  ]...@.f.........
 05b0 803d590a 20000075 2f48833d 370a2000  .=Y. ..u/H.=7. .
 05c0 00554889 e5740c48 8b3d3a0a 2000e80d  .UH..t.H.=:. ...
 05d0 ffffffe8 48ffffff c605310a 2000015d  ....H.....1. ..]
 05e0 c30f1f80 00000000 f3c3660f 1f440000  ..........f..D..
 05f0 554889e5 5de966ff ffff5548 89e5897d  UH..].f...UH...}
 0600 ec488975 e0f30f10 05b70000 00f30f11  .H.u............
 0610 45f4f30f 1005ae00 0000f30f 1145f8f3  E............E..
 0620 0f1045f4 f30f5845 f8f30f11 45fcb800  ..E...XE....E...
 0630 0000005d c3662e0f 1f840000 00000090  ...].f..........
 0640 41574156 4989d741 5541544c 8d259e07  AWAVI..AUATL.%..
 0650 20005548 8d2d9e07 20005341 89fd4989   .UH.-.. .SA..I.
 0660 f64c29e5 4883ec08 48c1fd03 e847feff  .L).H...H....G..
 0670 ff4885ed 742031db 0f1f8400 00000000  .H..t 1.........
 0680 4c89fa4c 89f64489 ef41ff14 dc4883c3  L..L..D..A...H..
 0690 014839dd 75ea4883 c4085b5d 415c415d  .H9.u.H...[]A\A]
 06a0 415e415f c390662e 0f1f8400 00000000  A^A_..f.........
 06b0 f3c3                                 ..              
Contents of section .fini:
 06b4 4883ec08 4883c408 c3                 H...H....       
Contents of section .rodata:
 06c0 01000200 cdcc0c40 33335340           .......@33S@    
Contents of section .eh_frame_hdr:
 06cc 011b033b 38000000 06000000 04feffff  ...;8...........
 06dc 84000000 14feffff ac000000 24feffff  ............$...
 06ec 54000000 2effffff c4000000 74ffffff  T...........t...
 06fc e4000000 e4ffffff 2c010000           ........,...    
Contents of section .eh_frame:
 0708 14000000 00000000 017a5200 01781001  .........zR..x..
 0718 1b0c0708 90010710 14000000 1c000000  ................
 0728 c8fdffff 2b000000 00000000 00000000  ....+...........
 0738 14000000 00000000 017a5200 01781001  .........zR..x..
 0748 1b0c0708 90010000 24000000 1c000000  ........$.......
 0758 78fdffff 10000000 000e1046 0e184a0f  x..........F..J.
 0768 0b770880 003f1a3b 2a332422 00000000  .w...?.;*3$"....
 0778 14000000 44000000 60fdffff 08000000  ....D...`.......
 0788 00000000 00000000 1c000000 5c000000  ............\...
 0798 62feffff 3b000000 00410e10 8602430d  b...;....A....C.
 07a8 06760c07 08000000 44000000 7c000000  .v......D...|...
 07b8 88feffff 65000000 00420e10 8f02420e  ....e....B....B.
 07c8 188e0345 0e208d04 420e288c 05480e30  ...E. ..B.(..H.0
 07d8 8606480e 3883074d 0e40720e 38410e30  ..H.8..M.@r.8A.0
 07e8 410e2842 0e20420e 18420e10 420e0800  A.(B. B..B..B...
 07f8 10000000 c4000000 b0feffff 02000000  ................
 0808 00000000 00000000                    ........        
Contents of section .init_array:
 200df0 f0050000 00000000                    ........        
Contents of section .fini_array:
 200df8 b0050000 00000000                    ........        
Contents of section .dynamic:
 200e00 01000000 00000000 01000000 00000000  ................
 200e10 0c000000 00000000 b8040000 00000000  ................
 200e20 0d000000 00000000 b4060000 00000000  ................
 200e30 19000000 00000000 f00d2000 00000000  .......... .....
 200e40 1b000000 00000000 08000000 00000000  ................
 200e50 1a000000 00000000 f80d2000 00000000  .......... .....
 200e60 1c000000 00000000 08000000 00000000  ................
 200e70 f5feff6f 00000000 98020000 00000000  ...o............
 200e80 05000000 00000000 48030000 00000000  ........H.......
 200e90 06000000 00000000 b8020000 00000000  ................
 200ea0 0a000000 00000000 7d000000 00000000  ........}.......
 200eb0 0b000000 00000000 18000000 00000000  ................
 200ec0 15000000 00000000 00000000 00000000  ................
 200ed0 03000000 00000000 c00f2000 00000000  .......... .....
 200ee0 07000000 00000000 f8030000 00000000  ................
 200ef0 08000000 00000000 c0000000 00000000  ................
 200f00 09000000 00000000 18000000 00000000  ................
 200f10 1e000000 00000000 08000000 00000000  ................
 200f20 fbffff6f 00000000 01000008 00000000  ...o............
 200f30 feffff6f 00000000 d8030000 00000000  ...o............
 200f40 ffffff6f 00000000 01000000 00000000  ...o............
 200f50 f0ffff6f 00000000 c6030000 00000000  ...o............
 200f60 f9ffff6f 00000000 03000000 00000000  ...o............
 200f70 00000000 00000000 00000000 00000000  ................
 200f80 00000000 00000000 00000000 00000000  ................
 200f90 00000000 00000000 00000000 00000000  ................
 200fa0 00000000 00000000 00000000 00000000  ................
 200fb0 00000000 00000000 00000000 00000000  ................
Contents of section .got:
 200fc0 000e2000 00000000 00000000 00000000  .. .............
 200fd0 00000000 00000000 00000000 00000000  ................
 200fe0 00000000 00000000 00000000 00000000  ................
 200ff0 00000000 00000000 00000000 00000000  ................
Contents of section .data:
 201000 00000000 00000000 08102000 00000000  .......... .....
Contents of section .comment:
 0000 4743433a 20285562 756e7475 20372e33  GCC: (Ubuntu 7.3
 0010 2e302d32 37756275 6e747531 7e31382e  .0-27ubuntu1~18.
 0020 30342920 372e332e 3000               04) 7.3.0.      

Disassembly of section .init:

00000000000004b8 <_init>:
 4b8:	48 83 ec 08          	sub    rsp,0x8
 4bc:	48 8b 05 25 0b 20 00 	mov    rax,QWORD PTR [rip+0x200b25]        # 200fe8 <__gmon_start__>
 4c3:	48 85 c0             	test   rax,rax
 4c6:	74 02                	je     4ca <_init+0x12>
 4c8:	ff d0                	call   rax
 4ca:	48 83 c4 08          	add    rsp,0x8
 4ce:	c3                   	ret    

Disassembly of section .plt:

00000000000004d0 <.plt>:
 4d0:	ff 35 f2 0a 20 00    	push   QWORD PTR [rip+0x200af2]        # 200fc8 <_GLOBAL_OFFSET_TABLE_+0x8>
 4d6:	ff 25 f4 0a 20 00    	jmp    QWORD PTR [rip+0x200af4]        # 200fd0 <_GLOBAL_OFFSET_TABLE_+0x10>
 4dc:	0f 1f 40 00          	nop    DWORD PTR [rax+0x0]

Disassembly of section .plt.got:

00000000000004e0 <__cxa_finalize@plt>:
 4e0:	ff 25 12 0b 20 00    	jmp    QWORD PTR [rip+0x200b12]        # 200ff8 <__cxa_finalize@GLIBC_2.2.5>
 4e6:	66 90                	xchg   ax,ax

Disassembly of section .text:

00000000000004f0 <_start>:
 4f0:	31 ed                	xor    ebp,ebp
 4f2:	49 89 d1             	mov    r9,rdx
 4f5:	5e                   	pop    rsi
 4f6:	48 89 e2             	mov    rdx,rsp
 4f9:	48 83 e4 f0          	and    rsp,0xfffffffffffffff0
 4fd:	50                   	push   rax
 4fe:	54                   	push   rsp
 4ff:	4c 8d 05 aa 01 00 00 	lea    r8,[rip+0x1aa]        # 6b0 <__libc_csu_fini>
 506:	48 8d 0d 33 01 00 00 	lea    rcx,[rip+0x133]        # 640 <__libc_csu_init>
 50d:	48 8d 3d e6 00 00 00 	lea    rdi,[rip+0xe6]        # 5fa <main>
 514:	ff 15 c6 0a 20 00    	call   QWORD PTR [rip+0x200ac6]        # 200fe0 <__libc_start_main@GLIBC_2.2.5>
 51a:	f4                   	hlt    
 51b:	0f 1f 44 00 00       	nop    DWORD PTR [rax+rax*1+0x0]

0000000000000520 <deregister_tm_clones>:
 520:	48 8d 3d e9 0a 20 00 	lea    rdi,[rip+0x200ae9]        # 201010 <__TMC_END__>
 527:	55                   	push   rbp
 528:	48 8d 05 e1 0a 20 00 	lea    rax,[rip+0x200ae1]        # 201010 <__TMC_END__>
 52f:	48 39 f8             	cmp    rax,rdi
 532:	48 89 e5             	mov    rbp,rsp
 535:	74 19                	je     550 <deregister_tm_clones+0x30>
 537:	48 8b 05 9a 0a 20 00 	mov    rax,QWORD PTR [rip+0x200a9a]        # 200fd8 <_ITM_deregisterTMCloneTable>
 53e:	48 85 c0             	test   rax,rax
 541:	74 0d                	je     550 <deregister_tm_clones+0x30>
 543:	5d                   	pop    rbp
 544:	ff e0                	jmp    rax
 546:	66 2e 0f 1f 84 00 00 	nop    WORD PTR cs:[rax+rax*1+0x0]
 54d:	00 00 00 
 550:	5d                   	pop    rbp
 551:	c3                   	ret    
 552:	0f 1f 40 00          	nop    DWORD PTR [rax+0x0]
 556:	66 2e 0f 1f 84 00 00 	nop    WORD PTR cs:[rax+rax*1+0x0]
 55d:	00 00 00 

0000000000000560 <register_tm_clones>:
 560:	48 8d 3d a9 0a 20 00 	lea    rdi,[rip+0x200aa9]        # 201010 <__TMC_END__>
 567:	48 8d 35 a2 0a 20 00 	lea    rsi,[rip+0x200aa2]        # 201010 <__TMC_END__>
 56e:	55                   	push   rbp
 56f:	48 29 fe             	sub    rsi,rdi
 572:	48 89 e5             	mov    rbp,rsp
 575:	48 c1 fe 03          	sar    rsi,0x3
 579:	48 89 f0             	mov    rax,rsi
 57c:	48 c1 e8 3f          	shr    rax,0x3f
 580:	48 01 c6             	add    rsi,rax
 583:	48 d1 fe             	sar    rsi,1
 586:	74 18                	je     5a0 <register_tm_clones+0x40>
 588:	48 8b 05 61 0a 20 00 	mov    rax,QWORD PTR [rip+0x200a61]        # 200ff0 <_ITM_registerTMCloneTable>
 58f:	48 85 c0             	test   rax,rax
 592:	74 0c                	je     5a0 <register_tm_clones+0x40>
 594:	5d                   	pop    rbp
 595:	ff e0                	jmp    rax
 597:	66 0f 1f 84 00 00 00 	nop    WORD PTR [rax+rax*1+0x0]
 59e:	00 00 
 5a0:	5d                   	pop    rbp
 5a1:	c3                   	ret    
 5a2:	0f 1f 40 00          	nop    DWORD PTR [rax+0x0]
 5a6:	66 2e 0f 1f 84 00 00 	nop    WORD PTR cs:[rax+rax*1+0x0]
 5ad:	00 00 00 

00000000000005b0 <__do_global_dtors_aux>:
 5b0:	80 3d 59 0a 20 00 00 	cmp    BYTE PTR [rip+0x200a59],0x0        # 201010 <__TMC_END__>
 5b7:	75 2f                	jne    5e8 <__do_global_dtors_aux+0x38>
 5b9:	48 83 3d 37 0a 20 00 	cmp    QWORD PTR [rip+0x200a37],0x0        # 200ff8 <__cxa_finalize@GLIBC_2.2.5>
 5c0:	00 
 5c1:	55                   	push   rbp
 5c2:	48 89 e5             	mov    rbp,rsp
 5c5:	74 0c                	je     5d3 <__do_global_dtors_aux+0x23>
 5c7:	48 8b 3d 3a 0a 20 00 	mov    rdi,QWORD PTR [rip+0x200a3a]        # 201008 <__dso_handle>
 5ce:	e8 0d ff ff ff       	call   4e0 <__cxa_finalize@plt>
 5d3:	e8 48 ff ff ff       	call   520 <deregister_tm_clones>
 5d8:	c6 05 31 0a 20 00 01 	mov    BYTE PTR [rip+0x200a31],0x1        # 201010 <__TMC_END__>
 5df:	5d                   	pop    rbp
 5e0:	c3                   	ret    
 5e1:	0f 1f 80 00 00 00 00 	nop    DWORD PTR [rax+0x0]
 5e8:	f3 c3                	repz ret 
 5ea:	66 0f 1f 44 00 00    	nop    WORD PTR [rax+rax*1+0x0]

00000000000005f0 <frame_dummy>:
 5f0:	55                   	push   rbp
 5f1:	48 89 e5             	mov    rbp,rsp
 5f4:	5d                   	pop    rbp
 5f5:	e9 66 ff ff ff       	jmp    560 <register_tm_clones>

00000000000005fa <main>:
 5fa:	55                   	push   rbp
 5fb:	48 89 e5             	mov    rbp,rsp
 5fe:	89 7d ec             	mov    DWORD PTR [rbp-0x14],edi
 601:	48 89 75 e0          	mov    QWORD PTR [rbp-0x20],rsi
 605:	f3 0f 10 05 b7 00 00 	movss  xmm0,DWORD PTR [rip+0xb7]        # 6c4 <_IO_stdin_used+0x4>
 60c:	00 
 60d:	f3 0f 11 45 f4       	movss  DWORD PTR [rbp-0xc],xmm0
 612:	f3 0f 10 05 ae 00 00 	movss  xmm0,DWORD PTR [rip+0xae]        # 6c8 <_IO_stdin_used+0x8>
 619:	00 
 61a:	f3 0f 11 45 f8       	movss  DWORD PTR [rbp-0x8],xmm0
 61f:	f3 0f 10 45 f4       	movss  xmm0,DWORD PTR [rbp-0xc]
 624:	f3 0f 58 45 f8       	addss  xmm0,DWORD PTR [rbp-0x8]
 629:	f3 0f 11 45 fc       	movss  DWORD PTR [rbp-0x4],xmm0
 62e:	b8 00 00 00 00       	mov    eax,0x0
 633:	5d                   	pop    rbp
 634:	c3                   	ret    
 635:	66 2e 0f 1f 84 00 00 	nop    WORD PTR cs:[rax+rax*1+0x0]
 63c:	00 00 00 
 63f:	90                   	nop

0000000000000640 <__libc_csu_init>:
 640:	41 57                	push   r15
 642:	41 56                	push   r14
 644:	49 89 d7             	mov    r15,rdx
 647:	41 55                	push   r13
 649:	41 54                	push   r12
 64b:	4c 8d 25 9e 07 20 00 	lea    r12,[rip+0x20079e]        # 200df0 <__frame_dummy_init_array_entry>
 652:	55                   	push   rbp
 653:	48 8d 2d 9e 07 20 00 	lea    rbp,[rip+0x20079e]        # 200df8 <__init_array_end>
 65a:	53                   	push   rbx
 65b:	41 89 fd             	mov    r13d,edi
 65e:	49 89 f6             	mov    r14,rsi
 661:	4c 29 e5             	sub    rbp,r12
 664:	48 83 ec 08          	sub    rsp,0x8
 668:	48 c1 fd 03          	sar    rbp,0x3
 66c:	e8 47 fe ff ff       	call   4b8 <_init>
 671:	48 85 ed             	test   rbp,rbp
 674:	74 20                	je     696 <__libc_csu_init+0x56>
 676:	31 db                	xor    ebx,ebx
 678:	0f 1f 84 00 00 00 00 	nop    DWORD PTR [rax+rax*1+0x0]
 67f:	00 
 680:	4c 89 fa             	mov    rdx,r15
 683:	4c 89 f6             	mov    rsi,r14
 686:	44 89 ef             	mov    edi,r13d
 689:	41 ff 14 dc          	call   QWORD PTR [r12+rbx*8]
 68d:	48 83 c3 01          	add    rbx,0x1
 691:	48 39 dd             	cmp    rbp,rbx
 694:	75 ea                	jne    680 <__libc_csu_init+0x40>
 696:	48 83 c4 08          	add    rsp,0x8
 69a:	5b                   	pop    rbx
 69b:	5d                   	pop    rbp
 69c:	41 5c                	pop    r12
 69e:	41 5d                	pop    r13
 6a0:	41 5e                	pop    r14
 6a2:	41 5f                	pop    r15
 6a4:	c3                   	ret    
 6a5:	90                   	nop
 6a6:	66 2e 0f 1f 84 00 00 	nop    WORD PTR cs:[rax+rax*1+0x0]
 6ad:	00 00 00 

00000000000006b0 <__libc_csu_fini>:
 6b0:	f3 c3                	repz ret 

Disassembly of section .fini:

00000000000006b4 <_fini>:
 6b4:	48 83 ec 08          	sub    rsp,0x8
 6b8:	48 83 c4 08          	add    rsp,0x8
 6bc:	c3                   	ret    
