	.file	"add_int.f08"
	.text
.Ltext0:
	.type	MAIN__, @function
MAIN__:
.LFB0:
	.file 1 "add_int.f08"
	.loc 1 1 0
	.cfi_startproc
	pushl	%ebp
	.cfi_def_cfa_offset 8
	.cfi_offset 5, -8
	movl	%esp, %ebp
	.cfi_def_cfa_register 5
	subl	$16, %esp
	call	__x86.get_pc_thunk.ax
	addl	$_GLOBAL_OFFSET_TABLE_, %eax
	.loc 1 7 0
	movl	$1, -4(%ebp)
	.loc 1 8 0
	movl	$9, -8(%ebp)
	.loc 1 10 0
	movl	-4(%ebp), %edx
	movl	-8(%ebp), %eax
	addl	%edx, %eax
	movl	%eax, -12(%ebp)
	.loc 1 12 0
	nop
	leave
	.cfi_restore 5
	.cfi_def_cfa 4, 4
	ret
	.cfi_endproc
.LFE0:
	.size	MAIN__, .-MAIN__
	.globl	main
	.type	main, @function
main:
.LFB1:
	.loc 1 12 0
	.cfi_startproc
	leal	4(%esp), %ecx
	.cfi_def_cfa 1, 0
	andl	$-16, %esp
	pushl	-4(%ecx)
	pushl	%ebp
	.cfi_escape 0x10,0x5,0x2,0x75,0
	movl	%esp, %ebp
	pushl	%ebx
	pushl	%ecx
	.cfi_escape 0xf,0x3,0x75,0x78,0x6
	.cfi_escape 0x10,0x3,0x2,0x75,0x7c
	call	__x86.get_pc_thunk.bx
	addl	$_GLOBAL_OFFSET_TABLE_, %ebx
	movl	%ecx, %eax
	.loc 1 12 0
	subl	$8, %esp
	pushl	4(%eax)
	pushl	(%eax)
	call	_gfortran_set_args@PLT
	addl	$16, %esp
	subl	$8, %esp
	leal	options.0.3693@GOTOFF(%ebx), %eax
	pushl	%eax
	pushl	$7
	call	_gfortran_set_options@PLT
	addl	$16, %esp
	call	MAIN__
	movl	$0, %eax
	leal	-8(%ebp), %esp
	popl	%ecx
	.cfi_restore 1
	.cfi_def_cfa 1, 0
	popl	%ebx
	.cfi_restore 3
	popl	%ebp
	.cfi_restore 5
	leal	-4(%ecx), %esp
	.cfi_def_cfa 4, 4
	ret
	.cfi_endproc
.LFE1:
	.size	main, .-main
	.section	.rodata
	.align 4
	.type	options.0.3693, @object
	.size	options.0.3693, 28
options.0.3693:
	.long	68
	.long	8191
	.long	0
	.long	1
	.long	1
	.long	0
	.long	31
	.section	.text.__x86.get_pc_thunk.ax,"axG",@progbits,__x86.get_pc_thunk.ax,comdat
	.globl	__x86.get_pc_thunk.ax
	.hidden	__x86.get_pc_thunk.ax
	.type	__x86.get_pc_thunk.ax, @function
__x86.get_pc_thunk.ax:
.LFB2:
	.cfi_startproc
	movl	(%esp), %eax
	ret
	.cfi_endproc
.LFE2:
	.section	.text.__x86.get_pc_thunk.bx,"axG",@progbits,__x86.get_pc_thunk.bx,comdat
	.globl	__x86.get_pc_thunk.bx
	.hidden	__x86.get_pc_thunk.bx
	.type	__x86.get_pc_thunk.bx, @function
__x86.get_pc_thunk.bx:
.LFB3:
	.cfi_startproc
	movl	(%esp), %ebx
	ret
	.cfi_endproc
.LFE3:
	.text
.Letext0:
	.section	.note.GNU-stack,"",@progbits
