
print_Fortran_AMD64_ggdb3:     file format elf64-x86-64
print_Fortran_AMD64_ggdb3
architecture: i386:x86-64, flags 0x00000150:
HAS_SYMS, DYNAMIC, D_PAGED
start address 0x00000000000006f0

Program Header:
    PHDR off    0x0000000000000040 vaddr 0x0000000000000040 paddr 0x0000000000000040 align 2**3
         filesz 0x00000000000001f8 memsz 0x00000000000001f8 flags r--
  INTERP off    0x0000000000000238 vaddr 0x0000000000000238 paddr 0x0000000000000238 align 2**0
         filesz 0x000000000000001c memsz 0x000000000000001c flags r--
    LOAD off    0x0000000000000000 vaddr 0x0000000000000000 paddr 0x0000000000000000 align 2**21
         filesz 0x0000000000000ae8 memsz 0x0000000000000ae8 flags r-x
    LOAD off    0x0000000000000d88 vaddr 0x0000000000200d88 paddr 0x0000000000200d88 align 2**21
         filesz 0x0000000000000288 memsz 0x0000000000000290 flags rw-
 DYNAMIC off    0x0000000000000d98 vaddr 0x0000000000200d98 paddr 0x0000000000200d98 align 2**3
         filesz 0x0000000000000200 memsz 0x0000000000000200 flags rw-
    NOTE off    0x0000000000000254 vaddr 0x0000000000000254 paddr 0x0000000000000254 align 2**2
         filesz 0x0000000000000044 memsz 0x0000000000000044 flags r--
EH_FRAME off    0x000000000000097c vaddr 0x000000000000097c paddr 0x000000000000097c align 2**2
         filesz 0x0000000000000044 memsz 0x0000000000000044 flags r--
   STACK off    0x0000000000000000 vaddr 0x0000000000000000 paddr 0x0000000000000000 align 2**4
         filesz 0x0000000000000000 memsz 0x0000000000000000 flags rw-
   RELRO off    0x0000000000000d88 vaddr 0x0000000000200d88 paddr 0x0000000000200d88 align 2**0
         filesz 0x0000000000000278 memsz 0x0000000000000278 flags r--

Dynamic Section:
  NEEDED               libgfortran.so.4
  NEEDED               libc.so.6
  INIT                 0x0000000000000660
  FINI                 0x0000000000000924
  INIT_ARRAY           0x0000000000200d88
  INIT_ARRAYSZ         0x0000000000000008
  FINI_ARRAY           0x0000000000200d90
  FINI_ARRAYSZ         0x0000000000000008
  GNU_HASH             0x0000000000000298
  STRTAB               0x00000000000003c0
  SYMTAB               0x00000000000002b8
  STRSZ                0x0000000000000110
  SYMENT               0x0000000000000018
  DEBUG                0x0000000000000000
  PLTGOT               0x0000000000200f98
  PLTRELSZ             0x0000000000000078
  PLTREL               0x0000000000000007
  JMPREL               0x00000000000005e8
  RELA                 0x0000000000000528
  RELASZ               0x00000000000000c0
  RELAENT              0x0000000000000018
  FLAGS                0x0000000000000008
  FLAGS_1              0x0000000008000001
  VERNEED              0x00000000000004e8
  VERNEEDNUM           0x0000000000000002
  VERSYM               0x00000000000004d0
  RELACOUNT            0x0000000000000003

Version References:
  required from libc.so.6:
    0x09691a75 0x00 03 GLIBC_2.2.5
  required from libgfortran.so.4:
    0x0792f967 0x00 02 GFORTRAN_7

Sections:
Idx Name          Size      VMA               LMA               File off  Algn
  0 .interp       0000001c  0000000000000238  0000000000000238  00000238  2**0
                  CONTENTS, ALLOC, LOAD, READONLY, DATA
  1 .note.ABI-tag 00000020  0000000000000254  0000000000000254  00000254  2**2
                  CONTENTS, ALLOC, LOAD, READONLY, DATA
  2 .note.gnu.build-id 00000024  0000000000000274  0000000000000274  00000274  2**2
                  CONTENTS, ALLOC, LOAD, READONLY, DATA
  3 .gnu.hash     0000001c  0000000000000298  0000000000000298  00000298  2**3
                  CONTENTS, ALLOC, LOAD, READONLY, DATA
  4 .dynsym       00000108  00000000000002b8  00000000000002b8  000002b8  2**3
                  CONTENTS, ALLOC, LOAD, READONLY, DATA
  5 .dynstr       00000110  00000000000003c0  00000000000003c0  000003c0  2**0
                  CONTENTS, ALLOC, LOAD, READONLY, DATA
  6 .gnu.version  00000016  00000000000004d0  00000000000004d0  000004d0  2**1
                  CONTENTS, ALLOC, LOAD, READONLY, DATA
  7 .gnu.version_r 00000040  00000000000004e8  00000000000004e8  000004e8  2**3
                  CONTENTS, ALLOC, LOAD, READONLY, DATA
  8 .rela.dyn     000000c0  0000000000000528  0000000000000528  00000528  2**3
                  CONTENTS, ALLOC, LOAD, READONLY, DATA
  9 .rela.plt     00000078  00000000000005e8  00000000000005e8  000005e8  2**3
                  CONTENTS, ALLOC, LOAD, READONLY, DATA
 10 .init         00000017  0000000000000660  0000000000000660  00000660  2**2
                  CONTENTS, ALLOC, LOAD, READONLY, CODE
 11 .plt          00000060  0000000000000680  0000000000000680  00000680  2**4
                  CONTENTS, ALLOC, LOAD, READONLY, CODE
 12 .plt.got      00000008  00000000000006e0  00000000000006e0  000006e0  2**3
                  CONTENTS, ALLOC, LOAD, READONLY, CODE
 13 .text         00000232  00000000000006f0  00000000000006f0  000006f0  2**4
                  CONTENTS, ALLOC, LOAD, READONLY, CODE
 14 .fini         00000009  0000000000000924  0000000000000924  00000924  2**2
                  CONTENTS, ALLOC, LOAD, READONLY, CODE
 15 .rodata       0000004c  0000000000000930  0000000000000930  00000930  2**4
                  CONTENTS, ALLOC, LOAD, READONLY, DATA
 16 .eh_frame_hdr 00000044  000000000000097c  000000000000097c  0000097c  2**2
                  CONTENTS, ALLOC, LOAD, READONLY, DATA
 17 .eh_frame     00000128  00000000000009c0  00000000000009c0  000009c0  2**3
                  CONTENTS, ALLOC, LOAD, READONLY, DATA
 18 .init_array   00000008  0000000000200d88  0000000000200d88  00000d88  2**3
                  CONTENTS, ALLOC, LOAD, DATA
 19 .fini_array   00000008  0000000000200d90  0000000000200d90  00000d90  2**3
                  CONTENTS, ALLOC, LOAD, DATA
 20 .dynamic      00000200  0000000000200d98  0000000000200d98  00000d98  2**3
                  CONTENTS, ALLOC, LOAD, DATA
 21 .got          00000068  0000000000200f98  0000000000200f98  00000f98  2**3
                  CONTENTS, ALLOC, LOAD, DATA
 22 .data         00000010  0000000000201000  0000000000201000  00001000  2**3
                  CONTENTS, ALLOC, LOAD, DATA
 23 .bss          00000008  0000000000201010  0000000000201010  00001010  2**0
                  ALLOC
 24 .comment      0000002a  0000000000000000  0000000000000000  00001010  2**0
                  CONTENTS, READONLY
 25 .debug_aranges 00000030  0000000000000000  0000000000000000  0000103a  2**0
                  CONTENTS, READONLY, DEBUGGING
 26 .debug_info   000000b7  0000000000000000  0000000000000000  0000106a  2**0
                  CONTENTS, READONLY, DEBUGGING
 27 .debug_abbrev 0000007e  0000000000000000  0000000000000000  00001121  2**0
                  CONTENTS, READONLY, DEBUGGING
 28 .debug_line   00000041  0000000000000000  0000000000000000  0000119f  2**0
                  CONTENTS, READONLY, DEBUGGING
 29 .debug_str    0000013d  0000000000000000  0000000000000000  000011e0  2**0
                  CONTENTS, READONLY, DEBUGGING
 30 .debug_macro  0000000c  0000000000000000  0000000000000000  0000131d  2**0
                  CONTENTS, READONLY, DEBUGGING
SYMBOL TABLE:
0000000000000238 l    d  .interp	0000000000000000              .interp
0000000000000254 l    d  .note.ABI-tag	0000000000000000              .note.ABI-tag
0000000000000274 l    d  .note.gnu.build-id	0000000000000000              .note.gnu.build-id
0000000000000298 l    d  .gnu.hash	0000000000000000              .gnu.hash
00000000000002b8 l    d  .dynsym	0000000000000000              .dynsym
00000000000003c0 l    d  .dynstr	0000000000000000              .dynstr
00000000000004d0 l    d  .gnu.version	0000000000000000              .gnu.version
00000000000004e8 l    d  .gnu.version_r	0000000000000000              .gnu.version_r
0000000000000528 l    d  .rela.dyn	0000000000000000              .rela.dyn
00000000000005e8 l    d  .rela.plt	0000000000000000              .rela.plt
0000000000000660 l    d  .init	0000000000000000              .init
0000000000000680 l    d  .plt	0000000000000000              .plt
00000000000006e0 l    d  .plt.got	0000000000000000              .plt.got
00000000000006f0 l    d  .text	0000000000000000              .text
0000000000000924 l    d  .fini	0000000000000000              .fini
0000000000000930 l    d  .rodata	0000000000000000              .rodata
000000000000097c l    d  .eh_frame_hdr	0000000000000000              .eh_frame_hdr
00000000000009c0 l    d  .eh_frame	0000000000000000              .eh_frame
0000000000200d88 l    d  .init_array	0000000000000000              .init_array
0000000000200d90 l    d  .fini_array	0000000000000000              .fini_array
0000000000200d98 l    d  .dynamic	0000000000000000              .dynamic
0000000000200f98 l    d  .got	0000000000000000              .got
0000000000201000 l    d  .data	0000000000000000              .data
0000000000201010 l    d  .bss	0000000000000000              .bss
0000000000000000 l    d  .comment	0000000000000000              .comment
0000000000000000 l    d  .debug_aranges	0000000000000000              .debug_aranges
0000000000000000 l    d  .debug_info	0000000000000000              .debug_info
0000000000000000 l    d  .debug_abbrev	0000000000000000              .debug_abbrev
0000000000000000 l    d  .debug_line	0000000000000000              .debug_line
0000000000000000 l    d  .debug_str	0000000000000000              .debug_str
0000000000000000 l    d  .debug_macro	0000000000000000              .debug_macro
0000000000000000 l    df *ABS*	0000000000000000              crtstuff.c
0000000000000720 l     F .text	0000000000000000              deregister_tm_clones
0000000000000760 l     F .text	0000000000000000              register_tm_clones
00000000000007b0 l     F .text	0000000000000000              __do_global_dtors_aux
0000000000201010 l     O .bss	0000000000000001              completed.7696
0000000000200d90 l     O .fini_array	0000000000000000              __do_global_dtors_aux_fini_array_entry
00000000000007f0 l     F .text	0000000000000000              frame_dummy
0000000000200d88 l     O .init_array	0000000000000000              __frame_dummy_init_array_entry
0000000000000000 l    df *ABS*	0000000000000000              print.f08
00000000000007fa l     F .text	0000000000000073              MAIN__
0000000000000960 l     O .rodata	000000000000001c              options.1.3502
0000000000000000 l    df *ABS*	0000000000000000              crtstuff.c
0000000000000ae4 l     O .eh_frame	0000000000000000              __FRAME_END__
0000000000000000 l    df *ABS*	0000000000000000              
000000000000097c l       .eh_frame_hdr	0000000000000000              __GNU_EH_FRAME_HDR
0000000000200f98 l     O .got	0000000000000000              _GLOBAL_OFFSET_TABLE_
0000000000200d90 l       .init_array	0000000000000000              __init_array_end
0000000000200d88 l       .init_array	0000000000000000              __init_array_start
0000000000200d98 l     O .dynamic	0000000000000000              _DYNAMIC
0000000000201000  w      .data	0000000000000000              data_start
0000000000000920 g     F .text	0000000000000002              __libc_csu_fini
0000000000000000       F *UND*	0000000000000000              _gfortran_set_args@@GFORTRAN_7
00000000000006f0 g     F .text	000000000000002b              _start
0000000000000000  w      *UND*	0000000000000000              __gmon_start__
0000000000000000       F *UND*	0000000000000000              _gfortran_st_write@@GFORTRAN_7
0000000000000924 g     F .fini	0000000000000000              _fini
0000000000000000       F *UND*	0000000000000000              __libc_start_main@@GLIBC_2.2.5
0000000000000000  w      *UND*	0000000000000000              _ITM_deregisterTMCloneTable
0000000000000930 g     O .rodata	0000000000000004              _IO_stdin_used
0000000000000000  w      *UND*	0000000000000000              _ITM_registerTMCloneTable
0000000000201000 g       .data	0000000000000000              __data_start
0000000000000000       F *UND*	0000000000000000              _gfortran_st_write_done@@GFORTRAN_7
0000000000000000  w    F *UND*	0000000000000000              __cxa_finalize@@GLIBC_2.2.5
0000000000201010 g     O .data	0000000000000000              .hidden __TMC_END__
0000000000201008 g     O .data	0000000000000000              .hidden __dso_handle
0000000000000000       F *UND*	0000000000000000              _gfortran_set_options@@GFORTRAN_7
00000000000008b0 g     F .text	0000000000000065              __libc_csu_init
0000000000000000       F *UND*	0000000000000000              _gfortran_transfer_character_write@@GFORTRAN_7
0000000000201010 g       .bss	0000000000000000              __bss_start
0000000000201018 g       .bss	0000000000000000              _end
0000000000201010 g       .data	0000000000000000              _edata
000000000000086d g     F .text	000000000000003d              main
0000000000000660 g     F .init	0000000000000000              _init



Disassembly of section .init:

0000000000000660 <_init>:
 660:	48 83 ec 08          	sub    rsp,0x8
 664:	48 8b 05 6d 09 20 00 	mov    rax,QWORD PTR [rip+0x20096d]        # 200fd8 <__gmon_start__>
 66b:	48 85 c0             	test   rax,rax
 66e:	74 02                	je     672 <_init+0x12>
 670:	ff d0                	call   rax
 672:	48 83 c4 08          	add    rsp,0x8
 676:	c3                   	ret    

Disassembly of section .plt:

0000000000000680 <.plt>:
 680:	ff 35 1a 09 20 00    	push   QWORD PTR [rip+0x20091a]        # 200fa0 <_GLOBAL_OFFSET_TABLE_+0x8>
 686:	ff 25 1c 09 20 00    	jmp    QWORD PTR [rip+0x20091c]        # 200fa8 <_GLOBAL_OFFSET_TABLE_+0x10>
 68c:	0f 1f 40 00          	nop    DWORD PTR [rax+0x0]

0000000000000690 <_gfortran_set_args@plt>:
 690:	ff 25 1a 09 20 00    	jmp    QWORD PTR [rip+0x20091a]        # 200fb0 <_gfortran_set_args@GFORTRAN_7>
 696:	68 00 00 00 00       	push   0x0
 69b:	e9 e0 ff ff ff       	jmp    680 <.plt>

00000000000006a0 <_gfortran_st_write@plt>:
 6a0:	ff 25 12 09 20 00    	jmp    QWORD PTR [rip+0x200912]        # 200fb8 <_gfortran_st_write@GFORTRAN_7>
 6a6:	68 01 00 00 00       	push   0x1
 6ab:	e9 d0 ff ff ff       	jmp    680 <.plt>

00000000000006b0 <_gfortran_st_write_done@plt>:
 6b0:	ff 25 0a 09 20 00    	jmp    QWORD PTR [rip+0x20090a]        # 200fc0 <_gfortran_st_write_done@GFORTRAN_7>
 6b6:	68 02 00 00 00       	push   0x2
 6bb:	e9 c0 ff ff ff       	jmp    680 <.plt>

00000000000006c0 <_gfortran_set_options@plt>:
 6c0:	ff 25 02 09 20 00    	jmp    QWORD PTR [rip+0x200902]        # 200fc8 <_gfortran_set_options@GFORTRAN_7>
 6c6:	68 03 00 00 00       	push   0x3
 6cb:	e9 b0 ff ff ff       	jmp    680 <.plt>

00000000000006d0 <_gfortran_transfer_character_write@plt>:
 6d0:	ff 25 fa 08 20 00    	jmp    QWORD PTR [rip+0x2008fa]        # 200fd0 <_gfortran_transfer_character_write@GFORTRAN_7>
 6d6:	68 04 00 00 00       	push   0x4
 6db:	e9 a0 ff ff ff       	jmp    680 <.plt>

Disassembly of section .plt.got:

00000000000006e0 <__cxa_finalize@plt>:
 6e0:	ff 25 12 09 20 00    	jmp    QWORD PTR [rip+0x200912]        # 200ff8 <__cxa_finalize@GLIBC_2.2.5>
 6e6:	66 90                	xchg   ax,ax

Disassembly of section .text:

00000000000006f0 <_start>:
 6f0:	31 ed                	xor    ebp,ebp
 6f2:	49 89 d1             	mov    r9,rdx
 6f5:	5e                   	pop    rsi
 6f6:	48 89 e2             	mov    rdx,rsp
 6f9:	48 83 e4 f0          	and    rsp,0xfffffffffffffff0
 6fd:	50                   	push   rax
 6fe:	54                   	push   rsp
 6ff:	4c 8d 05 1a 02 00 00 	lea    r8,[rip+0x21a]        # 920 <__libc_csu_fini>
 706:	48 8d 0d a3 01 00 00 	lea    rcx,[rip+0x1a3]        # 8b0 <__libc_csu_init>
 70d:	48 8d 3d 59 01 00 00 	lea    rdi,[rip+0x159]        # 86d <main>
 714:	ff 15 c6 08 20 00    	call   QWORD PTR [rip+0x2008c6]        # 200fe0 <__libc_start_main@GLIBC_2.2.5>
 71a:	f4                   	hlt    
 71b:	0f 1f 44 00 00       	nop    DWORD PTR [rax+rax*1+0x0]

0000000000000720 <deregister_tm_clones>:
 720:	48 8d 3d e9 08 20 00 	lea    rdi,[rip+0x2008e9]        # 201010 <__TMC_END__>
 727:	55                   	push   rbp
 728:	48 8d 05 e1 08 20 00 	lea    rax,[rip+0x2008e1]        # 201010 <__TMC_END__>
 72f:	48 39 f8             	cmp    rax,rdi
 732:	48 89 e5             	mov    rbp,rsp
 735:	74 19                	je     750 <deregister_tm_clones+0x30>
 737:	48 8b 05 aa 08 20 00 	mov    rax,QWORD PTR [rip+0x2008aa]        # 200fe8 <_ITM_deregisterTMCloneTable>
 73e:	48 85 c0             	test   rax,rax
 741:	74 0d                	je     750 <deregister_tm_clones+0x30>
 743:	5d                   	pop    rbp
 744:	ff e0                	jmp    rax
 746:	66 2e 0f 1f 84 00 00 	nop    WORD PTR cs:[rax+rax*1+0x0]
 74d:	00 00 00 
 750:	5d                   	pop    rbp
 751:	c3                   	ret    
 752:	0f 1f 40 00          	nop    DWORD PTR [rax+0x0]
 756:	66 2e 0f 1f 84 00 00 	nop    WORD PTR cs:[rax+rax*1+0x0]
 75d:	00 00 00 

0000000000000760 <register_tm_clones>:
 760:	48 8d 3d a9 08 20 00 	lea    rdi,[rip+0x2008a9]        # 201010 <__TMC_END__>
 767:	48 8d 35 a2 08 20 00 	lea    rsi,[rip+0x2008a2]        # 201010 <__TMC_END__>
 76e:	55                   	push   rbp
 76f:	48 29 fe             	sub    rsi,rdi
 772:	48 89 e5             	mov    rbp,rsp
 775:	48 c1 fe 03          	sar    rsi,0x3
 779:	48 89 f0             	mov    rax,rsi
 77c:	48 c1 e8 3f          	shr    rax,0x3f
 780:	48 01 c6             	add    rsi,rax
 783:	48 d1 fe             	sar    rsi,1
 786:	74 18                	je     7a0 <register_tm_clones+0x40>
 788:	48 8b 05 61 08 20 00 	mov    rax,QWORD PTR [rip+0x200861]        # 200ff0 <_ITM_registerTMCloneTable>
 78f:	48 85 c0             	test   rax,rax
 792:	74 0c                	je     7a0 <register_tm_clones+0x40>
 794:	5d                   	pop    rbp
 795:	ff e0                	jmp    rax
 797:	66 0f 1f 84 00 00 00 	nop    WORD PTR [rax+rax*1+0x0]
 79e:	00 00 
 7a0:	5d                   	pop    rbp
 7a1:	c3                   	ret    
 7a2:	0f 1f 40 00          	nop    DWORD PTR [rax+0x0]
 7a6:	66 2e 0f 1f 84 00 00 	nop    WORD PTR cs:[rax+rax*1+0x0]
 7ad:	00 00 00 

00000000000007b0 <__do_global_dtors_aux>:
 7b0:	80 3d 59 08 20 00 00 	cmp    BYTE PTR [rip+0x200859],0x0        # 201010 <__TMC_END__>
 7b7:	75 2f                	jne    7e8 <__do_global_dtors_aux+0x38>
 7b9:	48 83 3d 37 08 20 00 	cmp    QWORD PTR [rip+0x200837],0x0        # 200ff8 <__cxa_finalize@GLIBC_2.2.5>
 7c0:	00 
 7c1:	55                   	push   rbp
 7c2:	48 89 e5             	mov    rbp,rsp
 7c5:	74 0c                	je     7d3 <__do_global_dtors_aux+0x23>
 7c7:	48 8b 3d 3a 08 20 00 	mov    rdi,QWORD PTR [rip+0x20083a]        # 201008 <__dso_handle>
 7ce:	e8 0d ff ff ff       	call   6e0 <__cxa_finalize@plt>
 7d3:	e8 48 ff ff ff       	call   720 <deregister_tm_clones>
 7d8:	c6 05 31 08 20 00 01 	mov    BYTE PTR [rip+0x200831],0x1        # 201010 <__TMC_END__>
 7df:	5d                   	pop    rbp
 7e0:	c3                   	ret    
 7e1:	0f 1f 80 00 00 00 00 	nop    DWORD PTR [rax+0x0]
 7e8:	f3 c3                	repz ret 
 7ea:	66 0f 1f 44 00 00    	nop    WORD PTR [rax+rax*1+0x0]

00000000000007f0 <frame_dummy>:
 7f0:	55                   	push   rbp
 7f1:	48 89 e5             	mov    rbp,rsp
 7f4:	5d                   	pop    rbp
 7f5:	e9 66 ff ff ff       	jmp    760 <register_tm_clones>

00000000000007fa <MAIN__>:
program print_program
 7fa:	55                   	push   rbp
 7fb:	48 89 e5             	mov    rbp,rsp
 7fe:	48 81 ec e0 01 00 00 	sub    rsp,0x1e0

      print *, "Hello World!"
 805:	48 8d 05 34 01 00 00 	lea    rax,[rip+0x134]        # 940 <_IO_stdin_used+0x10>
 80c:	48 89 85 28 fe ff ff 	mov    QWORD PTR [rbp-0x1d8],rax
 813:	c7 85 30 fe ff ff 03 	mov    DWORD PTR [rbp-0x1d0],0x3
 81a:	00 00 00 
 81d:	c7 85 20 fe ff ff 80 	mov    DWORD PTR [rbp-0x1e0],0x80
 824:	00 00 00 
 827:	c7 85 24 fe ff ff 06 	mov    DWORD PTR [rbp-0x1dc],0x6
 82e:	00 00 00 
 831:	48 8d 85 20 fe ff ff 	lea    rax,[rbp-0x1e0]
 838:	48 89 c7             	mov    rdi,rax
 83b:	e8 60 fe ff ff       	call   6a0 <_gfortran_st_write@plt>
 840:	48 8d 85 20 fe ff ff 	lea    rax,[rbp-0x1e0]
 847:	ba 0c 00 00 00       	mov    edx,0xc
 84c:	48 8d 35 f7 00 00 00 	lea    rsi,[rip+0xf7]        # 94a <_IO_stdin_used+0x1a>
 853:	48 89 c7             	mov    rdi,rax
 856:	e8 75 fe ff ff       	call   6d0 <_gfortran_transfer_character_write@plt>
 85b:	48 8d 85 20 fe ff ff 	lea    rax,[rbp-0x1e0]
 862:	48 89 c7             	mov    rdi,rax
 865:	e8 46 fe ff ff       	call   6b0 <_gfortran_st_write_done@plt>

end program print_program
 86a:	90                   	nop
 86b:	c9                   	leave  
 86c:	c3                   	ret    

000000000000086d <main>:
 86d:	55                   	push   rbp
 86e:	48 89 e5             	mov    rbp,rsp
 871:	48 83 ec 10          	sub    rsp,0x10
 875:	89 7d fc             	mov    DWORD PTR [rbp-0x4],edi
 878:	48 89 75 f0          	mov    QWORD PTR [rbp-0x10],rsi
 87c:	48 8b 55 f0          	mov    rdx,QWORD PTR [rbp-0x10]
 880:	8b 45 fc             	mov    eax,DWORD PTR [rbp-0x4]
 883:	48 89 d6             	mov    rsi,rdx
 886:	89 c7                	mov    edi,eax
 888:	e8 03 fe ff ff       	call   690 <_gfortran_set_args@plt>
 88d:	48 8d 35 cc 00 00 00 	lea    rsi,[rip+0xcc]        # 960 <options.1.3502>
 894:	bf 07 00 00 00       	mov    edi,0x7
 899:	e8 22 fe ff ff       	call   6c0 <_gfortran_set_options@plt>
 89e:	e8 57 ff ff ff       	call   7fa <MAIN__>
 8a3:	b8 00 00 00 00       	mov    eax,0x0
 8a8:	c9                   	leave  
 8a9:	c3                   	ret    
 8aa:	66 0f 1f 44 00 00    	nop    WORD PTR [rax+rax*1+0x0]

00000000000008b0 <__libc_csu_init>:
 8b0:	41 57                	push   r15
 8b2:	41 56                	push   r14
 8b4:	49 89 d7             	mov    r15,rdx
 8b7:	41 55                	push   r13
 8b9:	41 54                	push   r12
 8bb:	4c 8d 25 c6 04 20 00 	lea    r12,[rip+0x2004c6]        # 200d88 <__frame_dummy_init_array_entry>
 8c2:	55                   	push   rbp
 8c3:	48 8d 2d c6 04 20 00 	lea    rbp,[rip+0x2004c6]        # 200d90 <__init_array_end>
 8ca:	53                   	push   rbx
 8cb:	41 89 fd             	mov    r13d,edi
 8ce:	49 89 f6             	mov    r14,rsi
 8d1:	4c 29 e5             	sub    rbp,r12
 8d4:	48 83 ec 08          	sub    rsp,0x8
 8d8:	48 c1 fd 03          	sar    rbp,0x3
 8dc:	e8 7f fd ff ff       	call   660 <_init>
 8e1:	48 85 ed             	test   rbp,rbp
 8e4:	74 20                	je     906 <__libc_csu_init+0x56>
 8e6:	31 db                	xor    ebx,ebx
 8e8:	0f 1f 84 00 00 00 00 	nop    DWORD PTR [rax+rax*1+0x0]
 8ef:	00 
 8f0:	4c 89 fa             	mov    rdx,r15
 8f3:	4c 89 f6             	mov    rsi,r14
 8f6:	44 89 ef             	mov    edi,r13d
 8f9:	41 ff 14 dc          	call   QWORD PTR [r12+rbx*8]
 8fd:	48 83 c3 01          	add    rbx,0x1
 901:	48 39 dd             	cmp    rbp,rbx
 904:	75 ea                	jne    8f0 <__libc_csu_init+0x40>
 906:	48 83 c4 08          	add    rsp,0x8
 90a:	5b                   	pop    rbx
 90b:	5d                   	pop    rbp
 90c:	41 5c                	pop    r12
 90e:	41 5d                	pop    r13
 910:	41 5e                	pop    r14
 912:	41 5f                	pop    r15
 914:	c3                   	ret    
 915:	90                   	nop
 916:	66 2e 0f 1f 84 00 00 	nop    WORD PTR cs:[rax+rax*1+0x0]
 91d:	00 00 00 

0000000000000920 <__libc_csu_fini>:
 920:	f3 c3                	repz ret 

Disassembly of section .fini:

0000000000000924 <_fini>:
 924:	48 83 ec 08          	sub    rsp,0x8
 928:	48 83 c4 08          	add    rsp,0x8
 92c:	c3                   	ret    
