
add_int_Ada_AMD64:     file format elf64-x86-64
add_int_Ada_AMD64
architecture: i386:x86-64, flags 0x00000150:
HAS_SYMS, DYNAMIC, D_PAGED
start address 0x0000000000002180

Program Header:
    PHDR off    0x0000000000000040 vaddr 0x0000000000000040 paddr 0x0000000000000040 align 2**3
         filesz 0x0000000000000268 memsz 0x0000000000000268 flags r--
  INTERP off    0x00000000000002a8 vaddr 0x00000000000002a8 paddr 0x00000000000002a8 align 2**0
         filesz 0x000000000000001c memsz 0x000000000000001c flags r--
    LOAD off    0x0000000000000000 vaddr 0x0000000000000000 paddr 0x0000000000000000 align 2**12
         filesz 0x0000000000001710 memsz 0x0000000000001710 flags r--
    LOAD off    0x0000000000002000 vaddr 0x0000000000002000 paddr 0x0000000000002000 align 2**12
         filesz 0x00000000000006bd memsz 0x00000000000006bd flags r-x
    LOAD off    0x0000000000003000 vaddr 0x0000000000003000 paddr 0x0000000000003000 align 2**12
         filesz 0x00000000000003f0 memsz 0x00000000000003f0 flags r--
    LOAD off    0x0000000000003db8 vaddr 0x0000000000004db8 paddr 0x0000000000004db8 align 2**12
         filesz 0x0000000000000313 memsz 0x0000000000002d08 flags rw-
 DYNAMIC off    0x0000000000003dc8 vaddr 0x0000000000004dc8 paddr 0x0000000000004dc8 align 2**3
         filesz 0x0000000000000210 memsz 0x0000000000000210 flags rw-
    NOTE off    0x00000000000002c4 vaddr 0x00000000000002c4 paddr 0x00000000000002c4 align 2**2
         filesz 0x0000000000000044 memsz 0x0000000000000044 flags r--
EH_FRAME off    0x00000000000031dc vaddr 0x00000000000031dc paddr 0x00000000000031dc align 2**2
         filesz 0x0000000000000064 memsz 0x0000000000000064 flags r--
   STACK off    0x0000000000000000 vaddr 0x0000000000000000 paddr 0x0000000000000000 align 2**4
         filesz 0x0000000000000000 memsz 0x0000000000000000 flags rw-
   RELRO off    0x0000000000003db8 vaddr 0x0000000000004db8 paddr 0x0000000000004db8 align 2**0
         filesz 0x0000000000000248 memsz 0x0000000000000248 flags r--

Dynamic Section:
  NEEDED               libgnat-8.so.1
  NEEDED               libdl.so.2
  NEEDED               libgcc_s.so.1
  NEEDED               libc.so.6
  INIT                 0x0000000000002000
  FINI                 0x00000000000026b4
  INIT_ARRAY           0x0000000000004db8
  INIT_ARRAYSZ         0x0000000000000008
  FINI_ARRAY           0x0000000000004dc0
  FINI_ARRAYSZ         0x0000000000000008
  GNU_HASH             0x0000000000000308
  STRTAB               0x0000000000000a50
  SYMTAB               0x0000000000000468
  STRSZ                0x0000000000000603
  SYMENT               0x0000000000000018
  DEBUG                0x0000000000000000
  PLTGOT               0x0000000000005000
  PLTRELSZ             0x00000000000001e0
  PLTREL               0x0000000000000007
  JMPREL               0x0000000000001530
  RELA                 0x00000000000010f8
  RELASZ               0x0000000000000438
  RELAENT              0x0000000000000018
  FLAGS_1              0x0000000008000000
  VERNEED              0x00000000000010d8
  VERNEEDNUM           0x0000000000000001
  VERSYM               0x0000000000001054
  RELACOUNT            0x0000000000000003

Version References:
  required from libc.so.6:
    0x09691a75 0x00 02 GLIBC_2.2.5

Sections:
Idx Name          Size      VMA               LMA               File off  Algn
  0 .interp       0000001c  00000000000002a8  00000000000002a8  000002a8  2**0
                  CONTENTS, ALLOC, LOAD, READONLY, DATA
  1 .note.ABI-tag 00000020  00000000000002c4  00000000000002c4  000002c4  2**2
                  CONTENTS, ALLOC, LOAD, READONLY, DATA
  2 .note.gnu.build-id 00000024  00000000000002e4  00000000000002e4  000002e4  2**2
                  CONTENTS, ALLOC, LOAD, READONLY, DATA
  3 .gnu.hash     0000015c  0000000000000308  0000000000000308  00000308  2**3
                  CONTENTS, ALLOC, LOAD, READONLY, DATA
  4 .dynsym       000005e8  0000000000000468  0000000000000468  00000468  2**3
                  CONTENTS, ALLOC, LOAD, READONLY, DATA
  5 .dynstr       00000603  0000000000000a50  0000000000000a50  00000a50  2**0
                  CONTENTS, ALLOC, LOAD, READONLY, DATA
  6 .gnu.version  0000007e  0000000000001054  0000000000001054  00001054  2**1
                  CONTENTS, ALLOC, LOAD, READONLY, DATA
  7 .gnu.version_r 00000020  00000000000010d8  00000000000010d8  000010d8  2**3
                  CONTENTS, ALLOC, LOAD, READONLY, DATA
  8 .rela.dyn     00000438  00000000000010f8  00000000000010f8  000010f8  2**3
                  CONTENTS, ALLOC, LOAD, READONLY, DATA
  9 .rela.plt     000001e0  0000000000001530  0000000000001530  00001530  2**3
                  CONTENTS, ALLOC, LOAD, READONLY, DATA
 10 .init         00000017  0000000000002000  0000000000002000  00002000  2**2
                  CONTENTS, ALLOC, LOAD, READONLY, CODE
 11 .plt          00000150  0000000000002020  0000000000002020  00002020  2**4
                  CONTENTS, ALLOC, LOAD, READONLY, CODE
 12 .plt.got      00000008  0000000000002170  0000000000002170  00002170  2**3
                  CONTENTS, ALLOC, LOAD, READONLY, CODE
 13 .text         00000531  0000000000002180  0000000000002180  00002180  2**4
                  CONTENTS, ALLOC, LOAD, READONLY, CODE
 14 .fini         00000009  00000000000026b4  00000000000026b4  000026b4  2**2
                  CONTENTS, ALLOC, LOAD, READONLY, CODE
 15 .rodata       000001da  0000000000003000  0000000000003000  00003000  2**4
                  CONTENTS, ALLOC, LOAD, READONLY, DATA
 16 .eh_frame_hdr 00000064  00000000000031dc  00000000000031dc  000031dc  2**2
                  CONTENTS, ALLOC, LOAD, READONLY, DATA
 17 .eh_frame     000001b0  0000000000003240  0000000000003240  00003240  2**3
                  CONTENTS, ALLOC, LOAD, READONLY, DATA
 18 .init_array   00000008  0000000000004db8  0000000000004db8  00003db8  2**3
                  CONTENTS, ALLOC, LOAD, DATA
 19 .fini_array   00000008  0000000000004dc0  0000000000004dc0  00003dc0  2**3
                  CONTENTS, ALLOC, LOAD, DATA
 20 .dynamic      00000210  0000000000004dc8  0000000000004dc8  00003dc8  2**3
                  CONTENTS, ALLOC, LOAD, DATA
 21 .got          00000028  0000000000004fd8  0000000000004fd8  00003fd8  2**3
                  CONTENTS, ALLOC, LOAD, DATA
 22 .got.plt      000000b8  0000000000005000  0000000000005000  00004000  2**3
                  CONTENTS, ALLOC, LOAD, DATA
 23 .data         00000013  00000000000050b8  00000000000050b8  000040b8  2**3
                  CONTENTS, ALLOC, LOAD, DATA
 24 .bss          000029e0  00000000000050e0  00000000000050e0  000040cb  2**5
                  ALLOC
 25 .comment      0000001d  0000000000000000  0000000000000000  000040cb  2**0
                  CONTENTS, READONLY
SYMBOL TABLE:
00000000000002a8 l    d  .interp	0000000000000000              .interp
00000000000002c4 l    d  .note.ABI-tag	0000000000000000              .note.ABI-tag
00000000000002e4 l    d  .note.gnu.build-id	0000000000000000              .note.gnu.build-id
0000000000000308 l    d  .gnu.hash	0000000000000000              .gnu.hash
0000000000000468 l    d  .dynsym	0000000000000000              .dynsym
0000000000000a50 l    d  .dynstr	0000000000000000              .dynstr
0000000000001054 l    d  .gnu.version	0000000000000000              .gnu.version
00000000000010d8 l    d  .gnu.version_r	0000000000000000              .gnu.version_r
00000000000010f8 l    d  .rela.dyn	0000000000000000              .rela.dyn
0000000000001530 l    d  .rela.plt	0000000000000000              .rela.plt
0000000000002000 l    d  .init	0000000000000000              .init
0000000000002020 l    d  .plt	0000000000000000              .plt
0000000000002170 l    d  .plt.got	0000000000000000              .plt.got
0000000000002180 l    d  .text	0000000000000000              .text
00000000000026b4 l    d  .fini	0000000000000000              .fini
0000000000003000 l    d  .rodata	0000000000000000              .rodata
00000000000031dc l    d  .eh_frame_hdr	0000000000000000              .eh_frame_hdr
0000000000003240 l    d  .eh_frame	0000000000000000              .eh_frame
0000000000004db8 l    d  .init_array	0000000000000000              .init_array
0000000000004dc0 l    d  .fini_array	0000000000000000              .fini_array
0000000000004dc8 l    d  .dynamic	0000000000000000              .dynamic
0000000000004fd8 l    d  .got	0000000000000000              .got
0000000000005000 l    d  .got.plt	0000000000000000              .got.plt
00000000000050b8 l    d  .data	0000000000000000              .data
00000000000050e0 l    d  .bss	0000000000000000              .bss
0000000000000000 l    d  .comment	0000000000000000              .comment
0000000000000000 l    df *ABS*	0000000000000000              crtstuff.c
00000000000021b0 l     F .text	0000000000000000              deregister_tm_clones
00000000000021e0 l     F .text	0000000000000000              register_tm_clones
0000000000002220 l     F .text	0000000000000000              __do_global_dtors_aux
000000000000526a l     O .bss	0000000000000001              completed.7325
0000000000004dc0 l     O .fini_array	0000000000000000              __do_global_dtors_aux_fini_array_entry
0000000000002260 l     F .text	0000000000000000              frame_dummy
0000000000004db8 l     O .init_array	0000000000000000              __frame_dummy_init_array_entry
0000000000000000 l    df *ABS*	0000000000000000              b~add_int.adb
00000000000050ca l     O .data	0000000000000001              ada_main__is_elaborated
00000000000031d8 l     O .rodata	0000000000000001              ada_main__local_priority_specific_dispatching
00000000000031d9 l     O .rodata	0000000000000001              ada_main__local_interrupt_states
0000000000005280 l     O .bss	0000000000002840              ada_main__sec_default_sized_stacks
0000000000000000 l    df *ABS*	0000000000000000              add_int.adb
0000000000000000 l    df *ABS*	0000000000000000              crtstuff.c
00000000000033ec l     O .eh_frame	0000000000000000              __FRAME_END__
0000000000000000 l    df *ABS*	0000000000000000              
00000000000031dc l       .eh_frame_hdr	0000000000000000              __GNU_EH_FRAME_HDR
0000000000005000 l     O .got.plt	0000000000000000              _GLOBAL_OFFSET_TABLE_
0000000000004dc0 l       .init_array	0000000000000000              __init_array_end
0000000000004db8 l       .init_array	0000000000000000              __init_array_start
0000000000004dc8 l     O .dynamic	0000000000000000              _DYNAMIC
0000000000002000 l     F .init	0000000000000000              _init
00000000000050b8  w      .data	0000000000000000              data_start
0000000000003094 g     O .rodata	0000000000000004              system__parametersS
00000000000050e0 g     O .bss	0000000000000001              __gl_task_dispatching_policy
0000000000000000       F *UND*	0000000000000000              interfaces__c___elabs
00000000000031ac g     O .rodata	0000000000000004              system__val_utilS
0000000000005100 g     O .bss	0000000000000004              __gnat_default_ss_size
0000000000003144 g     O .rodata	0000000000000004              ada__strings__maps__constantsS
00000000000030a8 g     O .rodata	0000000000000004              system__stack_checkingB
0000000000005104 g     O .bss	0000000000000002              system__os_lib_E
0000000000003188 g     O .rodata	0000000000000004              system__stringsB
000000000000305c g     O .rodata	0000000000000004              gnat__ioS
00000000000026b0 g     F .text	0000000000000001              __libc_csu_fini
0000000000003148 g     O .rodata	0000000000000004              system__address_imageB
0000000000005108 g     O .bss	0000000000000002              ada__containers_E
0000000000002180 g     F .text	000000000000002b              _start
0000000000003180 g     O .rodata	0000000000000004              system__case_utilB
000000000000262a g     F .text	000000000000001c              _ada_add_int
0000000000003158 g     O .rodata	0000000000000004              system__ioB
00000000000025f6 g     F .text	0000000000000033              ada_main___elabb
0000000000000000       F *UND*	0000000000000000              __gnat_finalize
0000000000000000  w      *UND*	0000000000000000              __gmon_start__
0000000000003090 g     O .rodata	0000000000000004              system__parametersB
0000000000003038 g     O .rodata	000000000000000d              __gnat_ada_main_program_name
000000000000319c g     O .rodata	0000000000000004              system__val_lliS
00000000000030cc g     O .rodata	0000000000000004              system__exceptions_debugS
0000000000003150 g     O .rodata	0000000000000004              system__img_unsB
0000000000005120 g     O .bss	0000000000000002              system__soft_links_E
0000000000003128 g     O .rodata	0000000000000004              ada__characters__latin_1S
0000000000005140 g     O .bss	0000000000000002              system__traceback__symbolic_E
0000000000003098 g     O .rodata	0000000000000004              system__storage_elementsB
00000000000026b4 g     F .fini	0000000000000000              .hidden _fini
0000000000003054 g     O .rodata	0000000000000004              gnatS
0000000000003048 g     O .rodata	0000000000000004              add_intB
00000000000030a0 g     O .rodata	0000000000000004              system__soft_links__initializeB
0000000000000000       F *UND*	0000000000000000              system__soft_links__initialize___elabb
000000000000304c g     O .rodata	0000000000000004              system__standard_libraryB
0000000000000000       F *UND*	0000000000000000              system__os_lib___elabb
0000000000003104 g     O .rodata	0000000000000004              interfaces__cS
0000000000000000       F *UND*	0000000000000000              __libc_start_main@@GLIBC_2.2.5
0000000000003134 g     O .rodata	0000000000000004              ada__strings__mapsS
000000000000315c g     O .rodata	0000000000000004              system__ioS
0000000000005150 g     O .bss	0000000000000008              gnat_envp
00000000000030d0 g     O .rodata	0000000000000004              system__img_intB
00000000000031d4 g     O .rodata	0000000000000004              system__wch_jisS
0000000000003084 g     O .rodata	0000000000000004              system__soft_linksS
0000000000003110 g     O .rodata	0000000000000004              system__crtlS
0000000000003074 g     O .rodata	0000000000000004              adaS
0000000000003140 g     O .rodata	0000000000000004              system__unsigned_typesS
0000000000003078 g     O .rodata	0000000000000004              ada__exceptions__last_chance_handlerB
00000000000030bc g     O .rodata	0000000000000004              system__exceptionsS
0000000000003070 g     O .rodata	0000000000000004              ada__exceptionsS
00000000000031a8 g     O .rodata	0000000000000004              system__val_utilB
0000000000005158 g     O .bss	0000000000000008              __gl_interrupt_states
000000000000316c g     O .rodata	0000000000000004              system__mmap__os_interfaceB
0000000000000000  w      *UND*	0000000000000000              _ITM_deregisterTMCloneTable
0000000000003000 g     O .rodata	0000000000000004              _IO_stdin_used
0000000000000000       F *UND*	0000000000000000              ada__strings__maps___elabs
0000000000005160 g     O .bss	0000000000000008              __gnat_finalize_library_objects
0000000000005168 g     O .bss	0000000000000002              system__soft_links__initialize_E
0000000000000000       F *UND*	0000000000000000              ada__containers___elabs
0000000000003160 g     O .rodata	0000000000000004              system__mmapB
0000000000003168 g     O .rodata	0000000000000004              ada__io_exceptionsS
00000000000030dc g     O .rodata	0000000000000004              system__tracebackS
0000000000000000  w      *UND*	0000000000000000              _ITM_registerTMCloneTable
00000000000050b8 g       .data	0000000000000000              __data_start
000000000000317c g     O .rodata	0000000000000004              system__os_libS
0000000000000000       F *UND*	0000000000000000              system__exceptions___elabs
0000000000000000       F *UND*	0000000000000000              system__exception_table___elabb
0000000000005180 g     O .bss	0000000000000002              ada__io_exceptions_E
000000000000310c g     O .rodata	0000000000000004              system__bounded_stringsS
0000000000003064 g     O .rodata	0000000000000004              system__memoryB
0000000000000000       F *UND*	0000000000000000              system__standard_library__adafinal
0000000000000000  w    F *UND*	0000000000000000              __cxa_finalize@@GLIBC_2.2.5
00000000000030c8 g     O .rodata	0000000000000004              system__exceptions_debugB
0000000000002344 g     F .text	0000000000000029              adafinal
00000000000030f4 g     O .rodata	0000000000000004              ada__exceptions__tracebackB
00000000000031a0 g     O .rodata	0000000000000004              system__val_lluB
0000000000003178 g     O .rodata	0000000000000004              system__os_libB
0000000000000000       F *UND*	0000000000000000              __gnat_initialize
00000000000031b8 g     O .rodata	0000000000000004              system__wch_conB
0000000000005184 g     O .bss	0000000000000004              __gnat_binder_ss_count
0000000000003118 g     O .rodata	0000000000000004              system__dwarf_linesS
00000000000031c4 g     O .rodata	0000000000000004              system__wch_stwS
000000000000313c g     O .rodata	0000000000000004              system__bit_opsS
000000000000236e g     F .text	0000000000000222              adainit
00000000000050d0 g     O .data	0000000000000000              .hidden __TMC_END__
00000000000030b0 g     O .rodata	0000000000000004              system__exception_tableB
0000000000000000       F *UND*	0000000000000000              system__object_reader___elabs
0000000000000000       F *UND*	0000000000000000              __gnat_runtime_finalize
0000000000005188 g     O .bss	0000000000000004              __gl_main_cpu
00000000000050c0 g     O .data	0000000000000000              .hidden __dso_handle
0000000000005190 g     O .bss	0000000000000008              __gnat_default_ss_pool
00000000000030d4 g     O .rodata	0000000000000004              system__img_intS
000000000000308c g     O .rodata	0000000000000004              system__secondary_stackS
00000000000031cc g     O .rodata	0000000000000004              system__wch_cnvS
0000000000002650 g     F .text	000000000000005d              __libc_csu_init
00000000000030c4 g     O .rodata	0000000000000004              system__exceptions__machineS
0000000000000000       F *UND*	0000000000000000              system__soft_links___elabs
0000000000003068 g     O .rodata	0000000000000004              system__memoryS
0000000000005198 g     O .bss	0000000000000001              __gl_locking_policy
0000000000003198 g     O .rodata	0000000000000004              system__val_lliB
00000000000030e0 g     O .rodata	0000000000000004              system__traceback_entriesB
00000000000051a0 g     O .bss	0000000000000004              __gl_time_slice_val
00000000000030f0 g     O .rodata	0000000000000004              ada__containersS
00000000000051a8 g     O .bss	0000000000000004              gnat_exit_status
0000000000003130 g     O .rodata	0000000000000004              ada__strings__mapsB
00000000000051ac g     O .bss	0000000000000004              __gl_leap_seconds_support
000000000000307c g     O .rodata	0000000000000004              ada__exceptions__last_chance_handlerS
00000000000051b0 g     O .bss	0000000000000004              __gl_unreserve_all_interrupts
0000000000003164 g     O .rodata	0000000000000004              system__mmapS
00000000000031a4 g     O .rodata	0000000000000004              system__val_lluS
0000000000003080 g     O .rodata	0000000000000004              system__soft_linksB
0000000000002266 g     F .text	00000000000000de              ada_main__Tsec_default_sized_stacksBIP
000000000000306c g     O .rodata	0000000000000004              ada__exceptionsB
000000000000311c g     O .rodata	0000000000000004              ada__charactersS
00000000000050cb g       .bss	0000000000000000              __bss_start
00000000000030fc g     O .rodata	0000000000000004              interfacesS
0000000000000000       F *UND*	0000000000000000              ada__strings__maps__constants___elabs
0000000000003108 g     O .rodata	0000000000000004              system__bounded_stringsB
000000000000309c g     O .rodata	0000000000000004              system__storage_elementsS
0000000000003114 g     O .rodata	0000000000000004              system__dwarf_linesB
00000000000051c0 g     O .bss	0000000000000002              system__dwarf_lines_E
00000000000051c2 g     O .bss	0000000000000001              __gl_wc_encoding
00000000000030ac g     O .rodata	0000000000000004              system__stack_checkingS
0000000000003058 g     O .rodata	0000000000000004              gnat__ioB
00000000000050c8 g     O .data	0000000000000002              ada_main_E
00000000000030d8 g     O .rodata	0000000000000004              system__tracebackB
0000000000003020 g     O .rodata	0000000000000014              __gnat_version
00000000000031b0 g     O .rodata	0000000000000004              system__exception_tracesB
00000000000051c4 g     O .bss	0000000000000002              ada__strings_E
00000000000031c8 g     O .rodata	0000000000000004              system__wch_cnvB
0000000000003138 g     O .rodata	0000000000000004              system__bit_opsB
0000000000003174 g     O .rodata	0000000000000004              system__mmap__unixS
0000000000003120 g     O .rodata	0000000000000004              ada__characters__handlingB
000000000000318c g     O .rodata	0000000000000004              system__stringsS
00000000000051c8 g     O .bss	0000000000000008              gnat_argv
0000000000000000       F *UND*	0000000000000000              system__traceback__symbolic___elabb
00000000000051d0 g     O .bss	0000000000000002              interfaces__c_E
00000000000030b4 g     O .rodata	0000000000000004              system__exception_tableS
0000000000007ac0 g       .bss	0000000000000000              _end
00000000000030c0 g     O .rodata	0000000000000004              system__exceptions__machineB
00000000000031b4 g     O .rodata	0000000000000004              system__exception_tracesS
000000000000314c g     O .rodata	0000000000000004              system__address_imageS
00000000000030b8 g     O .rodata	0000000000000004              system__exceptionsB
0000000000003088 g     O .rodata	0000000000000004              system__secondary_stackB
0000000000000000       F *UND*	0000000000000000              system__dwarf_lines___elabs
00000000000051d2 g     O .bss	0000000000000001              __gl_queuing_policy
00000000000031bc g     O .rodata	0000000000000004              system__wch_conS
0000000000000000       F *UND*	0000000000000000              ada__io_exceptions___elabs
00000000000051e0 g     O .bss	0000000000000004              __gl_num_specific_dispatching
00000000000031c0 g     O .rodata	0000000000000004              system__wch_stwB
00000000000051f0 g     O .bss	0000000000000004              __gl_main_priority
0000000000000000       F *UND*	0000000000000000              system__secondary_stack__ss_stackIP
00000000000051f8 g     O .bss	0000000000000008              __gl_priority_specific_dispatching
00000000000030e4 g     O .rodata	0000000000000004              system__traceback_entriesS
0000000000005200 g     O .bss	0000000000000002              system__object_reader_E
0000000000005202 g     O .bss	0000000000000002              system__exceptions_E
0000000000005220 g     O .bss	0000000000000004              __gl_detect_blocking
00000000000030f8 g     O .rodata	0000000000000004              ada__exceptions__tracebackS
0000000000005240 g     O .bss	0000000000000004              gnat_argc
0000000000005250 g     O .bss	0000000000000004              __gl_num_interrupt_states
000000000000312c g     O .rodata	0000000000000004              ada__stringsS
00000000000030ec g     O .rodata	0000000000000004              system__traceback__symbolicS
00000000000050cb g       .data	0000000000000000              _edata
00000000000030a4 g     O .rodata	0000000000000004              system__soft_links__initializeS
0000000000005258 g     O .bss	0000000000000002              system__exception_table_E
0000000000003170 g     O .rodata	0000000000000004              system__mmap__os_interfaceS
0000000000000000       F *UND*	0000000000000000              ada__strings___elabs
0000000000005260 g     O .bss	0000000000000004              __gl_default_stack_size
0000000000000000       F *UND*	0000000000000000              __gnat_runtime_initialize
0000000000003154 g     O .rodata	0000000000000004              system__img_unsS
0000000000005264 g     O .bss	0000000000000002              ada__strings__maps__constants_E
0000000000003184 g     O .rodata	0000000000000004              system__case_utilS
0000000000003100 g     O .rodata	0000000000000004              interfaces__cB
0000000000003060 g     O .rodata	0000000000000004              systemS
00000000000031d0 g     O .rodata	0000000000000004              system__wch_jisB
0000000000003124 g     O .rodata	0000000000000004              ada__characters__handlingS
00000000000030e8 g     O .rodata	0000000000000004              system__traceback__symbolicB
0000000000003190 g     O .rodata	0000000000000004              system__object_readerB
0000000000002590 g     F .text	0000000000000065              main
0000000000003194 g     O .rodata	0000000000000004              system__object_readerS
0000000000003050 g     O .rodata	0000000000000004              system__standard_libraryS
0000000000005268 g     O .bss	0000000000000002              ada__strings__maps_E


Contents of section .interp:
 02a8 2f6c6962 36342f6c 642d6c69 6e75782d  /lib64/ld-linux-
 02b8 7838362d 36342e73 6f2e3200           x86-64.so.2.    
Contents of section .note.ABI-tag:
 02c4 04000000 10000000 01000000 474e5500  ............GNU.
 02d4 00000000 03000000 02000000 00000000  ................
Contents of section .note.gnu.build-id:
 02e4 04000000 14000000 03000000 474e5500  ............GNU.
 02f4 257d151a f318df54 0f8a638f a5c634f8  %}.....T..c...4.
 0304 508c8bbe                             P...            
Contents of section .gnu.hash:
 0308 25000000 19000000 04000000 08000000  %...............
 0318 420c00e9 d000220c 5212c300 9a080080  B.....".R.......
 0328 f42b3040 0a81a120 0140b100 e6c06082  .+0@... .@....`.
 0338 19000000 1b000000 00000000 00000000  ................
 0348 1d000000 1e000000 20000000 00000000  ........ .......
 0358 23000000 25000000 00000000 28000000  #...%.......(...
 0368 29000000 2b000000 00000000 2d000000  )...+.......-...
 0378 00000000 00000000 2f000000 30000000  ......../...0...
 0388 31000000 32000000 00000000 34000000  1...2.......4...
 0398 00000000 35000000 36000000 37000000  ....5...6...7...
 03a8 3a000000 3b000000 00000000 00000000  :...;...........
 03b8 00000000 00000000 3d000000 3e000000  ........=...>...
 03c8 00000000 d065ce6d 61a7ba84 6481301e  .....e.ma...d.0.
 03d8 0b1d157a e1d49047 061f3304 f7000156  ...z...G..3....V
 03e8 b021de73 44a75bb8 cfb5a5cc 6ad15c9b  .!.sD.[.....j.\.
 03f8 83451616 a8fdd790 0a24cd94 4756e575  .E.......$..GV.u
 0408 4d57355e 8646cf94 af94dc73 48d06fc5  MW5^.F.....sH.o.
 0418 89485434 8a1e8361 d7ef7db0 3b8a7ff5  .HT4...a..}.;...
 0428 e13f4262 e3a6e2b5 62bf8495 8d3525a3  .?Bb....b....5%.
 0438 35664954 95fded32 85a86bdd 18c18f85  5fIT...2..k.....
 0448 b482205b b7e3d51f 1f24cd94 d43937df  .. [.....$...97.
 0458 efe72040 1ba7c1a2 3b31857a           .. @....;1.z    
Contents of section .dynsym:
 0468 00000000 00000000 00000000 00000000  ................
 0478 00000000 00000000 39040000 12000000  ........9.......
 0488 00000000 00000000 00000000 00000000  ................
 0498 5d020000 12000000 00000000 00000000  ]...............
 04a8 00000000 00000000 10000000 20000000  ............ ...
 04b8 00000000 00000000 00000000 00000000  ................
 04c8 d1020000 12000000 00000000 00000000  ................
 04d8 00000000 00000000 b7010000 12000000  ................
 04e8 00000000 00000000 00000000 00000000  ................
 04f8 e5050000 12000000 00000000 00000000  ................
 0508 00000000 00000000 1f000000 20000000  ............ ...
 0518 00000000 00000000 00000000 00000000  ................
 0528 79010000 12000000 00000000 00000000  y...............
 0538 00000000 00000000 7b030000 12000000  ........{.......
 0548 00000000 00000000 00000000 00000000  ................
 0558 3b000000 20000000 00000000 00000000  ;... ...........
 0568 00000000 00000000 66040000 12000000  ........f.......
 0578 00000000 00000000 00000000 00000000  ................
 0588 1e050000 12000000 00000000 00000000  ................
 0598 00000000 00000000 ac000000 12000000  ................
 05a8 00000000 00000000 00000000 00000000  ................
 05b8 27040000 12000000 00000000 00000000  '...............
 05c8 00000000 00000000 3f020000 12000000  ........?.......
 05d8 00000000 00000000 00000000 00000000  ................
 05e8 3d030000 12000000 00000000 00000000  =...............
 05f8 00000000 00000000 3e050000 12000000  ........>.......
 0608 00000000 00000000 00000000 00000000  ................
 0618 72000000 12000000 00000000 00000000  r...............
 0628 00000000 00000000 cf000000 12000000  ................
 0638 00000000 00000000 00000000 00000000  ................
 0648 21030000 12000000 00000000 00000000  !...............
 0658 00000000 00000000 d9030000 12000000  ................
 0668 00000000 00000000 00000000 00000000  ................
 0678 e3010000 12000000 00000000 00000000  ................
 0688 00000000 00000000 66030000 12000000  ........f.......
 0698 00000000 00000000 00000000 00000000  ................
 06a8 d8040000 12000000 00000000 00000000  ................
 06b8 00000000 00000000 d6050000 22000000  ............"...
 06c8 00000000 00000000 00000000 00000000  ................
 06d8 b7020000 11001900 ac510000 00000000  .........Q......
 06e8 04000000 00000000 55000000 11001900  ........U.......
 06f8 e0500000 00000000 01000000 00000000  .P..............
 0708 65010000 11001900 98510000 00000000  e........Q......
 0718 01000000 00000000 45010000 11001900  ........E.......
 0728 64520000 00000000 02000000 00000000  dR..............
 0738 ce010000 11001900 80510000 00000000  .........Q......
 0748 02000000 00000000 a2020000 11001900  ................
 0758 20520000 00000000 04000000 00000000   R..............
 0768 4f040000 11001900 00510000 00000000  O........Q......
 0778 04000000 00000000 f8020000 11001900  ................
 0788 04510000 00000000 02000000 00000000  .Q..............
 0798 ac040000 11001900 02520000 00000000  .........R......
 07a8 02000000 00000000 09040000 11001900  ................
 07b8 b0510000 00000000 04000000 00000000  .Q..............
 07c8 93030000 11001900 d2510000 00000000  .........Q......
 07d8 01000000 00000000 f4030000 11001900  ................
 07e8 20510000 00000000 02000000 00000000   Q..............
 07f8 98000000 11001900 40520000 00000000  ........@R......
 0808 04000000 00000000 81040000 11001900  ................
 0818 68520000 00000000 02000000 00000000  hR..............
 0828 07020000 11001900 40510000 00000000  ........@Q......
 0838 02000000 00000000 f3000000 11001900  ................
 0848 50510000 00000000 08000000 00000000  PQ..............
 0858 6d020000 11001900 90510000 00000000  m........Q......
 0868 08000000 00000000 94010000 11001900  ................
 0878 f8510000 00000000 08000000 00000000  .Q..............
 0888 09030000 11001900 60520000 00000000  ........`R......
 0898 04000000 00000000 55030000 11001900  ........U.......
 08a8 a8510000 00000000 04000000 00000000  .Q..............
 08b8 a4050000 11001900 c4510000 00000000  .........Q......
 08c8 02000000 00000000 2f010000 11001900  ......../.......
 08d8 c0510000 00000000 02000000 00000000  .Q..............
 08e8 84020000 11001900 88510000 00000000  .........Q......
 08f8 04000000 00000000 f2040000 11001900  ................
 0908 58520000 00000000 02000000 00000000  XR..............
 0918 0c050000 11001900 08510000 00000000  .........Q......
 0928 02000000 00000000 c1040000 11001900  ................
 0938 84510000 00000000 04000000 00000000  .Q..............
 0948 96040000 11001900 58510000 00000000  ........XQ......
 0958 08000000 00000000 79050000 11001900  ........y.......
 0968 00520000 00000000 02000000 00000000  .R..............
 0978 25020000 11001900 50520000 00000000  %.......PR......
 0988 04000000 00000000 a7030000 11001900  ................
 0998 68510000 00000000 02000000 00000000  hQ..............
 09a8 c8030000 11001900 c2510000 00000000  .........Q......
 09b8 01000000 00000000 fd000000 11001900  ................
 09c8 e0510000 00000000 04000000 00000000  .Q..............
 09d8 a2000000 11001900 c8510000 00000000  .........Q......
 09e8 08000000 00000000 1b010000 11001900  ................
 09f8 a0510000 00000000 04000000 00000000  .Q..............
 0a08 92020000 11001900 d0510000 00000000  .........Q......
 0a18 02000000 00000000 91050000 11001900  ................
 0a28 f0510000 00000000 04000000 00000000  .Q..............
 0a38 59050000 11001900 60510000 00000000  Y.......`Q......
 0a48 08000000 00000000                    ........        
Contents of section .dynstr:
 0a50 006c6962 676e6174 2d382e73 6f2e3100  .libgnat-8.so.1.
 0a60 5f5f676d 6f6e5f73 74617274 5f5f005f  __gmon_start__._
 0a70 49544d5f 64657265 67697374 6572544d  ITM_deregisterTM
 0a80 436c6f6e 65546162 6c65005f 49544d5f  CloneTable._ITM_
 0a90 72656769 73746572 544d436c 6f6e6554  registerTMCloneT
 0aa0 61626c65 005f5f67 6c5f7461 736b5f64  able.__gl_task_d
 0ab0 69737061 74636869 6e675f70 6f6c6963  ispatching_polic
 0ac0 79006164 615f5f73 7472696e 67735f5f  y.ada__strings__
 0ad0 6d617073 5f5f636f 6e737461 6e74735f  maps__constants_
 0ae0 5f5f656c 61627300 676e6174 5f617267  __elabs.gnat_arg
 0af0 6300676e 61745f61 72677600 73797374  c.gnat_argv.syst
 0b00 656d5f5f 7374616e 64617264 5f6c6962  em__standard_lib
 0b10 72617279 5f5f6164 6166696e 616c0073  rary__adafinal.s
 0b20 79737465 6d5f5f74 72616365 6261636b  ystem__traceback
 0b30 5f5f7379 6d626f6c 69635f5f 5f656c61  __symbolic___ela
 0b40 62620067 6e61745f 656e7670 005f5f67  bb.gnat_envp.__g
 0b50 6c5f6e75 6d5f7370 65636966 69635f64  l_num_specific_d
 0b60 69737061 74636869 6e67005f 5f676c5f  ispatching.__gl_
 0b70 74696d65 5f736c69 63655f76 616c0073  time_slice_val.s
 0b80 79737465 6d5f5f64 77617266 5f6c696e  ystem__dwarf_lin
 0b90 65735f45 00616461 5f5f7374 72696e67  es_E.ada__string
 0ba0 735f5f6d 6170735f 5f636f6e 7374616e  s__maps__constan
 0bb0 74735f45 005f5f67 6c5f6c6f 636b696e  ts_E.__gl_lockin
 0bc0 675f706f 6c696379 00616461 5f5f7374  g_policy.ada__st
 0bd0 72696e67 735f5f6d 6170735f 5f5f656c  rings__maps___el
 0be0 61627300 5f5f676c 5f707269 6f726974  abs.__gl_priorit
 0bf0 795f7370 65636966 69635f64 69737061  y_specific_dispa
 0c00 74636869 6e670073 79737465 6d5f5f6f  tching.system__o
 0c10 735f6c69 625f5f5f 656c6162 62006164  s_lib___elabb.ad
 0c20 615f5f69 6f5f6578 63657074 696f6e73  a__io_exceptions
 0c30 5f450073 79737465 6d5f5f73 65636f6e  _E.system__secon
 0c40 64617279 5f737461 636b5f5f 73735f73  dary_stack__ss_s
 0c50 7461636b 49500073 79737465 6d5f5f74  tackIP.system__t
 0c60 72616365 6261636b 5f5f7379 6d626f6c  raceback__symbol
 0c70 69635f45 005f5f67 6c5f6e75 6d5f696e  ic_E.__gl_num_in
 0c80 74657272 7570745f 73746174 65730073  terrupt_states.s
 0c90 79737465 6d5f5f6f 626a6563 745f7265  ystem__object_re
 0ca0 61646572 5f5f5f65 6c616273 005f5f67  ader___elabs.__g
 0cb0 6e61745f 66696e61 6c697a65 005f5f67  nat_finalize.__g
 0cc0 6e61745f 64656661 756c745f 73735f70  nat_default_ss_p
 0cd0 6f6f6c00 5f5f676c 5f6d6169 6e5f6370  ool.__gl_main_cp
 0ce0 7500696e 74657266 61636573 5f5f635f  u.interfaces__c_
 0cf0 45005f5f 676c5f64 65746563 745f626c  E.__gl_detect_bl
 0d00 6f636b69 6e67005f 5f676c5f 6c656170  ocking.__gl_leap
 0d10 5f736563 6f6e6473 5f737570 706f7274  _seconds_support
 0d20 00737973 74656d5f 5f736f66 745f6c69  .system__soft_li
 0d30 6e6b735f 5f696e69 7469616c 697a655f  nks__initialize_
 0d40 5f5f656c 61626200 73797374 656d5f5f  __elabb.system__
 0d50 6f735f6c 69625f45 005f5f67 6c5f6465  os_lib_E.__gl_de
 0d60 6661756c 745f7374 61636b5f 73697a65  fault_stack_size
 0d70 00737973 74656d5f 5f647761 72665f6c  .system__dwarf_l
 0d80 696e6573 5f5f5f65 6c616273 005f5f67  ines___elabs.__g
 0d90 6e61745f 72756e74 696d655f 66696e61  nat_runtime_fina
 0da0 6c697a65 00676e61 745f6578 69745f73  lize.gnat_exit_s
 0db0 74617475 73006164 615f5f73 7472696e  tatus.ada__strin
 0dc0 67735f5f 5f656c61 62730061 64615f5f  gs___elabs.ada__
 0dd0 636f6e74 61696e65 72735f5f 5f656c61  containers___ela
 0de0 6273005f 5f676c5f 71756575 696e675f  bs.__gl_queuing_
 0df0 706f6c69 63790073 79737465 6d5f5f73  policy.system__s
 0e00 6f66745f 6c696e6b 735f5f69 6e697469  oft_links__initi
 0e10 616c697a 655f4500 5f5f676c 5f77635f  alize_E.__gl_wc_
 0e20 656e636f 64696e67 00616461 5f5f696f  encoding.ada__io
 0e30 5f657863 65707469 6f6e735f 5f5f656c  _exceptions___el
 0e40 61627300 73797374 656d5f5f 736f6674  abs.system__soft
 0e50 5f6c696e 6b735f45 005f5f67 6c5f756e  _links_E.__gl_un
 0e60 72657365 7276655f 616c6c5f 696e7465  reserve_all_inte
 0e70 72727570 7473005f 5f676e61 745f696e  rrupts.__gnat_in
 0e80 69746961 6c697a65 00696e74 65726661  itialize.interfa
 0e90 6365735f 5f635f5f 5f656c61 6273005f  ces__c___elabs._
 0ea0 5f676e61 745f6465 6661756c 745f7373  _gnat_default_ss
 0eb0 5f73697a 65007379 7374656d 5f5f6578  _size.system__ex
 0ec0 63657074 696f6e73 5f5f5f65 6c616273  ceptions___elabs
 0ed0 00616461 5f5f7374 72696e67 735f5f6d  .ada__strings__m
 0ee0 6170735f 45005f5f 676c5f69 6e746572  aps_E.__gl_inter
 0ef0 72757074 5f737461 74657300 73797374  rupt_states.syst
 0f00 656d5f5f 65786365 7074696f 6e735f45  em__exceptions_E
 0f10 005f5f67 6e61745f 62696e64 65725f73  .__gnat_binder_s
 0f20 735f636f 756e7400 5f5f676e 61745f72  s_count.__gnat_r
 0f30 756e7469 6d655f69 6e697469 616c697a  untime_initializ
 0f40 65007379 7374656d 5f5f6578 63657074  e.system__except
 0f50 696f6e5f 7461626c 655f4500 6164615f  ion_table_E.ada_
 0f60 5f636f6e 7461696e 6572735f 45007379  _containers_E.sy
 0f70 7374656d 5f5f6578 63657074 696f6e5f  stem__exception_
 0f80 7461626c 655f5f5f 656c6162 62007379  table___elabb.sy
 0f90 7374656d 5f5f736f 66745f6c 696e6b73  stem__soft_links
 0fa0 5f5f5f65 6c616273 005f5f67 6e61745f  ___elabs.__gnat_
 0fb0 66696e61 6c697a65 5f6c6962 72617279  finalize_library
 0fc0 5f6f626a 65637473 00737973 74656d5f  _objects.system_
 0fd0 5f6f626a 6563745f 72656164 65725f45  _object_reader_E
 0fe0 005f5f67 6c5f6d61 696e5f70 72696f72  .__gl_main_prior
 0ff0 69747900 6164615f 5f737472 696e6773  ity.ada__strings
 1000 5f45006c 6962646c 2e736f2e 32006c69  _E.libdl.so.2.li
 1010 62676363 5f732e73 6f2e3100 6c696263  bgcc_s.so.1.libc
 1020 2e736f2e 36005f5f 6378615f 66696e61  .so.6.__cxa_fina
 1030 6c697a65 005f5f6c 6962635f 73746172  lize.__libc_star
 1040 745f6d61 696e0047 4c494243 5f322e32  t_main.GLIBC_2.2
 1050 2e3500                               .5.             
Contents of section .gnu.version:
 1054 00000000 00000000 00000000 02000000  ................
 1064 00000000 00000000 00000000 00000000  ................
 1074 00000000 00000000 00000000 00000000  ................
 1084 00000200 00000000 00000000 00000000  ................
 1094 00000000 00000000 00000000 00000000  ................
 10a4 00000000 00000000 00000000 00000000  ................
 10b4 00000000 00000000 00000000 00000000  ................
 10c4 00000000 00000000 00000000 0000      ..............  
Contents of section .gnu.version_r:
 10d8 01000100 cc050000 10000000 00000000  ................
 10e8 751a6909 00000200 f7050000 00000000  u.i.............
Contents of section .rela.dyn:
 10f8 b84d0000 00000000 08000000 00000000  .M..............
 1108 60220000 00000000 c04d0000 00000000  `".......M......
 1118 08000000 00000000 20220000 00000000  ........ "......
 1128 c0500000 00000000 08000000 00000000  .P..............
 1138 c0500000 00000000 d84f0000 00000000  .P.......O......
 1148 06000000 03000000 00000000 00000000  ................
 1158 e04f0000 00000000 06000000 06000000  .O..............
 1168 00000000 00000000 e84f0000 00000000  .........O......
 1178 06000000 07000000 00000000 00000000  ................
 1188 f04f0000 00000000 06000000 0a000000  .O..............
 1198 00000000 00000000 f84f0000 00000000  .........O......
 11a8 06000000 19000000 00000000 00000000  ................
 11b8 e0500000 00000000 05000000 1b000000  .P..............
 11c8 00000000 00000000 00510000 00000000  .........Q......
 11d8 05000000 20000000 00000000 00000000  .... ...........
 11e8 04510000 00000000 05000000 21000000  .Q..........!...
 11f8 00000000 00000000 08510000 00000000  .........Q......
 1208 05000000 32000000 00000000 00000000  ....2...........
 1218 20510000 00000000 05000000 25000000   Q..........%...
 1228 00000000 00000000 40510000 00000000  ........@Q......
 1238 05000000 28000000 00000000 00000000  ....(...........
 1248 50510000 00000000 05000000 29000000  PQ..........)...
 1258 00000000 00000000 58510000 00000000  ........XQ......
 1268 05000000 34000000 00000000 00000000  ....4...........
 1278 60510000 00000000 05000000 3e000000  `Q..........>...
 1288 00000000 00000000 68510000 00000000  ........hQ......
 1298 05000000 37000000 00000000 00000000  ....7...........
 12a8 80510000 00000000 05000000 1e000000  .Q..............
 12b8 00000000 00000000 84510000 00000000  .........Q......
 12c8 05000000 33000000 00000000 00000000  ....3...........
 12d8 88510000 00000000 05000000 30000000  .Q..........0...
 12e8 00000000 00000000 90510000 00000000  .........Q......
 12f8 05000000 2a000000 00000000 00000000  ....*...........
 1308 98510000 00000000 05000000 1c000000  .Q..............
 1318 00000000 00000000 a0510000 00000000  .........Q......
 1328 05000000 3b000000 00000000 00000000  ....;...........
 1338 a8510000 00000000 05000000 2d000000  .Q..........-...
 1348 00000000 00000000 ac510000 00000000  .........Q......
 1358 05000000 1a000000 00000000 00000000  ................
 1368 b0510000 00000000 05000000 23000000  .Q..........#...
 1378 00000000 00000000 c0510000 00000000  .........Q......
 1388 05000000 2f000000 00000000 00000000  ..../...........
 1398 c2510000 00000000 05000000 38000000  .Q..........8...
 13a8 00000000 00000000 c4510000 00000000  .........Q......
 13b8 05000000 2e000000 00000000 00000000  ................
 13c8 c8510000 00000000 05000000 3a000000  .Q..........:...
 13d8 00000000 00000000 d0510000 00000000  .........Q......
 13e8 05000000 3c000000 00000000 00000000  ....<...........
 13f8 d2510000 00000000 05000000 24000000  .Q..........$...
 1408 00000000 00000000 e0510000 00000000  .........Q......
 1418 05000000 39000000 00000000 00000000  ....9...........
 1428 f0510000 00000000 05000000 3d000000  .Q..........=...
 1438 00000000 00000000 f8510000 00000000  .........Q......
 1448 05000000 2b000000 00000000 00000000  ....+...........
 1458 00520000 00000000 05000000 35000000  .R..........5...
 1468 00000000 00000000 02520000 00000000  .........R......
 1478 05000000 22000000 00000000 00000000  ...."...........
 1488 20520000 00000000 05000000 1f000000   R..............
 1498 00000000 00000000 40520000 00000000  ........@R......
 14a8 05000000 26000000 00000000 00000000  ....&...........
 14b8 50520000 00000000 05000000 36000000  PR..........6...
 14c8 00000000 00000000 58520000 00000000  ........XR......
 14d8 05000000 31000000 00000000 00000000  ....1...........
 14e8 60520000 00000000 05000000 2c000000  `R..........,...
 14f8 00000000 00000000 64520000 00000000  ........dR......
 1508 05000000 1d000000 00000000 00000000  ................
 1518 68520000 00000000 05000000 27000000  hR..........'...
 1528 00000000 00000000                    ........        
Contents of section .rela.plt:
 1530 18500000 00000000 07000000 01000000  .P..............
 1540 00000000 00000000 20500000 00000000  ........ P......
 1550 07000000 02000000 00000000 00000000  ................
 1560 28500000 00000000 07000000 04000000  (P..............
 1570 00000000 00000000 30500000 00000000  ........0P......
 1580 07000000 05000000 00000000 00000000  ................
 1590 38500000 00000000 07000000 08000000  8P..............
 15a0 00000000 00000000 40500000 00000000  ........@P......
 15b0 07000000 09000000 00000000 00000000  ................
 15c0 48500000 00000000 07000000 0b000000  HP..............
 15d0 00000000 00000000 50500000 00000000  ........PP......
 15e0 07000000 0c000000 00000000 00000000  ................
 15f0 58500000 00000000 07000000 0d000000  XP..............
 1600 00000000 00000000 60500000 00000000  ........`P......
 1610 07000000 0e000000 00000000 00000000  ................
 1620 68500000 00000000 07000000 0f000000  hP..............
 1630 00000000 00000000 70500000 00000000  ........pP......
 1640 07000000 10000000 00000000 00000000  ................
 1650 78500000 00000000 07000000 11000000  xP..............
 1660 00000000 00000000 80500000 00000000  .........P......
 1670 07000000 12000000 00000000 00000000  ................
 1680 88500000 00000000 07000000 13000000  .P..............
 1690 00000000 00000000 90500000 00000000  .........P......
 16a0 07000000 14000000 00000000 00000000  ................
 16b0 98500000 00000000 07000000 15000000  .P..............
 16c0 00000000 00000000 a0500000 00000000  .........P......
 16d0 07000000 16000000 00000000 00000000  ................
 16e0 a8500000 00000000 07000000 17000000  .P..............
 16f0 00000000 00000000 b0500000 00000000  .........P......
 1700 07000000 18000000 00000000 00000000  ................
Contents of section .init:
 2000 4883ec08 488b05cd 2f000048 85c07402  H...H.../..H..t.
 2010 ffd04883 c408c3                      ..H....         
Contents of section .plt:
 2020 ff35e22f 0000ff25 e42f0000 0f1f4000  .5./...%./....@.
 2030 ff25e22f 00006800 000000e9 e0ffffff  .%./..h.........
 2040 ff25da2f 00006801 000000e9 d0ffffff  .%./..h.........
 2050 ff25d22f 00006802 000000e9 c0ffffff  .%./..h.........
 2060 ff25ca2f 00006803 000000e9 b0ffffff  .%./..h.........
 2070 ff25c22f 00006804 000000e9 a0ffffff  .%./..h.........
 2080 ff25ba2f 00006805 000000e9 90ffffff  .%./..h.........
 2090 ff25b22f 00006806 000000e9 80ffffff  .%./..h.........
 20a0 ff25aa2f 00006807 000000e9 70ffffff  .%./..h.....p...
 20b0 ff25a22f 00006808 000000e9 60ffffff  .%./..h.....`...
 20c0 ff259a2f 00006809 000000e9 50ffffff  .%./..h.....P...
 20d0 ff25922f 0000680a 000000e9 40ffffff  .%./..h.....@...
 20e0 ff258a2f 0000680b 000000e9 30ffffff  .%./..h.....0...
 20f0 ff25822f 0000680c 000000e9 20ffffff  .%./..h..... ...
 2100 ff257a2f 0000680d 000000e9 10ffffff  .%z/..h.........
 2110 ff25722f 0000680e 000000e9 00ffffff  .%r/..h.........
 2120 ff256a2f 0000680f 000000e9 f0feffff  .%j/..h.........
 2130 ff25622f 00006810 000000e9 e0feffff  .%b/..h.........
 2140 ff255a2f 00006811 000000e9 d0feffff  .%Z/..h.........
 2150 ff25522f 00006812 000000e9 c0feffff  .%R/..h.........
 2160 ff254a2f 00006813 000000e9 b0feffff  .%J/..h.........
Contents of section .plt.got:
 2170 ff25822e 00006690                    .%....f.        
Contents of section .text:
 2180 31ed4989 d15e4889 e24883e4 f050544c  1.I..^H..H...PTL
 2190 8d051a05 0000488d 0db30400 00488d3d  ......H......H.=
 21a0 ec030000 ff15362e 0000f40f 1f440000  ......6......D..
 21b0 488d3d19 2f000048 8d05122f 00004839  H.=./..H.../..H9
 21c0 f8741548 8b051e2e 00004885 c07409ff  .t.H......H..t..
 21d0 e00f1f80 00000000 c30f1f80 00000000  ................
 21e0 488d3de9 2e000048 8d35e22e 00004829  H.=....H.5....H)
 21f0 fe48c1fe 034889f0 48c1e83f 4801c648  .H...H..H..?H..H
 2200 d1fe7414 488b05e5 2d000048 85c07408  ..t.H...-..H..t.
 2210 ffe0660f 1f440000 c30f1f80 00000000  ..f..D..........
 2220 803d4330 00000075 2f554883 3dc62d00  .=C0...u/UH.=.-.
 2230 00004889 e5740c48 8b3d822e 0000e82d  ..H..t.H.=.....-
 2240 ffffffe8 68ffffff c6051b30 0000015d  ....h......0...]
 2250 c30f1f80 00000000 c30f1f80 00000000  ................
 2260 e97bffff ff905548 89e54155 41545348  .{....UH..AUATSH
 2270 83ec1848 89f94889 f348894d d048895d  ...H..H..H.M.H.]
 2280 d8488b4d d88b094c 63e9488b 4dd88b71  .H.M...Lc.H.M..q
 2290 04488b4d d88b0939 ce488b4d d88b7104  .H.M...9.H.M..q.
 22a0 488b4dd8 8b0939ce 7c41488b 4dd88b49  H.M...9.|AH.M..I
 22b0 044863f1 488b4dd8 8b094863 c94829ce  .Hc.H.M...Hc.H).
 22c0 4889f148 83c10148 89c8ba00 00000048  H..H...H.......H
 22d0 69f20042 0100486b c8004801 f1be0042  i..B..Hk..H....B
 22e0 010048f7 e64801d1 4889ca48 8b45d88b  ..H..H..H..H.E..
 22f0 5004488b 45d88b00 39c2488b 45d88b18  P.H.E...9.H.E...
 2300 488b45d8 448b6004 4439e37f 2b488b55  H.E.D.`.D9..+H.U
 2310 d04863c3 4c29e848 69c04028 00004801  .Hc.L).Hi.@(..H.
 2320 d0be0028 00004889 c7e812fe ffff4439  ...(..H.......D9
 2330 e3740583 c301ebd5 904883c4 185b415c  .t.......H...[A\
 2340 415d5dc3 554889e5 0fb6057b 2d000083  A]].UH.....{-...
 2350 f00184c0 7514c605 6d2d0000 00e87efd  ....u...m-....~.
 2360 ffffe849 fdffff90 eb01905d c3905548  ...I.......]..UH
 2370 89e50fb6 05512d00 0084c00f 850c0200  .....Q-.........
 2380 00c60542 2d000001 c7055e2e 0000ffff  ...B-.....^.....
 2390 ffffc705 042e0000 ffffffff c6051f2e  ................
 23a0 000062c6 05ee2d00 0020c605 212e0000  ..b...-.. ..!...
 23b0 20c60528 2d000020 488d0519 0e000048   ..(-.. H......H
 23c0 8905322e 0000c705 102e0000 00000000  ..2.............
 23d0 c705ae2d 0000ffff ffff488d 05f80d00  ...-......H.....
 23e0 00488905 702d0000 c7055e2e 00000000  .H..p-....^.....
 23f0 0000c705 b42d0000 00000000 c7051a2e  .....-..........
 2400 00000000 0000c705 502e0000 ffffffff  ........P.......
 2410 c705922d 00000000 0000e8d7 010000c7  ...-............
 2420 05d72c00 00002800 00c70551 2d000001  ..,...(....Q-...
 2430 00000048 8d05462e 00004889 054f2d00  ...H..F...H..O-.
 2440 00bf0100 0000e815 fdffff48 c7050a2d  ...........H...-
 2450 00000000 0000e895 fcffffe8 40fcffff  ............@...
 2460 0fb705f1 2d000083 c0016689 05e72d00  ....-.....f...-.
 2470 00e8bafc ffff0fb7 05032d00 0083c001  ..........-.....
 2480 668905f9 2c0000e8 c4fcffff 0fb70531  f...,..........1
 2490 2d000083 c0016689 05272d00 00e8defb  -.....f..'-.....
 24a0 ffff0fb7 055f2c00 0083c001 66890555  ....._,.....f..U
 24b0 2c0000e8 d8fbffff 0fb70543 2d000083  ,..........C-...
 24c0 c0016689 05392d00 00e882fb ffff0fb7  ..f..9-.........
 24d0 05932c00 0083c001 66890589 2c00000f  ..,.....f...,...
 24e0 b7053a2c 000083c0 01668905 302c0000  ..:,.....f..0,..
 24f0 e86bfbff ff0fb705 082c0000 83c00166  .k.......,.....f
 2500 8905fe2b 0000e865 fbffffe8 f0fbffff  ...+...e........
 2510 0fb7054d 2d000083 c0016689 05432d00  ...M-.....f..C-.
 2520 00e80afb ffff0fb7 053b2d00 0083c001  .........;-.....
 2530 66890531 2d00000f b705922c 000083c0  f..1-......,....
 2540 01668905 882c0000 e883fbff ffe8cefb  .f...,..........
 2550 ffff0fb7 05672c00 0083c001 6689055d  .....g,.....f..]
 2560 2c0000e8 a8fbffff 0fb705d1 2b000083  ,...........+...
 2570 c0016689 05c72b00 000fb705 802c0000  ..f...+......,..
 2580 83c00166 8905762c 000090eb 01905dc3  ...f..v,......].
 2590 554889e5 4883ec30 897dec48 8975e048  UH..H..0.}.H.u.H
 25a0 8955d848 8d058e0a 00004889 45f08b45  .U.H......H.E..E
 25b0 ec890589 2c000048 8b45e048 8905062c  ....,..H.E.H...,
 25c0 0000488b 45d84889 05832b00 00488d45  ..H.E.H...+..H.E
 25d0 f84889c7 e8e7faff ffe890fd ffffe847  .H.............G
 25e0 000000e8 5cfdffff e853faff ff8b05b5  ....\....S......
 25f0 2b0000c9 c3905548 89e55348 83ec0848  +.....UH..SH...H
 2600 8d057a2c 0000488d 15030a00 004889c1  ..z,..H......H..
 2610 4889d348 89d04889 cf4889c6 e845fcff  H..H..H..H...E..
 2620 ff904883 c4085b5d c3905548 89e5c745  ..H...[]..UH...E
 2630 fc030000 00c745f8 05000000 c745f408  ......E......E..
 2640 00000090 5dc3662e 0f1f8400 00000000  ....].f.........
 2650 41574989 d7415649 89f64155 4189fd41  AWI..AVI..AUA..A
 2660 544c8d25 50270000 55488d2d 50270000  TL.%P'..UH.-P'..
 2670 534c29e5 4883ec08 e883f9ff ff48c1fd  SL).H........H..
 2680 03741b31 db0f1f00 4c89fa4c 89f64489  .t.1....L..L..D.
 2690 ef41ff14 dc4883c3 014839dd 75ea4883  .A...H...H9.u.H.
 26a0 c4085b5d 415c415d 415e415f c30f1f00  ..[]A\A]A^A_....
 26b0 c3                                   .               
Contents of section .fini:
 26b4 4883ec08 4883c408 c3                 H...H....       
Contents of section .rodata:
 3000 01000200 00000000 00000000 00000000  ................
 3010 01000000 01000000 00000000 00000000  ................
 3020 474e4154 20566572 73696f6e 3a20382e  GNAT Version: 8.
 3030 322e3000 00000000 5f616461 5f616464  2.0....._ada_add
 3040 5f696e74 00000000 fa8e6f1d f0f20f05  _int......o.....
 3050 2bf21341 f1d22afd f50281b4 43e82762  +..A..*.....C.'b
 3060 04ec3546 d8385993 308a481f cafe2ef5  ..5F.8Y.0.H.....
 3070 1c6824e8 a19d7876 edab2657 2e55e541  .h$...xv..&W.U.A
 3080 170186ae c77dcabb ed05d220 688e5dbb  .....}..... h.].
 3090 3464a136 5828a3be 9095d0ce 00a6f66b  4d.6X(.........k
 30a0 5e5b397d 2bfc9756 1e7d8341 ec878ac8  ^[9}+..V.}.A....
 30b0 01297434 46859b1b 20f04ace f281562e  .)t4F... .J...V.
 30c0 27649180 8190ad3b fc6305aa c015bf38  'd.....;.c.....8
 30d0 02882f6c c60cee44 178cdf39 c0321718  ../l...D...9.2..
 30e0 2595d49e 741a6e46 246b48c2 d16140c8  %...t.nF$kH..a@.
 30f0 287d9d17 889d1f70 755e2420 6852b55a  (}.....pu^$ hR.Z
 3100 e6259e76 af8702f6 81e665e8 1dcdc831  .%.v......e....1
 3110 29f318b0 1f736022 607e135f fa59465b  )....s`"`~._.YF[
 3120 f87d638f 54613f3b 6ab97b4b 36fad4e6  .}c.Ta?;j.{K6...
 3130 3f1adf96 ec6b521e f1b88fd6 a3e36507  ?....kR.......e.
 3140 8790b372 135ff092 2bd2d3a0 3e71d9e7  ...r._..+...>q..
 3150 bfc278ec 70ac47ed 0cc2aad7 4b1b77d8  ..x.p.G.....K.w.
 3160 efd190f7 6353447c c582d892 4aa5da0c  ....cSD|....J...
 3170 7798f282 5efe4d83 ea7a2668 5db54245  w...^.M..z&h].BE
 3180 880606d1 d3853c62 ad898e2a 91c02326  ......<b...*..#&
 3190 b4f06fef 7e49060b 54a3741a a40a11dc  ..o.~I..T.t.....
 31a0 93f3dbaf f5c74108 b200b627 fa5a95ea  ......A....'.Z..
 31b0 293fbfd7 9eccea62 17a5338c d6ce485d  )?.....b..3...H]
 31c0 40e82197 d7e25970 9c6731a8 2574ff52  @.!...Yp.g1.%t.R
 31d0 b6fde6ec 046d8fd2 0000               .....m....      
Contents of section .eh_frame_hdr:
 31dc 011b033b 60000000 0b000000 44eeffff  ...;`.......D...
 31ec ac000000 94efffff d4000000 a4efffff  ................
 31fc 7c000000 8af0ffff ec000000 68f1ffff  |...........h...
 320c 14010000 92f1ffff 34010000 b4f3ffff  ........4.......
 321c 54010000 1af4ffff 74010000 4ef4ffff  T.......t...N...
 322c 94010000 74f4ffff b4010000 d4f4ffff  ....t...........
 323c fc010000                             ....            
Contents of section .eh_frame:
 3240 14000000 00000000 017a5200 01781001  .........zR..x..
 3250 1b0c0708 90010710 14000000 1c000000  ................
 3260 20efffff 2b000000 00000000 00000000   ...+...........
 3270 14000000 00000000 017a5200 01781001  .........zR..x..
 3280 1b0c0708 90010000 24000000 1c000000  ........$.......
 3290 90edffff 50010000 000e1046 0e184a0f  ....P......F..J.
 32a0 0b770880 003f1a3b 2a332422 00000000  .w...?.;*3$"....
 32b0 14000000 44000000 b8eeffff 08000000  ....D...........
 32c0 00000000 00000000 24000000 5c000000  ........$...\...
 32d0 96efffff de000000 00410e10 8602430d  .........A....C.
 32e0 06498d03 8c048305 02d00c07 08000000  .I..............
 32f0 1c000000 84000000 4cf0ffff 29000000  ........L...)...
 3300 00410e10 8602430d 06640c07 08000000  .A....C..d......
 3310 1c000000 a4000000 56f0ffff 22020000  ........V..."...
 3320 00410e10 8602430d 06031d02 0c070800  .A....C.........
 3330 1c000000 c4000000 58f2ffff 65000000  ........X...e...
 3340 00410e10 8602430d 0602600c 07080000  .A....C...`.....
 3350 1c000000 e4000000 9ef2ffff 33000000  ............3...
 3360 00410e10 8602430d 06458303 690c0708  .A....C..E..i...
 3370 1c000000 04010000 b2f2ffff 1c000000  ................
 3380 00410e10 8602430d 06570c07 08000000  .A....C..W......
 3390 44000000 24010000 b8f2ffff 5d000000  D...$.......]...
 33a0 00420e10 8f02450e 188e0345 0e208d04  .B....E....E. ..
 33b0 450e288c 05480e30 8606480e 38830747  E.(..H.0..H.8..G
 33c0 0e406a0e 38410e30 410e2842 0e20420e  .@j.8A.0A.(B. B.
 33d0 18420e10 420e0800 10000000 6c010000  .B..B.......l...
 33e0 d0f2ffff 01000000 00000000 00000000  ................
Contents of section .init_array:
 4db8 60220000 00000000                    `"......        
Contents of section .fini_array:
 4dc0 20220000 00000000                     "......        
Contents of section .dynamic:
 4dc8 01000000 00000000 01000000 00000000  ................
 4dd8 01000000 00000000 b3050000 00000000  ................
 4de8 01000000 00000000 be050000 00000000  ................
 4df8 01000000 00000000 cc050000 00000000  ................
 4e08 0c000000 00000000 00200000 00000000  ......... ......
 4e18 0d000000 00000000 b4260000 00000000  .........&......
 4e28 19000000 00000000 b84d0000 00000000  .........M......
 4e38 1b000000 00000000 08000000 00000000  ................
 4e48 1a000000 00000000 c04d0000 00000000  .........M......
 4e58 1c000000 00000000 08000000 00000000  ................
 4e68 f5feff6f 00000000 08030000 00000000  ...o............
 4e78 05000000 00000000 500a0000 00000000  ........P.......
 4e88 06000000 00000000 68040000 00000000  ........h.......
 4e98 0a000000 00000000 03060000 00000000  ................
 4ea8 0b000000 00000000 18000000 00000000  ................
 4eb8 15000000 00000000 00000000 00000000  ................
 4ec8 03000000 00000000 00500000 00000000  .........P......
 4ed8 02000000 00000000 e0010000 00000000  ................
 4ee8 14000000 00000000 07000000 00000000  ................
 4ef8 17000000 00000000 30150000 00000000  ........0.......
 4f08 07000000 00000000 f8100000 00000000  ................
 4f18 08000000 00000000 38040000 00000000  ........8.......
 4f28 09000000 00000000 18000000 00000000  ................
 4f38 fbffff6f 00000000 00000008 00000000  ...o............
 4f48 feffff6f 00000000 d8100000 00000000  ...o............
 4f58 ffffff6f 00000000 01000000 00000000  ...o............
 4f68 f0ffff6f 00000000 54100000 00000000  ...o....T.......
 4f78 f9ffff6f 00000000 03000000 00000000  ...o............
 4f88 00000000 00000000 00000000 00000000  ................
 4f98 00000000 00000000 00000000 00000000  ................
 4fa8 00000000 00000000 00000000 00000000  ................
 4fb8 00000000 00000000 00000000 00000000  ................
 4fc8 00000000 00000000 00000000 00000000  ................
Contents of section .got:
 4fd8 00000000 00000000 00000000 00000000  ................
 4fe8 00000000 00000000 00000000 00000000  ................
 4ff8 00000000 00000000                    ........        
Contents of section .got.plt:
 5000 c84d0000 00000000 00000000 00000000  .M..............
 5010 00000000 00000000 36200000 00000000  ........6 ......
 5020 46200000 00000000 56200000 00000000  F ......V ......
 5030 66200000 00000000 76200000 00000000  f ......v ......
 5040 86200000 00000000 96200000 00000000  . ....... ......
 5050 a6200000 00000000 b6200000 00000000  . ....... ......
 5060 c6200000 00000000 d6200000 00000000  . ....... ......
 5070 e6200000 00000000 f6200000 00000000  . ....... ......
 5080 06210000 00000000 16210000 00000000  .!.......!......
 5090 26210000 00000000 36210000 00000000  &!......6!......
 50a0 46210000 00000000 56210000 00000000  F!......V!......
 50b0 66210000 00000000                    f!......        
Contents of section .data:
 50b8 00000000 00000000 c0500000 00000000  .........P......
 50c8 000000                               ...             
Contents of section .comment:
 0000 4743433a 20284465 6269616e 20382e32  GCC: (Debian 8.2
 0010 2e302d31 34292038 2e322e30 00        .0-14) 8.2.0.   

Disassembly of section .init:

0000000000002000 <_init>:
    2000:	48 83 ec 08          	sub    rsp,0x8
    2004:	48 8b 05 cd 2f 00 00 	mov    rax,QWORD PTR [rip+0x2fcd]        # 4fd8 <__gmon_start__>
    200b:	48 85 c0             	test   rax,rax
    200e:	74 02                	je     2012 <_init+0x12>
    2010:	ff d0                	call   rax
    2012:	48 83 c4 08          	add    rsp,0x8
    2016:	c3                   	ret    

Disassembly of section .plt:

0000000000002020 <.plt>:
    2020:	ff 35 e2 2f 00 00    	push   QWORD PTR [rip+0x2fe2]        # 5008 <_GLOBAL_OFFSET_TABLE_+0x8>
    2026:	ff 25 e4 2f 00 00    	jmp    QWORD PTR [rip+0x2fe4]        # 5010 <_GLOBAL_OFFSET_TABLE_+0x10>
    202c:	0f 1f 40 00          	nop    DWORD PTR [rax+0x0]

0000000000002030 <interfaces__c___elabs@plt>:
    2030:	ff 25 e2 2f 00 00    	jmp    QWORD PTR [rip+0x2fe2]        # 5018 <interfaces__c___elabs>
    2036:	68 00 00 00 00       	push   0x0
    203b:	e9 e0 ff ff ff       	jmp    2020 <.plt>

0000000000002040 <__gnat_finalize@plt>:
    2040:	ff 25 da 2f 00 00    	jmp    QWORD PTR [rip+0x2fda]        # 5020 <__gnat_finalize>
    2046:	68 01 00 00 00       	push   0x1
    204b:	e9 d0 ff ff ff       	jmp    2020 <.plt>

0000000000002050 <system__soft_links__initialize___elabb@plt>:
    2050:	ff 25 d2 2f 00 00    	jmp    QWORD PTR [rip+0x2fd2]        # 5028 <system__soft_links__initialize___elabb>
    2056:	68 02 00 00 00       	push   0x2
    205b:	e9 c0 ff ff ff       	jmp    2020 <.plt>

0000000000002060 <system__os_lib___elabb@plt>:
    2060:	ff 25 ca 2f 00 00    	jmp    QWORD PTR [rip+0x2fca]        # 5030 <system__os_lib___elabb>
    2066:	68 03 00 00 00       	push   0x3
    206b:	e9 b0 ff ff ff       	jmp    2020 <.plt>

0000000000002070 <ada__strings__maps___elabs@plt>:
    2070:	ff 25 c2 2f 00 00    	jmp    QWORD PTR [rip+0x2fc2]        # 5038 <ada__strings__maps___elabs>
    2076:	68 04 00 00 00       	push   0x4
    207b:	e9 a0 ff ff ff       	jmp    2020 <.plt>

0000000000002080 <ada__containers___elabs@plt>:
    2080:	ff 25 ba 2f 00 00    	jmp    QWORD PTR [rip+0x2fba]        # 5040 <ada__containers___elabs>
    2086:	68 05 00 00 00       	push   0x5
    208b:	e9 90 ff ff ff       	jmp    2020 <.plt>

0000000000002090 <system__exceptions___elabs@plt>:
    2090:	ff 25 b2 2f 00 00    	jmp    QWORD PTR [rip+0x2fb2]        # 5048 <system__exceptions___elabs>
    2096:	68 06 00 00 00       	push   0x6
    209b:	e9 80 ff ff ff       	jmp    2020 <.plt>

00000000000020a0 <system__exception_table___elabb@plt>:
    20a0:	ff 25 aa 2f 00 00    	jmp    QWORD PTR [rip+0x2faa]        # 5050 <system__exception_table___elabb>
    20a6:	68 07 00 00 00       	push   0x7
    20ab:	e9 70 ff ff ff       	jmp    2020 <.plt>

00000000000020b0 <system__standard_library__adafinal@plt>:
    20b0:	ff 25 a2 2f 00 00    	jmp    QWORD PTR [rip+0x2fa2]        # 5058 <system__standard_library__adafinal>
    20b6:	68 08 00 00 00       	push   0x8
    20bb:	e9 60 ff ff ff       	jmp    2020 <.plt>

00000000000020c0 <__gnat_initialize@plt>:
    20c0:	ff 25 9a 2f 00 00    	jmp    QWORD PTR [rip+0x2f9a]        # 5060 <__gnat_initialize>
    20c6:	68 09 00 00 00       	push   0x9
    20cb:	e9 50 ff ff ff       	jmp    2020 <.plt>

00000000000020d0 <system__object_reader___elabs@plt>:
    20d0:	ff 25 92 2f 00 00    	jmp    QWORD PTR [rip+0x2f92]        # 5068 <system__object_reader___elabs>
    20d6:	68 0a 00 00 00       	push   0xa
    20db:	e9 40 ff ff ff       	jmp    2020 <.plt>

00000000000020e0 <__gnat_runtime_finalize@plt>:
    20e0:	ff 25 8a 2f 00 00    	jmp    QWORD PTR [rip+0x2f8a]        # 5070 <__gnat_runtime_finalize>
    20e6:	68 0b 00 00 00       	push   0xb
    20eb:	e9 30 ff ff ff       	jmp    2020 <.plt>

00000000000020f0 <system__soft_links___elabs@plt>:
    20f0:	ff 25 82 2f 00 00    	jmp    QWORD PTR [rip+0x2f82]        # 5078 <system__soft_links___elabs>
    20f6:	68 0c 00 00 00       	push   0xc
    20fb:	e9 20 ff ff ff       	jmp    2020 <.plt>

0000000000002100 <ada__strings__maps__constants___elabs@plt>:
    2100:	ff 25 7a 2f 00 00    	jmp    QWORD PTR [rip+0x2f7a]        # 5080 <ada__strings__maps__constants___elabs>
    2106:	68 0d 00 00 00       	push   0xd
    210b:	e9 10 ff ff ff       	jmp    2020 <.plt>

0000000000002110 <system__traceback__symbolic___elabb@plt>:
    2110:	ff 25 72 2f 00 00    	jmp    QWORD PTR [rip+0x2f72]        # 5088 <system__traceback__symbolic___elabb>
    2116:	68 0e 00 00 00       	push   0xe
    211b:	e9 00 ff ff ff       	jmp    2020 <.plt>

0000000000002120 <system__dwarf_lines___elabs@plt>:
    2120:	ff 25 6a 2f 00 00    	jmp    QWORD PTR [rip+0x2f6a]        # 5090 <system__dwarf_lines___elabs>
    2126:	68 0f 00 00 00       	push   0xf
    212b:	e9 f0 fe ff ff       	jmp    2020 <.plt>

0000000000002130 <ada__io_exceptions___elabs@plt>:
    2130:	ff 25 62 2f 00 00    	jmp    QWORD PTR [rip+0x2f62]        # 5098 <ada__io_exceptions___elabs>
    2136:	68 10 00 00 00       	push   0x10
    213b:	e9 e0 fe ff ff       	jmp    2020 <.plt>

0000000000002140 <system__secondary_stack__ss_stackIP@plt>:
    2140:	ff 25 5a 2f 00 00    	jmp    QWORD PTR [rip+0x2f5a]        # 50a0 <system__secondary_stack__ss_stackIP>
    2146:	68 11 00 00 00       	push   0x11
    214b:	e9 d0 fe ff ff       	jmp    2020 <.plt>

0000000000002150 <ada__strings___elabs@plt>:
    2150:	ff 25 52 2f 00 00    	jmp    QWORD PTR [rip+0x2f52]        # 50a8 <ada__strings___elabs>
    2156:	68 12 00 00 00       	push   0x12
    215b:	e9 c0 fe ff ff       	jmp    2020 <.plt>

0000000000002160 <__gnat_runtime_initialize@plt>:
    2160:	ff 25 4a 2f 00 00    	jmp    QWORD PTR [rip+0x2f4a]        # 50b0 <__gnat_runtime_initialize>
    2166:	68 13 00 00 00       	push   0x13
    216b:	e9 b0 fe ff ff       	jmp    2020 <.plt>

Disassembly of section .plt.got:

0000000000002170 <__cxa_finalize@plt>:
    2170:	ff 25 82 2e 00 00    	jmp    QWORD PTR [rip+0x2e82]        # 4ff8 <__cxa_finalize@GLIBC_2.2.5>
    2176:	66 90                	xchg   ax,ax

Disassembly of section .text:

0000000000002180 <_start>:
    2180:	31 ed                	xor    ebp,ebp
    2182:	49 89 d1             	mov    r9,rdx
    2185:	5e                   	pop    rsi
    2186:	48 89 e2             	mov    rdx,rsp
    2189:	48 83 e4 f0          	and    rsp,0xfffffffffffffff0
    218d:	50                   	push   rax
    218e:	54                   	push   rsp
    218f:	4c 8d 05 1a 05 00 00 	lea    r8,[rip+0x51a]        # 26b0 <__libc_csu_fini>
    2196:	48 8d 0d b3 04 00 00 	lea    rcx,[rip+0x4b3]        # 2650 <__libc_csu_init>
    219d:	48 8d 3d ec 03 00 00 	lea    rdi,[rip+0x3ec]        # 2590 <main>
    21a4:	ff 15 36 2e 00 00    	call   QWORD PTR [rip+0x2e36]        # 4fe0 <__libc_start_main@GLIBC_2.2.5>
    21aa:	f4                   	hlt    
    21ab:	0f 1f 44 00 00       	nop    DWORD PTR [rax+rax*1+0x0]

00000000000021b0 <deregister_tm_clones>:
    21b0:	48 8d 3d 19 2f 00 00 	lea    rdi,[rip+0x2f19]        # 50d0 <__TMC_END__>
    21b7:	48 8d 05 12 2f 00 00 	lea    rax,[rip+0x2f12]        # 50d0 <__TMC_END__>
    21be:	48 39 f8             	cmp    rax,rdi
    21c1:	74 15                	je     21d8 <deregister_tm_clones+0x28>
    21c3:	48 8b 05 1e 2e 00 00 	mov    rax,QWORD PTR [rip+0x2e1e]        # 4fe8 <_ITM_deregisterTMCloneTable>
    21ca:	48 85 c0             	test   rax,rax
    21cd:	74 09                	je     21d8 <deregister_tm_clones+0x28>
    21cf:	ff e0                	jmp    rax
    21d1:	0f 1f 80 00 00 00 00 	nop    DWORD PTR [rax+0x0]
    21d8:	c3                   	ret    
    21d9:	0f 1f 80 00 00 00 00 	nop    DWORD PTR [rax+0x0]

00000000000021e0 <register_tm_clones>:
    21e0:	48 8d 3d e9 2e 00 00 	lea    rdi,[rip+0x2ee9]        # 50d0 <__TMC_END__>
    21e7:	48 8d 35 e2 2e 00 00 	lea    rsi,[rip+0x2ee2]        # 50d0 <__TMC_END__>
    21ee:	48 29 fe             	sub    rsi,rdi
    21f1:	48 c1 fe 03          	sar    rsi,0x3
    21f5:	48 89 f0             	mov    rax,rsi
    21f8:	48 c1 e8 3f          	shr    rax,0x3f
    21fc:	48 01 c6             	add    rsi,rax
    21ff:	48 d1 fe             	sar    rsi,1
    2202:	74 14                	je     2218 <register_tm_clones+0x38>
    2204:	48 8b 05 e5 2d 00 00 	mov    rax,QWORD PTR [rip+0x2de5]        # 4ff0 <_ITM_registerTMCloneTable>
    220b:	48 85 c0             	test   rax,rax
    220e:	74 08                	je     2218 <register_tm_clones+0x38>
    2210:	ff e0                	jmp    rax
    2212:	66 0f 1f 44 00 00    	nop    WORD PTR [rax+rax*1+0x0]
    2218:	c3                   	ret    
    2219:	0f 1f 80 00 00 00 00 	nop    DWORD PTR [rax+0x0]

0000000000002220 <__do_global_dtors_aux>:
    2220:	80 3d 43 30 00 00 00 	cmp    BYTE PTR [rip+0x3043],0x0        # 526a <completed.7325>
    2227:	75 2f                	jne    2258 <__do_global_dtors_aux+0x38>
    2229:	55                   	push   rbp
    222a:	48 83 3d c6 2d 00 00 	cmp    QWORD PTR [rip+0x2dc6],0x0        # 4ff8 <__cxa_finalize@GLIBC_2.2.5>
    2231:	00 
    2232:	48 89 e5             	mov    rbp,rsp
    2235:	74 0c                	je     2243 <__do_global_dtors_aux+0x23>
    2237:	48 8b 3d 82 2e 00 00 	mov    rdi,QWORD PTR [rip+0x2e82]        # 50c0 <__dso_handle>
    223e:	e8 2d ff ff ff       	call   2170 <__cxa_finalize@plt>
    2243:	e8 68 ff ff ff       	call   21b0 <deregister_tm_clones>
    2248:	c6 05 1b 30 00 00 01 	mov    BYTE PTR [rip+0x301b],0x1        # 526a <completed.7325>
    224f:	5d                   	pop    rbp
    2250:	c3                   	ret    
    2251:	0f 1f 80 00 00 00 00 	nop    DWORD PTR [rax+0x0]
    2258:	c3                   	ret    
    2259:	0f 1f 80 00 00 00 00 	nop    DWORD PTR [rax+0x0]

0000000000002260 <frame_dummy>:
    2260:	e9 7b ff ff ff       	jmp    21e0 <register_tm_clones>
    2265:	90                   	nop

0000000000002266 <ada_main__Tsec_default_sized_stacksBIP>:
    2266:	55                   	push   rbp
    2267:	48 89 e5             	mov    rbp,rsp
    226a:	41 55                	push   r13
    226c:	41 54                	push   r12
    226e:	53                   	push   rbx
    226f:	48 83 ec 18          	sub    rsp,0x18
    2273:	48 89 f9             	mov    rcx,rdi
    2276:	48 89 f3             	mov    rbx,rsi
    2279:	48 89 4d d0          	mov    QWORD PTR [rbp-0x30],rcx
    227d:	48 89 5d d8          	mov    QWORD PTR [rbp-0x28],rbx
    2281:	48 8b 4d d8          	mov    rcx,QWORD PTR [rbp-0x28]
    2285:	8b 09                	mov    ecx,DWORD PTR [rcx]
    2287:	4c 63 e9             	movsxd r13,ecx
    228a:	48 8b 4d d8          	mov    rcx,QWORD PTR [rbp-0x28]
    228e:	8b 71 04             	mov    esi,DWORD PTR [rcx+0x4]
    2291:	48 8b 4d d8          	mov    rcx,QWORD PTR [rbp-0x28]
    2295:	8b 09                	mov    ecx,DWORD PTR [rcx]
    2297:	39 ce                	cmp    esi,ecx
    2299:	48 8b 4d d8          	mov    rcx,QWORD PTR [rbp-0x28]
    229d:	8b 71 04             	mov    esi,DWORD PTR [rcx+0x4]
    22a0:	48 8b 4d d8          	mov    rcx,QWORD PTR [rbp-0x28]
    22a4:	8b 09                	mov    ecx,DWORD PTR [rcx]
    22a6:	39 ce                	cmp    esi,ecx
    22a8:	7c 41                	jl     22eb <ada_main__Tsec_default_sized_stacksBIP+0x85>
    22aa:	48 8b 4d d8          	mov    rcx,QWORD PTR [rbp-0x28]
    22ae:	8b 49 04             	mov    ecx,DWORD PTR [rcx+0x4]
    22b1:	48 63 f1             	movsxd rsi,ecx
    22b4:	48 8b 4d d8          	mov    rcx,QWORD PTR [rbp-0x28]
    22b8:	8b 09                	mov    ecx,DWORD PTR [rcx]
    22ba:	48 63 c9             	movsxd rcx,ecx
    22bd:	48 29 ce             	sub    rsi,rcx
    22c0:	48 89 f1             	mov    rcx,rsi
    22c3:	48 83 c1 01          	add    rcx,0x1
    22c7:	48 89 c8             	mov    rax,rcx
    22ca:	ba 00 00 00 00       	mov    edx,0x0
    22cf:	48 69 f2 00 42 01 00 	imul   rsi,rdx,0x14200
    22d6:	48 6b c8 00          	imul   rcx,rax,0x0
    22da:	48 01 f1             	add    rcx,rsi
    22dd:	be 00 42 01 00       	mov    esi,0x14200
    22e2:	48 f7 e6             	mul    rsi
    22e5:	48 01 d1             	add    rcx,rdx
    22e8:	48 89 ca             	mov    rdx,rcx
    22eb:	48 8b 45 d8          	mov    rax,QWORD PTR [rbp-0x28]
    22ef:	8b 50 04             	mov    edx,DWORD PTR [rax+0x4]
    22f2:	48 8b 45 d8          	mov    rax,QWORD PTR [rbp-0x28]
    22f6:	8b 00                	mov    eax,DWORD PTR [rax]
    22f8:	39 c2                	cmp    edx,eax
    22fa:	48 8b 45 d8          	mov    rax,QWORD PTR [rbp-0x28]
    22fe:	8b 18                	mov    ebx,DWORD PTR [rax]
    2300:	48 8b 45 d8          	mov    rax,QWORD PTR [rbp-0x28]
    2304:	44 8b 60 04          	mov    r12d,DWORD PTR [rax+0x4]
    2308:	44 39 e3             	cmp    ebx,r12d
    230b:	7f 2b                	jg     2338 <ada_main__Tsec_default_sized_stacksBIP+0xd2>
    230d:	48 8b 55 d0          	mov    rdx,QWORD PTR [rbp-0x30]
    2311:	48 63 c3             	movsxd rax,ebx
    2314:	4c 29 e8             	sub    rax,r13
    2317:	48 69 c0 40 28 00 00 	imul   rax,rax,0x2840
    231e:	48 01 d0             	add    rax,rdx
    2321:	be 00 28 00 00       	mov    esi,0x2800
    2326:	48 89 c7             	mov    rdi,rax
    2329:	e8 12 fe ff ff       	call   2140 <system__secondary_stack__ss_stackIP@plt>
    232e:	44 39 e3             	cmp    ebx,r12d
    2331:	74 05                	je     2338 <ada_main__Tsec_default_sized_stacksBIP+0xd2>
    2333:	83 c3 01             	add    ebx,0x1
    2336:	eb d5                	jmp    230d <ada_main__Tsec_default_sized_stacksBIP+0xa7>
    2338:	90                   	nop
    2339:	48 83 c4 18          	add    rsp,0x18
    233d:	5b                   	pop    rbx
    233e:	41 5c                	pop    r12
    2340:	41 5d                	pop    r13
    2342:	5d                   	pop    rbp
    2343:	c3                   	ret    

0000000000002344 <adafinal>:
    2344:	55                   	push   rbp
    2345:	48 89 e5             	mov    rbp,rsp
    2348:	0f b6 05 7b 2d 00 00 	movzx  eax,BYTE PTR [rip+0x2d7b]        # 50ca <ada_main__is_elaborated>
    234f:	83 f0 01             	xor    eax,0x1
    2352:	84 c0                	test   al,al
    2354:	75 14                	jne    236a <adafinal+0x26>
    2356:	c6 05 6d 2d 00 00 00 	mov    BYTE PTR [rip+0x2d6d],0x0        # 50ca <ada_main__is_elaborated>
    235d:	e8 7e fd ff ff       	call   20e0 <__gnat_runtime_finalize@plt>
    2362:	e8 49 fd ff ff       	call   20b0 <system__standard_library__adafinal@plt>
    2367:	90                   	nop
    2368:	eb 01                	jmp    236b <adafinal+0x27>
    236a:	90                   	nop
    236b:	5d                   	pop    rbp
    236c:	c3                   	ret    
    236d:	90                   	nop

000000000000236e <adainit>:
    236e:	55                   	push   rbp
    236f:	48 89 e5             	mov    rbp,rsp
    2372:	0f b6 05 51 2d 00 00 	movzx  eax,BYTE PTR [rip+0x2d51]        # 50ca <ada_main__is_elaborated>
    2379:	84 c0                	test   al,al
    237b:	0f 85 0c 02 00 00    	jne    258d <adainit+0x21f>
    2381:	c6 05 42 2d 00 00 01 	mov    BYTE PTR [rip+0x2d42],0x1        # 50ca <ada_main__is_elaborated>
    2388:	c7 05 5e 2e 00 00 ff 	mov    DWORD PTR [rip+0x2e5e],0xffffffff        # 51f0 <__gl_main_priority>
    238f:	ff ff ff 
    2392:	c7 05 04 2e 00 00 ff 	mov    DWORD PTR [rip+0x2e04],0xffffffff        # 51a0 <__gl_time_slice_val>
    2399:	ff ff ff 
    239c:	c6 05 1f 2e 00 00 62 	mov    BYTE PTR [rip+0x2e1f],0x62        # 51c2 <__gl_wc_encoding>
    23a3:	c6 05 ee 2d 00 00 20 	mov    BYTE PTR [rip+0x2dee],0x20        # 5198 <__gl_locking_policy>
    23aa:	c6 05 21 2e 00 00 20 	mov    BYTE PTR [rip+0x2e21],0x20        # 51d2 <__gl_queuing_policy>
    23b1:	c6 05 28 2d 00 00 20 	mov    BYTE PTR [rip+0x2d28],0x20        # 50e0 <__gl_task_dispatching_policy>
    23b8:	48 8d 05 19 0e 00 00 	lea    rax,[rip+0xe19]        # 31d8 <ada_main__local_priority_specific_dispatching>
    23bf:	48 89 05 32 2e 00 00 	mov    QWORD PTR [rip+0x2e32],rax        # 51f8 <__gl_priority_specific_dispatching>
    23c6:	c7 05 10 2e 00 00 00 	mov    DWORD PTR [rip+0x2e10],0x0        # 51e0 <__gl_num_specific_dispatching>
    23cd:	00 00 00 
    23d0:	c7 05 ae 2d 00 00 ff 	mov    DWORD PTR [rip+0x2dae],0xffffffff        # 5188 <__gl_main_cpu>
    23d7:	ff ff ff 
    23da:	48 8d 05 f8 0d 00 00 	lea    rax,[rip+0xdf8]        # 31d9 <ada_main__local_interrupt_states>
    23e1:	48 89 05 70 2d 00 00 	mov    QWORD PTR [rip+0x2d70],rax        # 5158 <__gl_interrupt_states>
    23e8:	c7 05 5e 2e 00 00 00 	mov    DWORD PTR [rip+0x2e5e],0x0        # 5250 <__gl_num_interrupt_states>
    23ef:	00 00 00 
    23f2:	c7 05 b4 2d 00 00 00 	mov    DWORD PTR [rip+0x2db4],0x0        # 51b0 <__gl_unreserve_all_interrupts>
    23f9:	00 00 00 
    23fc:	c7 05 1a 2e 00 00 00 	mov    DWORD PTR [rip+0x2e1a],0x0        # 5220 <__gl_detect_blocking>
    2403:	00 00 00 
    2406:	c7 05 50 2e 00 00 ff 	mov    DWORD PTR [rip+0x2e50],0xffffffff        # 5260 <__gl_default_stack_size>
    240d:	ff ff ff 
    2410:	c7 05 92 2d 00 00 00 	mov    DWORD PTR [rip+0x2d92],0x0        # 51ac <__gl_leap_seconds_support>
    2417:	00 00 00 
    241a:	e8 d7 01 00 00       	call   25f6 <ada_main___elabb>
    241f:	c7 05 d7 2c 00 00 00 	mov    DWORD PTR [rip+0x2cd7],0x2800        # 5100 <__gnat_default_ss_size>
    2426:	28 00 00 
    2429:	c7 05 51 2d 00 00 01 	mov    DWORD PTR [rip+0x2d51],0x1        # 5184 <__gnat_binder_ss_count>
    2430:	00 00 00 
    2433:	48 8d 05 46 2e 00 00 	lea    rax,[rip+0x2e46]        # 5280 <ada_main__sec_default_sized_stacks>
    243a:	48 89 05 4f 2d 00 00 	mov    QWORD PTR [rip+0x2d4f],rax        # 5190 <__gnat_default_ss_pool>
    2441:	bf 01 00 00 00       	mov    edi,0x1
    2446:	e8 15 fd ff ff       	call   2160 <__gnat_runtime_initialize@plt>
    244b:	48 c7 05 0a 2d 00 00 	mov    QWORD PTR [rip+0x2d0a],0x0        # 5160 <__gnat_finalize_library_objects>
    2452:	00 00 00 00 
    2456:	e8 95 fc ff ff       	call   20f0 <system__soft_links___elabs@plt>
    245b:	e8 40 fc ff ff       	call   20a0 <system__exception_table___elabb@plt>
    2460:	0f b7 05 f1 2d 00 00 	movzx  eax,WORD PTR [rip+0x2df1]        # 5258 <system__exception_table_E>
    2467:	83 c0 01             	add    eax,0x1
    246a:	66 89 05 e7 2d 00 00 	mov    WORD PTR [rip+0x2de7],ax        # 5258 <system__exception_table_E>
    2471:	e8 ba fc ff ff       	call   2130 <ada__io_exceptions___elabs@plt>
    2476:	0f b7 05 03 2d 00 00 	movzx  eax,WORD PTR [rip+0x2d03]        # 5180 <ada__io_exceptions_E>
    247d:	83 c0 01             	add    eax,0x1
    2480:	66 89 05 f9 2c 00 00 	mov    WORD PTR [rip+0x2cf9],ax        # 5180 <ada__io_exceptions_E>
    2487:	e8 c4 fc ff ff       	call   2150 <ada__strings___elabs@plt>
    248c:	0f b7 05 31 2d 00 00 	movzx  eax,WORD PTR [rip+0x2d31]        # 51c4 <ada__strings_E>
    2493:	83 c0 01             	add    eax,0x1
    2496:	66 89 05 27 2d 00 00 	mov    WORD PTR [rip+0x2d27],ax        # 51c4 <ada__strings_E>
    249d:	e8 de fb ff ff       	call   2080 <ada__containers___elabs@plt>
    24a2:	0f b7 05 5f 2c 00 00 	movzx  eax,WORD PTR [rip+0x2c5f]        # 5108 <ada__containers_E>
    24a9:	83 c0 01             	add    eax,0x1
    24ac:	66 89 05 55 2c 00 00 	mov    WORD PTR [rip+0x2c55],ax        # 5108 <ada__containers_E>
    24b3:	e8 d8 fb ff ff       	call   2090 <system__exceptions___elabs@plt>
    24b8:	0f b7 05 43 2d 00 00 	movzx  eax,WORD PTR [rip+0x2d43]        # 5202 <system__exceptions_E>
    24bf:	83 c0 01             	add    eax,0x1
    24c2:	66 89 05 39 2d 00 00 	mov    WORD PTR [rip+0x2d39],ax        # 5202 <system__exceptions_E>
    24c9:	e8 82 fb ff ff       	call   2050 <system__soft_links__initialize___elabb@plt>
    24ce:	0f b7 05 93 2c 00 00 	movzx  eax,WORD PTR [rip+0x2c93]        # 5168 <system__soft_links__initialize_E>
    24d5:	83 c0 01             	add    eax,0x1
    24d8:	66 89 05 89 2c 00 00 	mov    WORD PTR [rip+0x2c89],ax        # 5168 <system__soft_links__initialize_E>
    24df:	0f b7 05 3a 2c 00 00 	movzx  eax,WORD PTR [rip+0x2c3a]        # 5120 <system__soft_links_E>
    24e6:	83 c0 01             	add    eax,0x1
    24e9:	66 89 05 30 2c 00 00 	mov    WORD PTR [rip+0x2c30],ax        # 5120 <system__soft_links_E>
    24f0:	e8 6b fb ff ff       	call   2060 <system__os_lib___elabb@plt>
    24f5:	0f b7 05 08 2c 00 00 	movzx  eax,WORD PTR [rip+0x2c08]        # 5104 <system__os_lib_E>
    24fc:	83 c0 01             	add    eax,0x1
    24ff:	66 89 05 fe 2b 00 00 	mov    WORD PTR [rip+0x2bfe],ax        # 5104 <system__os_lib_E>
    2506:	e8 65 fb ff ff       	call   2070 <ada__strings__maps___elabs@plt>
    250b:	e8 f0 fb ff ff       	call   2100 <ada__strings__maps__constants___elabs@plt>
    2510:	0f b7 05 4d 2d 00 00 	movzx  eax,WORD PTR [rip+0x2d4d]        # 5264 <ada__strings__maps__constants_E>
    2517:	83 c0 01             	add    eax,0x1
    251a:	66 89 05 43 2d 00 00 	mov    WORD PTR [rip+0x2d43],ax        # 5264 <ada__strings__maps__constants_E>
    2521:	e8 0a fb ff ff       	call   2030 <interfaces__c___elabs@plt>
    2526:	0f b7 05 3b 2d 00 00 	movzx  eax,WORD PTR [rip+0x2d3b]        # 5268 <ada__strings__maps_E>
    252d:	83 c0 01             	add    eax,0x1
    2530:	66 89 05 31 2d 00 00 	mov    WORD PTR [rip+0x2d31],ax        # 5268 <ada__strings__maps_E>
    2537:	0f b7 05 92 2c 00 00 	movzx  eax,WORD PTR [rip+0x2c92]        # 51d0 <interfaces__c_E>
    253e:	83 c0 01             	add    eax,0x1
    2541:	66 89 05 88 2c 00 00 	mov    WORD PTR [rip+0x2c88],ax        # 51d0 <interfaces__c_E>
    2548:	e8 83 fb ff ff       	call   20d0 <system__object_reader___elabs@plt>
    254d:	e8 ce fb ff ff       	call   2120 <system__dwarf_lines___elabs@plt>
    2552:	0f b7 05 67 2c 00 00 	movzx  eax,WORD PTR [rip+0x2c67]        # 51c0 <system__dwarf_lines_E>
    2559:	83 c0 01             	add    eax,0x1
    255c:	66 89 05 5d 2c 00 00 	mov    WORD PTR [rip+0x2c5d],ax        # 51c0 <system__dwarf_lines_E>
    2563:	e8 a8 fb ff ff       	call   2110 <system__traceback__symbolic___elabb@plt>
    2568:	0f b7 05 d1 2b 00 00 	movzx  eax,WORD PTR [rip+0x2bd1]        # 5140 <system__traceback__symbolic_E>
    256f:	83 c0 01             	add    eax,0x1
    2572:	66 89 05 c7 2b 00 00 	mov    WORD PTR [rip+0x2bc7],ax        # 5140 <system__traceback__symbolic_E>
    2579:	0f b7 05 80 2c 00 00 	movzx  eax,WORD PTR [rip+0x2c80]        # 5200 <system__object_reader_E>
    2580:	83 c0 01             	add    eax,0x1
    2583:	66 89 05 76 2c 00 00 	mov    WORD PTR [rip+0x2c76],ax        # 5200 <system__object_reader_E>
    258a:	90                   	nop
    258b:	eb 01                	jmp    258e <adainit+0x220>
    258d:	90                   	nop
    258e:	5d                   	pop    rbp
    258f:	c3                   	ret    

0000000000002590 <main>:
    2590:	55                   	push   rbp
    2591:	48 89 e5             	mov    rbp,rsp
    2594:	48 83 ec 30          	sub    rsp,0x30
    2598:	89 7d ec             	mov    DWORD PTR [rbp-0x14],edi
    259b:	48 89 75 e0          	mov    QWORD PTR [rbp-0x20],rsi
    259f:	48 89 55 d8          	mov    QWORD PTR [rbp-0x28],rdx
    25a3:	48 8d 05 8e 0a 00 00 	lea    rax,[rip+0xa8e]        # 3038 <__gnat_ada_main_program_name>
    25aa:	48 89 45 f0          	mov    QWORD PTR [rbp-0x10],rax
    25ae:	8b 45 ec             	mov    eax,DWORD PTR [rbp-0x14]
    25b1:	89 05 89 2c 00 00    	mov    DWORD PTR [rip+0x2c89],eax        # 5240 <gnat_argc>
    25b7:	48 8b 45 e0          	mov    rax,QWORD PTR [rbp-0x20]
    25bb:	48 89 05 06 2c 00 00 	mov    QWORD PTR [rip+0x2c06],rax        # 51c8 <gnat_argv>
    25c2:	48 8b 45 d8          	mov    rax,QWORD PTR [rbp-0x28]
    25c6:	48 89 05 83 2b 00 00 	mov    QWORD PTR [rip+0x2b83],rax        # 5150 <gnat_envp>
    25cd:	48 8d 45 f8          	lea    rax,[rbp-0x8]
    25d1:	48 89 c7             	mov    rdi,rax
    25d4:	e8 e7 fa ff ff       	call   20c0 <__gnat_initialize@plt>
    25d9:	e8 90 fd ff ff       	call   236e <adainit>
    25de:	e8 47 00 00 00       	call   262a <_ada_add_int>
    25e3:	e8 5c fd ff ff       	call   2344 <adafinal>
    25e8:	e8 53 fa ff ff       	call   2040 <__gnat_finalize@plt>
    25ed:	8b 05 b5 2b 00 00    	mov    eax,DWORD PTR [rip+0x2bb5]        # 51a8 <gnat_exit_status>
    25f3:	c9                   	leave  
    25f4:	c3                   	ret    
    25f5:	90                   	nop

00000000000025f6 <ada_main___elabb>:
    25f6:	55                   	push   rbp
    25f7:	48 89 e5             	mov    rbp,rsp
    25fa:	53                   	push   rbx
    25fb:	48 83 ec 08          	sub    rsp,0x8
    25ff:	48 8d 05 7a 2c 00 00 	lea    rax,[rip+0x2c7a]        # 5280 <ada_main__sec_default_sized_stacks>
    2606:	48 8d 15 03 0a 00 00 	lea    rdx,[rip+0xa03]        # 3010 <_IO_stdin_used+0x10>
    260d:	48 89 c1             	mov    rcx,rax
    2610:	48 89 d3             	mov    rbx,rdx
    2613:	48 89 d0             	mov    rax,rdx
    2616:	48 89 cf             	mov    rdi,rcx
    2619:	48 89 c6             	mov    rsi,rax
    261c:	e8 45 fc ff ff       	call   2266 <ada_main__Tsec_default_sized_stacksBIP>
    2621:	90                   	nop
    2622:	48 83 c4 08          	add    rsp,0x8
    2626:	5b                   	pop    rbx
    2627:	5d                   	pop    rbp
    2628:	c3                   	ret    
    2629:	90                   	nop

000000000000262a <_ada_add_int>:
    262a:	55                   	push   rbp
    262b:	48 89 e5             	mov    rbp,rsp
    262e:	c7 45 fc 03 00 00 00 	mov    DWORD PTR [rbp-0x4],0x3
    2635:	c7 45 f8 05 00 00 00 	mov    DWORD PTR [rbp-0x8],0x5
    263c:	c7 45 f4 08 00 00 00 	mov    DWORD PTR [rbp-0xc],0x8
    2643:	90                   	nop
    2644:	5d                   	pop    rbp
    2645:	c3                   	ret    
    2646:	66 2e 0f 1f 84 00 00 	nop    WORD PTR cs:[rax+rax*1+0x0]
    264d:	00 00 00 

0000000000002650 <__libc_csu_init>:
    2650:	41 57                	push   r15
    2652:	49 89 d7             	mov    r15,rdx
    2655:	41 56                	push   r14
    2657:	49 89 f6             	mov    r14,rsi
    265a:	41 55                	push   r13
    265c:	41 89 fd             	mov    r13d,edi
    265f:	41 54                	push   r12
    2661:	4c 8d 25 50 27 00 00 	lea    r12,[rip+0x2750]        # 4db8 <__frame_dummy_init_array_entry>
    2668:	55                   	push   rbp
    2669:	48 8d 2d 50 27 00 00 	lea    rbp,[rip+0x2750]        # 4dc0 <__init_array_end>
    2670:	53                   	push   rbx
    2671:	4c 29 e5             	sub    rbp,r12
    2674:	48 83 ec 08          	sub    rsp,0x8
    2678:	e8 83 f9 ff ff       	call   2000 <_init>
    267d:	48 c1 fd 03          	sar    rbp,0x3
    2681:	74 1b                	je     269e <__libc_csu_init+0x4e>
    2683:	31 db                	xor    ebx,ebx
    2685:	0f 1f 00             	nop    DWORD PTR [rax]
    2688:	4c 89 fa             	mov    rdx,r15
    268b:	4c 89 f6             	mov    rsi,r14
    268e:	44 89 ef             	mov    edi,r13d
    2691:	41 ff 14 dc          	call   QWORD PTR [r12+rbx*8]
    2695:	48 83 c3 01          	add    rbx,0x1
    2699:	48 39 dd             	cmp    rbp,rbx
    269c:	75 ea                	jne    2688 <__libc_csu_init+0x38>
    269e:	48 83 c4 08          	add    rsp,0x8
    26a2:	5b                   	pop    rbx
    26a3:	5d                   	pop    rbp
    26a4:	41 5c                	pop    r12
    26a6:	41 5d                	pop    r13
    26a8:	41 5e                	pop    r14
    26aa:	41 5f                	pop    r15
    26ac:	c3                   	ret    
    26ad:	0f 1f 00             	nop    DWORD PTR [rax]

00000000000026b0 <__libc_csu_fini>:
    26b0:	c3                   	ret    

Disassembly of section .fini:

00000000000026b4 <_fini>:
    26b4:	48 83 ec 08          	sub    rsp,0x8
    26b8:	48 83 c4 08          	add    rsp,0x8
    26bc:	c3                   	ret    
