
add_int_w_io_Ada_ARM32:     file format elf32-littlearm
add_int_w_io_Ada_ARM32
architecture: arm, flags 0x00000112:
EXEC_P, HAS_SYMS, D_PAGED
start address 0x00010e64

Program Header:
0x70000001 off    0x00001574 vaddr 0x00011574 paddr 0x00011574 align 2**2
         filesz 0x00000030 memsz 0x00000030 flags r--
    PHDR off    0x00000034 vaddr 0x00010034 paddr 0x00010034 align 2**2
         filesz 0x00000120 memsz 0x00000120 flags r-x
  INTERP off    0x00000154 vaddr 0x00010154 paddr 0x00010154 align 2**0
         filesz 0x00000019 memsz 0x00000019 flags r--
    LOAD off    0x00000000 vaddr 0x00010000 paddr 0x00010000 align 2**16
         filesz 0x000015a8 memsz 0x000015a8 flags r-x
    LOAD off    0x00001efc vaddr 0x00021efc paddr 0x00021efc align 2**16
         filesz 0x00000167 memsz 0x000001fc flags rw-
 DYNAMIC off    0x00001f08 vaddr 0x00021f08 paddr 0x00021f08 align 2**2
         filesz 0x000000f8 memsz 0x000000f8 flags rw-
    NOTE off    0x00000170 vaddr 0x00010170 paddr 0x00010170 align 2**2
         filesz 0x00000044 memsz 0x00000044 flags r--
   STACK off    0x00000000 vaddr 0x00000000 paddr 0x00000000 align 2**4
         filesz 0x00000000 memsz 0x00000000 flags rw-
   RELRO off    0x00001efc vaddr 0x00021efc paddr 0x00021efc align 2**0
         filesz 0x00000104 memsz 0x00000104 flags r--

Dynamic Section:
  NEEDED               libgnat-6.so.1
  NEEDED               libgcc_s.so.1
  NEEDED               libc.so.6
  INIT                 0x00010d6c
  FINI                 0x00011390
  INIT_ARRAY           0x00021efc
  INIT_ARRAYSZ         0x00000004
  FINI_ARRAY           0x00021f00
  FINI_ARRAYSZ         0x00000004
  GNU_HASH             0x000101b4
  STRTAB               0x000106e0
  SYMTAB               0x00010360
  STRSZ                0x00000484
  SYMENT               0x00000010
  DEBUG                0x00000000
  PLTGOT               0x00022000
  PLTRELSZ             0x00000090
  PLTREL               0x00000011
  JMPREL               0x00010cdc
  REL                  0x00010c14
  RELSZ                0x000000c8
  RELENT               0x00000008
  VERNEED              0x00010bd4
  VERNEEDNUM           0x00000002
  VERSYM               0x00010b64

Version References:
  required from libgcc_s.so.1:
    0x0b792655 0x00 03 GCC_3.5
  required from libc.so.6:
    0x0d696914 0x00 02 GLIBC_2.4
private flags = 5000400: [Version5 EABI] [hard-float ABI]

Sections:
Idx Name          Size      VMA       LMA       File off  Algn
  0 .interp       00000019  00010154  00010154  00000154  2**0
                  CONTENTS, ALLOC, LOAD, READONLY, DATA
  1 .note.ABI-tag 00000020  00010170  00010170  00000170  2**2
                  CONTENTS, ALLOC, LOAD, READONLY, DATA
  2 .note.gnu.build-id 00000024  00010190  00010190  00000190  2**2
                  CONTENTS, ALLOC, LOAD, READONLY, DATA
  3 .gnu.hash     000001ac  000101b4  000101b4  000001b4  2**2
                  CONTENTS, ALLOC, LOAD, READONLY, DATA
  4 .dynsym       00000380  00010360  00010360  00000360  2**2
                  CONTENTS, ALLOC, LOAD, READONLY, DATA
  5 .dynstr       00000484  000106e0  000106e0  000006e0  2**0
                  CONTENTS, ALLOC, LOAD, READONLY, DATA
  6 .gnu.version  00000070  00010b64  00010b64  00000b64  2**1
                  CONTENTS, ALLOC, LOAD, READONLY, DATA
  7 .gnu.version_r 00000040  00010bd4  00010bd4  00000bd4  2**2
                  CONTENTS, ALLOC, LOAD, READONLY, DATA
  8 .rel.dyn      000000c8  00010c14  00010c14  00000c14  2**2
                  CONTENTS, ALLOC, LOAD, READONLY, DATA
  9 .rel.plt      00000090  00010cdc  00010cdc  00000cdc  2**2
                  CONTENTS, ALLOC, LOAD, READONLY, DATA
 10 .init         0000000c  00010d6c  00010d6c  00000d6c  2**2
                  CONTENTS, ALLOC, LOAD, READONLY, CODE
 11 .plt          000000ec  00010d78  00010d78  00000d78  2**2
                  CONTENTS, ALLOC, LOAD, READONLY, CODE
 12 .text         0000052c  00010e64  00010e64  00000e64  2**2
                  CONTENTS, ALLOC, LOAD, READONLY, CODE
 13 .fini         00000008  00011390  00011390  00001390  2**2
                  CONTENTS, ALLOC, LOAD, READONLY, CODE
 14 .rodata       000001ac  00011398  00011398  00001398  2**2
                  CONTENTS, ALLOC, LOAD, READONLY, DATA
 15 .ARM.extab    00000030  00011544  00011544  00001544  2**2
                  CONTENTS, ALLOC, LOAD, READONLY, DATA
 16 .ARM.exidx    00000030  00011574  00011574  00001574  2**2
                  CONTENTS, ALLOC, LOAD, READONLY, DATA
 17 .eh_frame     00000004  000115a4  000115a4  000015a4  2**2
                  CONTENTS, ALLOC, LOAD, READONLY, DATA
 18 .init_array   00000004  00021efc  00021efc  00001efc  2**2
                  CONTENTS, ALLOC, LOAD, DATA
 19 .fini_array   00000004  00021f00  00021f00  00001f00  2**2
                  CONTENTS, ALLOC, LOAD, DATA
 20 .jcr          00000004  00021f04  00021f04  00001f04  2**2
                  CONTENTS, ALLOC, LOAD, DATA
 21 .dynamic      000000f8  00021f08  00021f08  00001f08  2**2
                  CONTENTS, ALLOC, LOAD, DATA
 22 .got          00000058  00022000  00022000  00002000  2**2
                  CONTENTS, ALLOC, LOAD, DATA
 23 .data         0000000b  00022058  00022058  00002058  2**2
                  CONTENTS, ALLOC, LOAD, DATA
 24 .bss          00000090  00022068  00022068  00002063  2**3
                  ALLOC
 25 .comment      00000034  00000000  00000000  00002063  2**0
                  CONTENTS, READONLY
 26 .ARM.attributes 0000002f  00000000  00000000  00002097  2**0
                  CONTENTS, READONLY
SYMBOL TABLE:
00010154 l    d  .interp	00000000              .interp
00010170 l    d  .note.ABI-tag	00000000              .note.ABI-tag
00010190 l    d  .note.gnu.build-id	00000000              .note.gnu.build-id
000101b4 l    d  .gnu.hash	00000000              .gnu.hash
00010360 l    d  .dynsym	00000000              .dynsym
000106e0 l    d  .dynstr	00000000              .dynstr
00010b64 l    d  .gnu.version	00000000              .gnu.version
00010bd4 l    d  .gnu.version_r	00000000              .gnu.version_r
00010c14 l    d  .rel.dyn	00000000              .rel.dyn
00010cdc l    d  .rel.plt	00000000              .rel.plt
00010d6c l    d  .init	00000000              .init
00010d78 l    d  .plt	00000000              .plt
00010e64 l    d  .text	00000000              .text
00011390 l    d  .fini	00000000              .fini
00011398 l    d  .rodata	00000000              .rodata
00011544 l    d  .ARM.extab	00000000              .ARM.extab
00011574 l    d  .ARM.exidx	00000000              .ARM.exidx
000115a4 l    d  .eh_frame	00000000              .eh_frame
00021efc l    d  .init_array	00000000              .init_array
00021f00 l    d  .fini_array	00000000              .fini_array
00021f04 l    d  .jcr	00000000              .jcr
00021f08 l    d  .dynamic	00000000              .dynamic
00022000 l    d  .got	00000000              .got
00022058 l    d  .data	00000000              .data
00022068 l    d  .bss	00000000              .bss
00000000 l    d  .comment	00000000              .comment
00000000 l    d  .ARM.attributes	00000000              .ARM.attributes
00000000 l    df *ABS*	00000000              /usr/lib/gcc/arm-linux-gnueabihf/6/../../../arm-linux-gnueabihf/crt1.o
00000000 l    df *ABS*	00000000              /usr/lib/gcc/arm-linux-gnueabihf/6/../../../arm-linux-gnueabihf/crti.o
00010ea0 l     F .text	00000000              call_weak_fn
00000000 l    df *ABS*	00000000              /usr/lib/gcc/arm-linux-gnueabihf/6/../../../arm-linux-gnueabihf/crtn.o
00000000 l    df *ABS*	00000000              crtstuff.c
00021f04 l     O .jcr	00000000              __JCR_LIST__
00010ec4 l     F .text	00000000              deregister_tm_clones
00010ef4 l     F .text	00000000              register_tm_clones
00010f2c l     F .text	00000000              __do_global_dtors_aux
000220f4 l     O .bss	00000001              completed.10395
00021f00 l     O .fini_array	00000000              __do_global_dtors_aux_fini_array_entry
00010f54 l     F .text	00000000              frame_dummy
00021efc l     O .init_array	00000000              __frame_dummy_init_array_entry
00000000 l    df *ABS*	00000000              b~add_int_w_io.adb
00022062 l     O .data	00000001              ada_main__is_elaborated
00011498 l     O .rodata	00000001              ada_main__local_priority_specific_dispatching
0001149c l     O .rodata	00000001              ada_main__local_interrupt_states
00000000 l    df *ABS*	00000000              add_int_w_io.adb
00000000 l    df *ABS*	00000000              elf-init.oS
00000000 l    df *ABS*	00000000              crtstuff.c
000115a4 l     O .eh_frame	00000000              __FRAME_END__
00021f04 l     O .jcr	00000000              __JCR_END__
00000000 l    df *ABS*	00000000              
00022000 l     O .got	00000000              _GLOBAL_OFFSET_TABLE_
00021f00 l       .init_array	00000000              __init_array_end
00021efc l       .init_array	00000000              __init_array_start
00021f08 l     O .dynamic	00000000              _DYNAMIC
00022058  w      .data	00000000              data_start
00011408 g     O .rodata	00000004              system__parametersS
00022068 g     O .bss	00000001              __gl_task_dispatching_policy
0001141c g     O .rodata	00000004              system__stack_checkingB
00000000       F *UND*	00000000              abort@@GLIBC_2.4
000113d8 g     O .rodata	00000004              gnat__ioS
0001138c g     F .text	00000004              __libc_csu_fini
00011468 g     O .rodata	00000004              system__address_imageB
00010e64 g     F .text	00000000              _start
00000000       F *UND*	00000000              __libc_start_main@@GLIBC_2.4
00000000       F *UND*	00000000              __gnat_finalize
00000000  w      *UND*	00000000              __gmon_start__
00000000  w      *UND*	00000000              _Jv_RegisterClasses
00011404 g     O .rodata	00000004              system__parametersB
000113b0 g     O .rodata	00000012              __gnat_ada_main_program_name
00022070 g     O .bss	00000002              system__secondary_stack_E
0001143c g     O .rodata	00000004              system__exceptions_debugS
00022078 g     O .bss	00000002              system__soft_links_E
00011414 g     O .rodata	00000004              system__storage_elementsB
00011390 g     F .fini	00000000              _fini
000113d0 g     O .rodata	00000004              gnatS
000113c8 g     O .rodata	00000004              system__standard_libraryB
00000000       F *UND*	00000000              system__secondary_stack___elabb
00022080 g     O .bss	00000004              gnat_envp
00011440 g     O .rodata	00000004              system__img_intB
00011490 g     O .rodata	00000004              system__wch_jisS
00011400 g     O .rodata	00000004              system__soft_linksS
00011494 g     O .rodata	00000004              system__crtlS
000113e8 g     O .rodata	00000004              adaS
00000000       F *UND*	00000000              system__soft_links___elabb
000113f4 g     O .rodata	00000004              ada__exceptions__last_chance_handlerB
00011430 g     O .rodata	00000004              system__exceptionsS
000113f0 g     O .rodata	00000004              ada__exceptionsS
00022084 g     O .bss	00000004              __gl_interrupt_states
00000000  w      *UND*	00000000              _ITM_deregisterTMCloneTable
00011398 g     O .rodata	00000004              _IO_stdin_used
00022088 g     O .bss	00000004              __gnat_finalize_library_objects
0001144c g     O .rodata	00000004              system__tracebackS
00000000  w      *UND*	00000000              _ITM_registerTMCloneTable
00022058 g       .data	00000000              __data_start
00000000       F *UND*	00000000              system__exceptions___elabs
00000000       F *UND*	00000000              system__exception_table___elabb
00022063 g       .bss	00000000              __bss_start__
000113e0 g     O .rodata	00000004              system__memoryB
00000000       F *UND*	00000000              gnat__io__get
00000000       F *UND*	00000000              system__standard_library__adafinal
00011438 g     O .rodata	00000004              system__exceptions_debugB
00010f8c g     F .text	00000048              adafinal
00011460 g     O .rodata	00000004              ada__exceptions__tracebackB
00000000       F *UND*	00000000              __gnat_initialize
00011470 g     O .rodata	00000004              system__wch_conB
0001147c g     O .rodata	00000004              system__wch_stwS
00010fd4 g     F .text	000001dc              adainit
00022064 g     O .data	00000000              .hidden __TMC_END__
00011424 g     O .rodata	00000004              system__exception_tableB
00000000       F *UND*	00000000              __gnat_runtime_finalize
0002208c g     O .bss	00000004              __gl_main_cpu
0002205c g     O .data	00000000              .hidden __dso_handle
00011444 g     O .rodata	00000004              system__img_intS
00011410 g     O .rodata	00000004              system__secondary_stackS
000220f8 g       .bss	00000000              __end__
00011484 g     O .rodata	00000004              system__wch_cnvS
0001132c g     F .text	00000060              __libc_csu_init
000113c4 g     O .rodata	00000004              add_int_w_ioB
000220f8 g       .bss	00000000              __bss_end__
00011434 g     O .rodata	00000004              system__exceptions__machineS
00000000       F *UND*	00000000              system__soft_links___elabs
000113e4 g     O .rodata	00000004              system__memoryS
00022090 g     O .bss	00000001              __gl_locking_policy
00011450 g     O .rodata	00000004              system__traceback_entriesB
00022098 g     O .bss	00000004              __gl_time_slice_val
000220a0 g     O .bss	00000004              gnat_exit_status
000220a4 g     O .bss	00000004              __gl_leap_seconds_support
000113f8 g     O .rodata	00000004              ada__exceptions__last_chance_handlerS
000220a8 g     O .bss	00000004              __gl_unreserve_all_interrupts
000113fc g     O .rodata	00000004              system__soft_linksB
000113ec g     O .rodata	00000004              ada__exceptionsB
00022063 g       .bss	00000000              __bss_start
00011488 g     O .rodata	00000004              interfacesS
00011418 g     O .rodata	00000004              system__storage_elementsS
000220f8 g       .bss	00000000              _bss_end__
00000000       F *UND*	00000000              gnat__io__put__2
000220ac g     O .bss	00000001              __gl_wc_encoding
00011420 g     O .rodata	00000004              system__stack_checkingS
000113d4 g     O .rodata	00000004              gnat__ioB
00022060 g     O .data	00000002              ada_main_E
00011448 g     O .rodata	00000004              system__tracebackB
0001139c g     O .rodata	00000014              __gnat_version
00011480 g     O .rodata	00000004              system__wch_cnvB
000220b0 g     O .bss	00000004              gnat_argv
00011428 g     O .rodata	00000004              system__exception_tableS
000220f8 g       .bss	00000000              _end
00000000       F *UND*	00000000              gnat__io__new_line__2
0001146c g     O .rodata	00000004              system__address_imageS
0001142c g     O .rodata	00000004              system__exceptionsB
0001140c g     O .rodata	00000004              system__secondary_stackB
000220b4 g     O .bss	00000001              __gl_queuing_policy
00011474 g     O .rodata	00000004              system__wch_conS
000220b8 g     O .bss	00000004              __gl_num_specific_dispatching
00011478 g     O .rodata	00000004              system__wch_stwB
000220c0 g     O .bss	00000004              __gl_main_priority
000220c4 g     O .bss	00000004              __gl_priority_specific_dispatching
00011454 g     O .rodata	00000004              system__traceback_entriesS
000220c8 g     O .bss	00000002              system__exceptions_E
00000000       F *UND*	00000000              gnat__io__put__6
000220d0 g     O .bss	00000004              __gl_detect_blocking
00011464 g     O .rodata	00000004              ada__exceptions__tracebackS
000220d8 g     O .bss	00000004              gnat_argc
000220e0 g     O .bss	00000004              __gl_num_interrupt_states
0001145c g     O .rodata	00000004              system__traceback__symbolicS
00022063 g       .data	00000000              _edata
00000000       F *UND*	00000000              __gnat_rcheck_CE_Overflow_Check
000220e8 g     O .bss	00000002              system__exception_table_E
000220f0 g     O .bss	00000004              __gl_default_stack_size
00000000       F *UND*	00000000              __aeabi_unwind_cpp_pr1@@GCC_3.5
00000000       F *UND*	00000000              __gnat_runtime_initialize
000113dc g     O .rodata	00000004              systemS
00011238 g     F .text	000000f4              _ada_add_int_w_io
0001148c g     O .rodata	00000004              system__wch_jisB
00011458 g     O .rodata	00000004              system__traceback__symbolicB
000111b0 g     F .text	00000088              main
00010d6c g     F .init	00000000              _init
000113cc g     O .rodata	00000004              system__standard_libraryS


Contents of section .interp:
 10154 2f6c6962 2f6c642d 6c696e75 782d6172  /lib/ld-linux-ar
 10164 6d68662e 736f2e33 00                 mhf.so.3.       
Contents of section .note.ABI-tag:
 10170 04000000 10000000 01000000 474e5500  ............GNU.
 10180 00000000 03000000 02000000 00000000  ................
Contents of section .note.gnu.build-id:
 10190 04000000 14000000 03000000 474e5500  ............GNU.
 101a0 6fdd054a 5da9f04e 70f56cef 06bf17a3  o..J]..Np.l.....
 101b0 6366da2f                             cf./            
Contents of section .gnu.hash:
 101b4 25000000 06000000 10000000 09000000  %...............
 101c4 00080440 80402800 00030000 0004d000  ...@.@(.........
 101d4 d88b1040 02202080 02000444 05004800  ...@.  ....D..H.
 101e4 01d88928 00448609 0e008101 13094820  ...(.D........H 
 101f4 04000000 5803824b 00402c15 02060080  ....X..K.@,.....
 10204 06000000 07000000 00000000 00000000  ................
 10214 09000000 0a000000 0e000000 00000000  ................
 10224 10000000 13000000 16000000 18000000  ................
 10234 19000000 1b000000 00000000 1e000000  ................
 10244 20000000 00000000 00000000 22000000   ..........."...
 10254 23000000 24000000 00000000 25000000  #...$.......%...
 10264 26000000 27000000 28000000 2a000000  &...'...(...*...
 10274 2c000000 2d000000 2e000000 31000000  ,...-.......1...
 10284 00000000 00000000 32000000 33000000  ........2...3...
 10294 36000000 61a7ba84 6481301e 0b1d157a  6...a...d.0....z
 102a4 7768be1e de24f178 ead3ef0e f6000156  wh...$.x.......V
 102b4 412171d5 00af34e8 cfb5a5cc 386f6d22  A!q...4.....8om"
 102c4 6ad15c9b 83451616 2e4e3df6 a8fdd790  j.\..E...N=.....
 102d4 0b24cd94 9e4c0dde c17401ab a5336716  .$...L...t...3g.
 102e4 a8473d3a 8746cf94 7ced110f 48d06fc5  .G=:.F..|...H.o.
 102f4 89485434 8a1e8361 d3a579b4 1a1f3974  .HT4...a..y...9t
 10304 59ef9779 e13f4262 e3a6e2b5 8968be1e  Y..y.?Bb.....h..
 10314 35664954 d971581c bbe3927c 0c3b5957  5fIT.qX....|.;YW
 10324 85a86bdd b482205b b7e3d51f 1f24cd94  ..k... [.....$..
 10334 d53937df a223cd44 103b5957 4345d5ec  .97..#.D.;YWCE..
 10344 2f251b89 1ba7c1a2 3a31857a beda571b  /%......:1.z..W.
 10354 b98df10e 30951506 77543c94           ....0...wT<.    
Contents of section .dynsym:
 10360 00000000 00000000 00000000 00000000  ................
 10370 10000000 00000000 00000000 20000000  ............ ...
 10380 1f000000 00000000 00000000 20000000  ............ ...
 10390 33000000 00000000 00000000 20000000  3........... ...
 103a0 4f000000 00000000 00000000 20000000  O........... ...
 103b0 ff030000 00000000 00000000 12000000  ................
 103c0 a3010000 a4200200 04000000 11001900  ..... ..........
 103d0 69000000 68200200 01000000 11001900  i...h ..........
 103e0 ff000000 90200200 01000000 11001900  ..... ..........
 103f0 88030000 00000000 00000000 12000000  ................
 10400 50010000 00000000 00000000 12000000  P...............
 10410 9d010000 90130100 00000000 12000e00  ................
 10420 88010000 d0200200 04000000 11001900  ..... ..........
 10430 34030000 00000000 00000000 12000000  4...............
 10440 5a040000 f8200200 00000000 10001900  Z.... ..........
 10450 ff020000 c8200200 02000000 11001900  ..... ..........
 10460 2e020000 00000000 00000000 12000000  ................
 10470 9e020000 a8200200 04000000 11001900  ..... ..........
 10480 4e020000 b4200200 01000000 11001900  N.... ..........
 10490 26040000 00000000 00000000 12000000  &...............
 104a0 89020000 78200200 02000000 11001900  ....x ..........
 104b0 86000000 d8200200 04000000 11001900  ..... ..........
 104c0 bc020000 00000000 00000000 12000000  ................
 104d0 e3010000 00000000 00000000 12000000  ................
 104e0 73020000 00000000 00000000 12000000  s...............
 104f0 60010000 70200200 02000000 11001900  `...p ..........
 10500 c3000000 80200200 04000000 11001900  ..... ..........
 10510 20040000 00000000 00000000 12000000   ...............
 10520 13010000 c4200200 04000000 11001900  ..... ..........
 10530 cb010000 f0200200 04000000 11001900  ..... ..........
 10540 1d020000 a0200200 04000000 11001900  ..... ..........
 10550 14030000 00000000 00000000 12000000  ................
 10560 9a000000 00000000 00000000 12000000  ................
 10570 65040000 f8200200 00000000 10001900  e.... ..........
 10580 7a010000 8c200200 04000000 11001900  z.... ..........
 10590 4e030000 e8200200 02000000 11001900  N.... ..........
 105a0 a3030000 00000000 00000000 12000000  ................
 105b0 e9020000 84200200 04000000 11001900  ..... ..........
 105c0 3f040000 63200200 00000000 10001900  ?...c ..........
 105d0 6d040000 f8200200 00000000 10001900  m.... ..........
 105e0 fb010000 00000000 00000000 12000000  ................
 105f0 36010000 e0200200 04000000 11001900  6.... ..........
 10600 62020000 ac200200 01000000 11001900  b.... ..........
 10610 cd000000 b8200200 04000000 11001900  ..... ..........
 10620 90000000 b0200200 04000000 11001900  ..... ..........
 10630 eb000000 98200200 04000000 11001900  ..... ..........
 10640 bd010000 00000000 00000000 12000000  ................
 10650 0c020000 00000000 00000000 12000000  ................
 10660 38040000 63200200 00000000 10001800  8...c ..........
 10670 ce020000 00000000 00000000 12000000  ................
 10680 de030000 c0200200 04000000 11001900  ..... ..........
 10690 be030000 88200200 04000000 11001900  ..... ..........
 106a0 59040000 f8200200 00000000 10001900  Y.... ..........
 106b0 bd000000 6c0d0100 00000000 12000b00  ....l...........
 106c0 68030000 00000000 00000000 12000000  h...............
 106d0 4b040000 63200200 00000000 10001900  K...c ..........
Contents of section .dynstr:
 106e0 006c6962 676e6174 2d362e73 6f2e3100  .libgnat-6.so.1.
 106f0 5f5f676d 6f6e5f73 74617274 5f5f005f  __gmon_start__._
 10700 4a765f52 65676973 74657243 6c617373  Jv_RegisterClass
 10710 6573005f 49544d5f 64657265 67697374  es._ITM_deregist
 10720 6572544d 436c6f6e 65546162 6c65005f  erTMCloneTable._
 10730 49544d5f 72656769 73746572 544d436c  ITM_registerTMCl
 10740 6f6e6554 61626c65 005f5f67 6c5f7461  oneTable.__gl_ta
 10750 736b5f64 69737061 74636869 6e675f70  sk_dispatching_p
 10760 6f6c6963 7900676e 61745f61 72676300  olicy.gnat_argc.
 10770 676e6174 5f617267 76007379 7374656d  gnat_argv.system
 10780 5f5f7374 616e6461 72645f6c 69627261  __standard_libra
 10790 72795f5f 61646166 696e616c 005f696e  ry__adafinal._in
 107a0 69740067 6e61745f 656e7670 005f5f67  it.gnat_envp.__g
 107b0 6c5f6e75 6d5f7370 65636966 69635f64  l_num_specific_d
 107c0 69737061 74636869 6e67005f 5f676c5f  ispatching.__gl_
 107d0 74696d65 5f736c69 63655f76 616c005f  time_slice_val._
 107e0 5f676c5f 6c6f636b 696e675f 706f6c69  _gl_locking_poli
 107f0 6379005f 5f676c5f 7072696f 72697479  cy.__gl_priority
 10800 5f737065 63696669 635f6469 73706174  _specific_dispat
 10810 6368696e 67005f5f 676c5f6e 756d5f69  ching.__gl_num_i
 10820 6e746572 72757074 5f737461 74657300  nterrupt_states.
 10830 5f5f676e 61745f66 696e616c 697a6500  __gnat_finalize.
 10840 73797374 656d5f5f 7365636f 6e646172  system__secondar
 10850 795f7374 61636b5f 45005f5f 676c5f6d  y_stack_E.__gl_m
 10860 61696e5f 63707500 5f5f676c 5f646574  ain_cpu.__gl_det
 10870 6563745f 626c6f63 6b696e67 005f6669  ect_blocking._fi
 10880 6e69005f 5f676c5f 6c656170 5f736563  ni.__gl_leap_sec
 10890 6f6e6473 5f737570 706f7274 00676e61  onds_support.gna
 108a0 745f5f69 6f5f5f67 6574005f 5f676c5f  t__io__get.__gl_
 108b0 64656661 756c745f 73746163 6b5f7369  default_stack_si
 108c0 7a65005f 5f676e61 745f7275 6e74696d  ze.__gnat_runtim
 108d0 655f6669 6e616c69 7a650067 6e61745f  e_finalize.gnat_
 108e0 5f696f5f 5f707574 5f5f3200 676e6174  _io__put__2.gnat
 108f0 5f5f696f 5f5f7075 745f5f36 00676e61  __io__put__6.gna
 10900 745f6578 69745f73 74617475 73007379  t_exit_status.sy
 10910 7374656d 5f5f7365 636f6e64 6172795f  stem__secondary_
 10920 73746163 6b5f5f5f 656c6162 62005f5f  stack___elabb.__
 10930 676c5f71 75657569 6e675f70 6f6c6963  gl_queuing_polic
 10940 79005f5f 676c5f77 635f656e 636f6469  y.__gl_wc_encodi
 10950 6e670067 6e61745f 5f696f5f 5f6e6577  ng.gnat__io__new
 10960 5f6c696e 655f5f32 00737973 74656d5f  _line__2.system_
 10970 5f736f66 745f6c69 6e6b735f 45005f5f  _soft_links_E.__
 10980 676c5f75 6e726573 65727665 5f616c6c  gl_unreserve_all
 10990 5f696e74 65727275 70747300 5f5f676e  _interrupts.__gn
 109a0 61745f69 6e697469 616c697a 65007379  at_initialize.sy
 109b0 7374656d 5f5f6578 63657074 696f6e73  stem__exceptions
 109c0 5f5f5f65 6c616273 005f5f67 6c5f696e  ___elabs.__gl_in
 109d0 74657272 7570745f 73746174 65730073  terrupt_states.s
 109e0 79737465 6d5f5f65 78636570 74696f6e  ystem__exception
 109f0 735f4500 5f5f676e 61745f72 63686563  s_E.__gnat_rchec
 10a00 6b5f4345 5f4f7665 72666c6f 775f4368  k_CE_Overflow_Ch
 10a10 65636b00 5f5f676e 61745f72 756e7469  eck.__gnat_runti
 10a20 6d655f69 6e697469 616c697a 65007379  me_initialize.sy
 10a30 7374656d 5f5f6578 63657074 696f6e5f  stem__exception_
 10a40 7461626c 655f4500 73797374 656d5f5f  table_E.system__
 10a50 65786365 7074696f 6e5f7461 626c655f  exception_table_
 10a60 5f5f656c 61626200 73797374 656d5f5f  __elabb.system__
 10a70 736f6674 5f6c696e 6b735f5f 5f656c61  soft_links___ela
 10a80 62620073 79737465 6d5f5f73 6f66745f  bb.system__soft_
 10a90 6c696e6b 735f5f5f 656c6162 73005f5f  links___elabs.__
 10aa0 676e6174 5f66696e 616c697a 655f6c69  gnat_finalize_li
 10ab0 62726172 795f6f62 6a656374 73005f5f  brary_objects.__
 10ac0 676c5f6d 61696e5f 7072696f 72697479  gl_main_priority
 10ad0 006c6962 6763635f 732e736f 2e31005f  .libgcc_s.so.1._
 10ae0 5f616561 62695f75 6e77696e 645f6370  _aeabi_unwind_cp
 10af0 705f7072 31006c69 62632e73 6f2e3600  p_pr1.libc.so.6.
 10b00 61626f72 74005f5f 6c696263 5f737461  abort.__libc_sta
 10b10 72745f6d 61696e00 5f656461 7461005f  rt_main._edata._
 10b20 5f627373 5f737461 7274005f 5f627373  _bss_start.__bss
 10b30 5f737461 72745f5f 005f5f62 73735f65  _start__.__bss_e
 10b40 6e645f5f 005f5f65 6e645f5f 005f656e  nd__.__end__._en
 10b50 64004743 435f332e 3500474c 4942435f  d.GCC_3.5.GLIBC_
 10b60 322e3400                             2.4.            
Contents of section .gnu.version:
 10b64 00000000 00000000 00000300 00000000  ................
 10b74 00000000 00000100 00000000 01000000  ................
 10b84 00000000 00000200 00000000 00000000  ................
 10b94 00000000 00000200 00000000 00000000  ................
 10ba4 00000100 00000000 00000000 01000100  ................
 10bb4 00000000 00000000 00000000 00000000  ................
 10bc4 01000000 00000000 01000100 00000100  ................
Contents of section .gnu.version_r:
 10bd4 01000100 f1030000 10000000 20000000  ............ ...
 10be4 5526790b 00000300 72040000 00000000  U&y.....r.......
 10bf4 01000100 16040000 10000000 00000000  ................
 10c04 1469690d 00000200 7a040000 00000000  .ii.....z.......
Contents of section .rel.dyn:
 10c14 54200200 15010000 68200200 14070000  T ......h ......
 10c24 70200200 14190000 78200200 14140000  p ......x ......
 10c34 80200200 141a0000 84200200 14250000  . ....... ...%..
 10c44 88200200 14330000 8c200200 14220000  . ...3... ..."..
 10c54 90200200 14080000 98200200 142d0000  . ....... ...-..
 10c64 a0200200 141e0000 a4200200 14060000  . ....... ......
 10c74 a8200200 14110000 ac200200 142a0000  . ....... ...*..
 10c84 b0200200 142c0000 b4200200 14120000  . ...,... ......
 10c94 b8200200 142b0000 c0200200 14320000  . ...+... ...2..
 10ca4 c4200200 141c0000 c8200200 140f0000  . ....... ......
 10cb4 d0200200 140c0000 d8200200 14150000  . ....... ......
 10cc4 e0200200 14290000 e8200200 14230000  . ...)... ...#..
 10cd4 f0200200 141d0000                    . ......        
Contents of section .rel.plt:
 10cdc 0c200200 161b0000 10200200 16130000  . ....... ......
 10cec 14200200 160a0000 18200200 16010000  . ....... ......
 10cfc 1c200200 16100000 20200200 16090000  . ......  ......
 10d0c 24200200 16310000 28200200 16360000  $ ...1..( ...6..
 10d1c 2c200200 162e0000 30200200 16200000  , ......0 ... ..
 10d2c 34200200 16160000 38200200 16170000  4 ......8 ......
 10d3c 3c200200 16240000 40200200 16280000  < ...$..@ ...(..
 10d4c 44200200 16180000 48200200 162f0000  D ......H .../..
 10d5c 4c200200 161f0000 50200200 160d0000  L ......P ......
Contents of section .init:
 10d6c 08402de9 4a0000eb 0880bde8           .@-.J.......    
Contents of section .plt:
 10d78 04e02de5 04e09fe5 0ee08fe0 08f0bee5  ..-.............
 10d88 78120100 00c68fe2 11ca8ce2 78f2bce5  x...........x...
 10d98 00c68fe2 11ca8ce2 70f2bce5 00c68fe2  ........p.......
 10da8 11ca8ce2 68f2bce5 00c68fe2 11ca8ce2  ....h...........
 10db8 60f2bce5 00c68fe2 11ca8ce2 58f2bce5  `...........X...
 10dc8 00c68fe2 11ca8ce2 50f2bce5 00c68fe2  ........P.......
 10dd8 11ca8ce2 48f2bce5 00c68fe2 11ca8ce2  ....H...........
 10de8 40f2bce5 00c68fe2 11ca8ce2 38f2bce5  @...........8...
 10df8 00c68fe2 11ca8ce2 30f2bce5 00c68fe2  ........0.......
 10e08 11ca8ce2 28f2bce5 00c68fe2 11ca8ce2  ....(...........
 10e18 20f2bce5 00c68fe2 11ca8ce2 18f2bce5   ...............
 10e28 00c68fe2 11ca8ce2 10f2bce5 00c68fe2  ................
 10e38 11ca8ce2 08f2bce5 00c68fe2 11ca8ce2  ................
 10e48 00f2bce5 00c68fe2 11ca8ce2 f8f1bce5  ................
 10e58 00c68fe2 11ca8ce2 f0f1bce5           ............    
Contents of section .text:
 10e64 00b0a0e3 00e0a0e3 04109de4 0d20a0e1  ............. ..
 10e74 04202de5 04002de5 10c09fe5 04c02de5  . -...-.......-.
 10e84 0c009fe5 0c309fe5 c1ffffeb bdffffeb  .....0..........
 10e94 8c130100 b0110100 2c130100 14309fe5  ........,....0..
 10ea4 14209fe5 03308fe0 022093e7 000052e3  . ...0... ....R.
 10eb4 1eff2f01 bcffffea 50110100 54000000  ../.....P...T...
 10ec4 1c309fe5 1c009fe5 003043e0 060053e3  .0.......0C...S.
 10ed4 1eff2f91 10309fe5 000053e3 1eff2f01  ../..0....S.../.
 10ee4 13ff2fe1 67200200 64200200 00000000  ../.g ..d ......
 10ef4 24109fe5 24009fe5 001041e0 4111a0e1  $...$.....A.A...
 10f04 a11f81e0 c110b0e1 1eff2f01 10309fe5  ........../..0..
 10f14 000053e3 1eff2f01 13ff2fe1 64200200  ..S.../.../.d ..
 10f24 64200200 00000000 10402de9 18409fe5  d .......@-..@..
 10f34 0030d4e5 000053e3 1080bd18 dfffffeb  .0....S.........
 10f44 0130a0e3 0030c4e5 1080bde8 f4200200  .0...0....... ..
 10f54 28009fe5 003090e5 000053e3 0000001a  (....0....S.....
 10f64 e2ffffea 18309fe5 000053e3 fbffff0a  .....0....S.....
 10f74 10402de9 33ff2fe1 1040bde8 dbffffea  .@-.3./..@......
 10f84 041f0200 00000000 00482de9 04b08de2  .........H-.....
 10f94 34309fe5 0030d3e5 013023e2 7330efe6  40...0...0#.s0..
 10fa4 000053e3 0600001a 1c309fe5 0020a0e3  ..S......0... ..
 10fb4 0020c3e5 94ffffeb 8dffffeb 0000a0e1  . ..............
 10fc4 000000ea 0000a0e1 0088bde8 62200200  ............b ..
 10fd4 00482de9 04b08de2 70319fe5 0030d3e5  .H-.....p1...0..
 10fe4 000053e3 5700001a 60319fe5 0120a0e3  ..S.W...`1... ..
 10ff4 0020c3e5 58319fe5 0020e0e3 002083e5  . ..X1... ... ..
 11004 50319fe5 0020e0e3 002083e5 48319fe5  P1... ... ..H1..
 11014 6220a0e3 0020c3e5 40319fe5 2020a0e3  b ... ..@1..  ..
 11024 0020c3e5 38319fe5 2020a0e3 0020c3e5  . ..81..  ... ..
 11034 30319fe5 2020a0e3 0020c3e5 28219fe5  01..  ... ..(!..
 11044 28319fe5 002083e5 24319fe5 0020a0e3  (1... ..$1... ..
 11054 002083e5 1c319fe5 0020e0e3 002083e5  . ...1... ... ..
 11064 14219fe5 14319fe5 002083e5 10319fe5  .!...1... ...1..
 11074 0020a0e3 002083e5 08319fe5 0020a0e3  . ... ...1... ..
 11084 002083e5 00319fe5 0020a0e3 002083e5  . ...1... ... ..
 11094 f8309fe5 0020e0e3 002083e5 f0309fe5  .0... ... ...0..
 110a4 0020a0e3 002083e5 0100a0e3 68ffffeb  . ... ......h...
 110b4 e0309fe5 0020a0e3 002083e5 55ffffeb  .0... ... ..U...
 110c4 45ffffeb d0309fe5 b030d3e1 7330bfe6  E....0...0..s0..
 110d4 013083e2 7330bfe6 bc209fe5 b030c2e1  .0..s0... ...0..
 110e4 3affffeb b4309fe5 b030d3e1 7330bfe6  :....0...0..s0..
 110f4 013083e2 7330bfe6 a0209fe5 b030c2e1  .0..s0... ...0..
 11104 2fffffeb 98309fe5 b030d3e1 7330bfe6  /....0...0..s0..
 11114 013083e2 7330bfe6 84209fe5 b030c2e1  .0..s0... ...0..
 11124 24ffffeb 7c309fe5 b030d3e1 7330bfe6  $...|0...0..s0..
 11134 013083e2 7330bfe6 68209fe5 b030c2e1  .0..s0..h ...0..
 11144 0000a0e1 000000ea 0000a0e1 0088bde8  ................
 11154 62200200 c0200200 98200200 ac200200  b ... ... ... ..
 11164 90200200 b4200200 68200200 98140100  . ... ..h ......
 11174 c4200200 b8200200 8c200200 9c140100  . ... ... ......
 11184 84200200 e0200200 a8200200 d0200200  . ... ... ... ..
 11194 f0200200 a4200200 88200200 e8200200  . ... ... ... ..
 111a4 c8200200 78200200 70200200 00482de9  . ..x ..p ...H-.
 111b4 04b08de2 20d04de2 18000be5 1c100be5  .... .M.........
 111c4 20200be5 54309fe5 10300be5 50209fe5    ..T0...0..P ..
 111d4 18301be5 003082e5 48209fe5 1c301be5  .0...0..H ...0..
 111e4 003082e5 40209fe5 20301be5 003082e5  .0..@ .. 0...0..
 111f4 0c304be2 0300a0e1 00ffffeb 73ffffeb  .0K.........s...
 11204 0b0000eb 5fffffeb e4feffeb 1c309fe5  ...._........0..
 11214 003093e5 0300a0e1 04d04be2 0088bde8  .0........K.....
 11224 b0130100 d8200200 b0200200 80200200  ..... ... ... ..
 11234 a0200200 f0482de9 14b08de2 10d04de2  . ...H-.......M.
 11244 c4209fe5 c4309fe5 0200a0e1 0310a0e1  . ...0..........
 11254 f9feffeb e3feffeb 0030a0e1 18300be5  .........0...0..
 11264 ac609fe5 ac709fe5 0600a0e1 0710a0e1  .`...p..........
 11274 f1feffeb dbfeffeb 0030a0e1 1c300be5  .........0...0..
 11284 1c301be5 a33fa0e1 7320efe6 18101be5  .0...?..s ......
 11294 1c301be5 033081e0 0310a0e1 18301be5  .0...0.......0..
 112a4 030051e1 0130a0b3 0030a0a3 7330efe6  ..Q..0...0..s0..
 112b4 023023e0 7330efe6 000053e3 0200000a  .0#.s0....S.....
 112c4 1010a0e3 50009fe5 defeffeb 18201be5  ....P........ ..
 112d4 1c301be5 033082e0 20300be5 3c409fe5  .0...0.. 0..<@..
 112e4 3c509fe5 0400a0e1 0510a0e1 d2feffeb  <P..............
 112f4 20001be5 cafeffeb 0100a0e3 cbfeffeb   ...............
 11304 0000a0e1 14d04be2 f088bde8 a0140100  ......K.........
 11314 2c150100 d4140100 34150100 08150100  ,.......4.......
 11324 1c150100 3c150100 f0472de9 0070a0e1  ....<....G-..p..
 11334 48609fe5 48509fe5 06608fe0 05508fe0  H`..HP...`...P..
 11344 056046e0 0180a0e1 0290a0e1 85feffeb  .`F.............
 11354 4661b0e1 f087bd08 0040a0e3 014084e2  Fa.......@...@..
 11364 043095e4 0920a0e1 0810a0e1 0700a0e1  .0... ..........
 11374 33ff2fe1 040056e1 f7ffff1a f087bde8  3./...V.........
 11384 bc0b0100 b40b0100 1eff2fe1           ........../.    
Contents of section .fini:
 11390 08402de9 0880bde8                    .@-.....        
Contents of section .rodata:
 11398 01000200 474e4154 20566572 73696f6e  ....GNAT Version
 113a8 3a20362e 332e3000 5f616461 5f616464  : 6.3.0._ada_add
 113b8 5f696e74 5f775f69 6f000000 312a701c  _int_w_io...1*p.
 113c8 0e93dfb6 d66e4bda f1d22afd f50281b4  .....nK...*.....
 113d8 43e82762 90d81d2a f7cfe758 a4be6073  C.'b...*...X..`s
 113e8 188efc3f 4e5b1aae 1286344b a9e647e9  ...?N[....4K..G.
 113f8 2e55e541 7a425d46 c50099b4 17ad1db0  .U.AzB]F........
 11408 efd53754 6db60c0f f9177c81 f93da039  ..7Tm.....|..=.9
 11418 9492de07 1e7d8341 78b3a2a4 ff48a487  .....}.Ax....H..
 11428 d2b1b377 20f04ace 66b57e42 24ea0c0b  ...w .J.f.~B$...
 11438 fc6305aa 54219754 c8250357 5238c628  .c..T!.T.%.WR8.(
 11448 178cdf39 54063f74 2595d49e e02e462a  ...9T.?t%.....F*
 11458 f210d26f 7af619dd 889d1f70 755e2420  ...oz......pu^$ 
 11468 427aa357 aa45f18b 17a5338c 42fa6031  Bz.W.E....3.B.`1
 11478 40e82197 43d6711c effb6cb9 b140d73e  @.!.C.q...l..@.>
 11488 1bcee84b b6fde6ec 9059a7be 9e0e8c5a  ...K.....Y.....Z
 11498 00000000 00000000 506c6561 73652065  ........Please e
 114a8 6e746572 20666972 73742069 6e746567  nter first integ
 114b8 6572206e 6f772066 6f6c6c6f 77656420  er now followed 
 114c8 6279203c 43523e20 2d3e2000 506c6561  by <CR> -> .Plea
 114d8 73652065 6e746572 20736563 6f6e6420  se enter second 
 114e8 696e7465 67657220 6e6f7720 666f6c6c  integer now foll
 114f8 6f776564 20627920 3c43523e 202d3e20  owed by <CR> -> 
 11508 6164645f 696e745f 775f696f 2e616462  add_int_w_io.adb
 11518 00000000 54686520 73756d20 6973203a  ....The sum is :
 11528 20000000 01000000 33000000 01000000   .......3.......
 11538 34000000 01000000 0d000000           4...........    
Contents of section .ARM.extab:
 11544 409b0181 b0b08084 00000000 409b0181  @...........@...
 11554 b0b08084 00000000 409b0181 b0b08084  ........@.......
 11564 00000000 449b0181 b0b08f84 00000000  ....D...........
Contents of section .ARM.exidx:
 11574 f0f8ff7f 01000000 10faff7f c4ffff7f  ................
 11584 50faff7f c8ffff7f 24fcff7f ccffff7f  P.......$.......
 11594 a4fcff7f d0ffff7f 90fdff7f 01000000  ................
Contents of section .eh_frame:
 115a4 00000000                             ....            
Contents of section .init_array:
 21efc 540f0100                             T...            
Contents of section .fini_array:
 21f00 2c0f0100                             ,...            
Contents of section .jcr:
 21f04 00000000                             ....            
Contents of section .dynamic:
 21f08 01000000 01000000 01000000 f1030000  ................
 21f18 01000000 16040000 0c000000 6c0d0100  ............l...
 21f28 0d000000 90130100 19000000 fc1e0200  ................
 21f38 1b000000 04000000 1a000000 001f0200  ................
 21f48 1c000000 04000000 f5feff6f b4010100  ...........o....
 21f58 05000000 e0060100 06000000 60030100  ............`...
 21f68 0a000000 84040000 0b000000 10000000  ................
 21f78 15000000 00000000 03000000 00200200  ............. ..
 21f88 02000000 90000000 14000000 11000000  ................
 21f98 17000000 dc0c0100 11000000 140c0100  ................
 21fa8 12000000 c8000000 13000000 08000000  ................
 21fb8 feffff6f d40b0100 ffffff6f 02000000  ...o.......o....
 21fc8 f0ffff6f 640b0100 00000000 00000000  ...od...........
 21fd8 00000000 00000000 00000000 00000000  ................
 21fe8 00000000 00000000 00000000 00000000  ................
 21ff8 00000000 00000000                    ........        
Contents of section .got:
 22000 081f0200 00000000 00000000 780d0100  ............x...
 22010 780d0100 780d0100 780d0100 780d0100  x...x...x...x...
 22020 780d0100 780d0100 780d0100 780d0100  x...x...x...x...
 22030 780d0100 780d0100 780d0100 780d0100  x...x...x...x...
 22040 780d0100 780d0100 780d0100 780d0100  x...x...x...x...
 22050 780d0100 00000000                    x.......        
Contents of section .data:
 22058 00000000 00000000 000000             ...........     
Contents of section .comment:
 0000 4743433a 20285261 73706269 616e2036  GCC: (Raspbian 6
 0010 2e332e30 2d31382b 72706931 2b646562  .3.0-18+rpi1+deb
 0020 39753129 20362e33 2e302032 30313730  9u1) 6.3.0 20170
 0030 35313600                             516.            
Contents of section .ARM.attributes:
 0000 412e0000 00616561 62690001 24000000  A....aeabi..$...
 0010 05360006 06080109 010a0212 04130114  .6..............
 0020 01150117 03180119 011a021c 012201    .............". 

Disassembly of section .init:

00010d6c <_init>:
   10d6c:	e92d4008 	push	{r3, lr}
   10d70:	eb00004a 	bl	10ea0 <call_weak_fn>
   10d74:	e8bd8008 	pop	{r3, pc}

Disassembly of section .plt:

00010d78 <.plt>:
   10d78:	e52de004 	push	{lr}		; (str lr, [sp, #-4]!)
   10d7c:	e59fe004 	ldr	lr, [pc, #4]	; 10d88 <.plt+0x10>
   10d80:	e08fe00e 	add	lr, pc, lr
   10d84:	e5bef008 	ldr	pc, [lr, #8]!
   10d88:	00011278 	andeq	r1, r1, r8, ror r2

00010d8c <abort@plt>:
   10d8c:	e28fc600 	add	ip, pc, #0, 12
   10d90:	e28cca11 	add	ip, ip, #69632	; 0x11000
   10d94:	e5bcf278 	ldr	pc, [ip, #632]!	; 0x278

00010d98 <__libc_start_main@plt>:
   10d98:	e28fc600 	add	ip, pc, #0, 12
   10d9c:	e28cca11 	add	ip, ip, #69632	; 0x11000
   10da0:	e5bcf270 	ldr	pc, [ip, #624]!	; 0x270

00010da4 <__gnat_finalize@plt>:
   10da4:	e28fc600 	add	ip, pc, #0, 12
   10da8:	e28cca11 	add	ip, ip, #69632	; 0x11000
   10dac:	e5bcf268 	ldr	pc, [ip, #616]!	; 0x268

00010db0 <__gmon_start__@plt>:
   10db0:	e28fc600 	add	ip, pc, #0, 12
   10db4:	e28cca11 	add	ip, ip, #69632	; 0x11000
   10db8:	e5bcf260 	ldr	pc, [ip, #608]!	; 0x260

00010dbc <system__secondary_stack___elabb@plt>:
   10dbc:	e28fc600 	add	ip, pc, #0, 12
   10dc0:	e28cca11 	add	ip, ip, #69632	; 0x11000
   10dc4:	e5bcf258 	ldr	pc, [ip, #600]!	; 0x258

00010dc8 <system__soft_links___elabb@plt>:
   10dc8:	e28fc600 	add	ip, pc, #0, 12
   10dcc:	e28cca11 	add	ip, ip, #69632	; 0x11000
   10dd0:	e5bcf250 	ldr	pc, [ip, #592]!	; 0x250

00010dd4 <system__exceptions___elabs@plt>:
   10dd4:	e28fc600 	add	ip, pc, #0, 12
   10dd8:	e28cca11 	add	ip, ip, #69632	; 0x11000
   10ddc:	e5bcf248 	ldr	pc, [ip, #584]!	; 0x248

00010de0 <system__exception_table___elabb@plt>:
   10de0:	e28fc600 	add	ip, pc, #0, 12
   10de4:	e28cca11 	add	ip, ip, #69632	; 0x11000
   10de8:	e5bcf240 	ldr	pc, [ip, #576]!	; 0x240

00010dec <gnat__io__get@plt>:
   10dec:	e28fc600 	add	ip, pc, #0, 12
   10df0:	e28cca11 	add	ip, ip, #69632	; 0x11000
   10df4:	e5bcf238 	ldr	pc, [ip, #568]!	; 0x238

00010df8 <system__standard_library__adafinal@plt>:
   10df8:	e28fc600 	add	ip, pc, #0, 12
   10dfc:	e28cca11 	add	ip, ip, #69632	; 0x11000
   10e00:	e5bcf230 	ldr	pc, [ip, #560]!	; 0x230

00010e04 <__gnat_initialize@plt>:
   10e04:	e28fc600 	add	ip, pc, #0, 12
   10e08:	e28cca11 	add	ip, ip, #69632	; 0x11000
   10e0c:	e5bcf228 	ldr	pc, [ip, #552]!	; 0x228

00010e10 <__gnat_runtime_finalize@plt>:
   10e10:	e28fc600 	add	ip, pc, #0, 12
   10e14:	e28cca11 	add	ip, ip, #69632	; 0x11000
   10e18:	e5bcf220 	ldr	pc, [ip, #544]!	; 0x220

00010e1c <system__soft_links___elabs@plt>:
   10e1c:	e28fc600 	add	ip, pc, #0, 12
   10e20:	e28cca11 	add	ip, ip, #69632	; 0x11000
   10e24:	e5bcf218 	ldr	pc, [ip, #536]!	; 0x218

00010e28 <gnat__io__put__2@plt>:
   10e28:	e28fc600 	add	ip, pc, #0, 12
   10e2c:	e28cca11 	add	ip, ip, #69632	; 0x11000
   10e30:	e5bcf210 	ldr	pc, [ip, #528]!	; 0x210

00010e34 <gnat__io__new_line__2@plt>:
   10e34:	e28fc600 	add	ip, pc, #0, 12
   10e38:	e28cca11 	add	ip, ip, #69632	; 0x11000
   10e3c:	e5bcf208 	ldr	pc, [ip, #520]!	; 0x208

00010e40 <gnat__io__put__6@plt>:
   10e40:	e28fc600 	add	ip, pc, #0, 12
   10e44:	e28cca11 	add	ip, ip, #69632	; 0x11000
   10e48:	e5bcf200 	ldr	pc, [ip, #512]!	; 0x200

00010e4c <__gnat_rcheck_CE_Overflow_Check@plt>:
   10e4c:	e28fc600 	add	ip, pc, #0, 12
   10e50:	e28cca11 	add	ip, ip, #69632	; 0x11000
   10e54:	e5bcf1f8 	ldr	pc, [ip, #504]!	; 0x1f8

00010e58 <__gnat_runtime_initialize@plt>:
   10e58:	e28fc600 	add	ip, pc, #0, 12
   10e5c:	e28cca11 	add	ip, ip, #69632	; 0x11000
   10e60:	e5bcf1f0 	ldr	pc, [ip, #496]!	; 0x1f0

Disassembly of section .text:

00010e64 <_start>:
   10e64:	e3a0b000 	mov	fp, #0
   10e68:	e3a0e000 	mov	lr, #0
   10e6c:	e49d1004 	pop	{r1}		; (ldr r1, [sp], #4)
   10e70:	e1a0200d 	mov	r2, sp
   10e74:	e52d2004 	push	{r2}		; (str r2, [sp, #-4]!)
   10e78:	e52d0004 	push	{r0}		; (str r0, [sp, #-4]!)
   10e7c:	e59fc010 	ldr	ip, [pc, #16]	; 10e94 <_start+0x30>
   10e80:	e52dc004 	push	{ip}		; (str ip, [sp, #-4]!)
   10e84:	e59f000c 	ldr	r0, [pc, #12]	; 10e98 <_start+0x34>
   10e88:	e59f300c 	ldr	r3, [pc, #12]	; 10e9c <_start+0x38>
   10e8c:	ebffffc1 	bl	10d98 <__libc_start_main@plt>
   10e90:	ebffffbd 	bl	10d8c <abort@plt>
   10e94:	0001138c 	andeq	r1, r1, ip, lsl #7
   10e98:	000111b0 			; <UNDEFINED> instruction: 0x000111b0
   10e9c:	0001132c 	andeq	r1, r1, ip, lsr #6

00010ea0 <call_weak_fn>:
   10ea0:	e59f3014 	ldr	r3, [pc, #20]	; 10ebc <call_weak_fn+0x1c>
   10ea4:	e59f2014 	ldr	r2, [pc, #20]	; 10ec0 <call_weak_fn+0x20>
   10ea8:	e08f3003 	add	r3, pc, r3
   10eac:	e7932002 	ldr	r2, [r3, r2]
   10eb0:	e3520000 	cmp	r2, #0
   10eb4:	012fff1e 	bxeq	lr
   10eb8:	eaffffbc 	b	10db0 <__gmon_start__@plt>
   10ebc:	00011150 	andeq	r1, r1, r0, asr r1
   10ec0:	00000054 	andeq	r0, r0, r4, asr r0

00010ec4 <deregister_tm_clones>:
   10ec4:	e59f301c 	ldr	r3, [pc, #28]	; 10ee8 <deregister_tm_clones+0x24>
   10ec8:	e59f001c 	ldr	r0, [pc, #28]	; 10eec <deregister_tm_clones+0x28>
   10ecc:	e0433000 	sub	r3, r3, r0
   10ed0:	e3530006 	cmp	r3, #6
   10ed4:	912fff1e 	bxls	lr
   10ed8:	e59f3010 	ldr	r3, [pc, #16]	; 10ef0 <deregister_tm_clones+0x2c>
   10edc:	e3530000 	cmp	r3, #0
   10ee0:	012fff1e 	bxeq	lr
   10ee4:	e12fff13 	bx	r3
   10ee8:	00022067 	andeq	r2, r2, r7, rrx
   10eec:	00022064 	andeq	r2, r2, r4, rrx
   10ef0:	00000000 	andeq	r0, r0, r0

00010ef4 <register_tm_clones>:
   10ef4:	e59f1024 	ldr	r1, [pc, #36]	; 10f20 <register_tm_clones+0x2c>
   10ef8:	e59f0024 	ldr	r0, [pc, #36]	; 10f24 <register_tm_clones+0x30>
   10efc:	e0411000 	sub	r1, r1, r0
   10f00:	e1a01141 	asr	r1, r1, #2
   10f04:	e0811fa1 	add	r1, r1, r1, lsr #31
   10f08:	e1b010c1 	asrs	r1, r1, #1
   10f0c:	012fff1e 	bxeq	lr
   10f10:	e59f3010 	ldr	r3, [pc, #16]	; 10f28 <register_tm_clones+0x34>
   10f14:	e3530000 	cmp	r3, #0
   10f18:	012fff1e 	bxeq	lr
   10f1c:	e12fff13 	bx	r3
   10f20:	00022064 	andeq	r2, r2, r4, rrx
   10f24:	00022064 	andeq	r2, r2, r4, rrx
   10f28:	00000000 	andeq	r0, r0, r0

00010f2c <__do_global_dtors_aux>:
   10f2c:	e92d4010 	push	{r4, lr}
   10f30:	e59f4018 	ldr	r4, [pc, #24]	; 10f50 <__do_global_dtors_aux+0x24>
   10f34:	e5d43000 	ldrb	r3, [r4]
   10f38:	e3530000 	cmp	r3, #0
   10f3c:	18bd8010 	popne	{r4, pc}
   10f40:	ebffffdf 	bl	10ec4 <deregister_tm_clones>
   10f44:	e3a03001 	mov	r3, #1
   10f48:	e5c43000 	strb	r3, [r4]
   10f4c:	e8bd8010 	pop	{r4, pc}
   10f50:	000220f4 	strdeq	r2, [r2], -r4

00010f54 <frame_dummy>:
   10f54:	e59f0028 	ldr	r0, [pc, #40]	; 10f84 <frame_dummy+0x30>
   10f58:	e5903000 	ldr	r3, [r0]
   10f5c:	e3530000 	cmp	r3, #0
   10f60:	1a000000 	bne	10f68 <frame_dummy+0x14>
   10f64:	eaffffe2 	b	10ef4 <register_tm_clones>
   10f68:	e59f3018 	ldr	r3, [pc, #24]	; 10f88 <frame_dummy+0x34>
   10f6c:	e3530000 	cmp	r3, #0
   10f70:	0afffffb 	beq	10f64 <frame_dummy+0x10>
   10f74:	e92d4010 	push	{r4, lr}
   10f78:	e12fff33 	blx	r3
   10f7c:	e8bd4010 	pop	{r4, lr}
   10f80:	eaffffdb 	b	10ef4 <register_tm_clones>
   10f84:	00021f04 	andeq	r1, r2, r4, lsl #30
   10f88:	00000000 	andeq	r0, r0, r0

00010f8c <adafinal>:
   10f8c:	e92d4800 	push	{fp, lr}
   10f90:	e28db004 	add	fp, sp, #4
   10f94:	e59f3034 	ldr	r3, [pc, #52]	; 10fd0 <adafinal+0x44>
   10f98:	e5d33000 	ldrb	r3, [r3]
   10f9c:	e2233001 	eor	r3, r3, #1
   10fa0:	e6ef3073 	uxtb	r3, r3
   10fa4:	e3530000 	cmp	r3, #0
   10fa8:	1a000006 	bne	10fc8 <adafinal+0x3c>
   10fac:	e59f301c 	ldr	r3, [pc, #28]	; 10fd0 <adafinal+0x44>
   10fb0:	e3a02000 	mov	r2, #0
   10fb4:	e5c32000 	strb	r2, [r3]
   10fb8:	ebffff94 	bl	10e10 <__gnat_runtime_finalize@plt>
   10fbc:	ebffff8d 	bl	10df8 <system__standard_library__adafinal@plt>
   10fc0:	e1a00000 	nop			; (mov r0, r0)
   10fc4:	ea000000 	b	10fcc <adafinal+0x40>
   10fc8:	e1a00000 	nop			; (mov r0, r0)
   10fcc:	e8bd8800 	pop	{fp, pc}
   10fd0:	00022062 	andeq	r2, r2, r2, rrx

00010fd4 <adainit>:
   10fd4:	e92d4800 	push	{fp, lr}
   10fd8:	e28db004 	add	fp, sp, #4
   10fdc:	e59f3170 	ldr	r3, [pc, #368]	; 11154 <adainit+0x180>
   10fe0:	e5d33000 	ldrb	r3, [r3]
   10fe4:	e3530000 	cmp	r3, #0
   10fe8:	1a000057 	bne	1114c <adainit+0x178>
   10fec:	e59f3160 	ldr	r3, [pc, #352]	; 11154 <adainit+0x180>
   10ff0:	e3a02001 	mov	r2, #1
   10ff4:	e5c32000 	strb	r2, [r3]
   10ff8:	e59f3158 	ldr	r3, [pc, #344]	; 11158 <adainit+0x184>
   10ffc:	e3e02000 	mvn	r2, #0
   11000:	e5832000 	str	r2, [r3]
   11004:	e59f3150 	ldr	r3, [pc, #336]	; 1115c <adainit+0x188>
   11008:	e3e02000 	mvn	r2, #0
   1100c:	e5832000 	str	r2, [r3]
   11010:	e59f3148 	ldr	r3, [pc, #328]	; 11160 <adainit+0x18c>
   11014:	e3a02062 	mov	r2, #98	; 0x62
   11018:	e5c32000 	strb	r2, [r3]
   1101c:	e59f3140 	ldr	r3, [pc, #320]	; 11164 <adainit+0x190>
   11020:	e3a02020 	mov	r2, #32
   11024:	e5c32000 	strb	r2, [r3]
   11028:	e59f3138 	ldr	r3, [pc, #312]	; 11168 <adainit+0x194>
   1102c:	e3a02020 	mov	r2, #32
   11030:	e5c32000 	strb	r2, [r3]
   11034:	e59f3130 	ldr	r3, [pc, #304]	; 1116c <adainit+0x198>
   11038:	e3a02020 	mov	r2, #32
   1103c:	e5c32000 	strb	r2, [r3]
   11040:	e59f2128 	ldr	r2, [pc, #296]	; 11170 <adainit+0x19c>
   11044:	e59f3128 	ldr	r3, [pc, #296]	; 11174 <adainit+0x1a0>
   11048:	e5832000 	str	r2, [r3]
   1104c:	e59f3124 	ldr	r3, [pc, #292]	; 11178 <adainit+0x1a4>
   11050:	e3a02000 	mov	r2, #0
   11054:	e5832000 	str	r2, [r3]
   11058:	e59f311c 	ldr	r3, [pc, #284]	; 1117c <adainit+0x1a8>
   1105c:	e3e02000 	mvn	r2, #0
   11060:	e5832000 	str	r2, [r3]
   11064:	e59f2114 	ldr	r2, [pc, #276]	; 11180 <adainit+0x1ac>
   11068:	e59f3114 	ldr	r3, [pc, #276]	; 11184 <adainit+0x1b0>
   1106c:	e5832000 	str	r2, [r3]
   11070:	e59f3110 	ldr	r3, [pc, #272]	; 11188 <adainit+0x1b4>
   11074:	e3a02000 	mov	r2, #0
   11078:	e5832000 	str	r2, [r3]
   1107c:	e59f3108 	ldr	r3, [pc, #264]	; 1118c <adainit+0x1b8>
   11080:	e3a02000 	mov	r2, #0
   11084:	e5832000 	str	r2, [r3]
   11088:	e59f3100 	ldr	r3, [pc, #256]	; 11190 <adainit+0x1bc>
   1108c:	e3a02000 	mov	r2, #0
   11090:	e5832000 	str	r2, [r3]
   11094:	e59f30f8 	ldr	r3, [pc, #248]	; 11194 <adainit+0x1c0>
   11098:	e3e02000 	mvn	r2, #0
   1109c:	e5832000 	str	r2, [r3]
   110a0:	e59f30f0 	ldr	r3, [pc, #240]	; 11198 <adainit+0x1c4>
   110a4:	e3a02000 	mov	r2, #0
   110a8:	e5832000 	str	r2, [r3]
   110ac:	e3a00001 	mov	r0, #1
   110b0:	ebffff68 	bl	10e58 <__gnat_runtime_initialize@plt>
   110b4:	e59f30e0 	ldr	r3, [pc, #224]	; 1119c <adainit+0x1c8>
   110b8:	e3a02000 	mov	r2, #0
   110bc:	e5832000 	str	r2, [r3]
   110c0:	ebffff55 	bl	10e1c <system__soft_links___elabs@plt>
   110c4:	ebffff45 	bl	10de0 <system__exception_table___elabb@plt>
   110c8:	e59f30d0 	ldr	r3, [pc, #208]	; 111a0 <adainit+0x1cc>
   110cc:	e1d330b0 	ldrh	r3, [r3]
   110d0:	e6bf3073 	sxth	r3, r3
   110d4:	e2833001 	add	r3, r3, #1
   110d8:	e6bf3073 	sxth	r3, r3
   110dc:	e59f20bc 	ldr	r2, [pc, #188]	; 111a0 <adainit+0x1cc>
   110e0:	e1c230b0 	strh	r3, [r2]
   110e4:	ebffff3a 	bl	10dd4 <system__exceptions___elabs@plt>
   110e8:	e59f30b4 	ldr	r3, [pc, #180]	; 111a4 <adainit+0x1d0>
   110ec:	e1d330b0 	ldrh	r3, [r3]
   110f0:	e6bf3073 	sxth	r3, r3
   110f4:	e2833001 	add	r3, r3, #1
   110f8:	e6bf3073 	sxth	r3, r3
   110fc:	e59f20a0 	ldr	r2, [pc, #160]	; 111a4 <adainit+0x1d0>
   11100:	e1c230b0 	strh	r3, [r2]
   11104:	ebffff2f 	bl	10dc8 <system__soft_links___elabb@plt>
   11108:	e59f3098 	ldr	r3, [pc, #152]	; 111a8 <adainit+0x1d4>
   1110c:	e1d330b0 	ldrh	r3, [r3]
   11110:	e6bf3073 	sxth	r3, r3
   11114:	e2833001 	add	r3, r3, #1
   11118:	e6bf3073 	sxth	r3, r3
   1111c:	e59f2084 	ldr	r2, [pc, #132]	; 111a8 <adainit+0x1d4>
   11120:	e1c230b0 	strh	r3, [r2]
   11124:	ebffff24 	bl	10dbc <system__secondary_stack___elabb@plt>
   11128:	e59f307c 	ldr	r3, [pc, #124]	; 111ac <adainit+0x1d8>
   1112c:	e1d330b0 	ldrh	r3, [r3]
   11130:	e6bf3073 	sxth	r3, r3
   11134:	e2833001 	add	r3, r3, #1
   11138:	e6bf3073 	sxth	r3, r3
   1113c:	e59f2068 	ldr	r2, [pc, #104]	; 111ac <adainit+0x1d8>
   11140:	e1c230b0 	strh	r3, [r2]
   11144:	e1a00000 	nop			; (mov r0, r0)
   11148:	ea000000 	b	11150 <adainit+0x17c>
   1114c:	e1a00000 	nop			; (mov r0, r0)
   11150:	e8bd8800 	pop	{fp, pc}
   11154:	00022062 	andeq	r2, r2, r2, rrx
   11158:	000220c0 	andeq	r2, r2, r0, asr #1
   1115c:	00022098 	muleq	r2, r8, r0
   11160:	000220ac 	andeq	r2, r2, ip, lsr #1
   11164:	00022090 	muleq	r2, r0, r0
   11168:	000220b4 	strheq	r2, [r2], -r4
   1116c:	00022068 	andeq	r2, r2, r8, rrx
   11170:	00011498 	muleq	r1, r8, r4
   11174:	000220c4 	andeq	r2, r2, r4, asr #1
   11178:	000220b8 	strheq	r2, [r2], -r8
   1117c:	0002208c 	andeq	r2, r2, ip, lsl #1
   11180:	0001149c 	muleq	r1, ip, r4
   11184:	00022084 	andeq	r2, r2, r4, lsl #1
   11188:	000220e0 	andeq	r2, r2, r0, ror #1
   1118c:	000220a8 	andeq	r2, r2, r8, lsr #1
   11190:	000220d0 	ldrdeq	r2, [r2], -r0
   11194:	000220f0 	strdeq	r2, [r2], -r0
   11198:	000220a4 	andeq	r2, r2, r4, lsr #1
   1119c:	00022088 	andeq	r2, r2, r8, lsl #1
   111a0:	000220e8 	andeq	r2, r2, r8, ror #1
   111a4:	000220c8 	andeq	r2, r2, r8, asr #1
   111a8:	00022078 	andeq	r2, r2, r8, ror r0
   111ac:	00022070 	andeq	r2, r2, r0, ror r0

000111b0 <main>:
   111b0:	e92d4800 	push	{fp, lr}
   111b4:	e28db004 	add	fp, sp, #4
   111b8:	e24dd020 	sub	sp, sp, #32
   111bc:	e50b0018 	str	r0, [fp, #-24]	; 0xffffffe8
   111c0:	e50b101c 	str	r1, [fp, #-28]	; 0xffffffe4
   111c4:	e50b2020 	str	r2, [fp, #-32]	; 0xffffffe0
   111c8:	e59f3054 	ldr	r3, [pc, #84]	; 11224 <main+0x74>
   111cc:	e50b3010 	str	r3, [fp, #-16]
   111d0:	e59f2050 	ldr	r2, [pc, #80]	; 11228 <main+0x78>
   111d4:	e51b3018 	ldr	r3, [fp, #-24]	; 0xffffffe8
   111d8:	e5823000 	str	r3, [r2]
   111dc:	e59f2048 	ldr	r2, [pc, #72]	; 1122c <main+0x7c>
   111e0:	e51b301c 	ldr	r3, [fp, #-28]	; 0xffffffe4
   111e4:	e5823000 	str	r3, [r2]
   111e8:	e59f2040 	ldr	r2, [pc, #64]	; 11230 <main+0x80>
   111ec:	e51b3020 	ldr	r3, [fp, #-32]	; 0xffffffe0
   111f0:	e5823000 	str	r3, [r2]
   111f4:	e24b300c 	sub	r3, fp, #12
   111f8:	e1a00003 	mov	r0, r3
   111fc:	ebffff00 	bl	10e04 <__gnat_initialize@plt>
   11200:	ebffff73 	bl	10fd4 <adainit>
   11204:	eb00000b 	bl	11238 <_ada_add_int_w_io>
   11208:	ebffff5f 	bl	10f8c <adafinal>
   1120c:	ebfffee4 	bl	10da4 <__gnat_finalize@plt>
   11210:	e59f301c 	ldr	r3, [pc, #28]	; 11234 <main+0x84>
   11214:	e5933000 	ldr	r3, [r3]
   11218:	e1a00003 	mov	r0, r3
   1121c:	e24bd004 	sub	sp, fp, #4
   11220:	e8bd8800 	pop	{fp, pc}
   11224:	000113b0 			; <UNDEFINED> instruction: 0x000113b0
   11228:	000220d8 	ldrdeq	r2, [r2], -r8
   1122c:	000220b0 	strheq	r2, [r2], -r0
   11230:	00022080 	andeq	r2, r2, r0, lsl #1
   11234:	000220a0 	andeq	r2, r2, r0, lsr #1

00011238 <_ada_add_int_w_io>:
   11238:	e92d48f0 	push	{r4, r5, r6, r7, fp, lr}
   1123c:	e28db014 	add	fp, sp, #20
   11240:	e24dd010 	sub	sp, sp, #16
   11244:	e59f20c4 	ldr	r2, [pc, #196]	; 11310 <_ada_add_int_w_io+0xd8>
   11248:	e59f30c4 	ldr	r3, [pc, #196]	; 11314 <_ada_add_int_w_io+0xdc>
   1124c:	e1a00002 	mov	r0, r2
   11250:	e1a01003 	mov	r1, r3
   11254:	ebfffef9 	bl	10e40 <gnat__io__put__6@plt>
   11258:	ebfffee3 	bl	10dec <gnat__io__get@plt>
   1125c:	e1a03000 	mov	r3, r0
   11260:	e50b3018 	str	r3, [fp, #-24]	; 0xffffffe8
   11264:	e59f60ac 	ldr	r6, [pc, #172]	; 11318 <_ada_add_int_w_io+0xe0>
   11268:	e59f70ac 	ldr	r7, [pc, #172]	; 1131c <_ada_add_int_w_io+0xe4>
   1126c:	e1a00006 	mov	r0, r6
   11270:	e1a01007 	mov	r1, r7
   11274:	ebfffef1 	bl	10e40 <gnat__io__put__6@plt>
   11278:	ebfffedb 	bl	10dec <gnat__io__get@plt>
   1127c:	e1a03000 	mov	r3, r0
   11280:	e50b301c 	str	r3, [fp, #-28]	; 0xffffffe4
   11284:	e51b301c 	ldr	r3, [fp, #-28]	; 0xffffffe4
   11288:	e1a03fa3 	lsr	r3, r3, #31
   1128c:	e6ef2073 	uxtb	r2, r3
   11290:	e51b1018 	ldr	r1, [fp, #-24]	; 0xffffffe8
   11294:	e51b301c 	ldr	r3, [fp, #-28]	; 0xffffffe4
   11298:	e0813003 	add	r3, r1, r3
   1129c:	e1a01003 	mov	r1, r3
   112a0:	e51b3018 	ldr	r3, [fp, #-24]	; 0xffffffe8
   112a4:	e1510003 	cmp	r1, r3
   112a8:	b3a03001 	movlt	r3, #1
   112ac:	a3a03000 	movge	r3, #0
   112b0:	e6ef3073 	uxtb	r3, r3
   112b4:	e0233002 	eor	r3, r3, r2
   112b8:	e6ef3073 	uxtb	r3, r3
   112bc:	e3530000 	cmp	r3, #0
   112c0:	0a000002 	beq	112d0 <_ada_add_int_w_io+0x98>
   112c4:	e3a01010 	mov	r1, #16
   112c8:	e59f0050 	ldr	r0, [pc, #80]	; 11320 <_ada_add_int_w_io+0xe8>
   112cc:	ebfffede 	bl	10e4c <__gnat_rcheck_CE_Overflow_Check@plt>
   112d0:	e51b2018 	ldr	r2, [fp, #-24]	; 0xffffffe8
   112d4:	e51b301c 	ldr	r3, [fp, #-28]	; 0xffffffe4
   112d8:	e0823003 	add	r3, r2, r3
   112dc:	e50b3020 	str	r3, [fp, #-32]	; 0xffffffe0
   112e0:	e59f403c 	ldr	r4, [pc, #60]	; 11324 <_ada_add_int_w_io+0xec>
   112e4:	e59f503c 	ldr	r5, [pc, #60]	; 11328 <_ada_add_int_w_io+0xf0>
   112e8:	e1a00004 	mov	r0, r4
   112ec:	e1a01005 	mov	r1, r5
   112f0:	ebfffed2 	bl	10e40 <gnat__io__put__6@plt>
   112f4:	e51b0020 	ldr	r0, [fp, #-32]	; 0xffffffe0
   112f8:	ebfffeca 	bl	10e28 <gnat__io__put__2@plt>
   112fc:	e3a00001 	mov	r0, #1
   11300:	ebfffecb 	bl	10e34 <gnat__io__new_line__2@plt>
   11304:	e1a00000 	nop			; (mov r0, r0)
   11308:	e24bd014 	sub	sp, fp, #20
   1130c:	e8bd88f0 	pop	{r4, r5, r6, r7, fp, pc}
   11310:	000114a0 	andeq	r1, r1, r0, lsr #9
   11314:	0001152c 	andeq	r1, r1, ip, lsr #10
   11318:	000114d4 	ldrdeq	r1, [r1], -r4
   1131c:	00011534 	andeq	r1, r1, r4, lsr r5
   11320:	00011508 	andeq	r1, r1, r8, lsl #10
   11324:	0001151c 	andeq	r1, r1, ip, lsl r5
   11328:	0001153c 	andeq	r1, r1, ip, lsr r5

0001132c <__libc_csu_init>:
   1132c:	e92d47f0 	push	{r4, r5, r6, r7, r8, r9, sl, lr}
   11330:	e1a07000 	mov	r7, r0
   11334:	e59f6048 	ldr	r6, [pc, #72]	; 11384 <__libc_csu_init+0x58>
   11338:	e59f5048 	ldr	r5, [pc, #72]	; 11388 <__libc_csu_init+0x5c>
   1133c:	e08f6006 	add	r6, pc, r6
   11340:	e08f5005 	add	r5, pc, r5
   11344:	e0466005 	sub	r6, r6, r5
   11348:	e1a08001 	mov	r8, r1
   1134c:	e1a09002 	mov	r9, r2
   11350:	ebfffe85 	bl	10d6c <_init>
   11354:	e1b06146 	asrs	r6, r6, #2
   11358:	08bd87f0 	popeq	{r4, r5, r6, r7, r8, r9, sl, pc}
   1135c:	e3a04000 	mov	r4, #0
   11360:	e2844001 	add	r4, r4, #1
   11364:	e4953004 	ldr	r3, [r5], #4
   11368:	e1a02009 	mov	r2, r9
   1136c:	e1a01008 	mov	r1, r8
   11370:	e1a00007 	mov	r0, r7
   11374:	e12fff33 	blx	r3
   11378:	e1560004 	cmp	r6, r4
   1137c:	1afffff7 	bne	11360 <__libc_csu_init+0x34>
   11380:	e8bd87f0 	pop	{r4, r5, r6, r7, r8, r9, sl, pc}
   11384:	00010bbc 			; <UNDEFINED> instruction: 0x00010bbc
   11388:	00010bb4 			; <UNDEFINED> instruction: 0x00010bb4

0001138c <__libc_csu_fini>:
   1138c:	e12fff1e 	bx	lr

Disassembly of section .fini:

00011390 <_fini>:
   11390:	e92d4008 	push	{r3, lr}
   11394:	e8bd8008 	pop	{r3, pc}
