
mult_reals.o:     file format elf64-x86-64
mult_reals.o
architecture: i386:x86-64, flags 0x00000011:
HAS_RELOC, HAS_SYMS
start address 0x0000000000000000

Sections:
Idx Name          Size      VMA               LMA               File off  Algn
  0 .text         0000006d  0000000000000000  0000000000000000  00000040  2**0
                  CONTENTS, ALLOC, LOAD, RELOC, READONLY, CODE
  1 .data         00000000  0000000000000000  0000000000000000  000000ad  2**0
                  CONTENTS, ALLOC, LOAD, DATA
  2 .bss          00000000  0000000000000000  0000000000000000  000000ad  2**0
                  ALLOC
  3 .rodata       00000024  0000000000000000  0000000000000000  000000b0  2**4
                  CONTENTS, ALLOC, LOAD, READONLY, DATA
  4 .comment      0000002b  0000000000000000  0000000000000000  000000d4  2**0
                  CONTENTS, READONLY
  5 .note.GNU-stack 00000000  0000000000000000  0000000000000000  000000ff  2**0
                  CONTENTS, READONLY
  6 .eh_frame     00000058  0000000000000000  0000000000000000  00000100  2**3
                  CONTENTS, ALLOC, LOAD, RELOC, READONLY, DATA
SYMBOL TABLE:
0000000000000000 l    df *ABS*	0000000000000000 mult_reals.f08
0000000000000000 l    d  .text	0000000000000000 .text
0000000000000000 l    d  .data	0000000000000000 .data
0000000000000000 l    d  .bss	0000000000000000 .bss
0000000000000000 l     F .text	0000000000000030 MAIN__
0000000000000000 l     O .rodata	000000000000001c options.0.3504
0000000000000000 l    d  .rodata	0000000000000000 .rodata
0000000000000000 l    d  .note.GNU-stack	0000000000000000 .note.GNU-stack
0000000000000000 l    d  .eh_frame	0000000000000000 .eh_frame
0000000000000000 l    d  .comment	0000000000000000 .comment
0000000000000030 g     F .text	000000000000003d main
0000000000000000         *UND*	0000000000000000 _GLOBAL_OFFSET_TABLE_
0000000000000000         *UND*	0000000000000000 _gfortran_set_args
0000000000000000         *UND*	0000000000000000 _gfortran_set_options



Disassembly of section .text:

0000000000000000 <MAIN__>:
   0:	55                   	push   rbp
   1:	48 89 e5             	mov    rbp,rsp
   4:	f3 0f 10 05 00 00 00 	movss  xmm0,DWORD PTR [rip+0x0]        # c <MAIN__+0xc>
   b:	00 
			8: R_X86_64_PC32	.rodata+0x18
   c:	f3 0f 11 45 fc       	movss  DWORD PTR [rbp-0x4],xmm0
  11:	f3 0f 10 05 00 00 00 	movss  xmm0,DWORD PTR [rip+0x0]        # 19 <MAIN__+0x19>
  18:	00 
			15: R_X86_64_PC32	.rodata+0x1c
  19:	f3 0f 11 45 f8       	movss  DWORD PTR [rbp-0x8],xmm0
  1e:	f3 0f 10 45 f8       	movss  xmm0,DWORD PTR [rbp-0x8]
  23:	f3 0f 59 45 fc       	mulss  xmm0,DWORD PTR [rbp-0x4]
  28:	f3 0f 11 45 f4       	movss  DWORD PTR [rbp-0xc],xmm0
  2d:	90                   	nop
  2e:	5d                   	pop    rbp
  2f:	c3                   	ret    

0000000000000030 <main>:
  30:	55                   	push   rbp
  31:	48 89 e5             	mov    rbp,rsp
  34:	48 83 ec 10          	sub    rsp,0x10
  38:	89 7d fc             	mov    DWORD PTR [rbp-0x4],edi
  3b:	48 89 75 f0          	mov    QWORD PTR [rbp-0x10],rsi
  3f:	48 8b 55 f0          	mov    rdx,QWORD PTR [rbp-0x10]
  43:	8b 45 fc             	mov    eax,DWORD PTR [rbp-0x4]
  46:	48 89 d6             	mov    rsi,rdx
  49:	89 c7                	mov    edi,eax
  4b:	e8 00 00 00 00       	call   50 <main+0x20>
			4c: R_X86_64_PLT32	_gfortran_set_args-0x4
  50:	48 8d 35 00 00 00 00 	lea    rsi,[rip+0x0]        # 57 <main+0x27>
			53: R_X86_64_PC32	.rodata-0x4
  57:	bf 07 00 00 00       	mov    edi,0x7
  5c:	e8 00 00 00 00       	call   61 <main+0x31>
			5d: R_X86_64_PLT32	_gfortran_set_options-0x4
  61:	e8 9a ff ff ff       	call   0 <MAIN__>
  66:	b8 00 00 00 00       	mov    eax,0x0
  6b:	c9                   	leave  
  6c:	c3                   	ret    
