
add_functions.o:     file format elf64-x86-64
add_functions.o
architecture: i386:x86-64, flags 0x00000011:
HAS_RELOC, HAS_SYMS
start address 0x0000000000000000

Sections:
Idx Name          Size      VMA               LMA               File off  Algn
  0 .text         00000000  0000000000000000  0000000000000000  00000040  2**0
                  CONTENTS, ALLOC, LOAD, READONLY, CODE
  1 .data         00000000  0000000000000000  0000000000000000  00000040  2**0
                  CONTENTS, ALLOC, LOAD, DATA
  2 .bss          00000006  0000000000000000  0000000000000000  00000040  2**1
                  ALLOC
  3 .debug_line   00000085  0000000000000000  0000000000000000  00000040  2**0
                  CONTENTS, RELOC, READONLY, DEBUGGING
  4 .debug_abbrev 0000006b  0000000000000000  0000000000000000  000000c5  2**0
                  CONTENTS, READONLY, DEBUGGING
  5 .text.b_DEBUGSTART_$P$ADD_FUNCTIONS_PROGRAM 00000000  0000000000000000  0000000000000000  00000130  2**0
                  CONTENTS, ALLOC, LOAD, READONLY, CODE
  6 .text.n_p$add_functions_program_$$_add_function$smallint$smallint$$smallint 00000027  0000000000000000  0000000000000000  00000130  2**4
                  CONTENTS, ALLOC, LOAD, READONLY, CODE
  7 .text.n_main  00000043  0000000000000000  0000000000000000  00000160  2**4
                  CONTENTS, ALLOC, LOAD, RELOC, READONLY, CODE
  8 .fpc.n_links  00000010  0000000000000000  0000000000000000  000001a3  2**0
                  CONTENTS, RELOC, READONLY
  9 .data.n_INITFINAL 00000020  0000000000000000  0000000000000000  000001b8  2**3
                  CONTENTS, ALLOC, LOAD, RELOC, DATA
 10 .data.n_FPC_THREADVARTABLES 0000000c  0000000000000000  0000000000000000  000001d8  2**3
                  CONTENTS, ALLOC, LOAD, RELOC, DATA
 11 .data.n_FPC_RESOURCESTRINGTABLES 00000008  0000000000000000  0000000000000000  000001e8  2**3
                  CONTENTS, ALLOC, LOAD, DATA
 12 .data.n_FPC_WIDEINITTABLES 00000008  0000000000000000  0000000000000000  000001f0  2**3
                  CONTENTS, ALLOC, LOAD, DATA
 13 .data.n_FPC_RESSTRINITTABLES 00000008  0000000000000000  0000000000000000  000001f8  2**3
                  CONTENTS, ALLOC, LOAD, DATA
 14 .fpc.n_version 00000038  0000000000000000  0000000000000000  00000200  2**3
                  CONTENTS, READONLY
 15 .data.n___stklen 00000008  0000000000000000  0000000000000000  00000238  2**3
                  CONTENTS, ALLOC, LOAD, DATA
 16 .data.n___heapsize 00000008  0000000000000000  0000000000000000  00000240  2**3
                  CONTENTS, ALLOC, LOAD, DATA
 17 .data.n___fpc_valgrind 00000001  0000000000000000  0000000000000000  00000248  2**0
                  CONTENTS, ALLOC, LOAD, DATA
 18 .data.n_FPC_RESLOCATION 00000008  0000000000000000  0000000000000000  00000250  2**3
                  CONTENTS, ALLOC, LOAD, DATA
 19 .debug_frame  00000064  0000000000000000  0000000000000000  00000258  2**2
                  CONTENTS, RELOC, READONLY, DEBUGGING
 20 .debug_info   000001c1  0000000000000000  0000000000000000  000002bc  2**0
                  CONTENTS, RELOC, READONLY, DEBUGGING
 21 .text.z_DEBUGEND_$P$ADD_FUNCTIONS_PROGRAM 00000000  0000000000000000  0000000000000000  0000047d  2**0
                  CONTENTS, ALLOC, LOAD, READONLY, CODE
 22 .note.GNU-stack 00000000  0000000000000000  0000000000000000  0000047d  2**0
                  CONTENTS, READONLY
SYMBOL TABLE:
0000000000000000 l    df *ABS*	0000000000000000 add_functions.pp
0000000000000000 l    d  .text	0000000000000000 .text
0000000000000000 l    d  .data	0000000000000000 .data
0000000000000000 l    d  .bss	0000000000000000 .bss
0000000000000000 l    d  .debug_line	0000000000000000 .debug_line
0000000000000000 l    d  .debug_abbrev	0000000000000000 .debug_abbrev
0000000000000000 l    d  .text.b_DEBUGSTART_$P$ADD_FUNCTIONS_PROGRAM	0000000000000000 .text.b_DEBUGSTART_$P$ADD_FUNCTIONS_PROGRAM
0000000000000000 l    d  .text.n_p$add_functions_program_$$_add_function$smallint$smallint$$smallint	0000000000000000 .text.n_p$add_functions_program_$$_add_function$smallint$smallint$$smallint
0000000000000000 l    d  .text.n_main	0000000000000000 .text.n_main
0000000000000000 l     O .bss	0000000000000002 U_$P$ADD_FUNCTIONS_PROGRAM_$$_A
0000000000000002 l     O .bss	0000000000000002 U_$P$ADD_FUNCTIONS_PROGRAM_$$_B
0000000000000004 l     O .bss	0000000000000002 U_$P$ADD_FUNCTIONS_PROGRAM_$$_C
0000000000000000 l    d  .fpc.n_links	0000000000000000 .fpc.n_links
0000000000000000 l    d  .data.n_INITFINAL	0000000000000000 .data.n_INITFINAL
0000000000000000 l    d  .data.n_FPC_THREADVARTABLES	0000000000000000 .data.n_FPC_THREADVARTABLES
0000000000000000 l    d  .data.n_FPC_RESOURCESTRINGTABLES	0000000000000000 .data.n_FPC_RESOURCESTRINGTABLES
0000000000000000 l    d  .data.n_FPC_WIDEINITTABLES	0000000000000000 .data.n_FPC_WIDEINITTABLES
0000000000000000 l    d  .data.n_FPC_RESSTRINITTABLES	0000000000000000 .data.n_FPC_RESSTRINITTABLES
0000000000000000 l    d  .fpc.n_version	0000000000000000 .fpc.n_version
0000000000000000 l    d  .data.n___stklen	0000000000000000 .data.n___stklen
0000000000000000 l    d  .data.n___heapsize	0000000000000000 .data.n___heapsize
0000000000000000 l    d  .data.n___fpc_valgrind	0000000000000000 .data.n___fpc_valgrind
0000000000000000 l    d  .data.n_FPC_RESLOCATION	0000000000000000 .data.n_FPC_RESLOCATION
0000000000000000 l    d  .debug_frame	0000000000000000 .debug_frame
0000000000000000 l    d  .debug_info	0000000000000000 .debug_info
0000000000000000 l    d  .text.z_DEBUGEND_$P$ADD_FUNCTIONS_PROGRAM	0000000000000000 .text.z_DEBUGEND_$P$ADD_FUNCTIONS_PROGRAM
0000000000000000 l    d  .note.GNU-stack	0000000000000000 .note.GNU-stack
0000000000000000 g     O .text.b_DEBUGSTART_$P$ADD_FUNCTIONS_PROGRAM	0000000000000000 DEBUGSTART_$P$ADD_FUNCTIONS_PROGRAM
0000000000000000 g     F .text.n_p$add_functions_program_$$_add_function$smallint$smallint$$smallint	0000000000000027 P$ADD_FUNCTIONS_PROGRAM_$$_ADD_FUNCTION$SMALLINT$SMALLINT$$SMALLINT
0000000000000000 g     F .text.n_main	0000000000000000 PASCALMAIN
0000000000000000 g     F .text.n_main	0000000000000043 main
0000000000000000         *UND*	0000000000000000 FPC_INITIALIZEUNITS
0000000000000000         *UND*	0000000000000000 FPC_DO_EXIT
0000000000000000 g     O .text.z_DEBUGEND_$P$ADD_FUNCTIONS_PROGRAM	0000000000000000 DEBUGEND_$P$ADD_FUNCTIONS_PROGRAM
0000000000000000 g     O .data.n_INITFINAL	0000000000000020 INITFINAL
0000000000000000         *UND*	0000000000000000 INIT$_$SYSTEM
0000000000000000 g     O .data.n_FPC_THREADVARTABLES	000000000000000c FPC_THREADVARTABLES
0000000000000000         *UND*	0000000000000000 THREADVARLIST_$SYSTEM
0000000000000000 g     O .data.n_FPC_RESOURCESTRINGTABLES	0000000000000008 FPC_RESOURCESTRINGTABLES
0000000000000000 g     O .data.n_FPC_WIDEINITTABLES	0000000000000008 FPC_WIDEINITTABLES
0000000000000000 g     O .data.n_FPC_RESSTRINITTABLES	0000000000000008 FPC_RESSTRINITTABLES
0000000000000000 g     O .data.n___stklen	0000000000000000 __stklen
0000000000000000 g     O .data.n___heapsize	0000000000000000 __heapsize
0000000000000000 g     O .data.n___fpc_valgrind	0000000000000000 __fpc_valgrind
0000000000000000 g     O .data.n_FPC_RESLOCATION	0000000000000000 FPC_RESLOCATION
0000000000000199 g     O .debug_info	0000000000000000 _$ADD_FUNCTIONS_PROGRAM$_Ld1
00000000000001b7 g     O .debug_info	0000000000000000 _$ADD_FUNCTIONS_PROGRAM$_Ld2


Contents of section .debug_line:
 0000 81000000 02002700 00000101 01ff0d00  ......'.........
 0010 01010101 00000001 00000100 6164645f  ............add_
 0020 66756e63 74696f6e 732e7070 00000000  functions.pp....
 0030 00000902 00000000 00000000 05011302  ................
 0040 1105120d 02100501 0d000902 00000000  ................
 0050 00000000 00010100 09020000 00000000  ................
 0060 00000501 17020905 020e020a 0d020a05  ................
 0070 070e021f 05010e00 09020000 00000000  ................
 0080 00000001 01                          .....           
Contents of section .debug_abbrev:
 0000 01110103 0825081b 08130b42 0b100611  .....%.....B....
 0010 01120100 00023400 0308020a 49100000  ......4.....I...
 0020 032e0103 08270c36 0b3f0c11 01120100  .....'.6.?......
 0030 00042e01 0308270c 360b3f0c 49101101  ......'.6.?.I...
 0040 12010000 05050003 08020a49 10000006  ...........I....
 0050 16000308 49100000 07240003 083e0b0b  ....I....$...>..
 0060 0b000008 10004910 000000             ......I....     
Contents of section .text.n_p$add_functions_program_$$_add_function$smallint$smallint$$smallint:
 0000 554889e5 488d6424 e066897d f8668975  UH..H.d$.f.}.f.u
 0010 f00fbf55 f80fbf45 f0678d04 02668945  ...U...E.g...f.E
 0020 ec0fbf45 ecc9c3                      ...E...         
Contents of section .text.n_main:
 0000 554889e5 e8000000 0066c704 25000000  UH.......f..%...
 0010 00020066 c7042500 00000003 000fbf04  ...f..%.........
 0020 25000000 000fbf3c 25000000 0089c6e8  %......<%.......
 0030 00000000 66890425 00000000 e8000000  ....f..%........
 0040 00c9c3                               ...             
Contents of section .fpc.n_links:
 0000 00000000 00000000 00000000 00000000  ................
Contents of section .data.n_INITFINAL:
 0000 01000000 00000000 00000000 00000000  ................
 0010 00000000 00000000 00000000 00000000  ................
Contents of section .data.n_FPC_THREADVARTABLES:
 0000 01000000 00000000 00000000           ............    
Contents of section .data.n_FPC_RESOURCESTRINGTABLES:
 0000 00000000 00000000                    ........        
Contents of section .data.n_FPC_WIDEINITTABLES:
 0000 00000000 00000000                    ........        
Contents of section .data.n_FPC_RESSTRINITTABLES:
 0000 00000000 00000000                    ........        
Contents of section .fpc.n_version:
 0000 46504320 332e302e 342b6466 73672d31  FPC 3.0.4+dfsg-1
 0010 38756275 6e747532 205b3230 31382f30  8ubuntu2 [2018/0
 0020 382f3239 5d20666f 72207838 365f3634  8/29] for x86_64
 0030 202d204c 696e7578                     - Linux        
Contents of section .data.n___stklen:
 0000 00008000 00000000                    ........        
Contents of section .data.n___heapsize:
 0000 00000000 00000000                    ........        
Contents of section .data.n___fpc_valgrind:
 0000 00                                   .               
Contents of section .data.n_FPC_RESLOCATION:
 0000 00000000 00000000                    ........        
Contents of section .debug_frame:
 0000 10000000 ffffffff 0100017c 100c0708  ...........|....
 0010 05100200 24000000 00000000 00000000  ....$...........
 0020 00000000 00000000 27000000 00000000  ........'.......
 0030 410e1040 05060443 0d060000 24000000  A..@...C....$...
 0040 00000000 00000000 00000000 00000000  ................
 0050 43000000 00000000 410e1040 05060443  C.......A..@...C
 0060 0d060000                             ....            
Contents of section .debug_info:
 0000 bd010000 02000000 00000801 6164645f  ............add_
 0010 66756e63 74696f6e 732e7070 00467265  functions.pp.Fre
 0020 65205061 7363616c 20332e30 2e342b64  e Pascal 3.0.4+d
 0030 6673672d 31387562 756e7475 32203230  fsg-18ubuntu2 20
 0040 31382f30 382f3239 002f686f 6d652f75  18/08/29./home/u
 0050 62756e74 752f456e 67696e65 6572696e  buntu/Engineerin
 0060 672f4469 73617373 656d626c 696e672d  g/Disassembling-
 0070 42696e61 72696573 2f506173 63616c2f  Binaries/Pascal/
 0080 496e7465 6c5f4172 63686974 65637475  Intel_Architectu
 0090 72652f41 4d443634 2f46756e 6374696f  re/AMD64/Functio
 00a0 6e732f57 6974685f 44656275 675f496e  ns/With_Debug_In
 00b0 666f2f00 09030000 00000000 00000000  fo/.............
 00c0 00000000 00000000 00000241 00090300  ...........A....
 00d0 00000000 00000000 00000000 00000002  ................
 00e0 42000903 00000000 00000000 00000000  B...............
 00f0 00000000 02430009 03000000 00000000  .....C..........
 0100 00000000 00000000 00036d61 696e0001  ..........main..
 0110 41010000 00000000 00000000 00000000  A...............
 0120 00000004 4144445f 46554e43 54494f4e  ....ADD_FUNCTION
 0130 00014101 00000000 00000000 00000000  ..A.............
 0140 00000000 00000000 00000000 05465f41  .............F_A
 0150 00027678 00000000 00000000 05465f42  ..vx.........F_B
 0160 00027670 00000000 00000000 02726573  ..vp.........res
 0170 756c7400 02766c00 00000000 00000002  ult..vl.........
 0180 4144445f 46554e43 54494f4e 0002766c  ADD_FUNCTION..vl
 0190 00000000 00000000 0006534d 414c4c49  ..........SMALLI
 01a0 4e540000 00000000 00000007 534d414c  NT..........SMAL
 01b0 4c494e54 00050208 00000000 00000000  LINT............
 01c0 00                                   .               

Disassembly of section .text.n_p$add_functions_program_$$_add_function$smallint$smallint$$smallint:

0000000000000000 <P$ADD_FUNCTIONS_PROGRAM_$$_ADD_FUNCTION$SMALLINT$SMALLINT$$SMALLINT>:
BEGIN
   0:	55                   	push   rbp
   1:	48 89 e5             	mov    rbp,rsp
   4:	48 8d 64 24 e0       	lea    rsp,[rsp-0x20]
   9:	66 89 7d f8          	mov    WORD PTR [rbp-0x8],di
   d:	66 89 75 f0          	mov    WORD PTR [rbp-0x10],si
	add_function := f_a + f_b;
  11:	0f bf 55 f8          	movsx  edx,WORD PTR [rbp-0x8]
  15:	0f bf 45 f0          	movsx  eax,WORD PTR [rbp-0x10]
  19:	67 8d 04 02          	lea    eax,[edx+eax*1]
  1d:	66 89 45 ec          	mov    WORD PTR [rbp-0x14],ax
END;
  21:	0f bf 45 ec          	movsx  eax,WORD PTR [rbp-0x14]
  25:	c9                   	leave  
  26:	c3                   	ret    

Disassembly of section .text.n_main:

0000000000000000 <main>:
BEGIN
   0:	55                   	push   rbp
   1:	48 89 e5             	mov    rbp,rsp
   4:	e8 00 00 00 00       	call   9 <main+0x9>
			5: R_X86_64_PC32	FPC_INITIALIZEUNITS-0x4
	a := 2;
   9:	66 c7 04 25 00 00 00 	mov    WORD PTR ds:0x0,0x2
  10:	00 02 00 
			d: R_X86_64_32S	.bss
	b := 3;
  13:	66 c7 04 25 00 00 00 	mov    WORD PTR ds:0x0,0x3
  1a:	00 03 00 
			17: R_X86_64_32S	.bss+0x2
	c := add_function(a, b);
  1d:	0f bf 04 25 00 00 00 	movsx  eax,WORD PTR ds:0x0
  24:	00 
			21: R_X86_64_32S	.bss+0x2
  25:	0f bf 3c 25 00 00 00 	movsx  edi,WORD PTR ds:0x0
  2c:	00 
			29: R_X86_64_32S	.bss
  2d:	89 c6                	mov    esi,eax
  2f:	e8 00 00 00 00       	call   34 <main+0x34>
			30: R_X86_64_PC32	P$ADD_FUNCTIONS_PROGRAM_$$_ADD_FUNCTION$SMALLINT$SMALLINT$$SMALLINT-0x4
  34:	66 89 04 25 00 00 00 	mov    WORD PTR ds:0x0,ax
  3b:	00 
			38: R_X86_64_32S	.bss+0x4

END.
  3c:	e8 00 00 00 00       	call   41 <main+0x41>
			3d: R_X86_64_PC32	FPC_DO_EXIT-0x4
  41:	c9                   	leave  
  42:	c3                   	ret    

Disassembly of section .fpc.n_links:

0000000000000000 <.fpc.n_links>:
	...
			0: R_X86_64_64	DEBUGSTART_$P$ADD_FUNCTIONS_PROGRAM
			8: R_X86_64_64	DEBUGEND_$P$ADD_FUNCTIONS_PROGRAM

Disassembly of section .fpc.n_version:

0000000000000000 <.fpc.n_version>:
   0:	46 50                	rex.RX push rax
   2:	43 20 33             	rex.XB and BYTE PTR [r11],sil
   5:	2e 30 2e             	xor    BYTE PTR cs:[rsi],ch
   8:	34 2b                	xor    al,0x2b
   a:	64 66 73 67          	fs data16 jae 75 <U_$P$ADD_FUNCTIONS_PROGRAM_$$_C+0x71>
   e:	2d 31 38 75 62       	sub    eax,0x62753831
BEGIN
  13:	75 6e                	jne    83 <U_$P$ADD_FUNCTIONS_PROGRAM_$$_C+0x7f>
  15:	74 75                	je     8c <U_$P$ADD_FUNCTIONS_PROGRAM_$$_C+0x88>
  17:	32 20                	xor    ah,BYTE PTR [rax]
  19:	5b                   	pop    rbx
  1a:	32 30                	xor    dh,BYTE PTR [rax]
  1c:	31 38                	xor    DWORD PTR [rax],edi
  1e:	2f                   	(bad)  
  1f:	30 38                	xor    BYTE PTR [rax],bh
	add_function := f_a + f_b;
  21:	2f                   	(bad)  
  22:	32 39                	xor    bh,BYTE PTR [rcx]
  24:	5d                   	pop    rbp
  25:	20 66 6f             	and    BYTE PTR [rsi+0x6f],ah
  28:	72 20                	jb     4a <U_$P$ADD_FUNCTIONS_PROGRAM_$$_C+0x46>
  2a:	78 38                	js     64 <U_$P$ADD_FUNCTIONS_PROGRAM_$$_C+0x60>
  2c:	36 5f                	ss pop rdi
  2e:	36 34 20             	ss xor al,0x20
END;
  31:	2d 20 4c 69 6e       	sub    eax,0x6e694c20
  36:	75 78                	jne    b0 <U_$P$ADD_FUNCTIONS_PROGRAM_$$_C+0xac>
