
mult_int_Fortran_ARM64_ggdb3:     file format elf64-littleaarch64
mult_int_Fortran_ARM64_ggdb3
architecture: aarch64, flags 0x00000150:
HAS_SYMS, DYNAMIC, D_PAGED
start address 0x0000000000000700

Program Header:
    PHDR off    0x0000000000000040 vaddr 0x0000000000000040 paddr 0x0000000000000040 align 2**3
         filesz 0x00000000000001f8 memsz 0x00000000000001f8 flags r--
  INTERP off    0x0000000000000238 vaddr 0x0000000000000238 paddr 0x0000000000000238 align 2**0
         filesz 0x000000000000001b memsz 0x000000000000001b flags r--
    LOAD off    0x0000000000000000 vaddr 0x0000000000000000 paddr 0x0000000000000000 align 2**16
         filesz 0x0000000000000a84 memsz 0x0000000000000a84 flags r-x
    LOAD off    0x0000000000000da8 vaddr 0x0000000000010da8 paddr 0x0000000000010da8 align 2**16
         filesz 0x0000000000000298 memsz 0x00000000000002a0 flags rw-
 DYNAMIC off    0x0000000000000db8 vaddr 0x0000000000010db8 paddr 0x0000000000010db8 align 2**3
         filesz 0x00000000000001f0 memsz 0x00000000000001f0 flags rw-
    NOTE off    0x0000000000000254 vaddr 0x0000000000000254 paddr 0x0000000000000254 align 2**2
         filesz 0x0000000000000044 memsz 0x0000000000000044 flags r--
EH_FRAME off    0x000000000000093c vaddr 0x000000000000093c paddr 0x000000000000093c align 2**2
         filesz 0x000000000000004c memsz 0x000000000000004c flags r--
   STACK off    0x0000000000000000 vaddr 0x0000000000000000 paddr 0x0000000000000000 align 2**4
         filesz 0x0000000000000000 memsz 0x0000000000000000 flags rw-
   RELRO off    0x0000000000000da8 vaddr 0x0000000000010da8 paddr 0x0000000000010da8 align 2**0
         filesz 0x0000000000000258 memsz 0x0000000000000258 flags r--

Dynamic Section:
  NEEDED               libgfortran.so.5
  NEEDED               libc.so.6
  INIT                 0x0000000000000660
  FINI                 0x0000000000000904
  INIT_ARRAY           0x0000000000010da8
  INIT_ARRAYSZ         0x0000000000000008
  FINI_ARRAY           0x0000000000010db0
  FINI_ARRAYSZ         0x0000000000000008
  GNU_HASH             0x0000000000000298
  STRTAB               0x00000000000003c0
  SYMTAB               0x00000000000002b8
  STRSZ                0x00000000000000c7
  SYMENT               0x0000000000000018
  DEBUG                0x0000000000000000
  PLTGOT               0x0000000000010fe8
  PLTRELSZ             0x0000000000000090
  PLTREL               0x0000000000000007
  JMPREL               0x00000000000005d0
  RELA                 0x00000000000004e0
  RELASZ               0x00000000000000f0
  RELAENT              0x0000000000000018
  FLAGS_1              0x0000000008000000
  VERNEED              0x00000000000004a0
  VERNEEDNUM           0x0000000000000002
  VERSYM               0x0000000000000488
  RELACOUNT            0x0000000000000006

Version References:
  required from libgfortran.so.5:
    0x0792f968 0x00 03 GFORTRAN_8
  required from libc.so.6:
    0x06969197 0x00 02 GLIBC_2.17
private flags = 0:

Sections:
Idx Name          Size      VMA               LMA               File off  Algn
  0 .interp       0000001b  0000000000000238  0000000000000238  00000238  2**0
                  CONTENTS, ALLOC, LOAD, READONLY, DATA
  1 .note.gnu.build-id 00000024  0000000000000254  0000000000000254  00000254  2**2
                  CONTENTS, ALLOC, LOAD, READONLY, DATA
  2 .note.ABI-tag 00000020  0000000000000278  0000000000000278  00000278  2**2
                  CONTENTS, ALLOC, LOAD, READONLY, DATA
  3 .gnu.hash     0000001c  0000000000000298  0000000000000298  00000298  2**3
                  CONTENTS, ALLOC, LOAD, READONLY, DATA
  4 .dynsym       00000108  00000000000002b8  00000000000002b8  000002b8  2**3
                  CONTENTS, ALLOC, LOAD, READONLY, DATA
  5 .dynstr       000000c7  00000000000003c0  00000000000003c0  000003c0  2**0
                  CONTENTS, ALLOC, LOAD, READONLY, DATA
  6 .gnu.version  00000016  0000000000000488  0000000000000488  00000488  2**1
                  CONTENTS, ALLOC, LOAD, READONLY, DATA
  7 .gnu.version_r 00000040  00000000000004a0  00000000000004a0  000004a0  2**3
                  CONTENTS, ALLOC, LOAD, READONLY, DATA
  8 .rela.dyn     000000f0  00000000000004e0  00000000000004e0  000004e0  2**3
                  CONTENTS, ALLOC, LOAD, READONLY, DATA
  9 .rela.plt     00000090  00000000000005d0  00000000000005d0  000005d0  2**3
                  CONTENTS, ALLOC, LOAD, READONLY, DATA
 10 .init         00000014  0000000000000660  0000000000000660  00000660  2**2
                  CONTENTS, ALLOC, LOAD, READONLY, CODE
 11 .plt          00000080  0000000000000680  0000000000000680  00000680  2**4
                  CONTENTS, ALLOC, LOAD, READONLY, CODE
 12 .text         00000204  0000000000000700  0000000000000700  00000700  2**4
                  CONTENTS, ALLOC, LOAD, READONLY, CODE
 13 .fini         00000010  0000000000000904  0000000000000904  00000904  2**2
                  CONTENTS, ALLOC, LOAD, READONLY, CODE
 14 .rodata       00000024  0000000000000918  0000000000000918  00000918  2**3
                  CONTENTS, ALLOC, LOAD, READONLY, DATA
 15 .eh_frame_hdr 0000004c  000000000000093c  000000000000093c  0000093c  2**2
                  CONTENTS, ALLOC, LOAD, READONLY, DATA
 16 .eh_frame     000000fc  0000000000000988  0000000000000988  00000988  2**3
                  CONTENTS, ALLOC, LOAD, READONLY, DATA
 17 .init_array   00000008  0000000000010da8  0000000000010da8  00000da8  2**3
                  CONTENTS, ALLOC, LOAD, DATA
 18 .fini_array   00000008  0000000000010db0  0000000000010db0  00000db0  2**3
                  CONTENTS, ALLOC, LOAD, DATA
 19 .dynamic      000001f0  0000000000010db8  0000000000010db8  00000db8  2**3
                  CONTENTS, ALLOC, LOAD, DATA
 20 .got          00000040  0000000000010fa8  0000000000010fa8  00000fa8  2**3
                  CONTENTS, ALLOC, LOAD, DATA
 21 .got.plt      00000048  0000000000010fe8  0000000000010fe8  00000fe8  2**3
                  CONTENTS, ALLOC, LOAD, DATA
 22 .data         00000010  0000000000011030  0000000000011030  00001030  2**3
                  CONTENTS, ALLOC, LOAD, DATA
 23 .bss          00000008  0000000000011040  0000000000011040  00001040  2**0
                  ALLOC
 24 .comment      00000027  0000000000000000  0000000000000000  00001040  2**0
                  CONTENTS, READONLY
 25 .debug_aranges 00000030  0000000000000000  0000000000000000  00001067  2**0
                  CONTENTS, READONLY, DEBUGGING, OCTETS
 26 .debug_info   000000d1  0000000000000000  0000000000000000  00001097  2**0
                  CONTENTS, READONLY, DEBUGGING, OCTETS
 27 .debug_abbrev 0000008c  0000000000000000  0000000000000000  00001168  2**0
                  CONTENTS, READONLY, DEBUGGING, OCTETS
 28 .debug_line   0000008d  0000000000000000  0000000000000000  000011f4  2**0
                  CONTENTS, READONLY, DEBUGGING, OCTETS
 29 .debug_str    0000019e  0000000000000000  0000000000000000  00001281  2**0
                  CONTENTS, READONLY, DEBUGGING, OCTETS
 30 .debug_macro  00000010  0000000000000000  0000000000000000  0000141f  2**0
                  CONTENTS, READONLY, DEBUGGING, OCTETS
SYMBOL TABLE:
0000000000000238 l    d  .interp	0000000000000000              .interp
0000000000000254 l    d  .note.gnu.build-id	0000000000000000              .note.gnu.build-id
0000000000000278 l    d  .note.ABI-tag	0000000000000000              .note.ABI-tag
0000000000000298 l    d  .gnu.hash	0000000000000000              .gnu.hash
00000000000002b8 l    d  .dynsym	0000000000000000              .dynsym
00000000000003c0 l    d  .dynstr	0000000000000000              .dynstr
0000000000000488 l    d  .gnu.version	0000000000000000              .gnu.version
00000000000004a0 l    d  .gnu.version_r	0000000000000000              .gnu.version_r
00000000000004e0 l    d  .rela.dyn	0000000000000000              .rela.dyn
00000000000005d0 l    d  .rela.plt	0000000000000000              .rela.plt
0000000000000660 l    d  .init	0000000000000000              .init
0000000000000680 l    d  .plt	0000000000000000              .plt
0000000000000700 l    d  .text	0000000000000000              .text
0000000000000904 l    d  .fini	0000000000000000              .fini
0000000000000918 l    d  .rodata	0000000000000000              .rodata
000000000000093c l    d  .eh_frame_hdr	0000000000000000              .eh_frame_hdr
0000000000000988 l    d  .eh_frame	0000000000000000              .eh_frame
0000000000010da8 l    d  .init_array	0000000000000000              .init_array
0000000000010db0 l    d  .fini_array	0000000000000000              .fini_array
0000000000010db8 l    d  .dynamic	0000000000000000              .dynamic
0000000000010fa8 l    d  .got	0000000000000000              .got
0000000000010fe8 l    d  .got.plt	0000000000000000              .got.plt
0000000000011030 l    d  .data	0000000000000000              .data
0000000000011040 l    d  .bss	0000000000000000              .bss
0000000000000000 l    d  .comment	0000000000000000              .comment
0000000000000000 l    d  .debug_aranges	0000000000000000              .debug_aranges
0000000000000000 l    d  .debug_info	0000000000000000              .debug_info
0000000000000000 l    d  .debug_abbrev	0000000000000000              .debug_abbrev
0000000000000000 l    d  .debug_line	0000000000000000              .debug_line
0000000000000000 l    d  .debug_str	0000000000000000              .debug_str
0000000000000000 l    d  .debug_macro	0000000000000000              .debug_macro
0000000000000000 l    df *ABS*	0000000000000000              /usr/lib/gcc/aarch64-linux-gnu/10/../../../aarch64-linux-gnu/Scrt1.o
0000000000000000 l    df *ABS*	0000000000000000              /usr/lib/gcc/aarch64-linux-gnu/10/../../../aarch64-linux-gnu/crti.o
0000000000000738 l     F .text	0000000000000014              call_weak_fn
0000000000000000 l    df *ABS*	0000000000000000              /usr/lib/gcc/aarch64-linux-gnu/10/../../../aarch64-linux-gnu/crtn.o
0000000000000000 l    df *ABS*	0000000000000000              crtstuff.c
0000000000000750 l     F .text	0000000000000000              deregister_tm_clones
0000000000000780 l     F .text	0000000000000000              register_tm_clones
00000000000007c0 l     F .text	0000000000000000              __do_global_dtors_aux
0000000000011040 l     O .bss	0000000000000001              completed.0
0000000000010db0 l     O .fini_array	0000000000000000              __do_global_dtors_aux_fini_array_entry
0000000000000810 l     F .text	0000000000000000              frame_dummy
0000000000010da8 l     O .init_array	0000000000000000              __frame_dummy_init_array_entry
0000000000000000 l    df *ABS*	0000000000000000              mult_int.f08
0000000000000814 l     F .text	0000000000000030              MAIN__
0000000000000920 l     O .rodata	000000000000001c              options.0.0
0000000000000000 l    df *ABS*	0000000000000000              elf-init.oS
0000000000000000 l    df *ABS*	0000000000000000              crtstuff.c
0000000000000a80 l     O .eh_frame	0000000000000000              __FRAME_END__
0000000000000000 l    df *ABS*	0000000000000000              
000000000000093c l       .eh_frame_hdr	0000000000000000              __GNU_EH_FRAME_HDR
0000000000010fa8 l     O *ABS*	0000000000000000              _GLOBAL_OFFSET_TABLE_
0000000000010db0 l       .init_array	0000000000000000              __init_array_end
0000000000010da8 l       .init_array	0000000000000000              __init_array_start
0000000000010db8 l     O *ABS*	0000000000000000              _DYNAMIC
0000000000000660 l     F .init	0000000000000000              _init
0000000000011030  w      .data	0000000000000000              data_start
0000000000000900 g     F .text	0000000000000004              __libc_csu_fini
0000000000000700 g     F .text	0000000000000000              _start
0000000000000000       F *UND*	0000000000000000              __libc_start_main@GLIBC_2.17
0000000000000000  w      *UND*	0000000000000000              __gmon_start__
0000000000000904 g     F .fini	0000000000000000              .hidden _fini
0000000000000000  w    F *UND*	0000000000000000              __cxa_finalize@GLIBC_2.17
0000000000000000  w      *UND*	0000000000000000              _ITM_deregisterTMCloneTable
0000000000000918 g     O .rodata	0000000000000004              _IO_stdin_used
0000000000000000  w      *UND*	0000000000000000              _ITM_registerTMCloneTable
0000000000011030 g       .data	0000000000000000              __data_start
0000000000000000       F *UND*	0000000000000000              abort@GLIBC_2.17
0000000000011040 g       .bss	0000000000000000              __bss_start__
0000000000011040 g     O .data	0000000000000000              .hidden __TMC_END__
0000000000011038 g     O .data	0000000000000000              .hidden __dso_handle
0000000000011048 g       .bss	0000000000000000              __end__
0000000000000880 g     F .text	000000000000007c              __libc_csu_init
0000000000011048 g       .bss	0000000000000000              __bss_end__
0000000000011040 g       .bss	0000000000000000              __bss_start
0000000000011048 g       .bss	0000000000000000              _bss_end__
0000000000000000       F *UND*	0000000000000000              _gfortran_set_options@GFORTRAN_8
0000000000011048 g       .bss	0000000000000000              _end
0000000000000000       F *UND*	0000000000000000              _gfortran_set_args@GFORTRAN_8
0000000000011040 g       .data	0000000000000000              _edata
0000000000000844 g     F .text	000000000000003c              main


Contents of section .interp:
 0238 2f6c6962 2f6c642d 6c696e75 782d6161  /lib/ld-linux-aa
 0248 72636836 342e736f 2e3100             rch64.so.1.     
Contents of section .note.gnu.build-id:
 0254 04000000 14000000 03000000 474e5500  ............GNU.
 0264 cba95f0c 7042d427 a9296060 1ce23f15  .._.pB.'.)``..?.
 0274 b016a14d                             ...M            
Contents of section .note.ABI-tag:
 0278 04000000 10000000 01000000 474e5500  ............GNU.
 0288 00000000 03000000 07000000 00000000  ................
Contents of section .gnu.hash:
 0298 01000000 01000000 01000000 00000000  ................
 02a8 00000000 00000000 00000000           ............    
Contents of section .dynsym:
 02b8 00000000 00000000 00000000 00000000  ................
 02c8 00000000 00000000 00000000 03000b00  ................
 02d8 60060000 00000000 00000000 00000000  `...............
 02e8 00000000 03001700 30100100 00000000  ........0.......
 02f8 00000000 00000000 84000000 12000000  ................
 0308 00000000 00000000 00000000 00000000  ................
 0318 1d000000 20000000 00000000 00000000  .... ...........
 0328 00000000 00000000 75000000 22000000  ........u..."...
 0338 00000000 00000000 00000000 00000000  ................
 0348 01000000 20000000 00000000 00000000  .... ...........
 0358 00000000 00000000 2c000000 20000000  ........,... ...
 0368 00000000 00000000 00000000 00000000  ................
 0378 6f000000 12000000 00000000 00000000  o...............
 0388 00000000 00000000 46000000 12000000  ........F.......
 0398 00000000 00000000 00000000 00000000  ................
 03a8 5c000000 12000000 00000000 00000000  \...............
 03b8 00000000 00000000                    ........        
Contents of section .dynstr:
 03c0 005f4954 4d5f6465 72656769 73746572  ._ITM_deregister
 03d0 544d436c 6f6e6554 61626c65 005f5f67  TMCloneTable.__g
 03e0 6d6f6e5f 73746172 745f5f00 5f49544d  mon_start__._ITM
 03f0 5f726567 69737465 72544d43 6c6f6e65  _registerTMClone
 0400 5461626c 65005f67 666f7274 72616e5f  Table._gfortran_
 0410 7365745f 6f707469 6f6e7300 5f67666f  set_options._gfo
 0420 72747261 6e5f7365 745f6172 67730061  rtran_set_args.a
 0430 626f7274 005f5f63 78615f66 696e616c  bort.__cxa_final
 0440 697a6500 5f5f6c69 62635f73 74617274  ize.__libc_start
 0450 5f6d6169 6e006c69 6267666f 72747261  _main.libgfortra
 0460 6e2e736f 2e35006c 6962632e 736f2e36  n.so.5.libc.so.6
 0470 0047464f 52545241 4e5f3800 474c4942  .GFORTRAN_8.GLIB
 0480 435f322e 313700                      C_2.17.         
Contents of section .gnu.version:
 0488 00000000 00000200 00000200 00000000  ................
 0498 02000300 0300                        ......          
Contents of section .gnu.version_r:
 04a0 01000100 96000000 10000000 20000000  ............ ...
 04b0 68f99207 00000300 b1000000 00000000  h...............
 04c0 01000100 a7000000 10000000 00000000  ................
 04d0 97919606 00000200 bc000000 00000000  ................
Contents of section .rela.dyn:
 04e0 a80d0100 00000000 03040000 00000000  ................
 04f0 10080000 00000000 b00d0100 00000000  ................
 0500 03040000 00000000 c0070000 00000000  ................
 0510 b00f0100 00000000 03040000 00000000  ................
 0520 00090000 00000000 d80f0100 00000000  ................
 0530 03040000 00000000 80080000 00000000  ................
 0540 e00f0100 00000000 03040000 00000000  ................
 0550 44080000 00000000 38100100 00000000  D.......8.......
 0560 03040000 00000000 38100100 00000000  ........8.......
 0570 b80f0100 00000000 01040000 04000000  ................
 0580 00000000 00000000 c00f0100 00000000  ................
 0590 01040000 05000000 00000000 00000000  ................
 05a0 c80f0100 00000000 01040000 06000000  ................
 05b0 00000000 00000000 d00f0100 00000000  ................
 05c0 01040000 07000000 00000000 00000000  ................
Contents of section .rela.plt:
 05d0 00100100 00000000 02040000 03000000  ................
 05e0 00000000 00000000 08100100 00000000  ................
 05f0 02040000 04000000 00000000 00000000  ................
 0600 10100100 00000000 02040000 05000000  ................
 0610 00000000 00000000 18100100 00000000  ................
 0620 02040000 08000000 00000000 00000000  ................
 0630 20100100 00000000 02040000 09000000   ...............
 0640 00000000 00000000 28100100 00000000  ........(.......
 0650 02040000 0a000000 00000000 00000000  ................
Contents of section .init:
 0660 fd7bbfa9 fd030091 34000094 fd7bc1a8  .{......4....{..
 0670 c0035fd6                             .._.            
Contents of section .plt:
 0680 f07bbfa9 90000090 11fe47f9 10e23f91  .{........G...?.
 0690 20021fd6 1f2003d5 1f2003d5 1f2003d5   .... ... ... ..
 06a0 900000b0 110240f9 10020091 20021fd6  ......@..... ...
 06b0 900000b0 110640f9 10220091 20021fd6  ......@..".. ...
 06c0 900000b0 110a40f9 10420091 20021fd6  ......@..B.. ...
 06d0 900000b0 110e40f9 10620091 20021fd6  ......@..b.. ...
 06e0 900000b0 111240f9 10820091 20021fd6  ......@..... ...
 06f0 900000b0 111640f9 10a20091 20021fd6  ......@..... ...
Contents of section .text:
 0700 1d0080d2 1e0080d2 e50300aa e10340f9  ..............@.
 0710 e2230091 e6030091 80000090 00f047f9  .#............G.
 0720 83000090 63ec47f9 84000090 84d847f9  ....c.G.......G.
 0730 dcffff97 e7ffff97 80000090 00dc47f9  ..............G.
 0740 400000b4 dbffff17 c0035fd6 1f2003d5  @........._.. ..
 0750 800000b0 00000191 810000b0 21000191  ............!...
 0760 3f0000eb c0000054 81000090 21e447f9  ?......T....!.G.
 0770 610000b4 f00301aa 00021fd6 c0035fd6  a............._.
 0780 800000b0 00000191 810000b0 21000191  ............!...
 0790 210000cb 22fc7fd3 410c818b 21fc4193  !..."...A...!.A.
 07a0 c10000b4 82000090 42e847f9 620000b4  ........B.G.b...
 07b0 f00302aa 00021fd6 c0035fd6 1f2003d5  .........._.. ..
 07c0 fd7bbea9 fd030091 f30b00f9 930000b0  .{..............
 07d0 60024139 40010035 80000090 00e047f9  `.A9@..5......G.
 07e0 800000b4 800000b0 001c40f9 b5ffff97  ..........@.....
 07f0 d8ffff97 20008052 60020139 f30b40f9  .... ..R`..9..@.
 0800 fd7bc2a8 c0035fd6 1f2003d5 1f2003d5  .{...._.. ... ..
 0810 dcffff17 ff4300d1 40008052 e00f00b9  .....C..@..R....
 0820 60008052 e00b00b9 e10f40b9 e00b40b9  `..R......@...@.
 0830 207c001b e00700b9 1f2003d5 ff430091   |....... ...C..
 0840 c0035fd6 fd7bbea9 fd030091 e01f00b9  .._..{..........
 0850 e10b00f9 e10b40f9 e01f40b9 a5ffff97  ......@...@.....
 0860 00000090 01802491 e0008052 9dffff97  ......$....R....
 0870 e9ffff97 00008052 fd7bc2a8 c0035fd6  .......R.{...._.
 0880 fd7bbca9 fd030091 f35301a9 94000090  .{.......S......
 0890 94c23691 f55b02a9 95000090 b5a23691  ..6..[........6.
 08a0 940215cb f603002a f76303a9 f70301aa  .......*.c......
 08b0 f80302aa 94fe4393 6affff97 740100b4  ......C.j...t...
 08c0 130080d2 1f2003d5 a37a73f8 e20318aa  ..... ...zs.....
 08d0 73060091 e10317aa e003162a 60003fd6  s..........*`.?.
 08e0 9f0213eb 21ffff54 f35341a9 f55b42a9  ....!..T.SA..[B.
 08f0 f76343a9 fd7bc4a8 c0035fd6 1f2003d5  .cC..{...._.. ..
 0900 c0035fd6                             .._.            
Contents of section .fini:
 0904 fd7bbfa9 fd030091 fd7bc1a8 c0035fd6  .{.......{...._.
Contents of section .rodata:
 0918 01000200 00000000 44080000 ff0f0000  ........D.......
 0928 00000000 01000000 01000000 00000000  ................
 0938 1f000000                             ....            
Contents of section .eh_frame_hdr:
 093c 011b033b 48000000 08000000 14feffff  ...;H...........
 094c 60000000 44feffff 74000000 84feffff  `...D...t.......
 095c 88000000 d4feffff ac000000 d8feffff  ................
 096c c4000000 08ffffff dc000000 44ffffff  ............D...
 097c fc000000 c4ffffff 30010000           ........0...    
Contents of section .eh_frame:
 0988 10000000 00000000 017a5200 04781e01  .........zR..x..
 0998 1b0c1f00 10000000 18000000 acfdffff  ................
 09a8 30000000 00000000 10000000 2c000000  0...........,...
 09b8 c8fdffff 3c000000 00000000 20000000  ....<....... ...
 09c8 40000000 f4fdffff 48000000 00410e20  @.......H....A. 
 09d8 9d049e03 4293024e deddd30e 00000000  ....B..N........
 09e8 14000000 64000000 20feffff 04000000  ....d... .......
 09f8 00000000 00000000 14000000 7c000000  ............|...
 0a08 0cfeffff 30000000 00410e10 4a0e0000  ....0....A..J...
 0a18 1c000000 94000000 24feffff 3c000000  ........$...<...
 0a28 00410e20 9d049e03 4ddedd0e 00000000  .A. ....M.......
 0a38 30000000 b4000000 40feffff 7c000000  0.......@...|...
 0a48 00410e40 9d089e07 42930694 05439504  .A.@....B....C..
 0a58 96034597 02980153 deddd7d8 d5d6d3d4  ..E....S........
 0a68 0e000000 10000000 e8000000 8cfeffff  ................
 0a78 04000000 00000000 00000000           ............    
Contents of section .init_array:
 10da8 10080000 00000000                    ........        
Contents of section .fini_array:
 10db0 c0070000 00000000                    ........        
Contents of section .dynamic:
 10db8 01000000 00000000 96000000 00000000  ................
 10dc8 01000000 00000000 a7000000 00000000  ................
 10dd8 0c000000 00000000 60060000 00000000  ........`.......
 10de8 0d000000 00000000 04090000 00000000  ................
 10df8 19000000 00000000 a80d0100 00000000  ................
 10e08 1b000000 00000000 08000000 00000000  ................
 10e18 1a000000 00000000 b00d0100 00000000  ................
 10e28 1c000000 00000000 08000000 00000000  ................
 10e38 f5feff6f 00000000 98020000 00000000  ...o............
 10e48 05000000 00000000 c0030000 00000000  ................
 10e58 06000000 00000000 b8020000 00000000  ................
 10e68 0a000000 00000000 c7000000 00000000  ................
 10e78 0b000000 00000000 18000000 00000000  ................
 10e88 15000000 00000000 00000000 00000000  ................
 10e98 03000000 00000000 e80f0100 00000000  ................
 10ea8 02000000 00000000 90000000 00000000  ................
 10eb8 14000000 00000000 07000000 00000000  ................
 10ec8 17000000 00000000 d0050000 00000000  ................
 10ed8 07000000 00000000 e0040000 00000000  ................
 10ee8 08000000 00000000 f0000000 00000000  ................
 10ef8 09000000 00000000 18000000 00000000  ................
 10f08 fbffff6f 00000000 00000008 00000000  ...o............
 10f18 feffff6f 00000000 a0040000 00000000  ...o............
 10f28 ffffff6f 00000000 02000000 00000000  ...o............
 10f38 f0ffff6f 00000000 88040000 00000000  ...o............
 10f48 f9ffff6f 00000000 06000000 00000000  ...o............
 10f58 00000000 00000000 00000000 00000000  ................
 10f68 00000000 00000000 00000000 00000000  ................
 10f78 00000000 00000000 00000000 00000000  ................
 10f88 00000000 00000000 00000000 00000000  ................
 10f98 00000000 00000000 00000000 00000000  ................
Contents of section .got:
 10fa8 b80d0100 00000000 00090000 00000000  ................
 10fb8 00000000 00000000 00000000 00000000  ................
 10fc8 00000000 00000000 00000000 00000000  ................
 10fd8 80080000 00000000 44080000 00000000  ........D.......
Contents of section .got.plt:
 10fe8 00000000 00000000 00000000 00000000  ................
 10ff8 00000000 00000000 80060000 00000000  ................
 11008 80060000 00000000 80060000 00000000  ................
 11018 80060000 00000000 80060000 00000000  ................
 11028 80060000 00000000                    ........        
Contents of section .data:
 11030 00000000 00000000 38100100 00000000  ........8.......
Contents of section .comment:
 0000 4743433a 20284465 6269616e 2031302e  GCC: (Debian 10.
 0010 322e312d 36292031 302e322e 31203230  2.1-6) 10.2.1 20
 0020 32313031 313000                      210110.         
Contents of section .debug_aranges:
 0000 2c000000 02000000 00000800 00000000  ,...............
 0010 14080000 00000000 6c000000 00000000  ........l.......
 0020 00000000 00000000 00000000 00000000  ................
Contents of section .debug_info:
 0000 cd000000 04000000 00000801 3e000000  ............>...
 0010 0e021c00 00001001 00001408 00000000  ................
 0020 00006c00 00000000 00000000 00000000  ..l.............
 0030 00000239 00000001 0c107400 00004408  ...9......t...D.
 0040 00000000 00003c00 00000000 0000019c  ......<.........
 0050 74000000 03170000 00010c10 7b000000  t...........{...
 0060 02917c03 99010000 010c1080 00000003  ..|.............
 0070 91700600 04040529 00000005 74000000  .p.....)....t...
 0080 06088600 00000401 08050000 00070000  ................
 0090 00000101 0c021408 00000000 00003000  ..............0.
 00a0 00000000 0000019c 08610001 050e7400  .........a....t.
 00b0 00000291 7c086200 01051174 00000002  ....|.b....t....
 00c0 91780863 00010514 74000000 02917400  .x.c....t.....t.
 00d0 00                                   .               
Contents of section .debug_abbrev:
 0000 01110125 0e130b42 0b030e1b 0e110112  ...%...B........
 0010 07101799 42170000 022e013f 19030e3a  ....B......?...:
 0020 0b3b0b39 0b491311 01120740 18964219  .;.9.I.....@..B.
 0030 01130000 03050003 0e3a0b3b 0b390b49  .........:.;.9.I
 0040 13021800 00042400 0b0b3e0b 030e0000  ......$...>.....
 0050 05260049 13000006 0f000b0b 49130000  .&.I........I...
 0060 072e0103 0e3a0b3b 0b390b6a 19360b11  .....:.;.9.j.6..
 0070 01120740 18974219 00000834 0003083a  ...@..B....4...:
 0080 0b3b0b39 0b491302 18000000           .;.9.I......    
Contents of section .debug_line:
 0000 89000000 03006400 00000401 fb0e0d00  ......d.........
 0010 01010101 00000001 0000012f 7573722f  .........../usr/
 0020 696e636c 7564652f 66696e63 6c756465  include/finclude
 0030 2f616172 63683634 2d6c696e 75782d67  /aarch64-linux-g
 0040 6e750000 6d756c74 5f696e74 2e663038  nu..mult_int.f08
 0050 00000000 6d617468 2d766563 746f722d  ....math-vector-
 0060 666f7274 72616e2e 68000100 0000050c  fortran.h.......
 0070 00090214 08000000 00000001 0506262f  ..............&/
 0080 050a3005 104c3c4a 020b0001 01        ..0..L<J.....   
Contents of section .debug_str:
 0000 6d756c74 00636861 72616374 6572286b  mult.character(k
 0010 696e643d 31290061 72676300 6d756c74  ind=1).argc.mult
 0020 5f696e74 2e663038 00696e74 65676572  _int.f08.integer
 0030 286b696e 643d3429 006d6169 6e00474e  (kind=4).main.GN
 0040 5520466f 72747261 6e323030 38203130  U Fortran2008 10
 0050 2e322e31 20323032 31303131 30202d6d  .2.1 20210110 -m
 0060 6c697474 6c652d65 6e646961 6e202d6d  little-endian -m
 0070 6162693d 6c703634 202d6767 64623320  abi=lp64 -ggdb3 
 0080 2d66696e 7472696e 7369632d 6d6f6475  -fintrinsic-modu
 0090 6c65732d 70617468 202f7573 722f6c69  les-path /usr/li
 00a0 622f6763 632f6161 72636836 342d6c69  b/gcc/aarch64-li
 00b0 6e75782d 676e752f 31302f66 696e636c  nux-gnu/10/fincl
 00c0 75646520 2d667072 652d696e 636c7564  ude -fpre-includ
 00d0 653d2f75 73722f69 6e636c75 64652f66  e=/usr/include/f
 00e0 696e636c 7564652f 61617263 6836342d  include/aarch64-
 00f0 6c696e75 782d676e 752f6d61 74682d76  linux-gnu/math-v
 0100 6563746f 722d666f 72747261 6e2e6800  ector-fortran.h.
 0110 2f686f6d 652f6d61 726b6b68 75736964  /home/markkhusid
 0120 2f446f63 756d656e 74732f45 6e67696e  /Documents/Engin
 0130 65657269 6e672f44 69736173 73656d62  eering/Disassemb
 0140 6c696e67 2d42696e 61726965 732f466f  ling-Binaries/Fo
 0150 72747261 6e2f4152 4d5f6172 63686974  rtran/ARM_archit
 0160 65637475 72652f41 524d3634 2f496e74  ecture/ARM64/Int
 0170 65676572 5f4f7065 72617469 6f6e732f  eger_Operations/
 0180 4d756c74 5f496e74 2f576974 685f4465  Mult_Int/With_De
 0190 6275675f 496e666f 00617267 7600      bug_Info.argv.  
Contents of section .debug_macro:
 0000 04000200 00000003 00010300 02040400  ................

Disassembly of section .init:

0000000000000660 <_init>:
 660:	a9bf7bfd 	stp	x29, x30, [sp, #-16]!
 664:	910003fd 	mov	x29, sp
 668:	94000034 	bl	738 <call_weak_fn>
 66c:	a8c17bfd 	ldp	x29, x30, [sp], #16
 670:	d65f03c0 	ret

Disassembly of section .plt:

0000000000000680 <.plt>:
 680:	a9bf7bf0 	stp	x16, x30, [sp, #-16]!
 684:	90000090 	adrp	x16, 10000 <__FRAME_END__+0xf580>
 688:	f947fe11 	ldr	x17, [x16, #4088]
 68c:	913fe210 	add	x16, x16, #0xff8
 690:	d61f0220 	br	x17
 694:	d503201f 	nop
 698:	d503201f 	nop
 69c:	d503201f 	nop

00000000000006a0 <__libc_start_main@plt>:
 6a0:	b0000090 	adrp	x16, 11000 <__libc_start_main@GLIBC_2.17>
 6a4:	f9400211 	ldr	x17, [x16]
 6a8:	91000210 	add	x16, x16, #0x0
 6ac:	d61f0220 	br	x17

00000000000006b0 <__gmon_start__@plt>:
 6b0:	b0000090 	adrp	x16, 11000 <__libc_start_main@GLIBC_2.17>
 6b4:	f9400611 	ldr	x17, [x16, #8]
 6b8:	91002210 	add	x16, x16, #0x8
 6bc:	d61f0220 	br	x17

00000000000006c0 <__cxa_finalize@plt>:
 6c0:	b0000090 	adrp	x16, 11000 <__libc_start_main@GLIBC_2.17>
 6c4:	f9400a11 	ldr	x17, [x16, #16]
 6c8:	91004210 	add	x16, x16, #0x10
 6cc:	d61f0220 	br	x17

00000000000006d0 <abort@plt>:
 6d0:	b0000090 	adrp	x16, 11000 <__libc_start_main@GLIBC_2.17>
 6d4:	f9400e11 	ldr	x17, [x16, #24]
 6d8:	91006210 	add	x16, x16, #0x18
 6dc:	d61f0220 	br	x17

00000000000006e0 <_gfortran_set_options@plt>:
 6e0:	b0000090 	adrp	x16, 11000 <__libc_start_main@GLIBC_2.17>
 6e4:	f9401211 	ldr	x17, [x16, #32]
 6e8:	91008210 	add	x16, x16, #0x20
 6ec:	d61f0220 	br	x17

00000000000006f0 <_gfortran_set_args@plt>:
 6f0:	b0000090 	adrp	x16, 11000 <__libc_start_main@GLIBC_2.17>
 6f4:	f9401611 	ldr	x17, [x16, #40]
 6f8:	9100a210 	add	x16, x16, #0x28
 6fc:	d61f0220 	br	x17

Disassembly of section .text:

0000000000000700 <_start>:
 700:	d280001d 	mov	x29, #0x0                   	// #0
 704:	d280001e 	mov	x30, #0x0                   	// #0
 708:	aa0003e5 	mov	x5, x0
 70c:	f94003e1 	ldr	x1, [sp]
 710:	910023e2 	add	x2, sp, #0x8
 714:	910003e6 	mov	x6, sp
 718:	90000080 	adrp	x0, 10000 <__FRAME_END__+0xf580>
 71c:	f947f000 	ldr	x0, [x0, #4064]
 720:	90000083 	adrp	x3, 10000 <__FRAME_END__+0xf580>
 724:	f947ec63 	ldr	x3, [x3, #4056]
 728:	90000084 	adrp	x4, 10000 <__FRAME_END__+0xf580>
 72c:	f947d884 	ldr	x4, [x4, #4016]
 730:	97ffffdc 	bl	6a0 <__libc_start_main@plt>
 734:	97ffffe7 	bl	6d0 <abort@plt>

0000000000000738 <call_weak_fn>:
 738:	90000080 	adrp	x0, 10000 <__FRAME_END__+0xf580>
 73c:	f947dc00 	ldr	x0, [x0, #4024]
 740:	b4000040 	cbz	x0, 748 <call_weak_fn+0x10>
 744:	17ffffdb 	b	6b0 <__gmon_start__@plt>
 748:	d65f03c0 	ret
 74c:	d503201f 	nop

0000000000000750 <deregister_tm_clones>:
 750:	b0000080 	adrp	x0, 11000 <__libc_start_main@GLIBC_2.17>
 754:	91010000 	add	x0, x0, #0x40
 758:	b0000081 	adrp	x1, 11000 <__libc_start_main@GLIBC_2.17>
 75c:	91010021 	add	x1, x1, #0x40
 760:	eb00003f 	cmp	x1, x0
 764:	540000c0 	b.eq	77c <deregister_tm_clones+0x2c>  // b.none
 768:	90000081 	adrp	x1, 10000 <__FRAME_END__+0xf580>
 76c:	f947e421 	ldr	x1, [x1, #4040]
 770:	b4000061 	cbz	x1, 77c <deregister_tm_clones+0x2c>
 774:	aa0103f0 	mov	x16, x1
 778:	d61f0200 	br	x16
 77c:	d65f03c0 	ret

0000000000000780 <register_tm_clones>:
 780:	b0000080 	adrp	x0, 11000 <__libc_start_main@GLIBC_2.17>
 784:	91010000 	add	x0, x0, #0x40
 788:	b0000081 	adrp	x1, 11000 <__libc_start_main@GLIBC_2.17>
 78c:	91010021 	add	x1, x1, #0x40
 790:	cb000021 	sub	x1, x1, x0
 794:	d37ffc22 	lsr	x2, x1, #63
 798:	8b810c41 	add	x1, x2, x1, asr #3
 79c:	9341fc21 	asr	x1, x1, #1
 7a0:	b40000c1 	cbz	x1, 7b8 <register_tm_clones+0x38>
 7a4:	90000082 	adrp	x2, 10000 <__FRAME_END__+0xf580>
 7a8:	f947e842 	ldr	x2, [x2, #4048]
 7ac:	b4000062 	cbz	x2, 7b8 <register_tm_clones+0x38>
 7b0:	aa0203f0 	mov	x16, x2
 7b4:	d61f0200 	br	x16
 7b8:	d65f03c0 	ret
 7bc:	d503201f 	nop

00000000000007c0 <__do_global_dtors_aux>:
 7c0:	a9be7bfd 	stp	x29, x30, [sp, #-32]!
 7c4:	910003fd 	mov	x29, sp
 7c8:	f9000bf3 	str	x19, [sp, #16]
 7cc:	b0000093 	adrp	x19, 11000 <__libc_start_main@GLIBC_2.17>
 7d0:	39410260 	ldrb	w0, [x19, #64]
 7d4:	35000140 	cbnz	w0, 7fc <__do_global_dtors_aux+0x3c>
 7d8:	90000080 	adrp	x0, 10000 <__FRAME_END__+0xf580>
 7dc:	f947e000 	ldr	x0, [x0, #4032]
 7e0:	b4000080 	cbz	x0, 7f0 <__do_global_dtors_aux+0x30>
 7e4:	b0000080 	adrp	x0, 11000 <__libc_start_main@GLIBC_2.17>
 7e8:	f9401c00 	ldr	x0, [x0, #56]
 7ec:	97ffffb5 	bl	6c0 <__cxa_finalize@plt>
 7f0:	97ffffd8 	bl	750 <deregister_tm_clones>
 7f4:	52800020 	mov	w0, #0x1                   	// #1
 7f8:	39010260 	strb	w0, [x19, #64]
 7fc:	f9400bf3 	ldr	x19, [sp, #16]
 800:	a8c27bfd 	ldp	x29, x30, [sp], #32
 804:	d65f03c0 	ret
 808:	d503201f 	nop
 80c:	d503201f 	nop

0000000000000810 <frame_dummy>:
 810:	17ffffdc 	b	780 <register_tm_clones>

0000000000000814 <MAIN__>:
program mult
 814:	d10043ff 	sub	sp, sp, #0x10

	implicit none

	integer		:: a, b, c

	a = 2
 818:	52800040 	mov	w0, #0x2                   	// #2
 81c:	b9000fe0 	str	w0, [sp, #12]
	b = 3
 820:	52800060 	mov	w0, #0x3                   	// #3
 824:	b9000be0 	str	w0, [sp, #8]

	c = a * b
 828:	b9400fe1 	ldr	w1, [sp, #12]
 82c:	b9400be0 	ldr	w0, [sp, #8]
 830:	1b007c20 	mul	w0, w1, w0
 834:	b90007e0 	str	w0, [sp, #4]

end program mult
 838:	d503201f 	nop
 83c:	910043ff 	add	sp, sp, #0x10
 840:	d65f03c0 	ret

0000000000000844 <main>:
 844:	a9be7bfd 	stp	x29, x30, [sp, #-32]!
 848:	910003fd 	mov	x29, sp
 84c:	b9001fe0 	str	w0, [sp, #28]
 850:	f9000be1 	str	x1, [sp, #16]
 854:	f9400be1 	ldr	x1, [sp, #16]
 858:	b9401fe0 	ldr	w0, [sp, #28]
 85c:	97ffffa5 	bl	6f0 <_gfortran_set_args@plt>
 860:	90000000 	adrp	x0, 0 <_init-0x660>
 864:	91248001 	add	x1, x0, #0x920
 868:	528000e0 	mov	w0, #0x7                   	// #7
 86c:	97ffff9d 	bl	6e0 <_gfortran_set_options@plt>
 870:	97ffffe9 	bl	814 <MAIN__>
 874:	52800000 	mov	w0, #0x0                   	// #0
 878:	a8c27bfd 	ldp	x29, x30, [sp], #32
 87c:	d65f03c0 	ret

0000000000000880 <__libc_csu_init>:
 880:	a9bc7bfd 	stp	x29, x30, [sp, #-64]!
 884:	910003fd 	mov	x29, sp
 888:	a90153f3 	stp	x19, x20, [sp, #16]
 88c:	90000094 	adrp	x20, 10000 <__FRAME_END__+0xf580>
 890:	9136c294 	add	x20, x20, #0xdb0
 894:	a9025bf5 	stp	x21, x22, [sp, #32]
 898:	90000095 	adrp	x21, 10000 <__FRAME_END__+0xf580>
 89c:	9136a2b5 	add	x21, x21, #0xda8
 8a0:	cb150294 	sub	x20, x20, x21
 8a4:	2a0003f6 	mov	w22, w0
 8a8:	a90363f7 	stp	x23, x24, [sp, #48]
 8ac:	aa0103f7 	mov	x23, x1
 8b0:	aa0203f8 	mov	x24, x2
 8b4:	9343fe94 	asr	x20, x20, #3
 8b8:	97ffff6a 	bl	660 <_init>
 8bc:	b4000174 	cbz	x20, 8e8 <__libc_csu_init+0x68>
 8c0:	d2800013 	mov	x19, #0x0                   	// #0
 8c4:	d503201f 	nop
 8c8:	f8737aa3 	ldr	x3, [x21, x19, lsl #3]
 8cc:	aa1803e2 	mov	x2, x24
 8d0:	91000673 	add	x19, x19, #0x1
 8d4:	aa1703e1 	mov	x1, x23
 8d8:	2a1603e0 	mov	w0, w22
 8dc:	d63f0060 	blr	x3
 8e0:	eb13029f 	cmp	x20, x19
 8e4:	54ffff21 	b.ne	8c8 <__libc_csu_init+0x48>  // b.any
 8e8:	a94153f3 	ldp	x19, x20, [sp, #16]
 8ec:	a9425bf5 	ldp	x21, x22, [sp, #32]
 8f0:	a94363f7 	ldp	x23, x24, [sp, #48]
 8f4:	a8c47bfd 	ldp	x29, x30, [sp], #64
 8f8:	d65f03c0 	ret
 8fc:	d503201f 	nop

0000000000000900 <__libc_csu_fini>:
 900:	d65f03c0 	ret

Disassembly of section .fini:

0000000000000904 <_fini>:
 904:	a9bf7bfd 	stp	x29, x30, [sp, #-16]!
 908:	910003fd 	mov	x29, sp
 90c:	a8c17bfd 	ldp	x29, x30, [sp], #16
 910:	d65f03c0 	ret
