
add_int_Ada_aarch64_g:     file format elf64-littleaarch64
add_int_Ada_aarch64_g
architecture: aarch64, flags 0x00000150:
HAS_SYMS, DYNAMIC, D_PAGED
start address 0x00000000000011d0

Program Header:
    PHDR off    0x0000000000000040 vaddr 0x0000000000000040 paddr 0x0000000000000040 align 2**3
         filesz 0x00000000000001f8 memsz 0x00000000000001f8 flags r--
  INTERP off    0x0000000000000238 vaddr 0x0000000000000238 paddr 0x0000000000000238 align 2**0
         filesz 0x000000000000001b memsz 0x000000000000001b flags r--
    LOAD off    0x0000000000000000 vaddr 0x0000000000000000 paddr 0x0000000000000000 align 2**16
         filesz 0x0000000000001824 memsz 0x0000000000001824 flags r-x
    LOAD off    0x0000000000001c68 vaddr 0x0000000000011c68 paddr 0x0000000000011c68 align 2**16
         filesz 0x00000000000003ab memsz 0x00000000000003b0 flags rw-
 DYNAMIC off    0x0000000000001c78 vaddr 0x0000000000011c78 paddr 0x0000000000011c78 align 2**3
         filesz 0x0000000000000200 memsz 0x0000000000000200 flags rw-
    NOTE off    0x0000000000000254 vaddr 0x0000000000000254 paddr 0x0000000000000254 align 2**2
         filesz 0x0000000000000044 memsz 0x0000000000000044 flags r--
EH_FRAME off    0x000000000000175c vaddr 0x000000000000175c paddr 0x000000000000175c align 2**2
         filesz 0x000000000000002c memsz 0x000000000000002c flags r--
   STACK off    0x0000000000000000 vaddr 0x0000000000000000 paddr 0x0000000000000000 align 2**4
         filesz 0x0000000000000000 memsz 0x0000000000000000 flags rw-
   RELRO off    0x0000000000001c68 vaddr 0x0000000000011c68 paddr 0x0000000000011c68 align 2**0
         filesz 0x0000000000000398 memsz 0x0000000000000398 flags r--

Dynamic Section:
  NEEDED               libgnat-7.so.1
  NEEDED               libc.so.6
  INIT                 0x00000000000010b8
  FINI                 0x0000000000001634
  INIT_ARRAY           0x0000000000011c68
  INIT_ARRAYSZ         0x0000000000000008
  FINI_ARRAY           0x0000000000011c70
  FINI_ARRAYSZ         0x0000000000000008
  GNU_HASH             0x0000000000000298
  STRTAB               0x00000000000007c0
  SYMTAB               0x00000000000002e0
  STRSZ                0x00000000000003ed
  SYMENT               0x0000000000000018
  DEBUG                0x0000000000000000
  PLTGOT               0x0000000000011e78
  PLTRELSZ             0x0000000000000150
  PLTREL               0x0000000000000007
  JMPREL               0x0000000000000f68
  RELA                 0x0000000000000c38
  RELASZ               0x0000000000000330
  RELAENT              0x0000000000000018
  FLAGS                0x0000000000000008
  FLAGS_1              0x0000000008000001
  VERNEED              0x0000000000000c18
  VERNEEDNUM           0x0000000000000001
  VERSYM               0x0000000000000bae
  RELACOUNT            0x0000000000000006

Version References:
  required from libc.so.6:
    0x06969197 0x00 02 GLIBC_2.17
private flags = 0:

Sections:
Idx Name          Size      VMA               LMA               File off  Algn
  0 .interp       0000001b  0000000000000238  0000000000000238  00000238  2**0
                  CONTENTS, ALLOC, LOAD, READONLY, DATA
  1 .note.ABI-tag 00000020  0000000000000254  0000000000000254  00000254  2**2
                  CONTENTS, ALLOC, LOAD, READONLY, DATA
  2 .note.gnu.build-id 00000024  0000000000000274  0000000000000274  00000274  2**2
                  CONTENTS, ALLOC, LOAD, READONLY, DATA
  3 .gnu.hash     00000048  0000000000000298  0000000000000298  00000298  2**3
                  CONTENTS, ALLOC, LOAD, READONLY, DATA
  4 .dynsym       000004e0  00000000000002e0  00000000000002e0  000002e0  2**3
                  CONTENTS, ALLOC, LOAD, READONLY, DATA
  5 .dynstr       000003ed  00000000000007c0  00000000000007c0  000007c0  2**0
                  CONTENTS, ALLOC, LOAD, READONLY, DATA
  6 .gnu.version  00000068  0000000000000bae  0000000000000bae  00000bae  2**1
                  CONTENTS, ALLOC, LOAD, READONLY, DATA
  7 .gnu.version_r 00000020  0000000000000c18  0000000000000c18  00000c18  2**3
                  CONTENTS, ALLOC, LOAD, READONLY, DATA
  8 .rela.dyn     00000330  0000000000000c38  0000000000000c38  00000c38  2**3
                  CONTENTS, ALLOC, LOAD, READONLY, DATA
  9 .rela.plt     00000150  0000000000000f68  0000000000000f68  00000f68  2**3
                  CONTENTS, ALLOC, LOAD, READONLY, DATA
 10 .init         00000014  00000000000010b8  00000000000010b8  000010b8  2**2
                  CONTENTS, ALLOC, LOAD, READONLY, CODE
 11 .plt          00000100  00000000000010d0  00000000000010d0  000010d0  2**4
                  CONTENTS, ALLOC, LOAD, READONLY, CODE
 12 .text         00000464  00000000000011d0  00000000000011d0  000011d0  2**3
                  CONTENTS, ALLOC, LOAD, READONLY, CODE
 13 .fini         00000010  0000000000001634  0000000000001634  00001634  2**2
                  CONTENTS, ALLOC, LOAD, READONLY, CODE
 14 .rodata       00000111  0000000000001648  0000000000001648  00001648  2**3
                  CONTENTS, ALLOC, LOAD, READONLY, DATA
 15 .eh_frame_hdr 0000002c  000000000000175c  000000000000175c  0000175c  2**2
                  CONTENTS, ALLOC, LOAD, READONLY, DATA
 16 .eh_frame     0000009c  0000000000001788  0000000000001788  00001788  2**3
                  CONTENTS, ALLOC, LOAD, READONLY, DATA
 17 .init_array   00000008  0000000000011c68  0000000000011c68  00001c68  2**3
                  CONTENTS, ALLOC, LOAD, DATA
 18 .fini_array   00000008  0000000000011c70  0000000000011c70  00001c70  2**3
                  CONTENTS, ALLOC, LOAD, DATA
 19 .dynamic      00000200  0000000000011c78  0000000000011c78  00001c78  2**3
                  CONTENTS, ALLOC, LOAD, DATA
 20 .got          00000188  0000000000011e78  0000000000011e78  00001e78  2**3
                  CONTENTS, ALLOC, LOAD, DATA
 21 .data         00000013  0000000000012000  0000000000012000  00002000  2**3
                  CONTENTS, ALLOC, LOAD, DATA
 22 .bss          00000005  0000000000012013  0000000000012013  00002013  2**0
                  ALLOC
 23 .comment      00000031  0000000000000000  0000000000000000  00002013  2**0
                  CONTENTS, READONLY
 24 .debug_aranges 00000060  0000000000000000  0000000000000000  00002044  2**0
                  CONTENTS, READONLY, DEBUGGING
 25 .debug_info   000007e6  0000000000000000  0000000000000000  000020a4  2**0
                  CONTENTS, READONLY, DEBUGGING
 26 .debug_abbrev 0000013a  0000000000000000  0000000000000000  0000288a  2**0
                  CONTENTS, READONLY, DEBUGGING
 27 .debug_line   00000138  0000000000000000  0000000000000000  000029c4  2**0
                  CONTENTS, READONLY, DEBUGGING
 28 .debug_str    00000b96  0000000000000000  0000000000000000  00002afc  2**0
                  CONTENTS, READONLY, DEBUGGING
SYMBOL TABLE:
0000000000000238 l    d  .interp	0000000000000000              .interp
0000000000000254 l    d  .note.ABI-tag	0000000000000000              .note.ABI-tag
0000000000000274 l    d  .note.gnu.build-id	0000000000000000              .note.gnu.build-id
0000000000000298 l    d  .gnu.hash	0000000000000000              .gnu.hash
00000000000002e0 l    d  .dynsym	0000000000000000              .dynsym
00000000000007c0 l    d  .dynstr	0000000000000000              .dynstr
0000000000000bae l    d  .gnu.version	0000000000000000              .gnu.version
0000000000000c18 l    d  .gnu.version_r	0000000000000000              .gnu.version_r
0000000000000c38 l    d  .rela.dyn	0000000000000000              .rela.dyn
0000000000000f68 l    d  .rela.plt	0000000000000000              .rela.plt
00000000000010b8 l    d  .init	0000000000000000              .init
00000000000010d0 l    d  .plt	0000000000000000              .plt
00000000000011d0 l    d  .text	0000000000000000              .text
0000000000001634 l    d  .fini	0000000000000000              .fini
0000000000001648 l    d  .rodata	0000000000000000              .rodata
000000000000175c l    d  .eh_frame_hdr	0000000000000000              .eh_frame_hdr
0000000000001788 l    d  .eh_frame	0000000000000000              .eh_frame
0000000000011c68 l    d  .init_array	0000000000000000              .init_array
0000000000011c70 l    d  .fini_array	0000000000000000              .fini_array
0000000000011c78 l    d  .dynamic	0000000000000000              .dynamic
0000000000011e78 l    d  .got	0000000000000000              .got
0000000000012000 l    d  .data	0000000000000000              .data
0000000000012013 l    d  .bss	0000000000000000              .bss
0000000000000000 l    d  .comment	0000000000000000              .comment
0000000000000000 l    d  .debug_aranges	0000000000000000              .debug_aranges
0000000000000000 l    d  .debug_info	0000000000000000              .debug_info
0000000000000000 l    d  .debug_abbrev	0000000000000000              .debug_abbrev
0000000000000000 l    d  .debug_line	0000000000000000              .debug_line
0000000000000000 l    d  .debug_str	0000000000000000              .debug_str
0000000000000000 l    df *ABS*	0000000000000000              /usr/lib/gcc/aarch64-linux-gnu/7/../../../aarch64-linux-gnu/Scrt1.o
0000000000000000 l    df *ABS*	0000000000000000              /usr/lib/gcc/aarch64-linux-gnu/7/../../../aarch64-linux-gnu/crti.o
0000000000001208 l     F .text	0000000000000014              call_weak_fn
0000000000000000 l    df *ABS*	0000000000000000              /usr/lib/gcc/aarch64-linux-gnu/7/../../../aarch64-linux-gnu/crtn.o
0000000000000000 l    df *ABS*	0000000000000000              crtstuff.c
0000000000001220 l     F .text	0000000000000000              deregister_tm_clones
0000000000001250 l     F .text	0000000000000000              register_tm_clones
0000000000001288 l     F .text	0000000000000000              __do_global_dtors_aux
0000000000012013 l     O .bss	0000000000000001              completed.8499
0000000000011c70 l     O .fini_array	0000000000000000              __do_global_dtors_aux_fini_array_entry
00000000000012d0 l     F .text	0000000000000000              frame_dummy
0000000000011c68 l     O .init_array	0000000000000000              __frame_dummy_init_array_entry
0000000000000000 l    df *ABS*	0000000000000000              b~add_int.adb
0000000000012012 l     O .data	0000000000000001              ada_main__is_elaborated
0000000000001750 l     O .rodata	0000000000000001              ada_main__local_priority_specific_dispatching
0000000000001758 l     O .rodata	0000000000000001              ada_main__local_interrupt_states
0000000000000000 l    df *ABS*	0000000000000000              add_int.adb
0000000000000000 l    df *ABS*	0000000000000000              elf-init.oS
0000000000000000 l    df *ABS*	0000000000000000              crtstuff.c
0000000000001820 l     O .eh_frame	0000000000000000              __FRAME_END__
0000000000000000 l    df *ABS*	0000000000000000              
000000000000175c l       .eh_frame_hdr	0000000000000000              __GNU_EH_FRAME_HDR
0000000000011f00 l     O *ABS*	0000000000000000              _GLOBAL_OFFSET_TABLE_
0000000000011c70 l       .init_array	0000000000000000              __init_array_end
0000000000011c68 l       .init_array	0000000000000000              __init_array_start
0000000000011c78 l     O *ABS*	0000000000000000              _DYNAMIC
0000000000012000  w      .data	0000000000000000              data_start
00000000000016bc g     O .rodata	0000000000000004              system__parametersS
0000000000000000       O *UND*	0000000000000000              __gl_task_dispatching_policy
00000000000016d0 g     O .rodata	0000000000000004              system__stack_checkingB
000000000000168c g     O .rodata	0000000000000004              gnat__ioS
0000000000001630 g     F .text	0000000000000004              __libc_csu_fini
000000000000171c g     O .rodata	0000000000000004              system__address_imageB
00000000000011d0 g     F .text	0000000000000000              _start
0000000000000000       F *UND*	0000000000000000              __libc_start_main@@GLIBC_2.17
0000000000001588 g     F .text	0000000000000028              _ada_add_int
0000000000000000       F *UND*	0000000000000000              __gnat_finalize
0000000000000000  w      *UND*	0000000000000000              __gmon_start__
00000000000016b8 g     O .rodata	0000000000000004              system__parametersB
0000000000001668 g     O .rodata	000000000000000d              __gnat_ada_main_program_name
0000000000000000       O *UND*	0000000000000000              system__secondary_stack_E
00000000000016f0 g     O .rodata	0000000000000004              system__exceptions_debugS
0000000000000000       O *UND*	0000000000000000              system__soft_links_E
00000000000016c8 g     O .rodata	0000000000000004              system__storage_elementsB
0000000000001634 g     F .fini	0000000000000000              _fini
0000000000001684 g     O .rodata	0000000000000004              gnatS
0000000000001678 g     O .rodata	0000000000000004              add_intB
000000000000167c g     O .rodata	0000000000000004              system__standard_libraryB
0000000000000000       F *UND*	0000000000000000              system__secondary_stack___elabb
0000000000000000       O *UND*	0000000000000000              gnat_envp
00000000000016f4 g     O .rodata	0000000000000004              system__img_intB
0000000000001744 g     O .rodata	0000000000000004              system__wch_jisS
00000000000016b4 g     O .rodata	0000000000000004              system__soft_linksS
0000000000001748 g     O .rodata	0000000000000004              system__crtlS
00000000000016a4 g     O .rodata	0000000000000004              adaS
0000000000000000       F *UND*	0000000000000000              system__soft_links___elabb
00000000000016a8 g     O .rodata	0000000000000004              ada__exceptions__last_chance_handlerB
00000000000016e4 g     O .rodata	0000000000000004              system__exceptionsS
00000000000016a0 g     O .rodata	0000000000000004              ada__exceptionsS
0000000000000000  w    F *UND*	0000000000000000              __cxa_finalize@@GLIBC_2.17
0000000000000000       O *UND*	0000000000000000              __gl_interrupt_states
0000000000000000  w      *UND*	0000000000000000              _ITM_deregisterTMCloneTable
0000000000001648 g     O .rodata	0000000000000004              _IO_stdin_used
0000000000000000       O *UND*	0000000000000000              __gnat_finalize_library_objects
0000000000001700 g     O .rodata	0000000000000004              system__tracebackS
0000000000000000  w      *UND*	0000000000000000              _ITM_registerTMCloneTable
0000000000012000 g       .data	0000000000000000              __data_start
0000000000000000       F *UND*	0000000000000000              system__exceptions___elabs
0000000000000000       F *UND*	0000000000000000              system__exception_table___elabb
0000000000000000       F *UND*	0000000000000000              abort@@GLIBC_2.17
0000000000012013 g       .bss	0000000000000000              __bss_start__
0000000000001694 g     O .rodata	0000000000000004              system__memoryB
0000000000000000       F *UND*	0000000000000000              system__standard_library__adafinal
00000000000016ec g     O .rodata	0000000000000004              system__exceptions_debugB
00000000000012d8 g     F .text	000000000000004c              adafinal
0000000000001714 g     O .rodata	0000000000000004              ada__exceptions__tracebackB
0000000000000000       F *UND*	0000000000000000              __gnat_initialize
0000000000001724 g     O .rodata	0000000000000004              system__wch_conB
0000000000001730 g     O .rodata	0000000000000004              system__wch_stwS
0000000000001328 g     F .text	00000000000001dc              adainit
0000000000012018 g     O .data	0000000000000000              .hidden __TMC_END__
00000000000016d8 g     O .rodata	0000000000000004              system__exception_tableB
0000000000000000       F *UND*	0000000000000000              __gnat_runtime_finalize
0000000000000000       O *UND*	0000000000000000              __gl_main_cpu
0000000000012008 g     O .data	0000000000000000              .hidden __dso_handle
00000000000016f8 g     O .rodata	0000000000000004              system__img_intS
00000000000016c4 g     O .rodata	0000000000000004              system__secondary_stackS
0000000000012018 g       .bss	0000000000000000              __end__
0000000000001738 g     O .rodata	0000000000000004              system__wch_cnvS
00000000000015b0 g     F .text	0000000000000080              __libc_csu_init
0000000000012018 g       .bss	0000000000000000              __bss_end__
00000000000016e8 g     O .rodata	0000000000000004              system__exceptions__machineS
0000000000000000       F *UND*	0000000000000000              system__soft_links___elabs
0000000000001698 g     O .rodata	0000000000000004              system__memoryS
0000000000000000       O *UND*	0000000000000000              __gl_locking_policy
0000000000001704 g     O .rodata	0000000000000004              system__traceback_entriesB
0000000000000000       O *UND*	0000000000000000              __gl_time_slice_val
0000000000000000       O *UND*	0000000000000000              gnat_exit_status
0000000000000000       O *UND*	0000000000000000              __gl_leap_seconds_support
00000000000016ac g     O .rodata	0000000000000004              ada__exceptions__last_chance_handlerS
0000000000000000       O *UND*	0000000000000000              __gl_unreserve_all_interrupts
00000000000016b0 g     O .rodata	0000000000000004              system__soft_linksB
000000000000169c g     O .rodata	0000000000000004              ada__exceptionsB
0000000000012013 g       .bss	0000000000000000              __bss_start
000000000000173c g     O .rodata	0000000000000004              interfacesS
00000000000016cc g     O .rodata	0000000000000004              system__storage_elementsS
0000000000012018 g       .bss	0000000000000000              _bss_end__
0000000000000000       O *UND*	0000000000000000              __gl_wc_encoding
00000000000016d4 g     O .rodata	0000000000000004              system__stack_checkingS
0000000000001688 g     O .rodata	0000000000000004              gnat__ioB
0000000000012010 g     O .data	0000000000000002              ada_main_E
00000000000016fc g     O .rodata	0000000000000004              system__tracebackB
0000000000001650 g     O .rodata	0000000000000014              __gnat_version
0000000000001734 g     O .rodata	0000000000000004              system__wch_cnvB
0000000000000000       O *UND*	0000000000000000              gnat_argv
00000000000016dc g     O .rodata	0000000000000004              system__exception_tableS
0000000000012018 g       .bss	0000000000000000              _end
0000000000001720 g     O .rodata	0000000000000004              system__address_imageS
00000000000016e0 g     O .rodata	0000000000000004              system__exceptionsB
00000000000016c0 g     O .rodata	0000000000000004              system__secondary_stackB
0000000000000000       O *UND*	0000000000000000              __gl_queuing_policy
0000000000001728 g     O .rodata	0000000000000004              system__wch_conS
0000000000000000       O *UND*	0000000000000000              __gl_num_specific_dispatching
000000000000172c g     O .rodata	0000000000000004              system__wch_stwB
0000000000000000       O *UND*	0000000000000000              __gl_main_priority
0000000000000000       O *UND*	0000000000000000              __gl_priority_specific_dispatching
0000000000001708 g     O .rodata	0000000000000004              system__traceback_entriesS
0000000000000000       O *UND*	0000000000000000              system__exceptions_E
0000000000000000       O *UND*	0000000000000000              __gl_detect_blocking
0000000000001718 g     O .rodata	0000000000000004              ada__exceptions__tracebackS
0000000000000000       O *UND*	0000000000000000              gnat_argc
0000000000000000       O *UND*	0000000000000000              __gl_num_interrupt_states
0000000000001710 g     O .rodata	0000000000000004              system__traceback__symbolicS
0000000000012013 g       .data	0000000000000000              _edata
0000000000000000       O *UND*	0000000000000000              system__exception_table_E
0000000000000000       O *UND*	0000000000000000              __gl_default_stack_size
0000000000000000       F *UND*	0000000000000000              __gnat_runtime_initialize
0000000000001690 g     O .rodata	0000000000000004              systemS
0000000000001740 g     O .rodata	0000000000000004              system__wch_jisB
000000000000170c g     O .rodata	0000000000000004              system__traceback__symbolicB
0000000000001508 g     F .text	000000000000007c              main
00000000000010b8 g     F .init	0000000000000000              _init
0000000000001680 g     O .rodata	0000000000000004              system__standard_libraryS


Contents of section .interp:
 0238 2f6c6962 2f6c642d 6c696e75 782d6161  /lib/ld-linux-aa
 0248 72636836 342e736f 2e3100             rch64.so.1.     
Contents of section .note.ABI-tag:
 0254 04000000 10000000 01000000 474e5500  ............GNU.
 0264 00000000 03000000 07000000 00000000  ................
Contents of section .note.gnu.build-id:
 0274 04000000 14000000 03000000 474e5500  ............GNU.
 0284 5cc3b0a0 1bf3739a 40c56e99 2cd3cc82  \.....s.@.n.,...
 0294 319e78c6                             1.x.            
Contents of section .gnu.hash:
 0298 03000000 2b000000 01000000 06000000  ....+...........
 02a8 89c02201 000440b9 2b000000 2e000000  .."...@.+.......
 02b8 31000000 00af34e8 bae3927c 4345d5ec  1.....4....|CE..
 02c8 beda571b d871581c b98df10e ead3ef0e  ..W..qX.........
 02d8 76543c94 59ef9779                    vT<.Y..y        
Contents of section .dynsym:
 02e0 00000000 00000000 00000000 00000000  ................
 02f0 00000000 00000000 00000000 03000b00  ................
 0300 b8100000 00000000 00000000 00000000  ................
 0310 00000000 03001600 00200100 00000000  ......... ......
 0320 00000000 00000000 55000000 11000000  ........U.......
 0330 00000000 00000000 00000000 00000000  ................
 0340 90030000 12000000 00000000 00000000  ................
 0350 00000000 00000000 3c010000 12000000  ........<.......
 0360 00000000 00000000 00000000 00000000  ................
 0370 10000000 20000000 00000000 00000000  .... ...........
 0380 00000000 00000000 4c010000 11000000  ........L.......
 0390 00000000 00000000 00000000 00000000  ................
 03a0 2f020000 11000000 00000000 00000000  /...............
 03b0 00000000 00000000 ea010000 12000000  ................
 03c0 00000000 00000000 00000000 00000000  ................
 03d0 af000000 11000000 00000000 00000000  ................
 03e0 00000000 00000000 0e030000 12000000  ................
 03f0 00000000 00000000 00000000 00000000  ................
 0400 81030000 22000000 00000000 00000000  ...."...........
 0410 00000000 00000000 8f020000 11000000  ................
 0420 00000000 00000000 00000000 00000000  ................
 0430 1f000000 20000000 00000000 00000000  .... ...........
 0440 00000000 00000000 44030000 11000000  ........D.......
 0450 00000000 00000000 00000000 00000000  ................
 0460 3b000000 20000000 00000000 00000000  ;... ...........
 0470 00000000 00000000 74020000 12000000  ........t.......
 0480 00000000 00000000 00000000 00000000  ................
 0490 ee020000 12000000 00000000 00000000  ................
 04a0 00000000 00000000 a2030000 12000000  ................
 04b0 00000000 00000000 00000000 00000000  ................
 04c0 86000000 12000000 00000000 00000000  ................
 04d0 00000000 00000000 62020000 12000000  ........b.......
 04e0 00000000 00000000 00000000 00000000  ................
 04f0 c1010000 12000000 00000000 00000000  ................
 0500 00000000 00000000 66010000 11000000  ........f.......
 0510 00000000 00000000 00000000 00000000  ................
 0520 29030000 12000000 00000000 00000000  )...............
 0530 00000000 00000000 eb000000 11000000  ................
 0540 00000000 00000000 00000000 00000000  ................
 0550 d7000000 11000000 00000000 00000000  ................
 0560 00000000 00000000 d9010000 11000000  ................
 0570 00000000 00000000 00000000 00000000  ................
 0580 8f010000 11000000 00000000 00000000  ................
 0590 00000000 00000000 44020000 11000000  ........D.......
 05a0 00000000 00000000 00000000 00000000  ................
 05b0 1e020000 11000000 00000000 00000000  ................
 05c0 00000000 00000000 7c000000 11000000  ........|.......
 05d0 00000000 00000000 00000000 00000000  ................
 05e0 0a020000 11000000 00000000 00000000  ................
 05f0 00000000 00000000 b9000000 11000000  ................
 0600 00000000 00000000 00000000 00000000  ................
 0610 64030000 11000000 00000000 00000000  d...............
 0620 00000000 00000000 ff000000 11000000  ................
 0630 00000000 00000000 00000000 00000000  ................
 0640 a5020000 11000000 00000000 00000000  ................
 0650 00000000 00000000 74010000 11000000  ........t.......
 0660 00000000 00000000 00000000 00000000  ................
 0670 72000000 11000000 00000000 00000000  r...............
 0680 00000000 00000000 22010000 11000000  ........".......
 0690 00000000 00000000 00000000 00000000  ................
 06a0 d4020000 11000000 00000000 00000000  ................
 06b0 00000000 00000000 a9010000 11000000  ................
 06c0 00000000 00000000 00000000 00000000  ................
 06d0 ba020000 12000000 00000000 00000000  ................
 06e0 00000000 00000000 ca030000 10001700  ................
 06f0 18200100 00000000 00000000 00000000  . ..............
 0700 dd030000 10001700 18200100 00000000  ......... ......
 0710 00000000 00000000 a8030000 10001600  ................
 0720 13200100 00000000 00000000 00000000  . ..............
 0730 c9030000 10001700 18200100 00000000  ......... ......
 0740 00000000 00000000 af030000 10001700  ................
 0750 13200100 00000000 00000000 00000000  . ..............
 0760 a9000000 12000b00 b8100000 00000000  ................
 0770 00000000 00000000 89010000 12000e00  ................
 0780 34160000 00000000 00000000 00000000  4...............
 0790 bb030000 10001700 13200100 00000000  ......... ......
 07a0 00000000 00000000 d5030000 10001700  ................
 07b0 18200100 00000000 00000000 00000000  . ..............
Contents of section .dynstr:
 07c0 006c6962 676e6174 2d372e73 6f2e3100  .libgnat-7.so.1.
 07d0 5f5f676d 6f6e5f73 74617274 5f5f005f  __gmon_start__._
 07e0 49544d5f 64657265 67697374 6572544d  ITM_deregisterTM
 07f0 436c6f6e 65546162 6c65005f 49544d5f  CloneTable._ITM_
 0800 72656769 73746572 544d436c 6f6e6554  registerTMCloneT
 0810 61626c65 005f5f67 6c5f7461 736b5f64  able.__gl_task_d
 0820 69737061 74636869 6e675f70 6f6c6963  ispatching_polic
 0830 7900676e 61745f61 72676300 676e6174  y.gnat_argc.gnat
 0840 5f617267 76007379 7374656d 5f5f7374  _argv.system__st
 0850 616e6461 72645f6c 69627261 72795f5f  andard_library__
 0860 61646166 696e616c 005f696e 69740067  adafinal._init.g
 0870 6e61745f 656e7670 005f5f67 6c5f6e75  nat_envp.__gl_nu
 0880 6d5f7370 65636966 69635f64 69737061  m_specific_dispa
 0890 74636869 6e67005f 5f676c5f 74696d65  tching.__gl_time
 08a0 5f736c69 63655f76 616c005f 5f676c5f  _slice_val.__gl_
 08b0 6c6f636b 696e675f 706f6c69 6379005f  locking_policy._
 08c0 5f676c5f 7072696f 72697479 5f737065  _gl_priority_spe
 08d0 63696669 635f6469 73706174 6368696e  cific_dispatchin
 08e0 67005f5f 676c5f6e 756d5f69 6e746572  g.__gl_num_inter
 08f0 72757074 5f737461 74657300 5f5f676e  rupt_states.__gn
 0900 61745f66 696e616c 697a6500 73797374  at_finalize.syst
 0910 656d5f5f 7365636f 6e646172 795f7374  em__secondary_st
 0920 61636b5f 45005f5f 676c5f6d 61696e5f  ack_E.__gl_main_
 0930 63707500 5f5f676c 5f646574 6563745f  cpu.__gl_detect_
 0940 626c6f63 6b696e67 005f6669 6e69005f  blocking._fini._
 0950 5f676c5f 6c656170 5f736563 6f6e6473  _gl_leap_seconds
 0960 5f737570 706f7274 005f5f67 6c5f6465  _support.__gl_de
 0970 6661756c 745f7374 61636b5f 73697a65  fault_stack_size
 0980 005f5f67 6e61745f 72756e74 696d655f  .__gnat_runtime_
 0990 66696e61 6c697a65 00676e61 745f6578  finalize.gnat_ex
 09a0 69745f73 74617475 73007379 7374656d  it_status.system
 09b0 5f5f7365 636f6e64 6172795f 73746163  __secondary_stac
 09c0 6b5f5f5f 656c6162 62005f5f 676c5f71  k___elabb.__gl_q
 09d0 75657569 6e675f70 6f6c6963 79005f5f  ueuing_policy.__
 09e0 676c5f77 635f656e 636f6469 6e670073  gl_wc_encoding.s
 09f0 79737465 6d5f5f73 6f66745f 6c696e6b  ystem__soft_link
 0a00 735f4500 5f5f676c 5f756e72 65736572  s_E.__gl_unreser
 0a10 76655f61 6c6c5f69 6e746572 72757074  ve_all_interrupt
 0a20 73005f5f 676e6174 5f696e69 7469616c  s.__gnat_initial
 0a30 697a6500 73797374 656d5f5f 65786365  ize.system__exce
 0a40 7074696f 6e735f5f 5f656c61 6273005f  ptions___elabs._
 0a50 5f676c5f 696e7465 72727570 745f7374  _gl_interrupt_st
 0a60 61746573 00737973 74656d5f 5f657863  ates.system__exc
 0a70 65707469 6f6e735f 45005f5f 676e6174  eptions_E.__gnat
 0a80 5f72756e 74696d65 5f696e69 7469616c  _runtime_initial
 0a90 697a6500 73797374 656d5f5f 65786365  ize.system__exce
 0aa0 7074696f 6e5f7461 626c655f 45007379  ption_table_E.sy
 0ab0 7374656d 5f5f6578 63657074 696f6e5f  stem__exception_
 0ac0 7461626c 655f5f5f 656c6162 62007379  table___elabb.sy
 0ad0 7374656d 5f5f736f 66745f6c 696e6b73  stem__soft_links
 0ae0 5f5f5f65 6c616262 00737973 74656d5f  ___elabb.system_
 0af0 5f736f66 745f6c69 6e6b735f 5f5f656c  _soft_links___el
 0b00 61627300 5f5f676e 61745f66 696e616c  abs.__gnat_final
 0b10 697a655f 6c696272 6172795f 6f626a65  ize_library_obje
 0b20 63747300 5f5f676c 5f6d6169 6e5f7072  cts.__gl_main_pr
 0b30 696f7269 7479006c 6962632e 736f2e36  iority.libc.so.6
 0b40 005f5f63 78615f66 696e616c 697a6500  .__cxa_finalize.
 0b50 5f5f6c69 62635f73 74617274 5f6d6169  __libc_start_mai
 0b60 6e006162 6f727400 5f656461 7461005f  n.abort._edata._
 0b70 5f627373 5f737461 7274005f 5f627373  _bss_start.__bss
 0b80 5f737461 72745f5f 005f5f62 73735f65  _start__.__bss_e
 0b90 6e645f5f 005f5f65 6e645f5f 005f656e  nd__.__end__._en
 0ba0 6400474c 4942435f 322e3137 00        d.GLIBC_2.17.   
Contents of section .gnu.version:
 0bae 00000000 00000000 02000000 00000000  ................
 0bbe 00000000 00000000 02000000 00000000  ................
 0bce 00000000 00000200 00000000 00000000  ................
 0bde 00000000 00000000 00000000 00000000  ................
 0bee 00000000 00000000 00000000 00000000  ................
 0bfe 00000000 00000100 01000100 01000100  ................
 0c0e 01000100 01000100                    ........        
Contents of section .gnu.version_r:
 0c18 01000100 77030000 10000000 00000000  ....w...........
 0c28 97919606 00000200 e2030000 00000000  ................
Contents of section .rela.dyn:
 0c38 681c0100 00000000 03040000 00000000  h...............
 0c48 d0120000 00000000 701c0100 00000000  ........p.......
 0c58 03040000 00000000 88120000 00000000  ................
 0c68 101f0100 00000000 03040000 00000000  ................
 0c78 30160000 00000000 681f0100 00000000  0.......h.......
 0c88 03040000 00000000 b0150000 00000000  ................
 0c98 f81f0100 00000000 03040000 00000000  ................
 0ca8 08150000 00000000 08200100 00000000  ......... ......
 0cb8 03040000 00000000 08200100 00000000  ......... ......
 0cc8 081f0100 00000000 01040000 03000000  ................
 0cd8 00000000 00000000 181f0100 00000000  ................
 0ce8 01040000 06000000 00000000 00000000  ................
 0cf8 201f0100 00000000 01040000 07000000   ...............
 0d08 00000000 00000000 281f0100 00000000  ........(.......
 0d18 01040000 08000000 00000000 00000000  ................
 0d28 301f0100 00000000 01040000 0a000000  0...............
 0d38 00000000 00000000 381f0100 00000000  ........8.......
 0d48 01040000 0c000000 00000000 00000000  ................
 0d58 401f0100 00000000 01040000 0d000000  @...............
 0d68 00000000 00000000 481f0100 00000000  ........H.......
 0d78 01040000 0e000000 00000000 00000000  ................
 0d88 501f0100 00000000 01040000 0f000000  P...............
 0d98 00000000 00000000 581f0100 00000000  ........X.......
 0da8 01040000 10000000 00000000 00000000  ................
 0db8 601f0100 00000000 01040000 17000000  `...............
 0dc8 00000000 00000000 701f0100 00000000  ........p.......
 0dd8 01040000 19000000 00000000 00000000  ................
 0de8 781f0100 00000000 01040000 1a000000  x...............
 0df8 00000000 00000000 801f0100 00000000  ................
 0e08 01040000 1b000000 00000000 00000000  ................
 0e18 881f0100 00000000 01040000 1c000000  ................
 0e28 00000000 00000000 901f0100 00000000  ................
 0e38 01040000 1d000000 00000000 00000000  ................
 0e48 981f0100 00000000 01040000 1e000000  ................
 0e58 00000000 00000000 a01f0100 00000000  ................
 0e68 01040000 1f000000 00000000 00000000  ................
 0e78 a81f0100 00000000 01040000 20000000  ............ ...
 0e88 00000000 00000000 b01f0100 00000000  ................
 0e98 01040000 21000000 00000000 00000000  ....!...........
 0ea8 b81f0100 00000000 01040000 22000000  ............"...
 0eb8 00000000 00000000 c01f0100 00000000  ................
 0ec8 01040000 23000000 00000000 00000000  ....#...........
 0ed8 c81f0100 00000000 01040000 24000000  ............$...
 0ee8 00000000 00000000 d01f0100 00000000  ................
 0ef8 01040000 25000000 00000000 00000000  ....%...........
 0f08 d81f0100 00000000 01040000 26000000  ............&...
 0f18 00000000 00000000 e01f0100 00000000  ................
 0f28 01040000 27000000 00000000 00000000  ....'...........
 0f38 e81f0100 00000000 01040000 28000000  ............(...
 0f48 00000000 00000000 f01f0100 00000000  ................
 0f58 01040000 29000000 00000000 00000000  ....)...........
Contents of section .rela.plt:
 0f68 901e0100 00000000 02040000 04000000  ................
 0f78 00000000 00000000 981e0100 00000000  ................
 0f88 02040000 05000000 00000000 00000000  ................
 0f98 a01e0100 00000000 02040000 06000000  ................
 0fa8 00000000 00000000 a81e0100 00000000  ................
 0fb8 02040000 09000000 00000000 00000000  ................
 0fc8 b01e0100 00000000 02040000 0b000000  ................
 0fd8 00000000 00000000 b81e0100 00000000  ................
 0fe8 02040000 0c000000 00000000 00000000  ................
 0ff8 c01e0100 00000000 02040000 11000000  ................
 1008 00000000 00000000 c81e0100 00000000  ................
 1018 02040000 12000000 00000000 00000000  ................
 1028 d01e0100 00000000 02040000 13000000  ................
 1038 00000000 00000000 d81e0100 00000000  ................
 1048 02040000 14000000 00000000 00000000  ................
 1058 e01e0100 00000000 02040000 15000000  ................
 1068 00000000 00000000 e81e0100 00000000  ................
 1078 02040000 16000000 00000000 00000000  ................
 1088 f01e0100 00000000 02040000 18000000  ................
 1098 00000000 00000000 f81e0100 00000000  ................
 10a8 02040000 2a000000 00000000 00000000  ....*...........
Contents of section .init:
 10b8 fd7bbfa9 fd030091 52000094 fd7bc1a8  .{......R....{..
 10c8 c0035fd6                             .._.            
Contents of section .plt:
 10d0 f07bbfa9 90000090 114647f9 10223a91  .{.......FG..":.
 10e0 20021fd6 1f2003d5 1f2003d5 1f2003d5   .... ... ... ..
 10f0 90000090 114a47f9 10423a91 20021fd6  .....JG..B:. ...
 1100 90000090 114e47f9 10623a91 20021fd6  .....NG..b:. ...
 1110 90000090 115247f9 10823a91 20021fd6  .....RG...:. ...
 1120 90000090 115647f9 10a23a91 20021fd6  .....VG...:. ...
 1130 90000090 115a47f9 10c23a91 20021fd6  .....ZG...:. ...
 1140 90000090 115e47f9 10e23a91 20021fd6  .....^G...:. ...
 1150 90000090 116247f9 10023b91 20021fd6  .....bG...;. ...
 1160 90000090 116647f9 10223b91 20021fd6  .....fG..";. ...
 1170 90000090 116a47f9 10423b91 20021fd6  .....jG..B;. ...
 1180 90000090 116e47f9 10623b91 20021fd6  .....nG..b;. ...
 1190 90000090 117247f9 10823b91 20021fd6  .....rG...;. ...
 11a0 90000090 117647f9 10a23b91 20021fd6  .....vG...;. ...
 11b0 90000090 117a47f9 10c23b91 20021fd6  .....zG...;. ...
 11c0 90000090 117e47f9 10e23b91 20021fd6  .....~G...;. ...
Contents of section .text:
 11d0 1d0080d2 1e0080d2 e50300aa e10340f9  ..............@.
 11e0 e2230091 e6030091 80000090 00fc47f9  .#............G.
 11f0 83000090 63b447f9 84000090 848847f9  ....c.G.......G.
 1200 bcffff97 dbffff97 80000090 008c47f9  ..............G.
 1210 400000b4 bfffff17 c0035fd6 00000000  @........._.....
 1220 800000b0 00600091 810000b0 21600091  .....`......!`..
 1230 3f0000eb a0000054 81000090 21a447f9  ?......T....!.G.
 1240 410000b4 20001fd6 c0035fd6 1f2003d5  A... ....._.. ..
 1250 800000b0 00600091 810000b0 21600091  .....`......!`..
 1260 210000cb 21fc4393 21fc418b 21fc4193  !...!.C.!.A.!.A.
 1270 a10000b4 82000090 42ac47f9 420000b4  ........B.G.B...
 1280 40001fd6 c0035fd6 fd7bbea9 fd030091  @....._..{......
 1290 f30b00f9 930000b0 604e4039 40010035  ........`N@9@..5
 12a0 80000090 009c47f9 800000b4 800000b0  ......G.........
 12b0 000440f9 a3ffff97 daffff97 20008052  ..@......... ..R
 12c0 604e0039 f30b40f9 fd7bc2a8 c0035fd6  `N.9..@..{...._.
 12d0 e0ffff17 00000000 fd7bbfa9 fd030091  .........{......
 12e0 800000b0 00480091 00004039 00000052  .....H....@9...R
 12f0 001c0012 1f000071 01010054 800000b0  .......q...T....
 1300 00480091 1f000039 a6ffff97 9dffff97  .H.....9........
 1310 1f2003d5 02000014 1f2003d5 fd7bc1a8  . ....... ...{..
 1320 c0035fd6 1f2003d5 fd7bbfa9 fd030091  .._.. ...{......
 1330 800000b0 00480091 00004039 1f000071  .....H....@9...q
 1340 c10d0054 800000b0 00480091 21008052  ...T.....H..!..R
 1350 01000039 80000090 00dc47f9 01008012  ...9......G.....
 1360 010000b9 80000090 00bc47f9 01008012  ..........G.....
 1370 010000b9 80000090 00cc47f9 410c8052  ..........G.A..R
 1380 01000039 80000090 00b847f9 01048052  ...9......G....R
 1390 01000039 80000090 00d447f9 01048052  ...9......G....R
 13a0 01000039 80000090 008447f9 01048052  ...9......G....R
 13b0 01000039 80000090 00e047f9 01000090  ...9......G.....
 13c0 21401d91 010000f9 80000090 00d847f9  !@............G.
 13d0 1f0000b9 80000090 00b047f9 01008012  ..........G.....
 13e0 010000b9 80000090 00a047f9 01000090  ..........G.....
 13f0 21601d91 010000f9 80000090 00f047f9  !`............G.
 1400 1f0000b9 80000090 00c847f9 1f0000b9  ..........G.....
 1410 80000090 00e847f9 1f0000b9 80000090  ......G.........
 1420 00f847f9 01008012 010000b9 80000090  ..G.............
 1430 00c447f9 1f0000b9 20008052 61ffff97  ..G..... ..Ra...
 1440 80000090 00a847f9 1f0000f9 59ffff97  ......G.....Y...
 1450 44ffff97 80000090 00f447f9 00004079  D.........G...@y
 1460 003c0013 00040011 013c0013 80000090  .<.......<......
 1470 00f447f9 01000079 36ffff97 80000090  ..G....y6.......
 1480 00e447f9 00004079 003c0013 00040011  ..G...@y.<......
 1490 013c0013 80000090 00e447f9 01000079  .<........G....y
 14a0 24ffff97 80000090 009447f9 00004079  $.........G...@y
 14b0 003c0013 00040011 013c0013 80000090  .<.......<......
 14c0 009447f9 01000079 16ffff97 80000090  ..G....y........
 14d0 009047f9 00004079 003c0013 00040011  ..G...@y.<......
 14e0 013c0013 80000090 009047f9 01000079  .<........G....y
 14f0 1f2003d5 02000014 1f2003d5 fd7bc1a8  . ....... ...{..
 1500 c0035fd6 1f2003d5 fd7bbca9 fd030091  .._.. ...{......
 1510 a02f00b9 a11300f9 a20f00f9 00000090  ./..............
 1520 00a01991 a01b00f9 80000090 00ec47f9  ..............G.
 1530 a12f40b9 010000b9 80000090 00d047f9  ./@...........G.
 1540 a11340f9 010000f9 80000090 009847f9  ..@...........G.
 1550 a10f40f9 010000f9 a0e30091 0dffff97  ..@.............
 1560 72ffff97 09000094 5cffff97 e5feff97  r.......\.......
 1570 80000090 00c047f9 000040b9 fd7bc4a8  ......G...@..{..
 1580 c0035fd6 00000000 ff4300d1 60008052  .._......C..`..R
 1590 e00f00b9 a0008052 e00b00b9 00018052  .......R.......R
 15a0 e00700b9 1f2003d5 ff430091 c0035fd6  ..... ...C...._.
 15b0 fd7bbca9 fd030091 f4d701a9 94000090  .{..............
 15c0 95000090 94c23191 b5a23191 f6df02a9  ......1...1.....
 15d0 940215cb f81f00f9 f603002a f70301aa  ...........*....
 15e0 94fe4393 f80302aa b4feff97 940100b4  ..C.............
 15f0 b30b00f9 130080d2 a37a73f8 e20318aa  .........zs.....
 1600 e10317aa e003162a 73060091 60003fd6  .......*s...`.?.
 1610 9f0213eb 21ffff54 b30b40f9 f4d741a9  ....!..T..@...A.
 1620 f6df42a9 f81f40f9 fd7bc4a8 c0035fd6  ..B...@..{...._.
 1630 c0035fd6                             .._.            
Contents of section .fini:
 1634 fd7bbfa9 fd030091 fd7bc1a8 c0035fd6  .{.......{...._.
Contents of section .rodata:
 1648 01000200 00000000 474e4154 20566572  ........GNAT Ver
 1658 73696f6e 3a20372e 332e3000 00000000  sion: 7.3.0.....
 1668 5f616461 5f616464 5f696e74 00000000  _ada_add_int....
 1678 fa8e6f1d 0e93dfb6 9524134f f1d22afd  ..o......$.O..*.
 1688 f50281b4 43e82762 425be677 059035a6  ....C.'bB[.w..5.
 1698 763d9b2e 9cd8e1f3 79164b5f a19d7876  v=......y.K_..xv
 16a8 a9e647e9 2e55e541 b885774e 178362e9  ..G..U.A..wN..b.
 16b8 17ad1db0 3d56cc09 e509ad30 38a474cd  ....=V.....08.t.
 16c8 68f403f1 4611255a 1e7d8341 aa3059f9  h...F.%Z.}.A.0Y.
 16d8 ff48a487 0032482a 20f04ace b436851f  .H...2H* .J..6..
 16e8 dc483d84 fc6305aa 86a26c09 02882f6c  .H=..c....l.../l
 16f8 80bb3d75 178cdf39 8685c429 2595d49e  ..=u...9...)%...
 1708 32adbd77 f210d26f 7af619dd 889d1f70  2..w...oz......p
 1718 755e2420 d3b3009f 78c60ad6 17a5338c  u^$ ....x.....3.
 1728 90799b6c 40e82197 91558a41 9c6731a8  .y.l@.!..U.A.g1.
 1738 63c32c63 6852b55a b6fde6ec 42da5ce3  c.,chR.Z....B.\.
 1748 4c8d7707 00000000 00000000 00000000  L.w.............
 1758 00                                   .               
Contents of section .eh_frame_hdr:
 175c 011b033b 28000000 04000000 7cfbffff  ...;(.......|...
 176c 40000000 ccfbffff 64000000 acfdffff  @.......d.......
 177c 88000000 2cfeffff ac000000           ....,.......    
Contents of section .eh_frame:
 1788 10000000 00000000 017a5200 04781e01  .........zR..x..
 1798 1b0c1f00 20000000 18000000 34fbffff  .... .......4...
 17a8 4c000000 00410e10 9d029e01 410d1d50  L....A......A..P
 17b8 dedd0c1f 00000000 20000000 3c000000  ........ ...<...
 17c8 60fbffff dc010000 00410e10 9d029e01  `........A......
 17d8 410d1d02 74dedd0c 1f000000 20000000  A...t....... ...
 17e8 60000000 1cfdffff 7c000000 00410e40  `.......|....A.@
 17f8 9d089e07 410d1d5c dedd0c1f 00000000  ....A..\........
 1808 14000000 84000000 78fdffff 28000000  ........x...(...
 1818 00410e10 480e0000 00000000           .A..H.......    
Contents of section .init_array:
 11c68 d0120000 00000000                    ........        
Contents of section .fini_array:
 11c70 88120000 00000000                    ........        
Contents of section .dynamic:
 11c78 01000000 00000000 01000000 00000000  ................
 11c88 01000000 00000000 77030000 00000000  ........w.......
 11c98 0c000000 00000000 b8100000 00000000  ................
 11ca8 0d000000 00000000 34160000 00000000  ........4.......
 11cb8 19000000 00000000 681c0100 00000000  ........h.......
 11cc8 1b000000 00000000 08000000 00000000  ................
 11cd8 1a000000 00000000 701c0100 00000000  ........p.......
 11ce8 1c000000 00000000 08000000 00000000  ................
 11cf8 f5feff6f 00000000 98020000 00000000  ...o............
 11d08 05000000 00000000 c0070000 00000000  ................
 11d18 06000000 00000000 e0020000 00000000  ................
 11d28 0a000000 00000000 ed030000 00000000  ................
 11d38 0b000000 00000000 18000000 00000000  ................
 11d48 15000000 00000000 00000000 00000000  ................
 11d58 03000000 00000000 781e0100 00000000  ........x.......
 11d68 02000000 00000000 50010000 00000000  ........P.......
 11d78 14000000 00000000 07000000 00000000  ................
 11d88 17000000 00000000 680f0000 00000000  ........h.......
 11d98 07000000 00000000 380c0000 00000000  ........8.......
 11da8 08000000 00000000 30030000 00000000  ........0.......
 11db8 09000000 00000000 18000000 00000000  ................
 11dc8 1e000000 00000000 08000000 00000000  ................
 11dd8 fbffff6f 00000000 01000008 00000000  ...o............
 11de8 feffff6f 00000000 180c0000 00000000  ...o............
 11df8 ffffff6f 00000000 01000000 00000000  ...o............
 11e08 f0ffff6f 00000000 ae0b0000 00000000  ...o............
 11e18 f9ffff6f 00000000 06000000 00000000  ...o............
 11e28 00000000 00000000 00000000 00000000  ................
 11e38 00000000 00000000 00000000 00000000  ................
 11e48 00000000 00000000 00000000 00000000  ................
 11e58 00000000 00000000 00000000 00000000  ................
 11e68 00000000 00000000 00000000 00000000  ................
Contents of section .got:
 11e78 00000000 00000000 00000000 00000000  ................
 11e88 00000000 00000000 d0100000 00000000  ................
 11e98 d0100000 00000000 d0100000 00000000  ................
 11ea8 d0100000 00000000 d0100000 00000000  ................
 11eb8 d0100000 00000000 d0100000 00000000  ................
 11ec8 d0100000 00000000 d0100000 00000000  ................
 11ed8 d0100000 00000000 d0100000 00000000  ................
 11ee8 d0100000 00000000 d0100000 00000000  ................
 11ef8 d0100000 00000000 781c0100 00000000  ........x.......
 11f08 00000000 00000000 30160000 00000000  ........0.......
 11f18 00000000 00000000 00000000 00000000  ................
 11f28 00000000 00000000 00000000 00000000  ................
 11f38 00000000 00000000 00000000 00000000  ................
 11f48 00000000 00000000 00000000 00000000  ................
 11f58 00000000 00000000 00000000 00000000  ................
 11f68 b0150000 00000000 00000000 00000000  ................
 11f78 00000000 00000000 00000000 00000000  ................
 11f88 00000000 00000000 00000000 00000000  ................
 11f98 00000000 00000000 00000000 00000000  ................
 11fa8 00000000 00000000 00000000 00000000  ................
 11fb8 00000000 00000000 00000000 00000000  ................
 11fc8 00000000 00000000 00000000 00000000  ................
 11fd8 00000000 00000000 00000000 00000000  ................
 11fe8 00000000 00000000 00000000 00000000  ................
 11ff8 08150000 00000000                    ........        
Contents of section .data:
 12000 00000000 00000000 08200100 00000000  ......... ......
 12010 000000                               ...             
Contents of section .comment:
 0000 4743433a 20285562 756e7475 2f4c696e  GCC: (Ubuntu/Lin
 0010 61726f20 372e332e 302d3237 7562756e  aro 7.3.0-27ubun
 0020 7475317e 31382e30 34292037 2e332e30  tu1~18.04) 7.3.0
 0030 00                                   .               
Contents of section .debug_aranges:
 0000 2c000000 02000000 00000800 00000000  ,...............
 0010 d8120000 00000000 ac020000 00000000  ................
 0020 00000000 00000000 00000000 00000000  ................
 0030 2c000000 02006b07 00000800 00000000  ,.....k.........
 0040 88150000 00000000 28000000 00000000  ........(.......
 0050 00000000 00000000 00000000 00000000  ................
Contents of section .debug_info:
 0000 67070000 04000000 00000801 d0090000  g...............
 0010 0dfe0800 00340100 00d81200 00000000  .....4..........
 0020 00ac0200 00000000 00000000 0002470a  ..............G.
 0030 00004d00 00004100 00000346 00000014  ..M...A....F....
 0040 00042d00 00000504 05ee0000 00050108  ..-.............
 0050 e2040000 02d80a00 004d0000 00680000  .........M...h..
 0060 00034600 00000d00 04540000 00050407  ..F......T......
 0070 43070000 066d0000 0002ba02 00004d00  C....m........M.
 0080 00008d00 00000346 00000000 00076907  .......F......i.
 0090 00000101 0ea40000 00084600 010e7900  ..........F...y.
 00a0 00000000 048d0000 00021100 00004d00  ..............M.
 00b0 0000bd00 00000346 00000000 0007d503  .......F........
 00c0 00000101 0fd40000 00084600 010fa900  ..........F.....
 00d0 00000000 04bd0000 00050807 1d030000  ................
 00e0 09d90000 000ab909 00000211 c1090000  ................
 00f0 41000000 09035016 00000000 00000ab0  A.....P.........
 0100 08000002 15430800 00680000 00090368  .....C...h.....h
 0110 16000000 0000000a f0010000 02269e01  .............&..
 0120 00007400 00000903 78160000 00000000  ..t.....x.......
 0130 0a010200 0002289f 09000074 00000009  ......(....t....
 0140 037c1600 00000000 000a1202 0000022a  .|.............*
 0150 710a0000 74000000 09038016 00000000  q...t...........
 0160 00000a23 02000002 2c100800 00740000  ...#....,....t..
 0170 00090384 16000000 0000000a 34020000  ............4...
 0180 022ed201 00007400 00000903 88160000  ......t.........
 0190 00000000 0a450200 0002309d 07000074  .....E....0....t
 01a0 00000009 038c1600 00000000 000a5602  ..............V.
 01b0 00000232 8d060000 74000000 09039016  ...2....t.......
 01c0 00000000 00000a67 02000002 34340000  .......g....44..
 01d0 00740000 00090394 16000000 0000000a  .t..............
 01e0 78020000 02360701 00007400 00000903  x....6....t.....
 01f0 98160000 00000000 0a9e0400 00023860  ..............8`
 0200 08000074 00000009 039c1600 00000000  ...t............
 0210 000aaf04 0000023a 76090000 74000000  .......:v...t...
 0220 0903a016 00000000 00000ac0 04000002  ................
 0230 3c410500 00740000 000903a4 16000000  <A...t..........
 0240 0000000a d1040000 023e2f06 00007400  .........>/...t.
 0250 00000903 a8160000 00000000 0ae00500  ................
 0260 0002400c 07000074 00000009 03ac1600  ..@....t........
 0270 00000000 000aec04 00000242 d3060000  ...........B....
 0280 74000000 0903b016 00000000 00000afd  t...............
 0290 04000002 44fc0700 00740000 000903b4  ....D....t......
 02a0 16000000 0000000a 0e050000 0246e706  .............F..
 02b0 00007400 00000903 b8160000 00000000  ..t.............
 02c0 0a1f0500 000248dc 01000074 00000009  ......H....t....
 02d0 03bc1600 00000000 000a3005 0000024a  ..........0....J
 02e0 2f0b0000 74000000 0903c016 00000000  /...t...........
 02f0 00000a32 07000002 4c960000 00740000  ...2....L....t..
 0300 000903c4 16000000 0000000a 85000000  ................
 0310 024ebe0a 00007400 00000903 c8160000  .N....t.........
 0320 00000000 0a580700 0002506b 00000074  .....X....Pk...t
 0330 00000009 03cc1600 00000000 000aaf00  ................
 0340 00000252 89020000 74000000 0903d016  ...R....t.......
 0350 00000000 00000add 00000002 54930300  ............T...
 0360 00740000 000903d4 16000000 0000000a  .t..............
 0370 a7070000 0256a102 00007400 00000903  .....V....t.....
 0380 d8160000 00000000 0ab80700 000258b7  ..............X.
 0390 03000074 00000009 03dc1600 00000000  ...t............
 03a0 000ac907 0000025a 8d050000 74000000  .......Z....t...
 03b0 0903e016 00000000 00000ada 07000002  ................
 03c0 5c790500 00740000 000903e4 16000000  \y...t..........
 03d0 0000000a eb070000 025ec000 00007400  .........^....t.
 03e0 00000903 e8160000 00000000 0a600a00  .............`..
 03f0 000260b8 01000074 00000009 03ec1600  ..`....t........
 0400 00000000 000a0706 00000262 95060000  ...........b....
 0410 74000000 0903f016 00000000 00000a8b  t...............
 0420 0a000002 649f0800 00740000 000903f4  ....d....t......
 0430 16000000 0000000a 9c0a0000 0266a701  .............f..
 0440 00007400 00000903 f8160000 00000000  ..t.............
 0450 0aad0a00 000268c0 06000074 00000009  ......h....t....
 0460 03fc1600 00000000 000a8203 0000026a  ...............j
 0470 fa0a0000 74000000 09030017 00000000  ....t...........
 0480 00000a55 06000002 6c280800 00740000  ...U....l(...t..
 0490 00090304 17000000 0000000a 6b060000  ............k...
 04a0 026ee308 00007400 00000903 08170000  .n....t.........
 04b0 00000000 0a0d0b00 00027017 01000074  ..........p....t
 04c0 00000009 030c1700 00000000 000a1e0b  ................
 04d0 00000272 82080000 74000000 09031017  ...r....t.......
 04e0 00000000 00000aea 02000002 740d0400  ............t...
 04f0 00740000 00090314 17000000 0000000a  .t..............
 0500 fb020000 02768204 00007400 00000903  .....v....t.....
 0510 18170000 00000000 0a0c0300 00027822  ..............x"
 0520 0a000074 00000009 031c1700 00000000  ...t............
 0530 000a5a00 0000027a 18060000 74000000  ..Z....z....t...
 0540 09032017 00000000 00000a2d 03000002  .. ........-....
 0550 7ca10500 00740000 00090324 17000000  |....t.....$....
 0560 0000000a 3e030000 027ef600 00007400  ....>....~....t.
 0570 00000903 28170000 00000000 0a4f0300  ....(........O..
 0580 00028060 03000074 00000009 032c1700  ...`...t.....,..
 0590 00000000 000a480b 00000282 fc030000  ......H.........
 05a0 74000000 09033017 00000000 00000a71  t.....0........q
 05b0 03000002 84690400 00740000 00090334  .....i...t.....4
 05c0 17000000 0000000a 49000000 02864605  ........I.....F.
 05d0 00007400 00000903 38170000 00000000  ..t.....8.......
 05e0 0aaf0600 000288ab 03000074 00000009  ...........t....
 05f0 033c1700 00000000 000a5705 0000028a  .<........W.....
 0600 00000000 74000000 09034017 00000000  ....t.....@.....
 0610 00000a68 05000002 8c7c0600 00740000  ...h.....|...t..
 0620 00090344 17000000 0000000a fb060000  ...D............
 0630 028e390a 00007400 00000903 48170000  ..9...t.....H...
 0640 00000000 0bb20500 00010ea4 00000009  ................
 0650 03501700 00000000 000b4304 0000010f  .P........C.....
 0660 d4000000 09035817 00000000 00000b87  ......X.........
 0670 09000001 11830600 00090312 20010000  ............ ...
 0680 00000005 01027a04 00000c66 06000001  ......z....f....
 0690 741d0700 00081500 00000000 007c0000  t............|..
 06a0 00000000 00019c1d 0700000d d0030000  ................
 06b0 021f2407 00000291 6c0d4400 00000220  ..$.....l.D.... 
 06c0 2b070000 0291600d 64040000 02212b07  +.....`.d....!+.
 06d0 00000291 5802f105 00001d07 0000e906  ....X...........
 06e0 00000346 00000002 00072904 00000801  ...F......).....
 06f0 7f000700 00084600 017fd506 00000000  ......F.........
 0700 0e736568 00017fe9 06000002 91780b71  .seh.........x.q
 0710 08000001 81e00000 00029170 000f0405  ...........p....
 0720 ee000000 041d0700 00100806 29070000  ............)...
 0730 11160800 00012520 08000028 13000000  ......% ...(....
 0740 000000dc 01000000 00000001 9c11d008  ................
 0750 00000113 da080000 d8120000 00000000  ................
 0760 4c000000 00000000 019c0077 00000004  L..........w....
 0770 00f00000 00080159 0b00000d 6a090000  .......Y....j...
 0780 34010000 88150000 00000000 28000000  4...........(...
 0790 00000000 f7000000 028e0b00 00010589  ................
 07a0 0b000088 15000000 00000028 00000000  ...........(....
 07b0 00000001 9c730000 00036100 01067300  .....s....a...s.
 07c0 00000291 7c036200 01067300 00000291  ....|.b...s.....
 07d0 78036300 01067300 00000291 74000404  x.c...s.....t...
 07e0 05ee0000 0000                        ......          
Contents of section .debug_abbrev:
 0000 01110125 0e130b03 0e1b0e11 01120710  ...%............
 0010 17000002 0101030e 49130113 00000321  ........I......!
 0020 0049132f 0d000004 26004913 34190000  .I./....&.I.4...
 0030 0524000b 0b3e0b03 0e000006 26004913  .$...>......&.I.
 0040 00000713 01030e0b 0b3a0b3b 0b341901  .........:.;.4..
 0050 13000008 0d000308 3a0b3b0b 4913380b  ........:.;.I.8.
 0060 00000935 00491300 000a3400 030e3a0b  ...5.I....4...:.
 0070 3b0b6e0e 49133f19 02180000 0b340003  ;.n.I.?......4..
 0080 0e3a0b3b 0b491302 1800000c 2e013f19  .:.;.I........?.
 0090 030e3a0b 3b0b4913 11011207 40189642  ..:.;.I.....@..B
 00a0 19011300 000d0500 030e3a0b 3b0b4913  ..........:.;.I.
 00b0 02180000 0e340003 083a0b3b 0b491302  .....4...:.;.I..
 00c0 1800000f 24000b0b 3e0b030e 34190000  ....$...>...4...
 00d0 100f000b 0b000011 2e003f19 030e3a0b  ..........?...:.
 00e0 3b0b6e0e 11011207 40189642 19000000  ;.n.....@..B....
 00f0 01110125 0e130b03 0e1b0e11 01120710  ...%............
 0100 17000002 2e013f19 030e3a0b 3b0b6e0e  ......?...:.;.n.
 0110 11011207 40189742 19011300 00033400  ....@..B......4.
 0120 03083a0b 3b0b4913 02180000 0424000b  ..:.;.I......$..
 0130 0b3e0b03 0e341900 0000               .>...4....      
Contents of section .debug_line:
 0000 f3000000 02009f00 00000401 fb0e0d00  ................
 0010 01010101 00000001 0000012f 686f6d65  .........../home
 0020 2f756275 6e74752f 456e6769 6e656572  /ubuntu/Engineer
 0030 696e672f 47495448 55422f44 69736173  ing/GITHUB/Disas
 0040 73656d62 6c696e67 2d42696e 61726965  sembling-Binarie
 0050 732f4164 612f4152 4d5f4172 63686974  s/Ada/ARM_Archit
 0060 65637475 72652f41 524d3634 2f416464  ecture/ARM64/Add
 0070 5f496e74 2f576974 685f4465 6275675f  _Int/With_Debug_
 0080 696e666f 0000627e 6164645f 696e742e  info..b~add_int.
 0090 61646200 01000062 7e616464 5f696e74  adb....b~add_int
 00a0 2e616473 00010000 00000902 d8120000  .ads............
 00b0 00000000 03120136 773d2121 29254003  .......6w=!!)%@.
 00c0 282e5b4b 4b4b4b4b 4b4b5a3d 4b593d3d  (.[KKKKKKKZ=KY==
 00d0 3d4b3e30 3e212191 21912191 2191035f  =K>0>!!.!.!.!.._
 00e0 2e032120 41030d58 404b4b4c 2f212121  ..! A..X@KKL/!!!
 00f0 213d0202 0001013d 00000002 00220000  !=.....=....."..
 0100 000401fb 0e0d0001 01010100 00000100  ................
 0110 00010061 64645f69 6e742e61 64620000  ...add_int.adb..
 0120 00000000 09028815 00000000 00001625  ...............%
 0130 2f303002 03000101                    /00.....        
Contents of section .debug_str:
 0000 73797374 656d5f5f 7763685f 6a697342  system__wch_jisB
 0010 00616461 5f6d6169 6e5f5f54 6c6f6361  .ada_main__Tloca
 0020 6c5f696e 74657272 7570745f 73746174  l_interrupt_stat
 0030 65735300 73797374 656d5f5f 6d656d6f  esS.system__memo
 0040 72794200 61726776 00616461 5f6d6169  ryB.argv.ada_mai
 0050 6e5f5f75 30303034 39006164 615f6d61  n__u00049.ada_ma
 0060 696e5f5f 75303030 34330073 79737465  in__u00043.syste
 0070 6d5f5f73 746f7261 67655f65 6c656d65  m__storage_eleme
 0080 6e747353 00616461 5f6d6169 6e5f5f75  ntsS.ada_main__u
 0090 30303032 31007379 7374656d 5f5f7365  00021.system__se
 00a0 636f6e64 6172795f 73746163 6b530061  condary_stackS.a
 00b0 64615f6d 61696e5f 5f753030 30323300  da_main__u00023.
 00c0 73797374 656d5f5f 65786365 7074696f  system__exceptio
 00d0 6e735f5f 6d616368 696e6553 00616461  ns__machineS.ada
 00e0 5f6d6169 6e5f5f75 30303032 3400696e  _main__u00024.in
 00f0 74656765 72007379 7374656d 5f5f7763  teger.system__wc
 0100 685f636f 6e530073 79737465 6d5f5f6d  h_conS.system__m
 0110 656d6f72 79530073 79737465 6d5f5f74  emoryS.system__t
 0120 72616365 6261636b 5f5f7379 6d626f6c  raceback__symbol
 0130 69634200 2f686f6d 652f7562 756e7475  icB./home/ubuntu
 0140 2f456e67 696e6565 72696e67 2f474954  /Engineering/GIT
 0150 4855422f 44697361 7373656d 626c696e  HUB/Disassemblin
 0160 672d4269 6e617269 65732f41 64612f41  g-Binaries/Ada/A
 0170 524d5f41 72636869 74656374 7572652f  RM_Architecture/
 0180 41524d36 342f4164 645f496e 742f5769  ARM64/Add_Int/Wi
 0190 74685f44 65627567 5f696e66 6f006164  th_Debug_info.ad
 01a0 645f696e 74420073 79737465 6d5f5f69  d_intB.system__i
 01b0 6d675f69 6e745300 73797374 656d5f5f  mg_intS.system__
 01c0 65786365 7074696f 6e735f64 65627567  exceptions_debug
 01d0 4200676e 61745f5f 696f4200 73797374  B.gnat__ioB.syst
 01e0 656d5f5f 70617261 6d657465 72735300  em__parametersS.
 01f0 6164615f 6d61696e 5f5f7530 30303031  ada_main__u00001
 0200 00616461 5f6d6169 6e5f5f75 30303030  .ada_main__u0000
 0210 32006164 615f6d61 696e5f5f 75303030  2.ada_main__u000
 0220 30330061 64615f6d 61696e5f 5f753030  03.ada_main__u00
 0230 30303400 6164615f 6d61696e 5f5f7530  004.ada_main__u0
 0240 30303035 00616461 5f6d6169 6e5f5f75  0005.ada_main__u
 0250 30303030 36006164 615f6d61 696e5f5f  00006.ada_main__
 0260 75303030 30370061 64615f6d 61696e5f  u00007.ada_main_
 0270 5f753030 30303800 6164615f 6d61696e  _u00008.ada_main
 0280 5f5f7530 30303039 00737973 74656d5f  __u00009.system_
 0290 5f737461 636b5f63 6865636b 696e6742  _stack_checkingB
 02a0 00737973 74656d5f 5f657863 65707469  .system__excepti
 02b0 6f6e5f74 61626c65 42006164 615f6d61  on_tableB.ada_ma
 02c0 696e5f5f 546c6f63 616c5f70 72696f72  in__Tlocal_prior
 02d0 6974795f 73706563 69666963 5f646973  ity_specific_dis
 02e0 70617463 68696e67 53006164 615f6d61  patchingS.ada_ma
 02f0 696e5f5f 75303030 34300061 64615f6d  in__u00040.ada_m
 0300 61696e5f 5f753030 30343100 6164615f  ain__u00041.ada_
 0310 6d61696e 5f5f7530 30303432 00737973  main__u00042.sys
 0320 74656d5f 5f616464 72657373 00616461  tem__address.ada
 0330 5f6d6169 6e5f5f75 30303034 34006164  _main__u00044.ad
 0340 615f6d61 696e5f5f 75303030 34350061  a_main__u00045.a
 0350 64615f6d 61696e5f 5f753030 30343600  da_main__u00046.
 0360 73797374 656d5f5f 7763685f 73747742  system__wch_stwB
 0370 00616461 5f6d6169 6e5f5f75 30303034  .ada_main__u0004
 0380 38006164 615f6d61 696e5f5f 75303030  8.ada_main__u000
 0390 33350073 79737465 6d5f5f73 7461636b  35.system__stack
 03a0 5f636865 636b696e 67530069 6e746572  _checkingS.inter
 03b0 66616365 73530073 79737465 6d5f5f65  facesS.system__e
 03c0 78636570 74696f6e 5f746162 6c655300  xception_tableS.
 03d0 61726763 00616461 5f6d6169 6e5f5f6c  argc.ada_main__l
 03e0 6f63616c 5f696e74 65727275 70745f73  ocal_interrupt_s
 03f0 74617465 735f5f5f 50414400 73797374  tates___PAD.syst
 0400 656d5f5f 7763685f 73747753 00616461  em__wch_stwS.ada
 0410 5f5f6578 63657074 696f6e73 5f5f7472  __exceptions__tr
 0420 61636562 61636b42 00616461 5f6d6169  acebackB.ada_mai
 0430 6e5f5f6d 61696e5f 5f736568 5f5f5f50  n__main__seh___P
 0440 41440061 64615f6d 61696e5f 5f6c6f63  AD.ada_main__loc
 0450 616c5f69 6e746572 72757074 5f737461  al_interrupt_sta
 0460 74657300 656e7670 00737973 74656d5f  tes.envp.system_
 0470 5f776368 5f636e76 4200626f 6f6c6561  _wch_cnvB.boolea
 0480 6e006164 615f5f65 78636570 74696f6e  n.ada__exception
 0490 735f5f74 72616365 6261636b 53006164  s__tracebackS.ad
 04a0 615f6d61 696e5f5f 75303030 31300061  a_main__u00010.a
 04b0 64615f6d 61696e5f 5f753030 30313100  da_main__u00011.
 04c0 6164615f 6d61696e 5f5f7530 30303132  ada_main__u00012
 04d0 00616461 5f6d6169 6e5f5f75 30303031  .ada_main__u0001
 04e0 33006368 61726163 74657200 6164615f  3.character.ada_
 04f0 6d61696e 5f5f7530 30303135 00616461  main__u00015.ada
 0500 5f6d6169 6e5f5f75 30303031 36006164  _main__u00016.ad
 0510 615f6d61 696e5f5f 75303030 31370061  a_main__u00017.a
 0520 64615f6d 61696e5f 5f753030 30313800  da_main__u00018.
 0530 6164615f 6d61696e 5f5f7530 30303139  ada_main__u00019
 0540 00616461 53007379 7374656d 5f5f7763  .adaS.system__wc
 0550 685f636e 76530061 64615f6d 61696e5f  h_cnvS.ada_main_
 0560 5f753030 30353100 6164615f 6d61696e  _u00051.ada_main
 0570 5f5f7530 30303532 00737973 74656d5f  __u00052.system_
 0580 5f657863 65707469 6f6e7353 00737973  _exceptionsS.sys
 0590 74656d5f 5f657863 65707469 6f6e7342  tem__exceptionsB
 05a0 00737973 74656d5f 5f776368 5f636f6e  .system__wch_con
 05b0 42006164 615f6d61 696e5f5f 6c6f6361  B.ada_main__loca
 05c0 6c5f7072 696f7269 74795f73 70656369  l_priority_speci
 05d0 6669635f 64697370 61746368 696e6700  fic_dispatching.
 05e0 6164615f 6d61696e 5f5f7530 30303134  ada_main__u00014
 05f0 00616461 5f6d6169 6e5f5f6d 61696e5f  .ada_main__main_
 0600 5f547365 68540061 64615f6d 61696e5f  _TsehT.ada_main_
 0610 5f753030 30333100 73797374 656d5f5f  _u00031.system__
 0620 61646472 6573735f 696d6167 65530061  address_imageS.a
 0630 64615f5f 65786365 7074696f 6e735f5f  da__exceptions__
 0640 6c617374 5f636861 6e63655f 68616e64  last_chance_hand
 0650 6c657242 00616461 5f6d6169 6e5f5f75  lerB.ada_main__u
 0660 30303033 36006d61 696e0061 64615f6d  00036.main.ada_m
 0670 61696e5f 5f753030 30333700 73797374  ain__u00037.syst
 0680 656d5f5f 7763685f 6a697353 00737973  em__wch_jisS.sys
 0690 74656d53 00737973 74656d5f 5f657863  temS.system__exc
 06a0 65707469 6f6e735f 64656275 67530061  eptions_debugS.a
 06b0 64615f6d 61696e5f 5f753030 30353000  da_main__u00050.
 06c0 73797374 656d5f5f 74726163 65626163  system__tracebac
 06d0 6b420073 79737465 6d5f5f73 6f66745f  kB.system__soft_
 06e0 6c696e6b 73420073 79737465 6d5f5f70  linksB.system__p
 06f0 6172616d 65746572 73420061 64615f6d  arametersB.ada_m
 0700 61696e5f 5f753030 30353300 6164615f  ain__u00053.ada_
 0710 5f657863 65707469 6f6e735f 5f6c6173  _exceptions__las
 0720 745f6368 616e6365 5f68616e 646c6572  t_chance_handler
 0730 53006164 615f6d61 696e5f5f 75303030  S.ada_main__u000
 0740 32300061 64615f6d 61696e5f 5f766572  20.ada_main__ver
 0750 73696f6e 5f333200 6164615f 6d61696e  sion_32.ada_main
 0760 5f5f7530 30303232 00616461 5f6d6169  __u00022.ada_mai
 0770 6e5f5f6c 6f63616c 5f707269 6f726974  n__local_priorit
 0780 795f7370 65636966 69635f64 69737061  y_specific_dispa
 0790 74636869 6e675f5f 5f504144 00676e61  tching___PAD.gna
 07a0 745f5f69 6f530061 64615f6d 61696e5f  t__ioS.ada_main_
 07b0 5f753030 30323500 6164615f 6d61696e  _u00025.ada_main
 07c0 5f5f7530 30303236 00616461 5f6d6169  __u00026.ada_mai
 07d0 6e5f5f75 30303032 37006164 615f6d61  n__u00027.ada_ma
 07e0 696e5f5f 75303030 32380061 64615f6d  in__u00028.ada_m
 07f0 61696e5f 5f753030 30323900 73797374  ain__u00029.syst
 0800 656d5f5f 736f6674 5f6c696e 6b735300  em__soft_linksS.
 0810 676e6174 53006164 615f6d61 696e5f5f  gnatS.ada_main__
 0820 61646169 6e697400 73797374 656d5f5f  adainit.system__
 0830 74726163 65626163 6b5f656e 74726965  traceback_entrie
 0840 7342005f 5f676e61 745f6164 615f6d61  sB.__gnat_ada_ma
 0850 696e5f70 726f6772 616d5f6e 616d6500  in_program_name.
 0860 6164615f 5f657863 65707469 6f6e7342  ada__exceptionsB
 0870 00656e73 7572655f 72656665 72656e63  .ensure_referenc
 0880 65007379 7374656d 5f5f7472 61636562  e.system__traceb
 0890 61636b5f 5f73796d 626f6c69 63530073  ack__symbolicS.s
 08a0 79737465 6d5f5f69 6d675f69 6e744200  ystem__img_intB.
 08b0 6164615f 6d61696e 5f5f6164 615f6d61  ada_main__ada_ma
 08c0 696e5f70 726f6772 616d5f6e 616d6500  in_program_name.
 08d0 6164615f 6d61696e 5f5f6164 6166696e  ada_main__adafin
 08e0 616c0073 79737465 6d5f5f74 72616365  al.system__trace
 08f0 6261636b 5f656e74 72696573 53002f68  back_entriesS./h
 0900 6f6d652f 7562756e 74752f45 6e67696e  ome/ubuntu/Engin
 0910 65657269 6e672f47 49544855 422f4469  eering/GITHUB/Di
 0920 73617373 656d626c 696e672d 42696e61  sassembling-Bina
 0930 72696573 2f416461 2f41524d 5f417263  ries/Ada/ARM_Arc
 0940 68697465 63747572 652f4152 4d36342f  hitecture/ARM64/
 0950 4164645f 496e742f 57697468 5f446562  Add_Int/With_Deb
 0960 75675f69 6e666f2f 627e6164 645f696e  ug_info/b~add_in
 0970 742e6164 62006164 615f5f65 78636570  t.adb.ada__excep
 0980 74696f6e 73530061 64615f6d 61696e5f  tionsS.ada_main_
 0990 5f69735f 656c6162 6f726174 65640073  _is_elaborated.s
 09a0 79737465 6d5f5f73 74616e64 6172645f  ystem__standard_
 09b0 6c696272 61727942 00616461 5f6d6169  libraryB.ada_mai
 09c0 6e5f5f67 6e61745f 76657273 696f6e00  n__gnat_version.
 09d0 474e5520 41646120 372e332e 30202d67  GNU Ada 7.3.0 -g
 09e0 67646233 202d6d6c 6974746c 652d656e  gdb3 -mlittle-en
 09f0 6469616e 202d6d61 62693d6c 70363420  dian -mabi=lp64 
 0a00 2d676e61 7441202d 676e6174 5762202d  -gnatA -gnatWb -
 0a10 676e6174 6977202d 67202d67 6e617477  gnatiw -g -gnatw
 0a20 73007379 7374656d 5f5f6164 64726573  s.system__addres
 0a30 735f696d 61676542 00737973 74656d5f  s_imageB.system_
 0a40 5f637274 6c530061 64615f6d 61696e5f  _crtlS.ada_main_
 0a50 5f54676e 61745f76 65727369 6f6e5300  _Tgnat_versionS.
 0a60 6164615f 6d61696e 5f5f7530 30303330  ada_main__u00030
 0a70 00737973 74656d5f 5f737461 6e646172  .system__standar
 0a80 645f6c69 62726172 79530061 64615f6d  d_libraryS.ada_m
 0a90 61696e5f 5f753030 30333200 6164615f  ain__u00032.ada_
 0aa0 6d61696e 5f5f7530 30303333 00616461  main__u00033.ada
 0ab0 5f6d6169 6e5f5f75 30303033 34007379  _main__u00034.sy
 0ac0 7374656d 5f5f7374 6f726167 655f656c  stem__storage_el
 0ad0 656d656e 74734200 6164615f 6d61696e  ementsB.ada_main
 0ae0 5f5f5461 64615f6d 61696e5f 70726f67  __Tada_main_prog
 0af0 72616d5f 6e616d65 53007379 7374656d  ram_nameS.system
 0b00 5f5f7472 61636562 61636b53 00616461  __tracebackS.ada
 0b10 5f6d6169 6e5f5f75 30303033 38006164  _main__u00038.ad
 0b20 615f6d61 696e5f5f 75303030 33390073  a_main__u00039.s
 0b30 79737465 6d5f5f73 65636f6e 64617279  ystem__secondary
 0b40 5f737461 636b4200 6164615f 6d61696e  _stackB.ada_main
 0b50 5f5f7530 30303437 00474e55 20416461  __u00047.GNU Ada
 0b60 20372e33 2e30202d 67676462 33202d6d   7.3.0 -ggdb3 -m
 0b70 6c697474 6c652d65 6e646961 6e202d6d  little-endian -m
 0b80 6162693d 6c703634 005f6164 615f6164  abi=lp64._ada_ad
 0b90 645f696e 7400                        d_int.          

Disassembly of section .init:

00000000000010b8 <_init>:
    10b8:	a9bf7bfd 	stp	x29, x30, [sp, #-16]!
    10bc:	910003fd 	mov	x29, sp
    10c0:	94000052 	bl	1208 <call_weak_fn>
    10c4:	a8c17bfd 	ldp	x29, x30, [sp], #16
    10c8:	d65f03c0 	ret

Disassembly of section .plt:

00000000000010d0 <.plt>:
    10d0:	a9bf7bf0 	stp	x16, x30, [sp, #-16]!
    10d4:	90000090 	adrp	x16, 11000 <__FRAME_END__+0xf7e0>
    10d8:	f9474611 	ldr	x17, [x16, #3720]
    10dc:	913a2210 	add	x16, x16, #0xe88
    10e0:	d61f0220 	br	x17
    10e4:	d503201f 	nop
    10e8:	d503201f 	nop
    10ec:	d503201f 	nop

00000000000010f0 <__libc_start_main@plt>:
    10f0:	90000090 	adrp	x16, 11000 <__FRAME_END__+0xf7e0>
    10f4:	f9474a11 	ldr	x17, [x16, #3728]
    10f8:	913a4210 	add	x16, x16, #0xe90
    10fc:	d61f0220 	br	x17

0000000000001100 <__gnat_finalize@plt>:
    1100:	90000090 	adrp	x16, 11000 <__FRAME_END__+0xf7e0>
    1104:	f9474e11 	ldr	x17, [x16, #3736]
    1108:	913a6210 	add	x16, x16, #0xe98
    110c:	d61f0220 	br	x17

0000000000001110 <__gmon_start__@plt>:
    1110:	90000090 	adrp	x16, 11000 <__FRAME_END__+0xf7e0>
    1114:	f9475211 	ldr	x17, [x16, #3744]
    1118:	913a8210 	add	x16, x16, #0xea0
    111c:	d61f0220 	br	x17

0000000000001120 <system__secondary_stack___elabb@plt>:
    1120:	90000090 	adrp	x16, 11000 <__FRAME_END__+0xf7e0>
    1124:	f9475611 	ldr	x17, [x16, #3752]
    1128:	913aa210 	add	x16, x16, #0xea8
    112c:	d61f0220 	br	x17

0000000000001130 <system__soft_links___elabb@plt>:
    1130:	90000090 	adrp	x16, 11000 <__FRAME_END__+0xf7e0>
    1134:	f9475a11 	ldr	x17, [x16, #3760]
    1138:	913ac210 	add	x16, x16, #0xeb0
    113c:	d61f0220 	br	x17

0000000000001140 <__cxa_finalize@plt>:
    1140:	90000090 	adrp	x16, 11000 <__FRAME_END__+0xf7e0>
    1144:	f9475e11 	ldr	x17, [x16, #3768]
    1148:	913ae210 	add	x16, x16, #0xeb8
    114c:	d61f0220 	br	x17

0000000000001150 <system__exceptions___elabs@plt>:
    1150:	90000090 	adrp	x16, 11000 <__FRAME_END__+0xf7e0>
    1154:	f9476211 	ldr	x17, [x16, #3776]
    1158:	913b0210 	add	x16, x16, #0xec0
    115c:	d61f0220 	br	x17

0000000000001160 <system__exception_table___elabb@plt>:
    1160:	90000090 	adrp	x16, 11000 <__FRAME_END__+0xf7e0>
    1164:	f9476611 	ldr	x17, [x16, #3784]
    1168:	913b2210 	add	x16, x16, #0xec8
    116c:	d61f0220 	br	x17

0000000000001170 <abort@plt>:
    1170:	90000090 	adrp	x16, 11000 <__FRAME_END__+0xf7e0>
    1174:	f9476a11 	ldr	x17, [x16, #3792]
    1178:	913b4210 	add	x16, x16, #0xed0
    117c:	d61f0220 	br	x17

0000000000001180 <system__standard_library__adafinal@plt>:
    1180:	90000090 	adrp	x16, 11000 <__FRAME_END__+0xf7e0>
    1184:	f9476e11 	ldr	x17, [x16, #3800]
    1188:	913b6210 	add	x16, x16, #0xed8
    118c:	d61f0220 	br	x17

0000000000001190 <__gnat_initialize@plt>:
    1190:	90000090 	adrp	x16, 11000 <__FRAME_END__+0xf7e0>
    1194:	f9477211 	ldr	x17, [x16, #3808]
    1198:	913b8210 	add	x16, x16, #0xee0
    119c:	d61f0220 	br	x17

00000000000011a0 <__gnat_runtime_finalize@plt>:
    11a0:	90000090 	adrp	x16, 11000 <__FRAME_END__+0xf7e0>
    11a4:	f9477611 	ldr	x17, [x16, #3816]
    11a8:	913ba210 	add	x16, x16, #0xee8
    11ac:	d61f0220 	br	x17

00000000000011b0 <system__soft_links___elabs@plt>:
    11b0:	90000090 	adrp	x16, 11000 <__FRAME_END__+0xf7e0>
    11b4:	f9477a11 	ldr	x17, [x16, #3824]
    11b8:	913bc210 	add	x16, x16, #0xef0
    11bc:	d61f0220 	br	x17

00000000000011c0 <__gnat_runtime_initialize@plt>:
    11c0:	90000090 	adrp	x16, 11000 <__FRAME_END__+0xf7e0>
    11c4:	f9477e11 	ldr	x17, [x16, #3832]
    11c8:	913be210 	add	x16, x16, #0xef8
    11cc:	d61f0220 	br	x17

Disassembly of section .text:

00000000000011d0 <_start>:
    11d0:	d280001d 	mov	x29, #0x0                   	// #0
    11d4:	d280001e 	mov	x30, #0x0                   	// #0
    11d8:	aa0003e5 	mov	x5, x0
    11dc:	f94003e1 	ldr	x1, [sp]
    11e0:	910023e2 	add	x2, sp, #0x8
    11e4:	910003e6 	mov	x6, sp
    11e8:	90000080 	adrp	x0, 11000 <__FRAME_END__+0xf7e0>
    11ec:	f947fc00 	ldr	x0, [x0, #4088]
    11f0:	90000083 	adrp	x3, 11000 <__FRAME_END__+0xf7e0>
    11f4:	f947b463 	ldr	x3, [x3, #3944]
    11f8:	90000084 	adrp	x4, 11000 <__FRAME_END__+0xf7e0>
    11fc:	f9478884 	ldr	x4, [x4, #3856]
    1200:	97ffffbc 	bl	10f0 <__libc_start_main@plt>
    1204:	97ffffdb 	bl	1170 <abort@plt>

0000000000001208 <call_weak_fn>:
    1208:	90000080 	adrp	x0, 11000 <__FRAME_END__+0xf7e0>
    120c:	f9478c00 	ldr	x0, [x0, #3864]
    1210:	b4000040 	cbz	x0, 1218 <call_weak_fn+0x10>
    1214:	17ffffbf 	b	1110 <__gmon_start__@plt>
    1218:	d65f03c0 	ret
    121c:	00000000 	.inst	0x00000000 ; undefined

0000000000001220 <deregister_tm_clones>:
    1220:	b0000080 	adrp	x0, 12000 <__data_start>
    1224:	91006000 	add	x0, x0, #0x18
    1228:	b0000081 	adrp	x1, 12000 <__data_start>
    122c:	91006021 	add	x1, x1, #0x18
    1230:	eb00003f 	cmp	x1, x0
    1234:	540000a0 	b.eq	1248 <deregister_tm_clones+0x28>  // b.none
    1238:	90000081 	adrp	x1, 11000 <__FRAME_END__+0xf7e0>
    123c:	f947a421 	ldr	x1, [x1, #3912]
    1240:	b4000041 	cbz	x1, 1248 <deregister_tm_clones+0x28>
    1244:	d61f0020 	br	x1
    1248:	d65f03c0 	ret
    124c:	d503201f 	nop

0000000000001250 <register_tm_clones>:
    1250:	b0000080 	adrp	x0, 12000 <__data_start>
    1254:	91006000 	add	x0, x0, #0x18
    1258:	b0000081 	adrp	x1, 12000 <__data_start>
    125c:	91006021 	add	x1, x1, #0x18
    1260:	cb000021 	sub	x1, x1, x0
    1264:	9343fc21 	asr	x1, x1, #3
    1268:	8b41fc21 	add	x1, x1, x1, lsr #63
    126c:	9341fc21 	asr	x1, x1, #1
    1270:	b40000a1 	cbz	x1, 1284 <register_tm_clones+0x34>
    1274:	90000082 	adrp	x2, 11000 <__FRAME_END__+0xf7e0>
    1278:	f947ac42 	ldr	x2, [x2, #3928]
    127c:	b4000042 	cbz	x2, 1284 <register_tm_clones+0x34>
    1280:	d61f0040 	br	x2
    1284:	d65f03c0 	ret

0000000000001288 <__do_global_dtors_aux>:
    1288:	a9be7bfd 	stp	x29, x30, [sp, #-32]!
    128c:	910003fd 	mov	x29, sp
    1290:	f9000bf3 	str	x19, [sp, #16]
    1294:	b0000093 	adrp	x19, 12000 <__data_start>
    1298:	39404e60 	ldrb	w0, [x19, #19]
    129c:	35000140 	cbnz	w0, 12c4 <__do_global_dtors_aux+0x3c>
    12a0:	90000080 	adrp	x0, 11000 <__FRAME_END__+0xf7e0>
    12a4:	f9479c00 	ldr	x0, [x0, #3896]
    12a8:	b4000080 	cbz	x0, 12b8 <__do_global_dtors_aux+0x30>
    12ac:	b0000080 	adrp	x0, 12000 <__data_start>
    12b0:	f9400400 	ldr	x0, [x0, #8]
    12b4:	97ffffa3 	bl	1140 <__cxa_finalize@plt>
    12b8:	97ffffda 	bl	1220 <deregister_tm_clones>
    12bc:	52800020 	mov	w0, #0x1                   	// #1
    12c0:	39004e60 	strb	w0, [x19, #19]
    12c4:	f9400bf3 	ldr	x19, [sp, #16]
    12c8:	a8c27bfd 	ldp	x29, x30, [sp], #32
    12cc:	d65f03c0 	ret

00000000000012d0 <frame_dummy>:
    12d0:	17ffffe0 	b	1250 <register_tm_clones>
    12d4:	00000000 	.inst	0x00000000 ; undefined

00000000000012d8 <adafinal>:
   Local_Priority_Specific_Dispatching : constant String := "";
   Local_Interrupt_States : constant String := "";

   Is_Elaborated : Boolean := False;

   procedure adafinal is
    12d8:	a9bf7bfd 	stp	x29, x30, [sp, #-16]!
    12dc:	910003fd 	mov	x29, sp

      procedure Runtime_Finalize;
      pragma Import (C, Runtime_Finalize, "__gnat_runtime_finalize");

   begin
      if not Is_Elaborated then
    12e0:	b0000080 	adrp	x0, 12000 <__data_start>
    12e4:	91004800 	add	x0, x0, #0x12
    12e8:	39400000 	ldrb	w0, [x0]
    12ec:	52000000 	eor	w0, w0, #0x1
    12f0:	12001c00 	and	w0, w0, #0xff
    12f4:	7100001f 	cmp	w0, #0x0
    12f8:	54000101 	b.ne	1318 <adafinal+0x40>  // b.any
         return;
      end if;
      Is_Elaborated := False;
    12fc:	b0000080 	adrp	x0, 12000 <__data_start>
    1300:	91004800 	add	x0, x0, #0x12
    1304:	3900001f 	strb	wzr, [x0]
      Runtime_Finalize;
    1308:	97ffffa6 	bl	11a0 <__gnat_runtime_finalize@plt>
      s_stalib_adafinal;
    130c:	97ffff9d 	bl	1180 <system__standard_library__adafinal@plt>
   end adafinal;
    1310:	d503201f 	nop
    1314:	14000002 	b	131c <adafinal+0x44>
         return;
    1318:	d503201f 	nop
   end adafinal;
    131c:	a8c17bfd 	ldp	x29, x30, [sp], #16
    1320:	d65f03c0 	ret
    1324:	d503201f 	nop

0000000000001328 <adainit>:

   type No_Param_Proc is access procedure;

   procedure adainit is
    1328:	a9bf7bfd 	stp	x29, x30, [sp, #-16]!
    132c:	910003fd 	mov	x29, sp
      pragma Import (C, Runtime_Initialize, "__gnat_runtime_initialize");

      Finalize_Library_Objects : No_Param_Proc;
      pragma Import (C, Finalize_Library_Objects, "__gnat_finalize_library_objects");
   begin
      if Is_Elaborated then
    1330:	b0000080 	adrp	x0, 12000 <__data_start>
    1334:	91004800 	add	x0, x0, #0x12
    1338:	39400000 	ldrb	w0, [x0]
    133c:	7100001f 	cmp	w0, #0x0
    1340:	54000dc1 	b.ne	14f8 <adainit+0x1d0>  // b.any
         return;
      end if;
      Is_Elaborated := True;
    1344:	b0000080 	adrp	x0, 12000 <__data_start>
    1348:	91004800 	add	x0, x0, #0x12
    134c:	52800021 	mov	w1, #0x1                   	// #1
    1350:	39000001 	strb	w1, [x0]
      Main_Priority := -1;
    1354:	90000080 	adrp	x0, 11000 <__FRAME_END__+0xf7e0>
    1358:	f947dc00 	ldr	x0, [x0, #4024]
    135c:	12800001 	mov	w1, #0xffffffff            	// #-1
    1360:	b9000001 	str	w1, [x0]
      Time_Slice_Value := -1;
    1364:	90000080 	adrp	x0, 11000 <__FRAME_END__+0xf7e0>
    1368:	f947bc00 	ldr	x0, [x0, #3960]
    136c:	12800001 	mov	w1, #0xffffffff            	// #-1
    1370:	b9000001 	str	w1, [x0]
      WC_Encoding := 'b';
    1374:	90000080 	adrp	x0, 11000 <__FRAME_END__+0xf7e0>
    1378:	f947cc00 	ldr	x0, [x0, #3992]
    137c:	52800c41 	mov	w1, #0x62                  	// #98
    1380:	39000001 	strb	w1, [x0]
      Locking_Policy := ' ';
    1384:	90000080 	adrp	x0, 11000 <__FRAME_END__+0xf7e0>
    1388:	f947b800 	ldr	x0, [x0, #3952]
    138c:	52800401 	mov	w1, #0x20                  	// #32
    1390:	39000001 	strb	w1, [x0]
      Queuing_Policy := ' ';
    1394:	90000080 	adrp	x0, 11000 <__FRAME_END__+0xf7e0>
    1398:	f947d400 	ldr	x0, [x0, #4008]
    139c:	52800401 	mov	w1, #0x20                  	// #32
    13a0:	39000001 	strb	w1, [x0]
      Task_Dispatching_Policy := ' ';
    13a4:	90000080 	adrp	x0, 11000 <__FRAME_END__+0xf7e0>
    13a8:	f9478400 	ldr	x0, [x0, #3848]
    13ac:	52800401 	mov	w1, #0x20                  	// #32
    13b0:	39000001 	strb	w1, [x0]
      Priority_Specific_Dispatching :=
    13b4:	90000080 	adrp	x0, 11000 <__FRAME_END__+0xf7e0>
    13b8:	f947e000 	ldr	x0, [x0, #4032]
    13bc:	90000001 	adrp	x1, 1000 <_init-0xb8>
    13c0:	911d4021 	add	x1, x1, #0x750
    13c4:	f9000001 	str	x1, [x0]
        Local_Priority_Specific_Dispatching'Address;
      Num_Specific_Dispatching := 0;
    13c8:	90000080 	adrp	x0, 11000 <__FRAME_END__+0xf7e0>
    13cc:	f947d800 	ldr	x0, [x0, #4016]
    13d0:	b900001f 	str	wzr, [x0]
      Main_CPU := -1;
    13d4:	90000080 	adrp	x0, 11000 <__FRAME_END__+0xf7e0>
    13d8:	f947b000 	ldr	x0, [x0, #3936]
    13dc:	12800001 	mov	w1, #0xffffffff            	// #-1
    13e0:	b9000001 	str	w1, [x0]
      Interrupt_States := Local_Interrupt_States'Address;
    13e4:	90000080 	adrp	x0, 11000 <__FRAME_END__+0xf7e0>
    13e8:	f947a000 	ldr	x0, [x0, #3904]
    13ec:	90000001 	adrp	x1, 1000 <_init-0xb8>
    13f0:	911d6021 	add	x1, x1, #0x758
    13f4:	f9000001 	str	x1, [x0]
      Num_Interrupt_States := 0;
    13f8:	90000080 	adrp	x0, 11000 <__FRAME_END__+0xf7e0>
    13fc:	f947f000 	ldr	x0, [x0, #4064]
    1400:	b900001f 	str	wzr, [x0]
      Unreserve_All_Interrupts := 0;
    1404:	90000080 	adrp	x0, 11000 <__FRAME_END__+0xf7e0>
    1408:	f947c800 	ldr	x0, [x0, #3984]
    140c:	b900001f 	str	wzr, [x0]
      Detect_Blocking := 0;
    1410:	90000080 	adrp	x0, 11000 <__FRAME_END__+0xf7e0>
    1414:	f947e800 	ldr	x0, [x0, #4048]
    1418:	b900001f 	str	wzr, [x0]
      Default_Stack_Size := -1;
    141c:	90000080 	adrp	x0, 11000 <__FRAME_END__+0xf7e0>
    1420:	f947f800 	ldr	x0, [x0, #4080]
    1424:	12800001 	mov	w1, #0xffffffff            	// #-1
    1428:	b9000001 	str	w1, [x0]
      Leap_Seconds_Support := 0;
    142c:	90000080 	adrp	x0, 11000 <__FRAME_END__+0xf7e0>
    1430:	f947c400 	ldr	x0, [x0, #3976]
    1434:	b900001f 	str	wzr, [x0]

      Runtime_Initialize (1);
    1438:	52800020 	mov	w0, #0x1                   	// #1
    143c:	97ffff61 	bl	11c0 <__gnat_runtime_initialize@plt>

      Finalize_Library_Objects := null;
    1440:	90000080 	adrp	x0, 11000 <__FRAME_END__+0xf7e0>
    1444:	f947a800 	ldr	x0, [x0, #3920]
    1448:	f900001f 	str	xzr, [x0]

      System.Soft_Links'Elab_Spec;
    144c:	97ffff59 	bl	11b0 <system__soft_links___elabs@plt>
      System.Exception_Table'Elab_Body;
    1450:	97ffff44 	bl	1160 <system__exception_table___elabb@plt>
      E26 := E26 + 1;
    1454:	90000080 	adrp	x0, 11000 <__FRAME_END__+0xf7e0>
    1458:	f947f400 	ldr	x0, [x0, #4072]
    145c:	79400000 	ldrh	w0, [x0]
    1460:	13003c00 	sxth	w0, w0
    1464:	11000400 	add	w0, w0, #0x1
    1468:	13003c01 	sxth	w1, w0
    146c:	90000080 	adrp	x0, 11000 <__FRAME_END__+0xf7e0>
    1470:	f947f400 	ldr	x0, [x0, #4072]
    1474:	79000001 	strh	w1, [x0]
      System.Exceptions'Elab_Spec;
    1478:	97ffff36 	bl	1150 <system__exceptions___elabs@plt>
      E28 := E28 + 1;
    147c:	90000080 	adrp	x0, 11000 <__FRAME_END__+0xf7e0>
    1480:	f947e400 	ldr	x0, [x0, #4040]
    1484:	79400000 	ldrh	w0, [x0]
    1488:	13003c00 	sxth	w0, w0
    148c:	11000400 	add	w0, w0, #0x1
    1490:	13003c01 	sxth	w1, w0
    1494:	90000080 	adrp	x0, 11000 <__FRAME_END__+0xf7e0>
    1498:	f947e400 	ldr	x0, [x0, #4040]
    149c:	79000001 	strh	w1, [x0]
      System.Soft_Links'Elab_Body;
    14a0:	97ffff24 	bl	1130 <system__soft_links___elabb@plt>
      E16 := E16 + 1;
    14a4:	90000080 	adrp	x0, 11000 <__FRAME_END__+0xf7e0>
    14a8:	f9479400 	ldr	x0, [x0, #3880]
    14ac:	79400000 	ldrh	w0, [x0]
    14b0:	13003c00 	sxth	w0, w0
    14b4:	11000400 	add	w0, w0, #0x1
    14b8:	13003c01 	sxth	w1, w0
    14bc:	90000080 	adrp	x0, 11000 <__FRAME_END__+0xf7e0>
    14c0:	f9479400 	ldr	x0, [x0, #3880]
    14c4:	79000001 	strh	w1, [x0]
      System.Secondary_Stack'Elab_Body;
    14c8:	97ffff16 	bl	1120 <system__secondary_stack___elabb@plt>
      E20 := E20 + 1;
    14cc:	90000080 	adrp	x0, 11000 <__FRAME_END__+0xf7e0>
    14d0:	f9479000 	ldr	x0, [x0, #3872]
    14d4:	79400000 	ldrh	w0, [x0]
    14d8:	13003c00 	sxth	w0, w0
    14dc:	11000400 	add	w0, w0, #0x1
    14e0:	13003c01 	sxth	w1, w0
    14e4:	90000080 	adrp	x0, 11000 <__FRAME_END__+0xf7e0>
    14e8:	f9479000 	ldr	x0, [x0, #3872]
    14ec:	79000001 	strh	w1, [x0]
   end adainit;
    14f0:	d503201f 	nop
    14f4:	14000002 	b	14fc <adainit+0x1d4>
         return;
    14f8:	d503201f 	nop
   end adainit;
    14fc:	a8c17bfd 	ldp	x29, x30, [sp], #16
    1500:	d65f03c0 	ret
    1504:	d503201f 	nop

0000000000001508 <main>:

   procedure Ada_Main_Program;
   pragma Import (Ada, Ada_Main_Program, "_ada_add_int");

   function main
    1508:	a9bc7bfd 	stp	x29, x30, [sp, #-64]!
    150c:	910003fd 	mov	x29, sp
    1510:	b9002fa0 	str	w0, [x29, #44]
    1514:	f90013a1 	str	x1, [x29, #32]
    1518:	f9000fa2 	str	x2, [x29, #24]

      procedure Finalize;
      pragma Import (C, Finalize, "__gnat_finalize");
      SEH : aliased array (1 .. 2) of Integer;

      Ensure_Reference : aliased System.Address := Ada_Main_Program_Name'Address;
    151c:	90000000 	adrp	x0, 1000 <_init-0xb8>
    1520:	9119a000 	add	x0, x0, #0x668
    1524:	f9001ba0 	str	x0, [x29, #48]
      pragma Volatile (Ensure_Reference);

   begin
      gnat_argc := argc;
    1528:	90000080 	adrp	x0, 11000 <__FRAME_END__+0xf7e0>
    152c:	f947ec00 	ldr	x0, [x0, #4056]
    1530:	b9402fa1 	ldr	w1, [x29, #44]
    1534:	b9000001 	str	w1, [x0]
      gnat_argv := argv;
    1538:	90000080 	adrp	x0, 11000 <__FRAME_END__+0xf7e0>
    153c:	f947d000 	ldr	x0, [x0, #4000]
    1540:	f94013a1 	ldr	x1, [x29, #32]
    1544:	f9000001 	str	x1, [x0]
      gnat_envp := envp;
    1548:	90000080 	adrp	x0, 11000 <__FRAME_END__+0xf7e0>
    154c:	f9479800 	ldr	x0, [x0, #3888]
    1550:	f9400fa1 	ldr	x1, [x29, #24]
    1554:	f9000001 	str	x1, [x0]

      Initialize (SEH'Address);
    1558:	9100e3a0 	add	x0, x29, #0x38
    155c:	97ffff0d 	bl	1190 <__gnat_initialize@plt>
      adainit;
    1560:	97ffff72 	bl	1328 <adainit>
      Ada_Main_Program;
    1564:	94000009 	bl	1588 <_ada_add_int>
      adafinal;
    1568:	97ffff5c 	bl	12d8 <adafinal>
      Finalize;
    156c:	97fffee5 	bl	1100 <__gnat_finalize@plt>
      return (gnat_exit_status);
    1570:	90000080 	adrp	x0, 11000 <__FRAME_END__+0xf7e0>
    1574:	f947c000 	ldr	x0, [x0, #3968]
    1578:	b9400000 	ldr	w0, [x0]
   end;
    157c:	a8c47bfd 	ldp	x29, x30, [sp], #64
    1580:	d65f03c0 	ret
    1584:	00000000 	.inst	0x00000000 ; undefined

0000000000001588 <_ada_add_int>:
--
-- Some numbers to come and go.
--
with Gnat.Io; use Gnat.Io;
procedure Add_Int is
    1588:	d10043ff 	sub	sp, sp, #0x10
   a, b, c: Integer;

begin

   a := 3;
    158c:	52800060 	mov	w0, #0x3                   	// #3
    1590:	b9000fe0 	str	w0, [sp, #12]
   b := 5;
    1594:	528000a0 	mov	w0, #0x5                   	// #5
    1598:	b9000be0 	str	w0, [sp, #8]

   c := a + b;
    159c:	52800100 	mov	w0, #0x8                   	// #8
    15a0:	b90007e0 	str	w0, [sp, #4]

end Add_Int;
    15a4:	d503201f 	nop
    15a8:	910043ff 	add	sp, sp, #0x10
    15ac:	d65f03c0 	ret

00000000000015b0 <__libc_csu_init>:
    15b0:	a9bc7bfd 	stp	x29, x30, [sp, #-64]!
    15b4:	910003fd 	mov	x29, sp
    15b8:	a901d7f4 	stp	x20, x21, [sp, #24]
    15bc:	90000094 	adrp	x20, 11000 <__FRAME_END__+0xf7e0>
    15c0:	90000095 	adrp	x21, 11000 <__FRAME_END__+0xf7e0>
    15c4:	9131c294 	add	x20, x20, #0xc70
    15c8:	9131a2b5 	add	x21, x21, #0xc68
    15cc:	a902dff6 	stp	x22, x23, [sp, #40]
    15d0:	cb150294 	sub	x20, x20, x21
    15d4:	f9001ff8 	str	x24, [sp, #56]
    15d8:	2a0003f6 	mov	w22, w0
    15dc:	aa0103f7 	mov	x23, x1
    15e0:	9343fe94 	asr	x20, x20, #3
    15e4:	aa0203f8 	mov	x24, x2
    15e8:	97fffeb4 	bl	10b8 <_init>
    15ec:	b4000194 	cbz	x20, 161c <__libc_csu_init+0x6c>
    15f0:	f9000bb3 	str	x19, [x29, #16]
    15f4:	d2800013 	mov	x19, #0x0                   	// #0
    15f8:	f8737aa3 	ldr	x3, [x21, x19, lsl #3]
    15fc:	aa1803e2 	mov	x2, x24
    1600:	aa1703e1 	mov	x1, x23
    1604:	2a1603e0 	mov	w0, w22
    1608:	91000673 	add	x19, x19, #0x1
    160c:	d63f0060 	blr	x3
    1610:	eb13029f 	cmp	x20, x19
    1614:	54ffff21 	b.ne	15f8 <__libc_csu_init+0x48>  // b.any
    1618:	f9400bb3 	ldr	x19, [x29, #16]
    161c:	a941d7f4 	ldp	x20, x21, [sp, #24]
    1620:	a942dff6 	ldp	x22, x23, [sp, #40]
    1624:	f9401ff8 	ldr	x24, [sp, #56]
    1628:	a8c47bfd 	ldp	x29, x30, [sp], #64
    162c:	d65f03c0 	ret

0000000000001630 <__libc_csu_fini>:
    1630:	d65f03c0 	ret

Disassembly of section .fini:

0000000000001634 <_fini>:
    1634:	a9bf7bfd 	stp	x29, x30, [sp, #-16]!
    1638:	910003fd 	mov	x29, sp
    163c:	a8c17bfd 	ldp	x29, x30, [sp], #16
    1640:	d65f03c0 	ret
