
mult_reals.o:     file format elf64-x86-64
mult_reals.o
architecture: i386:x86-64, flags 0x00000011:
HAS_RELOC, HAS_SYMS
start address 0x0000000000000000

Sections:
Idx Name          Size      VMA               LMA               File off  Algn
  0 .text         0000006d  0000000000000000  0000000000000000  00000040  2**0
                  CONTENTS, ALLOC, LOAD, RELOC, READONLY, CODE
  1 .data         00000000  0000000000000000  0000000000000000  000000ad  2**0
                  CONTENTS, ALLOC, LOAD, DATA
  2 .bss          00000000  0000000000000000  0000000000000000  000000ad  2**0
                  ALLOC
  3 .rodata       00000024  0000000000000000  0000000000000000  000000b0  2**4
                  CONTENTS, ALLOC, LOAD, READONLY, DATA
  4 .debug_info   000000d5  0000000000000000  0000000000000000  000000d4  2**0
                  CONTENTS, RELOC, READONLY, DEBUGGING
  5 .debug_abbrev 00000086  0000000000000000  0000000000000000  000001a9  2**0
                  CONTENTS, READONLY, DEBUGGING
  6 .debug_aranges 00000030  0000000000000000  0000000000000000  0000022f  2**0
                  CONTENTS, RELOC, READONLY, DEBUGGING
  7 .debug_macro  0000000c  0000000000000000  0000000000000000  0000025f  2**0
                  CONTENTS, RELOC, READONLY, DEBUGGING
  8 .debug_line   00000046  0000000000000000  0000000000000000  0000026b  2**0
                  CONTENTS, RELOC, READONLY, DEBUGGING
  9 .debug_str    0000015c  0000000000000000  0000000000000000  000002b1  2**0
                  CONTENTS, READONLY, DEBUGGING
 10 .comment      0000002b  0000000000000000  0000000000000000  0000040d  2**0
                  CONTENTS, READONLY
 11 .note.GNU-stack 00000000  0000000000000000  0000000000000000  00000438  2**0
                  CONTENTS, READONLY
 12 .eh_frame     00000058  0000000000000000  0000000000000000  00000438  2**3
                  CONTENTS, ALLOC, LOAD, RELOC, READONLY, DATA
SYMBOL TABLE:
0000000000000000 l    df *ABS*	0000000000000000 mult_reals.f08
0000000000000000 l    d  .text	0000000000000000 .text
0000000000000000 l    d  .data	0000000000000000 .data
0000000000000000 l    d  .bss	0000000000000000 .bss
0000000000000000 l     F .text	0000000000000030 MAIN__
0000000000000000 l     O .rodata	000000000000001c options.0.3504
0000000000000000 l    d  .rodata	0000000000000000 .rodata
0000000000000000 l    d  .debug_info	0000000000000000 .debug_info
0000000000000000 l    d  .debug_abbrev	0000000000000000 .debug_abbrev
0000000000000000 l    d  .debug_aranges	0000000000000000 .debug_aranges
0000000000000000 l    d  .debug_macro	0000000000000000 .debug_macro
0000000000000000 l    d  .debug_line	0000000000000000 .debug_line
0000000000000000 l    d  .debug_str	0000000000000000 .debug_str
0000000000000000 l    d  .note.GNU-stack	0000000000000000 .note.GNU-stack
0000000000000000 l    d  .eh_frame	0000000000000000 .eh_frame
0000000000000000 l    d  .comment	0000000000000000 .comment
0000000000000030 g     F .text	000000000000003d main
0000000000000000         *UND*	0000000000000000 _GLOBAL_OFFSET_TABLE_
0000000000000000         *UND*	0000000000000000 _gfortran_set_args
0000000000000000         *UND*	0000000000000000 _gfortran_set_options


Contents of section .text:
 0000 554889e5 f30f1005 00000000 f30f1145  UH.............E
 0010 fcf30f10 05000000 00f30f11 45f8f30f  ............E...
 0020 1045f8f3 0f5945fc f30f1145 f4905dc3  .E...YE....E..].
 0030 554889e5 4883ec10 897dfc48 8975f048  UH..H....}.H.u.H
 0040 8b55f08b 45fc4889 d689c7e8 00000000  .U..E.H.........
 0050 488d3500 000000bf 07000000 e8000000  H.5.............
 0060 00e89aff ffffb800 000000c9 c3        .............   
Contents of section .rodata:
 0000 44000000 ff030000 00000000 01000000  D...............
 0010 01000000 00000000 1f000000 cdcc0c40  ...............@
 0020 33335340                             33S@            
Contents of section .debug_info:
 0000 d1000000 04000000 00000801 00000000  ................
 0010 0e020000 00000000 00000000 00000000  ................
 0020 00006d00 00000000 00000000 00000000  ..m.............
 0030 00000200 00000001 0d710000 00000000  .........q......
 0040 00000000 003d0000 00000000 00019c71  .....=.........q
 0050 00000003 00000000 010d7800 00000291  ..........x.....
 0060 6c030000 0000010d 7d000000 03916006  l.......}.....`.
 0070 00040405 00000000 05710000 00060883  .........q......
 0080 00000004 01080000 00000700 00000001  ................
 0090 01020000 00000000 00003000 00000000  ..........0.....
 00a0 0000019c cd000000 08610001 05cd0000  .........a......
 00b0 0002916c 08620001 05cd0000 00029168  ...l.b.........h
 00c0 08630001 05cd0000 00029164 00040404  .c.........d....
 00d0 00000000 00                          .....           
Contents of section .debug_abbrev:
 0000 01110125 0e130b42 0b030e1b 0e110112  ...%...B........
 0010 07101799 42170000 022e013f 19030e3a  ....B......?...:
 0020 0b3b0b49 13110112 07401896 42190113  .;.I.....@..B...
 0030 00000305 00030e3a 0b3b0b49 13021800  .......:.;.I....
 0040 00042400 0b0b3e0b 030e0000 05260049  ..$...>......&.I
 0050 13000006 0f000b0b 49130000 072e0103  ........I.......
 0060 0e3a0b3b 0b6a1936 0b110112 07401897  .:.;.j.6.....@..
 0070 42190113 00000834 0003083a 0b3b0b49  B......4...:.;.I
 0080 13021800 0000                        ......          
Contents of section .debug_aranges:
 0000 2c000000 02000000 00000800 00000000  ,...............
 0010 00000000 00000000 6d000000 00000000  ........m.......
 0020 00000000 00000000 00000000 00000000  ................
Contents of section .debug_macro:
 0000 04000200 00000003 00010400           ............    
Contents of section .debug_line:
 0000 42000000 02002500 00000101 fb0e0d00  B.....%.........
 0010 01010101 00000001 00000100 6d756c74  ............mult
 0020 5f726561 6c732e66 30380000 00000000  _reals.f08......
 0030 09020000 00000000 00000150 cacae63c  ...........P...<
 0040 e4022e00 0101                        ......          
Contents of section .debug_str:
 0000 63686172 61637465 72286b69 6e643d31  character(kind=1
 0010 29006d75 6c745f72 65616c73 00617267  ).mult_reals.arg
 0020 6300474e 5520466f 72747261 6e323030  c.GNU Fortran200
 0030 3820372e 332e3020 2d6d7475 6e653d67  8 7.3.0 -mtune=g
 0040 656e6572 6963202d 6d617263 683d7838  eneric -march=x8
 0050 362d3634 202d6767 64623320 2d66696e  6-64 -ggdb3 -fin
 0060 7472696e 7369632d 6d6f6475 6c65732d  trinsic-modules-
 0070 70617468 202f7573 722f6c69 622f6763  path /usr/lib/gc
 0080 632f7838 365f3634 2d6c696e 75782d67  c/x86_64-linux-g
 0090 6e752f37 2f66696e 636c7564 6500696e  nu/7/finclude.in
 00a0 74656765 72286b69 6e643d34 29006d61  teger(kind=4).ma
 00b0 696e006d 756c745f 7265616c 732e6630  in.mult_reals.f0
 00c0 38002f68 6f6d652f 7562756e 74752f45  8./home/ubuntu/E
 00d0 6e67696e 65657269 6e672f50 726f6772  ngineering/Progr
 00e0 616d6d69 6e672f44 69736173 73656d62  amming/Disassemb
 00f0 6c696e67 2d42696e 61726965 732f466f  ling-Binaries/Fo
 0100 72747261 6e2f496e 74656c5f 61726368  rtran/Intel_arch
 0110 69746563 74757265 2f414d44 36342f52  itecture/AMD64/R
 0120 65616c5f 4f706572 6174696f 6e732f4d  eal_Operations/M
 0130 756c745f 5265616c 732f5769 74685f44  ult_Reals/With_D
 0140 65627567 5f496e66 6f007265 616c286b  ebug_Info.real(k
 0150 696e643d 34290061 72677600           ind=4).argv.    
Contents of section .comment:
 0000 00474343 3a202855 62756e74 7520372e  .GCC: (Ubuntu 7.
 0010 332e302d 32377562 756e7475 317e3138  3.0-27ubuntu1~18
 0020 2e303429 20372e33 2e3000             .04) 7.3.0.     
Contents of section .eh_frame:
 0000 14000000 00000000 017a5200 01781001  .........zR..x..
 0010 1b0c0708 90010000 1c000000 1c000000  ................
 0020 00000000 30000000 00410e10 8602430d  ....0....A....C.
 0030 066b0c07 08000000 1c000000 3c000000  .k..........<...
 0040 00000000 3d000000 00410e10 8602430d  ....=....A....C.
 0050 06780c07 08000000                    .x......        

Disassembly of section .text:

0000000000000000 <MAIN__>:
program mult_reals
   0:	55                   	push   rbp
   1:	48 89 e5             	mov    rbp,rsp
        
        implicit none

        real :: a, b, c

        a = 2.2
   4:	f3 0f 10 05 00 00 00 	movss  xmm0,DWORD PTR [rip+0x0]        # c <MAIN__+0xc>
   b:	00 
			8: R_X86_64_PC32	.rodata+0x18
   c:	f3 0f 11 45 fc       	movss  DWORD PTR [rbp-0x4],xmm0

        b = 3.3
  11:	f3 0f 10 05 00 00 00 	movss  xmm0,DWORD PTR [rip+0x0]        # 19 <MAIN__+0x19>
  18:	00 
			15: R_X86_64_PC32	.rodata+0x1c
  19:	f3 0f 11 45 f8       	movss  DWORD PTR [rbp-0x8],xmm0

        c = b * a
  1e:	f3 0f 10 45 f8       	movss  xmm0,DWORD PTR [rbp-0x8]
  23:	f3 0f 59 45 fc       	mulss  xmm0,DWORD PTR [rbp-0x4]
  28:	f3 0f 11 45 f4       	movss  DWORD PTR [rbp-0xc],xmm0

end program mult_reals
  2d:	90                   	nop
  2e:	5d                   	pop    rbp
  2f:	c3                   	ret    

0000000000000030 <main>:
  30:	55                   	push   rbp
  31:	48 89 e5             	mov    rbp,rsp
  34:	48 83 ec 10          	sub    rsp,0x10
  38:	89 7d fc             	mov    DWORD PTR [rbp-0x4],edi
  3b:	48 89 75 f0          	mov    QWORD PTR [rbp-0x10],rsi
  3f:	48 8b 55 f0          	mov    rdx,QWORD PTR [rbp-0x10]
  43:	8b 45 fc             	mov    eax,DWORD PTR [rbp-0x4]
  46:	48 89 d6             	mov    rsi,rdx
  49:	89 c7                	mov    edi,eax
  4b:	e8 00 00 00 00       	call   50 <main+0x20>
			4c: R_X86_64_PLT32	_gfortran_set_args-0x4
  50:	48 8d 35 00 00 00 00 	lea    rsi,[rip+0x0]        # 57 <main+0x27>
			53: R_X86_64_PC32	.rodata-0x4
  57:	bf 07 00 00 00       	mov    edi,0x7
  5c:	e8 00 00 00 00       	call   61 <main+0x31>
			5d: R_X86_64_PLT32	_gfortran_set_options-0x4
  61:	e8 9a ff ff ff       	call   0 <MAIN__>
  66:	b8 00 00 00 00       	mov    eax,0x0
  6b:	c9                   	leave  
  6c:	c3                   	ret    
