
b~add_int_w_io.o:     file format elf64-x86-64
b~add_int_w_io.o
architecture: i386:x86-64, flags 0x00000011:
HAS_RELOC, HAS_SYMS
start address 0x0000000000000000

Sections:
Idx Name          Size      VMA               LMA               File off  Algn
  0 .text         000001b3  0000000000000000  0000000000000000  00000040  2**1
                  CONTENTS, ALLOC, LOAD, RELOC, READONLY, CODE
  1 .data         00000003  0000000000000000  0000000000000000  000001f4  2**1
                  CONTENTS, ALLOC, LOAD, DATA
  2 .bss          00000000  0000000000000000  0000000000000000  000001f7  2**0
                  ALLOC
  3 .rodata       0000010a  0000000000000000  0000000000000000  00000200  2**4
                  CONTENTS, ALLOC, LOAD, READONLY, DATA
  4 .debug_info   0000076b  0000000000000000  0000000000000000  0000030a  2**0
                  CONTENTS, RELOC, READONLY, DEBUGGING
  5 .debug_abbrev 000000f0  0000000000000000  0000000000000000  00000a75  2**0
                  CONTENTS, READONLY, DEBUGGING
  6 .debug_aranges 00000030  0000000000000000  0000000000000000  00000b65  2**0
                  CONTENTS, RELOC, READONLY, DEBUGGING
  7 .debug_line   0000010c  0000000000000000  0000000000000000  00000b95  2**0
                  CONTENTS, RELOC, READONLY, DEBUGGING
  8 .debug_str    00000b8d  0000000000000000  0000000000000000  00000ca1  2**0
                  CONTENTS, READONLY, DEBUGGING
  9 .comment      0000002b  0000000000000000  0000000000000000  0000182e  2**0
                  CONTENTS, READONLY
 10 .note.GNU-stack 00000000  0000000000000000  0000000000000000  00001859  2**0
                  CONTENTS, READONLY
 11 .eh_frame     00000078  0000000000000000  0000000000000000  00001860  2**3
                  CONTENTS, ALLOC, LOAD, RELOC, READONLY, DATA
SYMBOL TABLE:
0000000000000000 l    df *ABS*	0000000000000000 b~add_int_w_io.adb
0000000000000000 l    d  .text	0000000000000000 .text
0000000000000000 l    d  .data	0000000000000000 .data
0000000000000000 l    d  .bss	0000000000000000 .bss
0000000000000002 l     O .data	0000000000000001 ada_main__is_elaborated
0000000000000108 l     O .rodata	0000000000000001 ada_main__local_priority_specific_dispatching
0000000000000109 l     O .rodata	0000000000000001 ada_main__local_interrupt_states
0000000000000000 l    d  .rodata	0000000000000000 .rodata
0000000000000000 l    d  .debug_info	0000000000000000 .debug_info
0000000000000000 l    d  .debug_abbrev	0000000000000000 .debug_abbrev
0000000000000000 l    d  .debug_aranges	0000000000000000 .debug_aranges
0000000000000000 l    d  .debug_line	0000000000000000 .debug_line
0000000000000000 l    d  .debug_str	0000000000000000 .debug_str
0000000000000000 l    d  .note.GNU-stack	0000000000000000 .note.GNU-stack
0000000000000000 l    d  .eh_frame	0000000000000000 .eh_frame
0000000000000000 l    d  .comment	0000000000000000 .comment
0000000000000000 g     F .text	0000000000000029 adafinal
0000000000000000         *UND*	0000000000000000 _GLOBAL_OFFSET_TABLE_
0000000000000000         *UND*	0000000000000000 __gnat_runtime_finalize
0000000000000000         *UND*	0000000000000000 system__standard_library__adafinal
000000000000002a g     F .text	0000000000000124 adainit
0000000000000000         *UND*	0000000000000000 __gl_main_priority
0000000000000000         *UND*	0000000000000000 __gl_time_slice_val
0000000000000000         *UND*	0000000000000000 __gl_wc_encoding
0000000000000000         *UND*	0000000000000000 __gl_locking_policy
0000000000000000         *UND*	0000000000000000 __gl_queuing_policy
0000000000000000         *UND*	0000000000000000 __gl_task_dispatching_policy
0000000000000000         *UND*	0000000000000000 __gl_priority_specific_dispatching
0000000000000000         *UND*	0000000000000000 __gl_num_specific_dispatching
0000000000000000         *UND*	0000000000000000 __gl_main_cpu
0000000000000000         *UND*	0000000000000000 __gl_interrupt_states
0000000000000000         *UND*	0000000000000000 __gl_num_interrupt_states
0000000000000000         *UND*	0000000000000000 __gl_unreserve_all_interrupts
0000000000000000         *UND*	0000000000000000 __gl_detect_blocking
0000000000000000         *UND*	0000000000000000 __gl_default_stack_size
0000000000000000         *UND*	0000000000000000 __gl_leap_seconds_support
0000000000000000         *UND*	0000000000000000 __gnat_runtime_initialize
0000000000000000         *UND*	0000000000000000 __gnat_finalize_library_objects
0000000000000000         *UND*	0000000000000000 system__soft_links___elabs
0000000000000000         *UND*	0000000000000000 system__exception_table___elabb
0000000000000000         *UND*	0000000000000000 system__exception_table_E
0000000000000000         *UND*	0000000000000000 system__exceptions___elabs
0000000000000000         *UND*	0000000000000000 system__exceptions_E
0000000000000000         *UND*	0000000000000000 system__soft_links___elabb
0000000000000000         *UND*	0000000000000000 system__soft_links_E
0000000000000000         *UND*	0000000000000000 system__secondary_stack___elabb
0000000000000000         *UND*	0000000000000000 system__secondary_stack_E
000000000000014e g     F .text	0000000000000065 main
0000000000000020 g     O .rodata	0000000000000012 __gnat_ada_main_program_name
0000000000000000         *UND*	0000000000000000 gnat_argc
0000000000000000         *UND*	0000000000000000 gnat_argv
0000000000000000         *UND*	0000000000000000 gnat_envp
0000000000000000         *UND*	0000000000000000 __gnat_initialize
0000000000000000         *UND*	0000000000000000 _ada_add_int_w_io
0000000000000000         *UND*	0000000000000000 __gnat_finalize
0000000000000000         *UND*	0000000000000000 gnat_exit_status
0000000000000000 g     O .data	0000000000000002 ada_main_E
0000000000000000 g     O .rodata	0000000000000014 __gnat_version
0000000000000034 g     O .rodata	0000000000000004 add_int_w_ioB
0000000000000038 g     O .rodata	0000000000000004 system__standard_libraryB
000000000000003c g     O .rodata	0000000000000004 system__standard_libraryS
0000000000000040 g     O .rodata	0000000000000004 gnatS
0000000000000044 g     O .rodata	0000000000000004 gnat__ioB
0000000000000048 g     O .rodata	0000000000000004 gnat__ioS
000000000000004c g     O .rodata	0000000000000004 systemS
0000000000000050 g     O .rodata	0000000000000004 system__memoryB
0000000000000054 g     O .rodata	0000000000000004 system__memoryS
0000000000000058 g     O .rodata	0000000000000004 ada__exceptionsB
000000000000005c g     O .rodata	0000000000000004 ada__exceptionsS
0000000000000060 g     O .rodata	0000000000000004 adaS
0000000000000064 g     O .rodata	0000000000000004 ada__exceptions__last_chance_handlerB
0000000000000068 g     O .rodata	0000000000000004 ada__exceptions__last_chance_handlerS
000000000000006c g     O .rodata	0000000000000004 system__soft_linksB
0000000000000070 g     O .rodata	0000000000000004 system__soft_linksS
0000000000000074 g     O .rodata	0000000000000004 system__parametersB
0000000000000078 g     O .rodata	0000000000000004 system__parametersS
000000000000007c g     O .rodata	0000000000000004 system__secondary_stackB
0000000000000080 g     O .rodata	0000000000000004 system__secondary_stackS
0000000000000084 g     O .rodata	0000000000000004 system__storage_elementsB
0000000000000088 g     O .rodata	0000000000000004 system__storage_elementsS
000000000000008c g     O .rodata	0000000000000004 system__stack_checkingB
0000000000000090 g     O .rodata	0000000000000004 system__stack_checkingS
0000000000000094 g     O .rodata	0000000000000004 system__exception_tableB
0000000000000098 g     O .rodata	0000000000000004 system__exception_tableS
000000000000009c g     O .rodata	0000000000000004 system__exceptionsB
00000000000000a0 g     O .rodata	0000000000000004 system__exceptionsS
00000000000000a4 g     O .rodata	0000000000000004 system__exceptions__machineS
00000000000000a8 g     O .rodata	0000000000000004 system__exceptions_debugB
00000000000000ac g     O .rodata	0000000000000004 system__exceptions_debugS
00000000000000b0 g     O .rodata	0000000000000004 system__img_intB
00000000000000b4 g     O .rodata	0000000000000004 system__img_intS
00000000000000b8 g     O .rodata	0000000000000004 system__tracebackB
00000000000000bc g     O .rodata	0000000000000004 system__tracebackS
00000000000000c0 g     O .rodata	0000000000000004 system__traceback_entriesB
00000000000000c4 g     O .rodata	0000000000000004 system__traceback_entriesS
00000000000000c8 g     O .rodata	0000000000000004 system__traceback__symbolicB
00000000000000cc g     O .rodata	0000000000000004 system__traceback__symbolicS
00000000000000d0 g     O .rodata	0000000000000004 ada__exceptions__tracebackB
00000000000000d4 g     O .rodata	0000000000000004 ada__exceptions__tracebackS
00000000000000d8 g     O .rodata	0000000000000004 system__address_imageB
00000000000000dc g     O .rodata	0000000000000004 system__address_imageS
00000000000000e0 g     O .rodata	0000000000000004 system__wch_conB
00000000000000e4 g     O .rodata	0000000000000004 system__wch_conS
00000000000000e8 g     O .rodata	0000000000000004 system__wch_stwB
00000000000000ec g     O .rodata	0000000000000004 system__wch_stwS
00000000000000f0 g     O .rodata	0000000000000004 system__wch_cnvB
00000000000000f4 g     O .rodata	0000000000000004 system__wch_cnvS
00000000000000f8 g     O .rodata	0000000000000004 interfacesS
00000000000000fc g     O .rodata	0000000000000004 system__wch_jisB
0000000000000100 g     O .rodata	0000000000000004 system__wch_jisS
0000000000000104 g     O .rodata	0000000000000004 system__crtlS


Contents of section .text:
 0000 554889e5 0fb60500 00000083 f00184c0  UH..............
 0010 7514c605 00000000 00e80000 0000e800  u...............
 0020 00000090 eb01905d c3905548 89e50fb6  .......]..UH....
 0030 05000000 0084c00f 850e0100 00c60500  ................
 0040 00000001 c7050000 0000ffff ffffc705  ................
 0050 00000000 ffffffff c6050000 000062c6  ..............b.
 0060 05000000 0020c605 00000000 20c60500  ..... ...... ...
 0070 00000020 488d0500 00000048 89050000  ... H......H....
 0080 0000c705 00000000 00000000 c7050000  ................
 0090 0000ffff ffff488d 05000000 00488905  ......H......H..
 00a0 00000000 c7050000 00000000 0000c705  ................
 00b0 00000000 00000000 c7050000 00000000  ................
 00c0 0000c705 00000000 ffffffff c7050000  ................
 00d0 00000000 0000bf01 000000e8 00000000  ................
 00e0 48c70500 00000000 000000e8 00000000  H...............
 00f0 e8000000 000fb705 00000000 83c00166  ...............f
 0100 89050000 0000e800 0000000f b7050000  ................
 0110 000083c0 01668905 00000000 e8000000  .....f..........
 0120 000fb705 00000000 83c00166 89050000  ...........f....
 0130 0000e800 0000000f b7050000 000083c0  ................
 0140 01668905 00000000 90eb0190 5dc35548  .f..........].UH
 0150 89e54883 ec30897d ec488975 e0488955  ..H..0.}.H.u.H.U
 0160 d8488d05 00000000 488945f0 8b45ec89  .H......H.E..E..
 0170 05000000 00488b45 e0488905 00000000  .....H.E.H......
 0180 488b45d8 48890500 00000048 8d45f848  H.E.H......H.E.H
 0190 89c7e800 000000e8 00000000 e8000000  ................
 01a0 00e80000 0000e800 0000008b 05000000  ................
 01b0 00c9c3                               ...             
Contents of section .data:
 0000 000000                               ...             
Contents of section .rodata:
 0000 474e4154 20566572 73696f6e 3a20372e  GNAT Version: 7.
 0010 332e3000 00000000 00000000 00000000  3.0.............
 0020 5f616461 5f616464 5f696e74 5f775f69  _ada_add_int_w_i
 0030 6f000000 312a701c 0e93dfb6 d393c07e  o...1*p........~
 0040 f1d22afd f50281b4 43e82762 04ec3546  ..*.....C.'b..5F
 0050 059035a6 308a481f da6f32c2 3fa1986e  ..5.0.H..o2.?..n
 0060 a19d7876 a9e647e9 2e55e541 b885774e  ..xv..G..U.A..wN
 0070 5134b1d8 17ad1db0 7be11f38 e509ad30  Q4......{..8...0
 0080 7e13a7fc 68f403f1 00a6f66b 1e7d8341  ~...h......k.}.A
 0090 ec878ac8 ff48a487 46859b1b 20f04ace  .....H..F... .J.
 00a0 f281562e dc483d84 fc6305aa c015bf38  ..V..H=..c.....8
 00b0 02882f6c c60cee44 178cdf39 c0321718  ../l...D...9.2..
 00c0 2595d49e 741a6e46 f210d26f 7af619dd  %...t.nF...oz...
 00d0 889d1f70 755e2420 d3b3009f 3e71d9e7  ...pu^$ ....>q..
 00e0 17a5338c d6ce485d 40e82197 d7e25970  ..3...H]@.!...Yp
 00f0 9c6731a8 2574ff52 6852b55a b6fde6ec  .g1.%t.RhR.Z....
 0100 046d8fd2 0a3aa436 0000               .m...:.6..      
Contents of section .debug_info:
 0000 67070000 04000000 00000801 00000000  g...............
 0010 0d000000 00000000 00000000 00000000  ................
 0020 00b30100 00000000 00000000 00020000  ................
 0030 00004d00 00004100 00000346 00000014  ..M...A....F....
 0040 00042d00 00000504 05000000 00050108  ..-.............
 0050 00000000 02000000 004d0000 00680000  .........M...h..
 0060 00034600 00001200 04540000 00050407  ..F......T......
 0070 00000000 066d0000 00020000 00004d00  .....m........M.
 0080 00008d00 00000346 00000000 00070000  .......F........
 0090 00000101 0ea40000 00084600 010e7900  ..........F...y.
 00a0 00000000 048d0000 00020000 00004d00  ..............M.
 00b0 0000bd00 00000346 00000000 00070000  .......F........
 00c0 00000101 0fd40000 00084600 010fa900  ..........F.....
 00d0 00000000 04bd0000 00050807 00000000  ................
 00e0 09d90000 000a0000 00000211 00000000  ................
 00f0 41000000 09030000 00000000 00000a00  A...............
 0100 00000002 15000000 00680000 00090300  .........h......
 0110 00000000 0000000a 00000000 02260000  .............&..
 0120 00007400 00000903 00000000 00000000  ..t.............
 0130 0a000000 00022800 00000074 00000009  ......(....t....
 0140 03000000 00000000 000a0000 0000022a  ...............*
 0150 00000000 74000000 09030000 00000000  ....t...........
 0160 00000a00 00000002 2c000000 00740000  ........,....t..
 0170 00090300 00000000 0000000a 00000000  ................
 0180 022e0000 00007400 00000903 00000000  ......t.........
 0190 00000000 0a000000 00023000 00000074  ..........0....t
 01a0 00000009 03000000 00000000 000a0000  ................
 01b0 00000232 00000000 74000000 09030000  ...2....t.......
 01c0 00000000 00000a00 00000002 34000000  ............4...
 01d0 00740000 00090300 00000000 0000000a  .t..............
 01e0 00000000 02360000 00007400 00000903  .....6....t.....
 01f0 00000000 00000000 0a000000 00023800  ..............8.
 0200 00000074 00000009 03000000 00000000  ...t............
 0210 000a0000 0000023a 00000000 74000000  .......:....t...
 0220 09030000 00000000 00000a00 00000002  ................
 0230 3c000000 00740000 00090300 00000000  <....t..........
 0240 0000000a 00000000 023e0000 00007400  .........>....t.
 0250 00000903 00000000 00000000 0a000000  ................
 0260 00024000 00000074 00000009 03000000  ..@....t........
 0270 00000000 000a0000 00000242 00000000  ...........B....
 0280 74000000 09030000 00000000 00000a00  t...............
 0290 00000002 44000000 00740000 00090300  ....D....t......
 02a0 00000000 0000000a 00000000 02460000  .............F..
 02b0 00007400 00000903 00000000 00000000  ..t.............
 02c0 0a000000 00024800 00000074 00000009  ......H....t....
 02d0 03000000 00000000 000a0000 0000024a  ...............J
 02e0 00000000 74000000 09030000 00000000  ....t...........
 02f0 00000a00 00000002 4c000000 00740000  ........L....t..
 0300 00090300 00000000 0000000a 00000000  ................
 0310 024e0000 00007400 00000903 00000000  .N....t.........
 0320 00000000 0a000000 00025000 00000074  ..........P....t
 0330 00000009 03000000 00000000 000a0000  ................
 0340 00000252 00000000 74000000 09030000  ...R....t.......
 0350 00000000 00000a00 00000002 54000000  ............T...
 0360 00740000 00090300 00000000 0000000a  .t..............
 0370 00000000 02560000 00007400 00000903  .....V....t.....
 0380 00000000 00000000 0a000000 00025800  ..............X.
 0390 00000074 00000009 03000000 00000000  ...t............
 03a0 000a0000 0000025a 00000000 74000000  .......Z....t...
 03b0 09030000 00000000 00000a00 00000002  ................
 03c0 5c000000 00740000 00090300 00000000  \....t..........
 03d0 0000000a 00000000 025e0000 00007400  .........^....t.
 03e0 00000903 00000000 00000000 0a000000  ................
 03f0 00026000 00000074 00000009 03000000  ..`....t........
 0400 00000000 000a0000 00000262 00000000  ...........b....
 0410 74000000 09030000 00000000 00000a00  t...............
 0420 00000002 64000000 00740000 00090300  ....d....t......
 0430 00000000 0000000a 00000000 02660000  .............f..
 0440 00007400 00000903 00000000 00000000  ..t.............
 0450 0a000000 00026800 00000074 00000009  ......h....t....
 0460 03000000 00000000 000a0000 0000026a  ...............j
 0470 00000000 74000000 09030000 00000000  ....t...........
 0480 00000a00 00000002 6c000000 00740000  ........l....t..
 0490 00090300 00000000 0000000a 00000000  ................
 04a0 026e0000 00007400 00000903 00000000  .n....t.........
 04b0 00000000 0a000000 00027000 00000074  ..........p....t
 04c0 00000009 03000000 00000000 000a0000  ................
 04d0 00000272 00000000 74000000 09030000  ...r....t.......
 04e0 00000000 00000a00 00000002 74000000  ............t...
 04f0 00740000 00090300 00000000 0000000a  .t..............
 0500 00000000 02760000 00007400 00000903  .....v....t.....
 0510 00000000 00000000 0a000000 00027800  ..............x.
 0520 00000074 00000009 03000000 00000000  ...t............
 0530 000a0000 0000027a 00000000 74000000  .......z....t...
 0540 09030000 00000000 00000a00 00000002  ................
 0550 7c000000 00740000 00090300 00000000  |....t..........
 0560 0000000a 00000000 027e0000 00007400  .........~....t.
 0570 00000903 00000000 00000000 0a000000  ................
 0580 00028000 00000074 00000009 03000000  .......t........
 0590 00000000 000a0000 00000282 00000000  ................
 05a0 74000000 09030000 00000000 00000a00  t...............
 05b0 00000002 84000000 00740000 00090300  .........t......
 05c0 00000000 0000000a 00000000 02860000  ................
 05d0 00007400 00000903 00000000 00000000  ..t.............
 05e0 0a000000 00028800 00000074 00000009  ...........t....
 05f0 03000000 00000000 000a0000 0000028a  ................
 0600 00000000 74000000 09030000 00000000  ....t...........
 0610 00000a00 00000002 8c000000 00740000  .............t..
 0620 00090300 00000000 0000000a 00000000  ................
 0630 028e0000 00007400 00000903 00000000  ......t.........
 0640 00000000 0b000000 00010ea4 00000009  ................
 0650 03000000 00000000 000b0000 0000010f  ................
 0660 d4000000 09030000 00000000 00000b00  ................
 0670 00000001 11830600 00090300 00000000  ................
 0680 00000005 01020000 00000c00 00000001  ................
 0690 741d0700 00000000 00000000 00650000  t............e..
 06a0 00000000 00019c1d 0700000d 00000000  ................
 06b0 021f2407 00000291 5c0d0000 00000220  ..$.....\...... 
 06c0 2b070000 0291500d 00000000 02212b07  +.....P......!+.
 06d0 00000291 48020000 00001d07 0000e906  ....H...........
 06e0 00000346 00000002 00070000 00000801  ...F............
 06f0 7f000700 00084600 017fd506 00000000  ......F.........
 0700 0e736568 00017fe9 06000002 91680b00  .seh.........h..
 0710 00000001 81e00000 00029160 000f0405  ...........`....
 0720 00000000 041d0700 00100806 29070000  ............)...
 0730 11000000 00012500 00000000 00000000  ......%.........
 0740 00000024 01000000 00000001 9c110000  ...$............
 0750 00000113 00000000 00000000 00000000  ................
 0760 29000000 00000000 019c00             )..........     
Contents of section .debug_abbrev:
 0000 01110125 0e130b03 0e1b0e11 01120710  ...%............
 0010 17000002 0101030e 49130113 00000321  ........I......!
 0020 0049132f 0d000004 26004913 34190000  .I./....&.I.4...
 0030 0524000b 0b3e0b03 0e000006 26004913  .$...>......&.I.
 0040 00000713 01030e0b 0b3a0b3b 0b341901  .........:.;.4..
 0050 13000008 0d000308 3a0b3b0b 4913380b  ........:.;.I.8.
 0060 00000935 00491300 000a3400 030e3a0b  ...5.I....4...:.
 0070 3b0b6e0e 49133f19 02180000 0b340003  ;.n.I.?......4..
 0080 0e3a0b3b 0b491302 1800000c 2e013f19  .:.;.I........?.
 0090 030e3a0b 3b0b4913 11011207 40189642  ..:.;.I.....@..B
 00a0 19011300 000d0500 030e3a0b 3b0b4913  ..........:.;.I.
 00b0 02180000 0e340003 083a0b3b 0b491302  .....4...:.;.I..
 00c0 1800000f 24000b0b 3e0b030e 34190000  ....$...>...4...
 00d0 100f000b 0b000011 2e003f19 030e3a0b  ..........?...:.
 00e0 3b0b6e0e 11011207 40189642 19000000  ;.n.....@..B....
Contents of section .debug_aranges:
 0000 2c000000 02000000 00000800 00000000  ,...............
 0010 00000000 00000000 b3010000 00000000  ................
 0020 00000000 00000000 00000000 00000000  ................
Contents of section .debug_line:
 0000 08010000 0200af00 00000101 fb0e0d00  ................
 0010 01010101 00000001 0000012f 686f6d65  .........../home
 0020 2f756275 6e74752f 456e6769 6e656572  /ubuntu/Engineer
 0030 696e672f 50726f67 72616d6d 696e672f  ing/Programming/
 0040 44697361 7373656d 626c696e 672d4269  Disassembling-Bi
 0050 6e617269 65732f41 64612f49 6e74656c  naries/Ada/Intel
 0060 5f417263 68697465 63747572 652f4164  _Architecture/Ad
 0070 645f496e 745f775f 494f2f57 6974685f  d_Int_w_IO/With_
 0080 44656275 675f496e 666f0000 627e6164  Debug_Info..b~ad
 0090 645f696e 745f775f 696f2e61 64620001  d_int_w_io.adb..
 00a0 0000627e 6164645f 696e745f 775f696f  ..b~add_int_w_io
 00b0 2e616473 00010000 00000902 00000000  .ads............
 00c0 00000000 03120152 d9755959 37254003  .......R.uYY7%@.
 00d0 284ae775 9f9f7575 7575d89f 9fd79f9f  (J.u..uuuu......
 00e0 9f9fa0a0 ae595908 13590813 59081359  .....YY..Y..Y..Y
 00f0 0813035f 3c032120 33030d08 2eb091ad  ..._<.! 3.......
 0100 aebb5959 59596702 02000101           ..YYYYg.....    
Contents of section .debug_str:
 0000 73797374 656d5f5f 7763685f 6a697342  system__wch_jisB
 0010 00616461 5f6d6169 6e5f5f54 6c6f6361  .ada_main__Tloca
 0020 6c5f696e 74657272 7570745f 73746174  l_interrupt_stat
 0030 65735300 73797374 656d5f5f 6d656d6f  esS.system__memo
 0040 72794200 61726776 00616461 5f6d6169  ryB.argv.ada_mai
 0050 6e5f5f75 30303034 39006164 615f6d61  n__u00049.ada_ma
 0060 696e5f5f 75303030 34330073 79737465  in__u00043.syste
 0070 6d5f5f73 746f7261 67655f65 6c656d65  m__storage_eleme
 0080 6e747353 00616461 5f6d6169 6e5f5f75  ntsS.ada_main__u
 0090 30303032 31007379 7374656d 5f5f7365  00021.system__se
 00a0 636f6e64 6172795f 73746163 6b53002f  condary_stackS./
 00b0 686f6d65 2f756275 6e74752f 456e6769  home/ubuntu/Engi
 00c0 6e656572 696e672f 50726f67 72616d6d  neering/Programm
 00d0 696e672f 44697361 7373656d 626c696e  ing/Disassemblin
 00e0 672d4269 6e617269 65732f41 64612f49  g-Binaries/Ada/I
 00f0 6e74656c 5f417263 68697465 63747572  ntel_Architectur
 0100 652f4164 645f496e 745f775f 494f2f57  e/Add_Int_w_IO/W
 0110 6974685f 44656275 675f496e 666f0061  ith_Debug_Info.a
 0120 64615f6d 61696e5f 5f6c6f63 616c5f70  da_main__local_p
 0130 72696f72 6974795f 73706563 69666963  riority_specific
 0140 5f646973 70617463 68696e67 00616461  _dispatching.ada
 0150 5f6d6169 6e5f5f75 30303032 3400696e  _main__u00024.in
 0160 74656765 72007379 7374656d 5f5f7763  teger.system__wc
 0170 685f636f 6e530073 79737465 6d5f5f6d  h_conS.system__m
 0180 656d6f72 79530073 79737465 6d5f5f74  emoryS.system__t
 0190 72616365 6261636b 5f5f7379 6d626f6c  raceback__symbol
 01a0 69634200 73797374 656d5f5f 65786365  icB.system__exce
 01b0 7074696f 6e735f5f 6d616368 696e6553  ptions__machineS
 01c0 00737973 74656d5f 5f696d67 5f696e74  .system__img_int
 01d0 53007379 7374656d 5f5f6578 63657074  S.system__except
 01e0 696f6e73 5f646562 75674200 676e6174  ions_debugB.gnat
 01f0 5f5f696f 42007379 7374656d 5f5f7061  __ioB.system__pa
 0200 72616d65 74657273 53006164 615f6d61  rametersS.ada_ma
 0210 696e5f5f 75303030 30310061 64615f6d  in__u00001.ada_m
 0220 61696e5f 5f753030 30303200 6164615f  ain__u00002.ada_
 0230 6d61696e 5f5f7530 30303033 00616461  main__u00003.ada
 0240 5f6d6169 6e5f5f75 30303030 34006164  _main__u00004.ad
 0250 615f6d61 696e5f5f 75303030 30350061  a_main__u00005.a
 0260 64615f6d 61696e5f 5f753030 30303600  da_main__u00006.
 0270 6164615f 6d61696e 5f5f7530 30303037  ada_main__u00007
 0280 00616461 5f6d6169 6e5f5f75 30303030  .ada_main__u0000
 0290 38006164 615f6d61 696e5f5f 75303030  8.ada_main__u000
 02a0 30390073 79737465 6d5f5f73 7461636b  09.system__stack
 02b0 5f636865 636b696e 67420073 79737465  _checkingB.syste
 02c0 6d5f5f65 78636570 74696f6e 5f746162  m__exception_tab
 02d0 6c654200 6164615f 6d61696e 5f5f546c  leB.ada_main__Tl
 02e0 6f63616c 5f707269 6f726974 795f7370  ocal_priority_sp
 02f0 65636966 69635f64 69737061 74636869  ecific_dispatchi
 0300 6e675300 6164615f 6d61696e 5f5f7530  ngS.ada_main__u0
 0310 30303430 00616461 5f6d6169 6e5f5f75  0040.ada_main__u
 0320 30303034 31006164 615f6d61 696e5f5f  00041.ada_main__
 0330 75303030 34320073 79737465 6d5f5f61  u00042.system__a
 0340 64647265 73730061 64615f6d 61696e5f  ddress.ada_main_
 0350 5f753030 30343400 6164615f 6d61696e  _u00044.ada_main
 0360 5f5f7530 30303435 00616461 5f6d6169  __u00045.ada_mai
 0370 6e5f5f75 30303034 36007379 7374656d  n__u00046.system
 0380 5f5f7763 685f7374 77420061 64615f6d  __wch_stwB.ada_m
 0390 61696e5f 5f753030 30343800 6164615f  ain__u00048.ada_
 03a0 6d61696e 5f5f7530 30303335 00737973  main__u00035.sys
 03b0 74656d5f 5f737461 636b5f63 6865636b  tem__stack_check
 03c0 696e6753 00696e74 65726661 63657353  ingS.interfacesS
 03d0 00737973 74656d5f 5f657863 65707469  .system__excepti
 03e0 6f6e5f74 61626c65 53006172 67630061  on_tableS.argc.a
 03f0 64615f6d 61696e5f 5f6c6f63 616c5f69  da_main__local_i
 0400 6e746572 72757074 5f737461 7465735f  nterrupt_states_
 0410 5f5f5041 44005f5f 676e6174 5f766572  __PAD.__gnat_ver
 0420 73696f6e 00616461 696e6974 00737973  sion.adainit.sys
 0430 74656d5f 5f776368 5f737477 53006164  tem__wch_stwS.ad
 0440 615f5f65 78636570 74696f6e 735f5f74  a__exceptions__t
 0450 72616365 6261636b 42006164 615f6d61  racebackB.ada_ma
 0460 696e5f5f 6d61696e 5f5f7365 685f5f5f  in__main__seh___
 0470 50414400 6164615f 6d61696e 5f5f6c6f  PAD.ada_main__lo
 0480 63616c5f 696e7465 72727570 745f7374  cal_interrupt_st
 0490 61746573 00656e76 7000626f 6f6c6561  ates.envp.boolea
 04a0 6e006164 645f696e 745f775f 696f4200  n.add_int_w_ioB.
 04b0 6164615f 5f657863 65707469 6f6e735f  ada__exceptions_
 04c0 5f747261 63656261 636b5300 6164615f  _tracebackS.ada_
 04d0 6d61696e 5f5f7530 30303130 00616461  main__u00010.ada
 04e0 5f6d6169 6e5f5f75 30303031 31006164  _main__u00011.ad
 04f0 615f6d61 696e5f5f 75303030 31320061  a_main__u00012.a
 0500 64615f6d 61696e5f 5f753030 30313300  da_main__u00013.
 0510 63686172 61637465 72006164 615f6d61  character.ada_ma
 0520 696e5f5f 75303030 31350061 64615f6d  in__u00015.ada_m
 0530 61696e5f 5f753030 30313600 6164615f  ain__u00016.ada_
 0540 6d61696e 5f5f7530 30303137 00616461  main__u00017.ada
 0550 5f6d6169 6e5f5f75 30303031 38006164  _main__u00018.ad
 0560 615f6d61 696e5f5f 75303030 31390061  a_main__u00019.a
 0570 64615300 73797374 656d5f5f 7763685f  daS.system__wch_
 0580 636e7653 00616461 5f6d6169 6e5f5f75  cnvS.ada_main__u
 0590 30303035 31006164 615f6d61 696e5f5f  00051.ada_main__
 05a0 75303030 35320073 79737465 6d5f5f65  u00052.system__e
 05b0 78636570 74696f6e 73530073 79737465  xceptionsS.syste
 05c0 6d5f5f65 78636570 74696f6e 73420073  m__exceptionsB.s
 05d0 79737465 6d5f5f77 63685f63 6f6e4200  ystem__wch_conB.
 05e0 474e5520 41646120 372e332e 30202d67  GNU Ada 7.3.0 -g
 05f0 202d676e 61744120 2d676e61 74576220   -gnatA -gnatWb 
 0600 2d676e61 74697720 2d67202d 676e6174  -gnatiw -g -gnat
 0610 7773202d 6d74756e 653d6765 6e657269  ws -mtune=generi
 0620 63202d6d 61726368 3d783836 2d363400  c -march=x86-64.
 0630 6164615f 6d61696e 5f5f7530 30303233  ada_main__u00023
 0640 00616461 5f6d6169 6e5f5f75 30303031  .ada_main__u0001
 0650 34006164 615f6d61 696e5f5f 6d61696e  4.ada_main__main
 0660 5f5f5473 65685400 6164615f 6d61696e  __TsehT.ada_main
 0670 5f5f7530 30303331 00737973 74656d5f  __u00031.system_
 0680 5f616464 72657373 5f696d61 67655300  _address_imageS.
 0690 6164615f 5f657863 65707469 6f6e735f  ada__exceptions_
 06a0 5f6c6173 745f6368 616e6365 5f68616e  _last_chance_han
 06b0 646c6572 42006164 615f6d61 696e5f5f  dlerB.ada_main__
 06c0 75303030 3336006d 61696e00 6164615f  u00036.main.ada_
 06d0 6d61696e 5f5f7530 30303337 00737973  main__u00037.sys
 06e0 74656d5f 5f776368 5f6a6973 53007379  tem__wch_jisS.sy
 06f0 7374656d 53007379 7374656d 5f5f6578  stemS.system__ex
 0700 63657074 696f6e73 5f646562 75675300  ceptions_debugS.
 0710 6164615f 6d61696e 5f5f7530 30303530  ada_main__u00050
 0720 00737973 74656d5f 5f747261 63656261  .system__traceba
 0730 636b4200 73797374 656d5f5f 736f6674  ckB.system__soft
 0740 5f6c696e 6b734200 73797374 656d5f5f  _linksB.system__
 0750 70617261 6d657465 72734200 6164615f  parametersB.ada_
 0760 6d61696e 5f5f7530 30303533 00616461  main__u00053.ada
 0770 5f5f6578 63657074 696f6e73 5f5f6c61  __exceptions__la
 0780 73745f63 68616e63 655f6861 6e646c65  st_chance_handle
 0790 72530061 64615f6d 61696e5f 5f753030  rS.ada_main__u00
 07a0 30323000 6164615f 6d61696e 5f5f7665  020.ada_main__ve
 07b0 7273696f 6e5f3332 00616461 5f6d6169  rsion_32.ada_mai
 07c0 6e5f5f75 30303032 32006164 615f6d61  n__u00022.ada_ma
 07d0 696e5f5f 6c6f6361 6c5f7072 696f7269  in__local_priori
 07e0 74795f73 70656369 6669635f 64697370  ty_specific_disp
 07f0 61746368 696e675f 5f5f5041 4400676e  atching___PAD.gn
 0800 61745f5f 696f5300 6164615f 6d61696e  at__ioS.ada_main
 0810 5f5f7530 30303235 00616461 5f6d6169  __u00025.ada_mai
 0820 6e5f5f75 30303032 36006164 615f6d61  n__u00026.ada_ma
 0830 696e5f5f 75303030 32370061 64615f6d  in__u00027.ada_m
 0840 61696e5f 5f753030 30323800 6164615f  ain__u00028.ada_
 0850 6d61696e 5f5f7530 30303239 00737973  main__u00029.sys
 0860 74656d5f 5f736f66 745f6c69 6e6b7353  tem__soft_linksS
 0870 00676e61 74530061 64616669 6e616c00  .gnatS.adafinal.
 0880 6164615f 6d61696e 5f5f6164 61696e69  ada_main__adaini
 0890 74002f68 6f6d652f 7562756e 74752f45  t./home/ubuntu/E
 08a0 6e67696e 65657269 6e672f50 726f6772  ngineering/Progr
 08b0 616d6d69 6e672f44 69736173 73656d62  amming/Disassemb
 08c0 6c696e67 2d42696e 61726965 732f4164  ling-Binaries/Ad
 08d0 612f496e 74656c5f 41726368 69746563  a/Intel_Architec
 08e0 74757265 2f416464 5f496e74 5f775f49  ture/Add_Int_w_I
 08f0 4f2f5769 74685f44 65627567 5f496e66  O/With_Debug_Inf
 0900 6f2f627e 6164645f 696e745f 775f696f  o/b~add_int_w_io
 0910 2e616462 00737973 74656d5f 5f747261  .adb.system__tra
 0920 63656261 636b5f65 6e747269 65734200  ceback_entriesB.
 0930 5f5f676e 61745f61 64615f6d 61696e5f  __gnat_ada_main_
 0940 70726f67 72616d5f 6e616d65 00616461  program_name.ada
 0950 5f5f6578 63657074 696f6e73 4200656e  __exceptionsB.en
 0960 73757265 5f726566 6572656e 63650073  sure_reference.s
 0970 79737465 6d5f5f74 72616365 6261636b  ystem__traceback
 0980 5f5f7379 6d626f6c 69635300 73797374  __symbolicS.syst
 0990 656d5f5f 696d675f 696e7442 00616461  em__img_intB.ada
 09a0 5f6d6169 6e5f5f61 64615f6d 61696e5f  _main__ada_main_
 09b0 70726f67 72616d5f 6e616d65 00616461  program_name.ada
 09c0 5f6d6169 6e5f5f61 64616669 6e616c00  _main__adafinal.
 09d0 73797374 656d5f5f 74726163 65626163  system__tracebac
 09e0 6b5f656e 74726965 73530061 64615f5f  k_entriesS.ada__
 09f0 65786365 7074696f 6e735300 6164615f  exceptionsS.ada_
 0a00 6d61696e 5f5f6973 5f656c61 626f7261  main__is_elabora
 0a10 74656400 73797374 656d5f5f 7374616e  ted.system__stan
 0a20 64617264 5f6c6962 72617279 42006164  dard_libraryB.ad
 0a30 615f6d61 696e5f5f 676e6174 5f766572  a_main__gnat_ver
 0a40 73696f6e 00737973 74656d5f 5f776368  sion.system__wch
 0a50 5f636e76 42007379 7374656d 5f5f6164  _cnvB.system__ad
 0a60 64726573 735f696d 61676542 00737973  dress_imageB.sys
 0a70 74656d5f 5f637274 6c530061 64615f6d  tem__crtlS.ada_m
 0a80 61696e5f 5f54676e 61745f76 65727369  ain__Tgnat_versi
 0a90 6f6e5300 6164615f 6d61696e 5f5f7530  onS.ada_main__u0
 0aa0 30303330 00737973 74656d5f 5f737461  0030.system__sta
 0ab0 6e646172 645f6c69 62726172 79530061  ndard_libraryS.a
 0ac0 64615f6d 61696e5f 5f753030 30333200  da_main__u00032.
 0ad0 6164615f 6d61696e 5f5f7530 30303333  ada_main__u00033
 0ae0 00616461 5f6d6169 6e5f5f75 30303033  .ada_main__u0003
 0af0 34007379 7374656d 5f5f7374 6f726167  4.system__storag
 0b00 655f656c 656d656e 74734200 6164615f  e_elementsB.ada_
 0b10 6d61696e 5f5f5461 64615f6d 61696e5f  main__Tada_main_
 0b20 70726f67 72616d5f 6e616d65 53007379  program_nameS.sy
 0b30 7374656d 5f5f7472 61636562 61636b53  stem__tracebackS
 0b40 00616461 5f6d6169 6e5f5f75 30303033  .ada_main__u0003
 0b50 38006164 615f6d61 696e5f5f 75303030  8.ada_main__u000
 0b60 33390073 79737465 6d5f5f73 65636f6e  39.system__secon
 0b70 64617279 5f737461 636b4200 6164615f  dary_stackB.ada_
 0b80 6d61696e 5f5f7530 30303437 00        main__u00047.   
Contents of section .comment:
 0000 00474343 3a202855 62756e74 7520372e  .GCC: (Ubuntu 7.
 0010 332e302d 32377562 756e7475 317e3138  3.0-27ubuntu1~18
 0020 2e303429 20372e33 2e3000             .04) 7.3.0.     
Contents of section .eh_frame:
 0000 14000000 00000000 017a5200 01781001  .........zR..x..
 0010 1b0c0708 90010000 1c000000 1c000000  ................
 0020 00000000 29000000 00410e10 8602430d  ....)....A....C.
 0030 06640c07 08000000 1c000000 3c000000  .d..........<...
 0040 00000000 24010000 00410e10 8602430d  ....$....A....C.
 0050 06031f01 0c070800 1c000000 5c000000  ............\...
 0060 00000000 65000000 00410e10 8602430d  ....e....A....C.
 0070 0602600c 07080000                    ..`.....        

Disassembly of section .text:

0000000000000000 <adafinal>:
   Local_Priority_Specific_Dispatching : constant String := "";
   Local_Interrupt_States : constant String := "";

   Is_Elaborated : Boolean := False;

   procedure adafinal is
   0:	55                   	push   rbp
   1:	48 89 e5             	mov    rbp,rsp

      procedure Runtime_Finalize;
      pragma Import (C, Runtime_Finalize, "__gnat_runtime_finalize");

   begin
      if not Is_Elaborated then
   4:	0f b6 05 00 00 00 00 	movzx  eax,BYTE PTR [rip+0x0]        # b <adafinal+0xb>
			7: R_X86_64_PC32	.data-0x2
   b:	83 f0 01             	xor    eax,0x1
   e:	84 c0                	test   al,al
  10:	75 14                	jne    26 <adafinal+0x26>
         return;
      end if;
      Is_Elaborated := False;
  12:	c6 05 00 00 00 00 00 	mov    BYTE PTR [rip+0x0],0x0        # 19 <adafinal+0x19>
			14: R_X86_64_PC32	.data-0x3
      Runtime_Finalize;
  19:	e8 00 00 00 00       	call   1e <adafinal+0x1e>
			1a: R_X86_64_PLT32	__gnat_runtime_finalize-0x4
      s_stalib_adafinal;
  1e:	e8 00 00 00 00       	call   23 <adafinal+0x23>
			1f: R_X86_64_PLT32	system__standard_library__adafinal-0x4
   end adafinal;
  23:	90                   	nop
  24:	eb 01                	jmp    27 <adafinal+0x27>
         return;
  26:	90                   	nop
   end adafinal;
  27:	5d                   	pop    rbp
  28:	c3                   	ret    
  29:	90                   	nop

000000000000002a <adainit>:

   type No_Param_Proc is access procedure;

   procedure adainit is
  2a:	55                   	push   rbp
  2b:	48 89 e5             	mov    rbp,rsp
      pragma Import (C, Runtime_Initialize, "__gnat_runtime_initialize");

      Finalize_Library_Objects : No_Param_Proc;
      pragma Import (C, Finalize_Library_Objects, "__gnat_finalize_library_objects");
   begin
      if Is_Elaborated then
  2e:	0f b6 05 00 00 00 00 	movzx  eax,BYTE PTR [rip+0x0]        # 35 <adainit+0xb>
			31: R_X86_64_PC32	.data-0x2
  35:	84 c0                	test   al,al
  37:	0f 85 0e 01 00 00    	jne    14b <adainit+0x121>
         return;
      end if;
      Is_Elaborated := True;
  3d:	c6 05 00 00 00 00 01 	mov    BYTE PTR [rip+0x0],0x1        # 44 <adainit+0x1a>
			3f: R_X86_64_PC32	.data-0x3
      Main_Priority := -1;
  44:	c7 05 00 00 00 00 ff 	mov    DWORD PTR [rip+0x0],0xffffffff        # 4e <adainit+0x24>
  4b:	ff ff ff 
			46: R_X86_64_PC32	__gl_main_priority-0x8
      Time_Slice_Value := -1;
  4e:	c7 05 00 00 00 00 ff 	mov    DWORD PTR [rip+0x0],0xffffffff        # 58 <adainit+0x2e>
  55:	ff ff ff 
			50: R_X86_64_PC32	__gl_time_slice_val-0x8
      WC_Encoding := 'b';
  58:	c6 05 00 00 00 00 62 	mov    BYTE PTR [rip+0x0],0x62        # 5f <adainit+0x35>
			5a: R_X86_64_PC32	__gl_wc_encoding-0x5
      Locking_Policy := ' ';
  5f:	c6 05 00 00 00 00 20 	mov    BYTE PTR [rip+0x0],0x20        # 66 <adainit+0x3c>
			61: R_X86_64_PC32	__gl_locking_policy-0x5
      Queuing_Policy := ' ';
  66:	c6 05 00 00 00 00 20 	mov    BYTE PTR [rip+0x0],0x20        # 6d <adainit+0x43>
			68: R_X86_64_PC32	__gl_queuing_policy-0x5
      Task_Dispatching_Policy := ' ';
  6d:	c6 05 00 00 00 00 20 	mov    BYTE PTR [rip+0x0],0x20        # 74 <adainit+0x4a>
			6f: R_X86_64_PC32	__gl_task_dispatching_policy-0x5
      Priority_Specific_Dispatching :=
  74:	48 8d 05 00 00 00 00 	lea    rax,[rip+0x0]        # 7b <adainit+0x51>
			77: R_X86_64_PC32	.rodata+0x104
  7b:	48 89 05 00 00 00 00 	mov    QWORD PTR [rip+0x0],rax        # 82 <adainit+0x58>
			7e: R_X86_64_PC32	__gl_priority_specific_dispatching-0x4
        Local_Priority_Specific_Dispatching'Address;
      Num_Specific_Dispatching := 0;
  82:	c7 05 00 00 00 00 00 	mov    DWORD PTR [rip+0x0],0x0        # 8c <adainit+0x62>
  89:	00 00 00 
			84: R_X86_64_PC32	__gl_num_specific_dispatching-0x8
      Main_CPU := -1;
  8c:	c7 05 00 00 00 00 ff 	mov    DWORD PTR [rip+0x0],0xffffffff        # 96 <adainit+0x6c>
  93:	ff ff ff 
			8e: R_X86_64_PC32	__gl_main_cpu-0x8
      Interrupt_States := Local_Interrupt_States'Address;
  96:	48 8d 05 00 00 00 00 	lea    rax,[rip+0x0]        # 9d <adainit+0x73>
			99: R_X86_64_PC32	.rodata+0x105
  9d:	48 89 05 00 00 00 00 	mov    QWORD PTR [rip+0x0],rax        # a4 <adainit+0x7a>
			a0: R_X86_64_PC32	__gl_interrupt_states-0x4
      Num_Interrupt_States := 0;
  a4:	c7 05 00 00 00 00 00 	mov    DWORD PTR [rip+0x0],0x0        # ae <adainit+0x84>
  ab:	00 00 00 
			a6: R_X86_64_PC32	__gl_num_interrupt_states-0x8
      Unreserve_All_Interrupts := 0;
  ae:	c7 05 00 00 00 00 00 	mov    DWORD PTR [rip+0x0],0x0        # b8 <adainit+0x8e>
  b5:	00 00 00 
			b0: R_X86_64_PC32	__gl_unreserve_all_interrupts-0x8
      Detect_Blocking := 0;
  b8:	c7 05 00 00 00 00 00 	mov    DWORD PTR [rip+0x0],0x0        # c2 <adainit+0x98>
  bf:	00 00 00 
			ba: R_X86_64_PC32	__gl_detect_blocking-0x8
      Default_Stack_Size := -1;
  c2:	c7 05 00 00 00 00 ff 	mov    DWORD PTR [rip+0x0],0xffffffff        # cc <adainit+0xa2>
  c9:	ff ff ff 
			c4: R_X86_64_PC32	__gl_default_stack_size-0x8
      Leap_Seconds_Support := 0;
  cc:	c7 05 00 00 00 00 00 	mov    DWORD PTR [rip+0x0],0x0        # d6 <adainit+0xac>
  d3:	00 00 00 
			ce: R_X86_64_PC32	__gl_leap_seconds_support-0x8

      Runtime_Initialize (1);
  d6:	bf 01 00 00 00       	mov    edi,0x1
  db:	e8 00 00 00 00       	call   e0 <adainit+0xb6>
			dc: R_X86_64_PLT32	__gnat_runtime_initialize-0x4

      Finalize_Library_Objects := null;
  e0:	48 c7 05 00 00 00 00 	mov    QWORD PTR [rip+0x0],0x0        # eb <adainit+0xc1>
  e7:	00 00 00 00 
			e3: R_X86_64_PC32	__gnat_finalize_library_objects-0x8

      System.Soft_Links'Elab_Spec;
  eb:	e8 00 00 00 00       	call   f0 <adainit+0xc6>
			ec: R_X86_64_PLT32	system__soft_links___elabs-0x4
      System.Exception_Table'Elab_Body;
  f0:	e8 00 00 00 00       	call   f5 <adainit+0xcb>
			f1: R_X86_64_PLT32	system__exception_table___elabb-0x4
      E26 := E26 + 1;
  f5:	0f b7 05 00 00 00 00 	movzx  eax,WORD PTR [rip+0x0]        # fc <adainit+0xd2>
			f8: R_X86_64_PC32	system__exception_table_E-0x4
  fc:	83 c0 01             	add    eax,0x1
  ff:	66 89 05 00 00 00 00 	mov    WORD PTR [rip+0x0],ax        # 106 <adainit+0xdc>
			102: R_X86_64_PC32	system__exception_table_E-0x4
      System.Exceptions'Elab_Spec;
 106:	e8 00 00 00 00       	call   10b <adainit+0xe1>
			107: R_X86_64_PLT32	system__exceptions___elabs-0x4
      E28 := E28 + 1;
 10b:	0f b7 05 00 00 00 00 	movzx  eax,WORD PTR [rip+0x0]        # 112 <adainit+0xe8>
			10e: R_X86_64_PC32	system__exceptions_E-0x4
 112:	83 c0 01             	add    eax,0x1
 115:	66 89 05 00 00 00 00 	mov    WORD PTR [rip+0x0],ax        # 11c <adainit+0xf2>
			118: R_X86_64_PC32	system__exceptions_E-0x4
      System.Soft_Links'Elab_Body;
 11c:	e8 00 00 00 00       	call   121 <adainit+0xf7>
			11d: R_X86_64_PLT32	system__soft_links___elabb-0x4
      E16 := E16 + 1;
 121:	0f b7 05 00 00 00 00 	movzx  eax,WORD PTR [rip+0x0]        # 128 <adainit+0xfe>
			124: R_X86_64_PC32	system__soft_links_E-0x4
 128:	83 c0 01             	add    eax,0x1
 12b:	66 89 05 00 00 00 00 	mov    WORD PTR [rip+0x0],ax        # 132 <adainit+0x108>
			12e: R_X86_64_PC32	system__soft_links_E-0x4
      System.Secondary_Stack'Elab_Body;
 132:	e8 00 00 00 00       	call   137 <adainit+0x10d>
			133: R_X86_64_PLT32	system__secondary_stack___elabb-0x4
      E20 := E20 + 1;
 137:	0f b7 05 00 00 00 00 	movzx  eax,WORD PTR [rip+0x0]        # 13e <adainit+0x114>
			13a: R_X86_64_PC32	system__secondary_stack_E-0x4
 13e:	83 c0 01             	add    eax,0x1
 141:	66 89 05 00 00 00 00 	mov    WORD PTR [rip+0x0],ax        # 148 <adainit+0x11e>
			144: R_X86_64_PC32	system__secondary_stack_E-0x4
   end adainit;
 148:	90                   	nop
 149:	eb 01                	jmp    14c <adainit+0x122>
         return;
 14b:	90                   	nop
   end adainit;
 14c:	5d                   	pop    rbp
 14d:	c3                   	ret    

000000000000014e <main>:

   procedure Ada_Main_Program;
   pragma Import (Ada, Ada_Main_Program, "_ada_add_int_w_io");

   function main
 14e:	55                   	push   rbp
 14f:	48 89 e5             	mov    rbp,rsp
 152:	48 83 ec 30          	sub    rsp,0x30
 156:	89 7d ec             	mov    DWORD PTR [rbp-0x14],edi
 159:	48 89 75 e0          	mov    QWORD PTR [rbp-0x20],rsi
 15d:	48 89 55 d8          	mov    QWORD PTR [rbp-0x28],rdx

      procedure Finalize;
      pragma Import (C, Finalize, "__gnat_finalize");
      SEH : aliased array (1 .. 2) of Integer;

      Ensure_Reference : aliased System.Address := Ada_Main_Program_Name'Address;
 161:	48 8d 05 00 00 00 00 	lea    rax,[rip+0x0]        # 168 <main+0x1a>
			164: R_X86_64_PC32	__gnat_ada_main_program_name-0x4
 168:	48 89 45 f0          	mov    QWORD PTR [rbp-0x10],rax
      pragma Volatile (Ensure_Reference);

   begin
      gnat_argc := argc;
 16c:	8b 45 ec             	mov    eax,DWORD PTR [rbp-0x14]
 16f:	89 05 00 00 00 00    	mov    DWORD PTR [rip+0x0],eax        # 175 <main+0x27>
			171: R_X86_64_PC32	gnat_argc-0x4
      gnat_argv := argv;
 175:	48 8b 45 e0          	mov    rax,QWORD PTR [rbp-0x20]
 179:	48 89 05 00 00 00 00 	mov    QWORD PTR [rip+0x0],rax        # 180 <main+0x32>
			17c: R_X86_64_PC32	gnat_argv-0x4
      gnat_envp := envp;
 180:	48 8b 45 d8          	mov    rax,QWORD PTR [rbp-0x28]
 184:	48 89 05 00 00 00 00 	mov    QWORD PTR [rip+0x0],rax        # 18b <main+0x3d>
			187: R_X86_64_PC32	gnat_envp-0x4

      Initialize (SEH'Address);
 18b:	48 8d 45 f8          	lea    rax,[rbp-0x8]
 18f:	48 89 c7             	mov    rdi,rax
 192:	e8 00 00 00 00       	call   197 <main+0x49>
			193: R_X86_64_PLT32	__gnat_initialize-0x4
      adainit;
 197:	e8 00 00 00 00       	call   19c <main+0x4e>
			198: R_X86_64_PC32	adainit-0x4
      Ada_Main_Program;
 19c:	e8 00 00 00 00       	call   1a1 <main+0x53>
			19d: R_X86_64_PLT32	_ada_add_int_w_io-0x4
      adafinal;
 1a1:	e8 00 00 00 00       	call   1a6 <main+0x58>
			1a2: R_X86_64_PC32	adafinal-0x4
      Finalize;
 1a6:	e8 00 00 00 00       	call   1ab <main+0x5d>
			1a7: R_X86_64_PLT32	__gnat_finalize-0x4
      return (gnat_exit_status);
 1ab:	8b 05 00 00 00 00    	mov    eax,DWORD PTR [rip+0x0]        # 1b1 <main+0x63>
			1ad: R_X86_64_PC32	gnat_exit_status-0x4
   end;
 1b1:	c9                   	leave  
 1b2:	c3                   	ret    
