
add.o:     file format elf32-littlearm


Disassembly of section .text.n_main:

00000000 <main>:
   0:	e1a0c00d 	mov	ip, sp
   4:	e92dd800 	push	{fp, ip, lr, pc}
   8:	e24cb004 	sub	fp, ip, #4
   c:	e24dd030 	sub	sp, sp, #48	; 0x30
  10:	fafffffe 	blx	0 <FPC_INITIALIZEUNITS>
  14:	e3a00003 	mov	r0, #3
  18:	e59f1034 	ldr	r1, [pc, #52]	; 54 <main+0x54>
  1c:	e1c100b0 	strh	r0, [r1]
  20:	e3a00005 	mov	r0, #5
  24:	e59f102c 	ldr	r1, [pc, #44]	; 58 <main+0x58>
  28:	e1c100b0 	strh	r0, [r1]
  2c:	e59f0020 	ldr	r0, [pc, #32]	; 54 <main+0x54>
  30:	e1d010f0 	ldrsh	r1, [r0]
  34:	e59f001c 	ldr	r0, [pc, #28]	; 58 <main+0x58>
  38:	e1d000f0 	ldrsh	r0, [r0]
  3c:	e0800001 	add	r0, r0, r1
  40:	e6bf1070 	sxth	r1, r0
  44:	e59f0010 	ldr	r0, [pc, #16]	; 5c <main+0x5c>
  48:	e1c010b0 	strh	r1, [r0]
  4c:	fafffffe 	blx	0 <FPC_DO_EXIT>
  50:	e91ba800 	ldmdb	fp, {fp, sp, pc}
  54:	00000000 	andeq	r0, r0, r0
  58:	00000002 	andeq	r0, r0, r2
  5c:	00000004 	andeq	r0, r0, r4

Disassembly of section .fpc.n_links:

00000000 <.fpc.n_links>:
	...

Disassembly of section .fpc.n_version:

00000000 <.fpc.n_version>:
   0:	20435046 	subcs	r5, r3, r6, asr #32
   4:	2e302e33 	mrccs	14, 1, r2, cr0, cr3, {1}
   8:	66642b30 			; <UNDEFINED> instruction: 0x66642b30
   c:	312d6773 			; <UNDEFINED> instruction: 0x312d6773
  10:	70722b31 	rsbsvc	r2, r2, r1, lsr fp
  14:	642b3169 	strtvs	r3, [fp], #-361	; 0xfffffe97
  18:	75396265 	ldrvc	r6, [r9, #-613]!	; 0xfffffd9b
  1c:	325b2031 	subscc	r2, fp, #49	; 0x31
  20:	2f373130 	svccs	0x00373130
  24:	322f3730 	eorcc	r3, pc, #48, 14	; 0xc00000
  28:	66205d37 			; <UNDEFINED> instruction: 0x66205d37
  2c:	6120726f 			; <UNDEFINED> instruction: 0x6120726f
  30:	2d206d72 	stccs	13, cr6, [r0, #-456]!	; 0xfffffe38
  34:	6e694c20 	cdpvs	12, 6, cr4, cr9, cr0, {1}
  38:	Address 0x00000038 is out of bounds.

