
add:     file format elf32-littlearm


Disassembly of section .text:

000100e0 <_dynamic_start>:
   100e0:	e59fc06c 	ldr	ip, [pc, #108]	; 10154 <_haltproc_eabi+0x28>
   100e4:	e58c0000 	str	r0, [ip]
   100e8:	eaffffff 	b	100ec <_start>

000100ec <_start>:
   100ec:	e3a0b000 	mov	fp, #0
   100f0:	e8bd0002 	ldmfd	sp!, {r1}
   100f4:	e59fc05c 	ldr	ip, [pc, #92]	; 10158 <_haltproc_eabi+0x2c>
   100f8:	e59f205c 	ldr	r2, [pc, #92]	; 1015c <_haltproc_eabi+0x30>
   100fc:	e58c1000 	str	r1, [ip]
   10100:	e2811001 	add	r1, r1, #1
   10104:	e08d1101 	add	r1, sp, r1, lsl #2
   10108:	e59fc050 	ldr	ip, [pc, #80]	; 10160 <_haltproc_eabi+0x34>
   1010c:	e582d000 	str	sp, [r2]
   10110:	e58c1000 	str	r1, [ip]
   10114:	e59fc048 	ldr	ip, [pc, #72]	; 10164 <_haltproc_eabi+0x38>
   10118:	e58cd000 	str	sp, [ip]
   1011c:	e24dd004 	sub	sp, sp, #4
   10120:	eb000011 	bl	1016c <main>

00010124 <_haltproc>:
   10124:	ef900001 	svc	0x00900001
   10128:	eafffffd 	b	10124 <_haltproc>

0001012c <_haltproc_eabi>:
   1012c:	e59f0020 	ldr	r0, [pc, #32]	; 10154 <_haltproc_eabi+0x28>
   10130:	e5900000 	ldr	r0, [r0]
   10134:	e3500000 	cmp	r0, #0
   10138:	11a0e00f 	movne	lr, pc
   1013c:	112fff10 	bxne	r0
   10140:	e59f0020 	ldr	r0, [pc, #32]	; 10168 <_haltproc_eabi+0x3c>
   10144:	e5900000 	ldr	r0, [r0]
   10148:	e3a070f8 	mov	r7, #248	; 0xf8
   1014c:	ef000000 	svc	0x00000000
   10150:	eafffffa 	b	10140 <_haltproc_eabi+0x14>
   10154:	00052d0c 	andeq	r2, r5, ip, lsl #26
   10158:	00052d10 	andeq	r2, r5, r0, lsl sp
   1015c:	00052d14 	andeq	r2, r5, r4, lsl sp
   10160:	00052d04 	andeq	r2, r5, r4, lsl #26
   10164:	00052d08 	andeq	r2, r5, r8, lsl #26
   10168:	00050d54 	andeq	r0, r5, r4, asr sp

0001016c <main>:
   1016c:	e1a0c00d 	mov	ip, sp
   10170:	e92dd800 	push	{fp, ip, lr, pc}
   10174:	e24cb004 	sub	fp, ip, #4
   10178:	e24dd030 	sub	sp, sp, #48	; 0x30
   1017c:	eb007a50 	bl	2eac4 <fpc_initializeunits>
   10180:	e3a00003 	mov	r0, #3
   10184:	e59f1034 	ldr	r1, [pc, #52]	; 101c0 <main+0x54>
   10188:	e1c100b0 	strh	r0, [r1]
   1018c:	e3a00005 	mov	r0, #5
   10190:	e59f102c 	ldr	r1, [pc, #44]	; 101c4 <main+0x58>
   10194:	e1c100b0 	strh	r0, [r1]
   10198:	e59f0020 	ldr	r0, [pc, #32]	; 101c0 <main+0x54>
   1019c:	e1d010f0 	ldrsh	r1, [r0]
   101a0:	e59f001c 	ldr	r0, [pc, #28]	; 101c4 <main+0x58>
   101a4:	e1d000f0 	ldrsh	r0, [r0]
   101a8:	e0800001 	add	r0, r0, r1
   101ac:	e6bf1070 	sxth	r1, r0
   101b0:	e59f0010 	ldr	r0, [pc, #16]	; 101c8 <main+0x5c>
   101b4:	e1c010b0 	strh	r1, [r0]
   101b8:	eb007b76 	bl	2ef98 <SYSTEM_$$_DO_EXIT>
   101bc:	e91ba800 	ldmdb	fp, {fp, sp, pc}
   101c0:	00050d4c 	andeq	r0, r5, ip, asr #26
   101c4:	00050d4e 	andeq	r0, r5, lr, asr #26
   101c8:	00050d50 	andeq	r0, r5, r0, asr sp

000101cc <SYSTEM_$$_SET_INEXACT_FLAG>:
   101cc:	e92d4008 	push	{r3, lr}
   101d0:	e59f002c 	ldr	r0, [pc, #44]	; 10204 <SYSTEM_$$_SET_INEXACT_FLAG+0x38>
   101d4:	e5902000 	ldr	r2, [r0]
   101d8:	e3520000 	cmp	r2, #0
   101dc:	0a000003 	beq	101f0 <SYSTEM_$$_SET_INEXACT_FLAG+0x24>
   101e0:	e59f1020 	ldr	r1, [pc, #32]	; 10208 <SYSTEM_$$_SET_INEXACT_FLAG+0x3c>
   101e4:	e5910000 	ldr	r0, [r1]
   101e8:	e12fff32 	blx	r2
   101ec:	ea000000 	b	101f4 <SYSTEM_$$_SET_INEXACT_FLAG+0x28>
   101f0:	e59f0014 	ldr	r0, [pc, #20]	; 1020c <SYSTEM_$$_SET_INEXACT_FLAG+0x40>
   101f4:	e5d01000 	ldrb	r1, [r0]
   101f8:	e3811020 	orr	r1, r1, #32
   101fc:	e5c01000 	strb	r1, [r0]
   10200:	e8bd8008 	pop	{r3, pc}
   10204:	00052b90 	muleq	r5, r0, fp
   10208:	00051e48 	andeq	r1, r5, r8, asr #28
   1020c:	00051e4c 	andeq	r1, r5, ip, asr #28

00010210 <SYSTEM_$$_ROUNDANDPACKINT32$BYTE$QWORD$$LONGINT>:
   10210:	e92d40f8 	push	{r3, r4, r5, r6, r7, lr}
   10214:	e1a04000 	mov	r4, r0
   10218:	e1a05002 	mov	r5, r2
   1021c:	e1a06003 	mov	r6, r3
   10220:	e59f0114 	ldr	r0, [pc, #276]	; 1033c <SYSTEM_$$_ROUNDANDPACKINT32$BYTE$QWORD$$LONGINT+0x12c>
   10224:	e5902000 	ldr	r2, [r0]
   10228:	e3520000 	cmp	r2, #0
   1022c:	0a000003 	beq	10240 <SYSTEM_$$_ROUNDANDPACKINT32$BYTE$QWORD$$LONGINT+0x30>
   10230:	e59f1108 	ldr	r1, [pc, #264]	; 10340 <SYSTEM_$$_ROUNDANDPACKINT32$BYTE$QWORD$$LONGINT+0x130>
   10234:	e5910000 	ldr	r0, [r1]
   10238:	e12fff32 	blx	r2
   1023c:	ea000000 	b	10244 <SYSTEM_$$_ROUNDANDPACKINT32$BYTE$QWORD$$LONGINT+0x34>
   10240:	e59f00fc 	ldr	r0, [pc, #252]	; 10344 <SYSTEM_$$_ROUNDANDPACKINT32$BYTE$QWORD$$LONGINT+0x134>
   10244:	e5900000 	ldr	r0, [r0]
   10248:	e3500000 	cmp	r0, #0
   1024c:	03a03001 	moveq	r3, #1
   10250:	13a03000 	movne	r3, #0
   10254:	e3a01040 	mov	r1, #64	; 0x40
   10258:	e3530000 	cmp	r3, #0
   1025c:	1a00000b 	bne	10290 <SYSTEM_$$_ROUNDANDPACKINT32$BYTE$QWORD$$LONGINT+0x80>
   10260:	e3500003 	cmp	r0, #3
   10264:	03a01000 	moveq	r1, #0
   10268:	0a000008 	beq	10290 <SYSTEM_$$_ROUNDANDPACKINT32$BYTE$QWORD$$LONGINT+0x80>
   1026c:	e3a0107f 	mov	r1, #127	; 0x7f
   10270:	e3540000 	cmp	r4, #0
   10274:	0a000003 	beq	10288 <SYSTEM_$$_ROUNDANDPACKINT32$BYTE$QWORD$$LONGINT+0x78>
   10278:	e3500002 	cmp	r0, #2
   1027c:	1a000003 	bne	10290 <SYSTEM_$$_ROUNDANDPACKINT32$BYTE$QWORD$$LONGINT+0x80>
   10280:	e3a01000 	mov	r1, #0
   10284:	ea000001 	b	10290 <SYSTEM_$$_ROUNDANDPACKINT32$BYTE$QWORD$$LONGINT+0x80>
   10288:	e3500001 	cmp	r0, #1
   1028c:	03a01000 	moveq	r1, #0
   10290:	e205007f 	and	r0, r5, #127	; 0x7f
   10294:	e6af7070 	sxtb	r7, r0
   10298:	e6af0071 	sxtb	r0, r1
   1029c:	e1a01fc0 	asr	r1, r0, #31
   102a0:	e0950000 	adds	r0, r5, r0
   102a4:	e0a62001 	adc	r2, r6, r1
   102a8:	e1a003a0 	lsr	r0, r0, #7
   102ac:	e1a013a2 	lsr	r1, r2, #7
   102b0:	e1800c82 	orr	r0, r0, r2, lsl #25
   102b4:	e2272040 	eor	r2, r7, #64	; 0x40
   102b8:	e3520000 	cmp	r2, #0
   102bc:	03a02001 	moveq	r2, #1
   102c0:	13a02000 	movne	r2, #0
   102c4:	e0032002 	and	r2, r3, r2
   102c8:	e20220ff 	and	r2, r2, #255	; 0xff
   102cc:	e3a03000 	mov	r3, #0
   102d0:	e1e02002 	mvn	r2, r2
   102d4:	e1e03003 	mvn	r3, r3
   102d8:	e0025000 	and	r5, r2, r0
   102dc:	e0030001 	and	r0, r3, r1
   102e0:	e3540000 	cmp	r4, #0
   102e4:	12655000 	rsbne	r5, r5, #0
   102e8:	e3550000 	cmp	r5, #0
   102ec:	b3a01001 	movlt	r1, #1
   102f0:	a3a01000 	movge	r1, #0
   102f4:	e0241001 	eor	r1, r4, r1
   102f8:	e0052001 	and	r2, r5, r1
   102fc:	e3a01000 	mov	r1, #0
   10300:	e1900002 	orrs	r0, r0, r2
   10304:	0a000006 	beq	10324 <SYSTEM_$$_ROUNDANDPACKINT32$BYTE$QWORD$$LONGINT+0x114>
   10308:	e3a00000 	mov	r0, #0
   1030c:	eb002e83 	bl	1bd20 <SYSTEM_$$_FLOAT_RAISE$TFPUEXCEPTION>
   10310:	e3540000 	cmp	r4, #0
   10314:	13a04102 	movne	r4, #-2147483648	; 0x80000000
   10318:	1a000005 	bne	10334 <SYSTEM_$$_ROUNDANDPACKINT32$BYTE$QWORD$$LONGINT+0x124>
   1031c:	e3e04102 	mvn	r4, #-2147483648	; 0x80000000
   10320:	ea000003 	b	10334 <SYSTEM_$$_ROUNDANDPACKINT32$BYTE$QWORD$$LONGINT+0x124>
   10324:	e3570000 	cmp	r7, #0
   10328:	0a000000 	beq	10330 <SYSTEM_$$_ROUNDANDPACKINT32$BYTE$QWORD$$LONGINT+0x120>
   1032c:	ebffffa6 	bl	101cc <SYSTEM_$$_SET_INEXACT_FLAG>
   10330:	e1a04005 	mov	r4, r5
   10334:	e1a00004 	mov	r0, r4
   10338:	e8bd80f8 	pop	{r3, r4, r5, r6, r7, pc}
   1033c:	00052b90 	muleq	r5, r0, fp
   10340:	00051e50 	andeq	r1, r5, r0, asr lr
   10344:	00051e54 	andeq	r1, r5, r4, asr lr

00010348 <SYSTEM_$$_ROUNDANDPACKINT64$BYTE$QWORD$QWORD$$INT64>:
   10348:	e1a0c00d 	mov	ip, sp
   1034c:	e92ddff8 	push	{r3, r4, r5, r6, r7, r8, r9, sl, fp, ip, lr, pc}
   10350:	e24cb004 	sub	fp, ip, #4
   10354:	e24dd040 	sub	sp, sp, #64	; 0x40
   10358:	e50b0034 	str	r0, [fp, #-52]	; 0xffffffcc
   1035c:	e1a05002 	mov	r5, r2
   10360:	e1a06003 	mov	r6, r3
   10364:	e59ba004 	ldr	sl, [fp, #4]
   10368:	e59b9008 	ldr	r9, [fp, #8]
   1036c:	e59f01a4 	ldr	r0, [pc, #420]	; 10518 <SYSTEM_$$_ROUNDANDPACKINT64$BYTE$QWORD$QWORD$$INT64+0x1d0>
   10370:	e5902000 	ldr	r2, [r0]
   10374:	e3520000 	cmp	r2, #0
   10378:	0a000003 	beq	1038c <SYSTEM_$$_ROUNDANDPACKINT64$BYTE$QWORD$QWORD$$INT64+0x44>
   1037c:	e59f1198 	ldr	r1, [pc, #408]	; 1051c <SYSTEM_$$_ROUNDANDPACKINT64$BYTE$QWORD$QWORD$$INT64+0x1d4>
   10380:	e5910000 	ldr	r0, [r1]
   10384:	e12fff32 	blx	r2
   10388:	ea000000 	b	10390 <SYSTEM_$$_ROUNDANDPACKINT64$BYTE$QWORD$QWORD$$INT64+0x48>
   1038c:	e59f018c 	ldr	r0, [pc, #396]	; 10520 <SYSTEM_$$_ROUNDANDPACKINT64$BYTE$QWORD$QWORD$$INT64+0x1d8>
   10390:	e5908000 	ldr	r8, [r0]
   10394:	e3580000 	cmp	r8, #0
   10398:	03a00001 	moveq	r0, #1
   1039c:	13a00000 	movne	r0, #0
   103a0:	e1a04000 	mov	r4, r0
   103a4:	e3190102 	tst	r9, #-2147483648	; 0x80000000
   103a8:	13a00001 	movne	r0, #1
   103ac:	03a00000 	moveq	r0, #0
   103b0:	e1a07000 	mov	r7, r0
   103b4:	e3540000 	cmp	r4, #0
   103b8:	1a000014 	bne	10410 <SYSTEM_$$_ROUNDANDPACKINT64$BYTE$QWORD$QWORD$$INT64+0xc8>
   103bc:	e3580003 	cmp	r8, #3
   103c0:	03a07000 	moveq	r7, #0
   103c4:	0a000011 	beq	10410 <SYSTEM_$$_ROUNDANDPACKINT64$BYTE$QWORD$QWORD$$INT64+0xc8>
   103c8:	e51b0034 	ldr	r0, [fp, #-52]	; 0xffffffcc
   103cc:	e3500000 	cmp	r0, #0
   103d0:	0a000007 	beq	103f4 <SYSTEM_$$_ROUNDANDPACKINT64$BYTE$QWORD$QWORD$$INT64+0xac>
   103d4:	e3580001 	cmp	r8, #1
   103d8:	1a000002 	bne	103e8 <SYSTEM_$$_ROUNDANDPACKINT64$BYTE$QWORD$QWORD$$INT64+0xa0>
   103dc:	e19a0009 	orrs	r0, sl, r9
   103e0:	13a00001 	movne	r0, #1
   103e4:	1a000000 	bne	103ec <SYSTEM_$$_ROUNDANDPACKINT64$BYTE$QWORD$QWORD$$INT64+0xa4>
   103e8:	e3a00000 	mov	r0, #0
   103ec:	e1a07000 	mov	r7, r0
   103f0:	ea000006 	b	10410 <SYSTEM_$$_ROUNDANDPACKINT64$BYTE$QWORD$QWORD$$INT64+0xc8>
   103f4:	e3580002 	cmp	r8, #2
   103f8:	1a000002 	bne	10408 <SYSTEM_$$_ROUNDANDPACKINT64$BYTE$QWORD$QWORD$$INT64+0xc0>
   103fc:	e19a0009 	orrs	r0, sl, r9
   10400:	13a00001 	movne	r0, #1
   10404:	1a000000 	bne	1040c <SYSTEM_$$_ROUNDANDPACKINT64$BYTE$QWORD$QWORD$$INT64+0xc4>
   10408:	e3a00000 	mov	r0, #0
   1040c:	e1a07000 	mov	r7, r0
   10410:	e3570000 	cmp	r7, #0
   10414:	0a000010 	beq	1045c <SYSTEM_$$_ROUNDANDPACKINT64$BYTE$QWORD$QWORD$$INT64+0x114>
   10418:	e2955001 	adds	r5, r5, #1
   1041c:	e2a66000 	adc	r6, r6, #0
   10420:	e1950006 	orrs	r0, r5, r6
   10424:	0a000022 	beq	104b4 <SYSTEM_$$_ROUNDANDPACKINT64$BYTE$QWORD$QWORD$$INT64+0x16c>
   10428:	e09a100a 	adds	r1, sl, sl
   1042c:	e0a90009 	adc	r0, r9, r9
   10430:	e1910000 	orrs	r0, r1, r0
   10434:	03a00001 	moveq	r0, #1
   10438:	13a00000 	movne	r0, #0
   1043c:	e0040000 	and	r0, r4, r0
   10440:	e1e00c00 	mvn	r0, r0, lsl #24
   10444:	e1a00c20 	lsr	r0, r0, #24
   10448:	e3a01000 	mov	r1, #0
   1044c:	e0002005 	and	r2, r0, r5
   10450:	e0010006 	and	r0, r1, r6
   10454:	e1a05002 	mov	r5, r2
   10458:	e1a06000 	mov	r6, r0
   1045c:	e50b5038 	str	r5, [fp, #-56]	; 0xffffffc8
   10460:	e50b6030 	str	r6, [fp, #-48]	; 0xffffffd0
   10464:	e51b0034 	ldr	r0, [fp, #-52]	; 0xffffffcc
   10468:	e3500000 	cmp	r0, #0
   1046c:	0a000005 	beq	10488 <SYSTEM_$$_ROUNDANDPACKINT64$BYTE$QWORD$QWORD$$INT64+0x140>
   10470:	e51b0038 	ldr	r0, [fp, #-56]	; 0xffffffc8
   10474:	e2702000 	rsbs	r2, r0, #0
   10478:	e51b0030 	ldr	r0, [fp, #-48]	; 0xffffffd0
   1047c:	e2e01000 	rsc	r1, r0, #0
   10480:	e50b2038 	str	r2, [fp, #-56]	; 0xffffffc8
   10484:	e50b1030 	str	r1, [fp, #-48]	; 0xffffffd0
   10488:	e51b0038 	ldr	r0, [fp, #-56]	; 0xffffffc8
   1048c:	e51b2030 	ldr	r2, [fp, #-48]	; 0xffffffd0
   10490:	e1901002 	orrs	r1, r0, r2
   10494:	0a000015 	beq	104f0 <SYSTEM_$$_ROUNDANDPACKINT64$BYTE$QWORD$QWORD$$INT64+0x1a8>
   10498:	e51b0030 	ldr	r0, [fp, #-48]	; 0xffffffd0
   1049c:	e3100102 	tst	r0, #-2147483648	; 0x80000000
   104a0:	13a00001 	movne	r0, #1
   104a4:	03a00000 	moveq	r0, #0
   104a8:	e51b1034 	ldr	r1, [fp, #-52]	; 0xffffffcc
   104ac:	e0310000 	eors	r0, r1, r0
   104b0:	0a00000e 	beq	104f0 <SYSTEM_$$_ROUNDANDPACKINT64$BYTE$QWORD$QWORD$$INT64+0x1a8>
   104b4:	e3a00000 	mov	r0, #0
   104b8:	eb002e18 	bl	1bd20 <SYSTEM_$$_FLOAT_RAISE$TFPUEXCEPTION>
   104bc:	e51b0034 	ldr	r0, [fp, #-52]	; 0xffffffcc
   104c0:	e3500000 	cmp	r0, #0
   104c4:	0a000004 	beq	104dc <SYSTEM_$$_ROUNDANDPACKINT64$BYTE$QWORD$QWORD$$INT64+0x194>
   104c8:	e3a00000 	mov	r0, #0
   104cc:	e50b0040 	str	r0, [fp, #-64]	; 0xffffffc0
   104d0:	e3a00102 	mov	r0, #-2147483648	; 0x80000000
   104d4:	e50b003c 	str	r0, [fp, #-60]	; 0xffffffc4
   104d8:	ea00000b 	b	1050c <SYSTEM_$$_ROUNDANDPACKINT64$BYTE$QWORD$QWORD$$INT64+0x1c4>
   104dc:	e3e00000 	mvn	r0, #0
   104e0:	e50b0040 	str	r0, [fp, #-64]	; 0xffffffc0
   104e4:	e3e00102 	mvn	r0, #-2147483648	; 0x80000000
   104e8:	e50b003c 	str	r0, [fp, #-60]	; 0xffffffc4
   104ec:	ea000006 	b	1050c <SYSTEM_$$_ROUNDANDPACKINT64$BYTE$QWORD$QWORD$$INT64+0x1c4>
   104f0:	e19a0009 	orrs	r0, sl, r9
   104f4:	0a000000 	beq	104fc <SYSTEM_$$_ROUNDANDPACKINT64$BYTE$QWORD$QWORD$$INT64+0x1b4>
   104f8:	ebffff33 	bl	101cc <SYSTEM_$$_SET_INEXACT_FLAG>
   104fc:	e51b0038 	ldr	r0, [fp, #-56]	; 0xffffffc8
   10500:	e50b0040 	str	r0, [fp, #-64]	; 0xffffffc0
   10504:	e51b0030 	ldr	r0, [fp, #-48]	; 0xffffffd0
   10508:	e50b003c 	str	r0, [fp, #-60]	; 0xffffffc4
   1050c:	e51b103c 	ldr	r1, [fp, #-60]	; 0xffffffc4
   10510:	e51b0040 	ldr	r0, [fp, #-64]	; 0xffffffc0
   10514:	e91baff8 	ldmdb	fp, {r3, r4, r5, r6, r7, r8, r9, sl, fp, sp, pc}
   10518:	00052b90 	muleq	r5, r0, fp
   1051c:	00051e50 	andeq	r1, r5, r0, asr lr
   10520:	00051e54 	andeq	r1, r5, r4, asr lr

00010524 <SYSTEM_$$_SHIFT32RIGHTJAMMING$LONGWORD$SMALLINT$LONGWORD>:
   10524:	e3510000 	cmp	r1, #0
   10528:	01a03000 	moveq	r3, r0
   1052c:	0a00000a 	beq	1055c <SYSTEM_$$_SHIFT32RIGHTJAMMING$LONGWORD$SMALLINT$LONGWORD+0x38>
   10530:	e3510020 	cmp	r1, #32
   10534:	aa000005 	bge	10550 <SYSTEM_$$_SHIFT32RIGHTJAMMING$LONGWORD$SMALLINT$LONGWORD+0x2c>
   10538:	e261c000 	rsb	ip, r1, #0
   1053c:	e20cc01f 	and	ip, ip, #31
   10540:	e1b0cc10 	lsls	ip, r0, ip
   10544:	13a0c001 	movne	ip, #1
   10548:	e18c3130 	orr	r3, ip, r0, lsr r1
   1054c:	ea000002 	b	1055c <SYSTEM_$$_SHIFT32RIGHTJAMMING$LONGWORD$SMALLINT$LONGWORD+0x38>
   10550:	e3500000 	cmp	r0, #0
   10554:	13a00001 	movne	r0, #1
   10558:	e1a03000 	mov	r3, r0
   1055c:	e5823000 	str	r3, [r2]
   10560:	e12fff1e 	bx	lr

00010564 <SYSTEM_$$_SHIFT128RIGHT$QWORD$QWORD$SMALLINT$QWORD$QWORD>:
   10564:	e1a0c00d 	mov	ip, sp
   10568:	e92ddff8 	push	{r3, r4, r5, r6, r7, r8, r9, sl, fp, ip, lr, pc}
   1056c:	e24cb004 	sub	fp, ip, #4
   10570:	e24dd038 	sub	sp, sp, #56	; 0x38
   10574:	e50b1030 	str	r1, [fp, #-48]	; 0xffffffd0
   10578:	e1db60f4 	ldrsh	r6, [fp, #4]
   1057c:	e59b1008 	ldr	r1, [fp, #8]
   10580:	e50b1038 	str	r1, [fp, #-56]	; 0xffffffc8
   10584:	e59b100c 	ldr	r1, [fp, #12]
   10588:	e50b1034 	str	r1, [fp, #-52]	; 0xffffffcc
   1058c:	e2661000 	rsb	r1, r6, #0
   10590:	e201103f 	and	r1, r1, #63	; 0x3f
   10594:	e6af1071 	sxtb	r1, r1
   10598:	e3560000 	cmp	r6, #0
   1059c:	1a000004 	bne	105b4 <SYSTEM_$$_SHIFT128RIGHT$QWORD$QWORD$SMALLINT$QWORD$QWORD+0x50>
   105a0:	e1a0c002 	mov	ip, r2
   105a4:	e1a04003 	mov	r4, r3
   105a8:	e1a0a000 	mov	sl, r0
   105ac:	e51be030 	ldr	lr, [fp, #-48]	; 0xffffffd0
   105b0:	ea00003c 	b	106a8 <SYSTEM_$$_SHIFT128RIGHT$QWORD$QWORD$SMALLINT$QWORD$QWORD+0x144>
   105b4:	e3560040 	cmp	r6, #64	; 0x40
   105b8:	aa000025 	bge	10654 <SYSTEM_$$_SHIFT128RIGHT$QWORD$QWORD$SMALLINT$QWORD$QWORD+0xf0>
   105bc:	e1a08001 	mov	r8, r1
   105c0:	e3580040 	cmp	r8, #64	; 0x40
   105c4:	23a08040 	movcs	r8, #64	; 0x40
   105c8:	e2681020 	rsb	r1, r8, #32
   105cc:	e51b7030 	ldr	r7, [fp, #-48]	; 0xffffffd0
   105d0:	e1a05817 	lsl	r5, r7, r8
   105d4:	e1a07810 	lsl	r7, r0, r8
   105d8:	e1855130 	orr	r5, r5, r0, lsr r1
   105dc:	e2581020 	subs	r1, r8, #32
   105e0:	51a05110 	lslpl	r5, r0, r1
   105e4:	e1a08006 	mov	r8, r6
   105e8:	e3580040 	cmp	r8, #64	; 0x40
   105ec:	23a08040 	movcs	r8, #64	; 0x40
   105f0:	e2681020 	rsb	r1, r8, #32
   105f4:	e1a02832 	lsr	r2, r2, r8
   105f8:	e1a09833 	lsr	r9, r3, r8
   105fc:	e1822113 	orr	r2, r2, r3, lsl r1
   10600:	e2581020 	subs	r1, r8, #32
   10604:	51a02133 	lsrpl	r2, r3, r1
   10608:	e1872002 	orr	r2, r7, r2
   1060c:	e1851009 	orr	r1, r5, r9
   10610:	e1a0c002 	mov	ip, r2
   10614:	e1a04001 	mov	r4, r1
   10618:	e1a07006 	mov	r7, r6
   1061c:	e3570040 	cmp	r7, #64	; 0x40
   10620:	23a07040 	movcs	r7, #64	; 0x40
   10624:	e2675020 	rsb	r5, r7, #32
   10628:	e1a02730 	lsr	r2, r0, r7
   1062c:	e51b1030 	ldr	r1, [fp, #-48]	; 0xffffffd0
   10630:	e1a03731 	lsr	r3, r1, r7
   10634:	e51b1030 	ldr	r1, [fp, #-48]	; 0xffffffd0
   10638:	e1822511 	orr	r2, r2, r1, lsl r5
   1063c:	e2575020 	subs	r5, r7, #32
   10640:	e51b1030 	ldr	r1, [fp, #-48]	; 0xffffffd0
   10644:	51a02531 	lsrpl	r2, r1, r5
   10648:	e1a0a002 	mov	sl, r2
   1064c:	e1a0e003 	mov	lr, r3
   10650:	ea000014 	b	106a8 <SYSTEM_$$_SHIFT128RIGHT$QWORD$QWORD$SMALLINT$QWORD$QWORD+0x144>
   10654:	e3560080 	cmp	r6, #128	; 0x80
   10658:	aa00000e 	bge	10698 <SYSTEM_$$_SHIFT128RIGHT$QWORD$QWORD$SMALLINT$QWORD$QWORD+0x134>
   1065c:	e206203f 	and	r2, r6, #63	; 0x3f
   10660:	e3520040 	cmp	r2, #64	; 0x40
   10664:	23a02040 	movcs	r2, #64	; 0x40
   10668:	e2621020 	rsb	r1, r2, #32
   1066c:	e1a05230 	lsr	r5, r0, r2
   10670:	e51b0030 	ldr	r0, [fp, #-48]	; 0xffffffd0
   10674:	e1a03230 	lsr	r3, r0, r2
   10678:	e51b0030 	ldr	r0, [fp, #-48]	; 0xffffffd0
   1067c:	e1855110 	orr	r5, r5, r0, lsl r1
   10680:	e2521020 	subs	r1, r2, #32
   10684:	e51b0030 	ldr	r0, [fp, #-48]	; 0xffffffd0
   10688:	51a05130 	lsrpl	r5, r0, r1
   1068c:	e1a0c005 	mov	ip, r5
   10690:	e1a04003 	mov	r4, r3
   10694:	ea000001 	b	106a0 <SYSTEM_$$_SHIFT128RIGHT$QWORD$QWORD$SMALLINT$QWORD$QWORD+0x13c>
   10698:	e3a0c000 	mov	ip, #0
   1069c:	e3a04000 	mov	r4, #0
   106a0:	e3a0a000 	mov	sl, #0
   106a4:	e3a0e000 	mov	lr, #0
   106a8:	e1a0200c 	mov	r2, ip
   106ac:	e1a01004 	mov	r1, r4
   106b0:	e51b0034 	ldr	r0, [fp, #-52]	; 0xffffffcc
   106b4:	e5802000 	str	r2, [r0]
   106b8:	e51b0034 	ldr	r0, [fp, #-52]	; 0xffffffcc
   106bc:	e5801004 	str	r1, [r0, #4]
   106c0:	e1a0200a 	mov	r2, sl
   106c4:	e1a0100e 	mov	r1, lr
   106c8:	e51b0038 	ldr	r0, [fp, #-56]	; 0xffffffc8
   106cc:	e5802000 	str	r2, [r0]
   106d0:	e51b0038 	ldr	r0, [fp, #-56]	; 0xffffffc8
   106d4:	e5801004 	str	r1, [r0, #4]
   106d8:	e91baff8 	ldmdb	fp, {r3, r4, r5, r6, r7, r8, r9, sl, fp, sp, pc}

000106dc <SYSTEM_$$_SHIFT128RIGHTJAMMING$QWORD$QWORD$SMALLINT$QWORD$QWORD>:
   106dc:	e1a0c00d 	mov	ip, sp
   106e0:	e92ddff8 	push	{r3, r4, r5, r6, r7, r8, r9, sl, fp, ip, lr, pc}
   106e4:	e24cb004 	sub	fp, ip, #4
   106e8:	e24dd048 	sub	sp, sp, #72	; 0x48
   106ec:	e50b0030 	str	r0, [fp, #-48]	; 0xffffffd0
   106f0:	e1dba0f4 	ldrsh	sl, [fp, #4]
   106f4:	e59b0008 	ldr	r0, [fp, #8]
   106f8:	e50b0044 	str	r0, [fp, #-68]	; 0xffffffbc
   106fc:	e59b000c 	ldr	r0, [fp, #12]
   10700:	e50b0040 	str	r0, [fp, #-64]	; 0xffffffc0
   10704:	e26a0000 	rsb	r0, sl, #0
   10708:	e200003f 	and	r0, r0, #63	; 0x3f
   1070c:	e6af0070 	sxtb	r0, r0
   10710:	e1a09000 	mov	r9, r0
   10714:	e35a0000 	cmp	sl, #0
   10718:	1a000005 	bne	10734 <SYSTEM_$$_SHIFT128RIGHTJAMMING$QWORD$QWORD$SMALLINT$QWORD$QWORD+0x58>
   1071c:	e50b2048 	str	r2, [fp, #-72]	; 0xffffffb8
   10720:	e50b3034 	str	r3, [fp, #-52]	; 0xffffffcc
   10724:	e51b0030 	ldr	r0, [fp, #-48]	; 0xffffffd0
   10728:	e50b0038 	str	r0, [fp, #-56]	; 0xffffffc8
   1072c:	e50b103c 	str	r1, [fp, #-60]	; 0xffffffc4
   10730:	ea000076 	b	10910 <SYSTEM_$$_SHIFT128RIGHTJAMMING$QWORD$QWORD$SMALLINT$QWORD$QWORD+0x234>
   10734:	e35a0040 	cmp	sl, #64	; 0x40
   10738:	aa000036 	bge	10818 <SYSTEM_$$_SHIFT128RIGHTJAMMING$QWORD$QWORD$SMALLINT$QWORD$QWORD+0x13c>
   1073c:	e1a0400a 	mov	r4, sl
   10740:	e3540040 	cmp	r4, #64	; 0x40
   10744:	23a04040 	movcs	r4, #64	; 0x40
   10748:	e2645020 	rsb	r5, r4, #32
   1074c:	e1a00432 	lsr	r0, r2, r4
   10750:	e1a0c433 	lsr	ip, r3, r4
   10754:	e1800513 	orr	r0, r0, r3, lsl r5
   10758:	e2545020 	subs	r5, r4, #32
   1075c:	51a00533 	lsrpl	r0, r3, r5
   10760:	e1a04009 	mov	r4, r9
   10764:	e1a05004 	mov	r5, r4
   10768:	e3550040 	cmp	r5, #64	; 0x40
   1076c:	23a05040 	movcs	r5, #64	; 0x40
   10770:	e2656020 	rsb	r6, r5, #32
   10774:	e1a07511 	lsl	r7, r1, r5
   10778:	e51be030 	ldr	lr, [fp, #-48]	; 0xffffffd0
   1077c:	e1a0851e 	lsl	r8, lr, r5
   10780:	e51be030 	ldr	lr, [fp, #-48]	; 0xffffffd0
   10784:	e187763e 	orr	r7, r7, lr, lsr r6
   10788:	e2556020 	subs	r6, r5, #32
   1078c:	e51b5030 	ldr	r5, [fp, #-48]	; 0xffffffd0
   10790:	51a07615 	lslpl	r7, r5, r6
   10794:	e1805008 	orr	r5, r0, r8
   10798:	e18c6007 	orr	r6, ip, r7
   1079c:	e1a07004 	mov	r7, r4
   107a0:	e3570040 	cmp	r7, #64	; 0x40
   107a4:	23a07040 	movcs	r7, #64	; 0x40
   107a8:	e2670020 	rsb	r0, r7, #32
   107ac:	e1a0c713 	lsl	ip, r3, r7
   107b0:	e1a04712 	lsl	r4, r2, r7
   107b4:	e18cc032 	orr	ip, ip, r2, lsr r0
   107b8:	e2570020 	subs	r0, r7, #32
   107bc:	51a0c012 	lslpl	ip, r2, r0
   107c0:	e194000c 	orrs	r0, r4, ip
   107c4:	13a00001 	movne	r0, #1
   107c8:	03a00000 	moveq	r0, #0
   107cc:	e20000ff 	and	r0, r0, #255	; 0xff
   107d0:	e3a04000 	mov	r4, #0
   107d4:	e185c000 	orr	ip, r5, r0
   107d8:	e1860004 	orr	r0, r6, r4
   107dc:	e50bc048 	str	ip, [fp, #-72]	; 0xffffffb8
   107e0:	e50b0034 	str	r0, [fp, #-52]	; 0xffffffcc
   107e4:	e1a0400a 	mov	r4, sl
   107e8:	e3540040 	cmp	r4, #64	; 0x40
   107ec:	23a04040 	movcs	r4, #64	; 0x40
   107f0:	e2645020 	rsb	r5, r4, #32
   107f4:	e51b0030 	ldr	r0, [fp, #-48]	; 0xffffffd0
   107f8:	e1a0c430 	lsr	ip, r0, r4
   107fc:	e1a00431 	lsr	r0, r1, r4
   10800:	e18cc511 	orr	ip, ip, r1, lsl r5
   10804:	e2545020 	subs	r5, r4, #32
   10808:	51a0c531 	lsrpl	ip, r1, r5
   1080c:	e50bc038 	str	ip, [fp, #-56]	; 0xffffffc8
   10810:	e50b003c 	str	r0, [fp, #-60]	; 0xffffffc4
   10814:	ea00003d 	b	10910 <SYSTEM_$$_SHIFT128RIGHTJAMMING$QWORD$QWORD$SMALLINT$QWORD$QWORD+0x234>
   10818:	e35a0040 	cmp	sl, #64	; 0x40
   1081c:	1a00000a 	bne	1084c <SYSTEM_$$_SHIFT128RIGHTJAMMING$QWORD$QWORD$SMALLINT$QWORD$QWORD+0x170>
   10820:	e1920003 	orrs	r0, r2, r3
   10824:	13a0c001 	movne	ip, #1
   10828:	03a0c000 	moveq	ip, #0
   1082c:	e20cc0ff 	and	ip, ip, #255	; 0xff
   10830:	e3a04000 	mov	r4, #0
   10834:	e51b0030 	ldr	r0, [fp, #-48]	; 0xffffffd0
   10838:	e18cc000 	orr	ip, ip, r0
   1083c:	e1840001 	orr	r0, r4, r1
   10840:	e50bc048 	str	ip, [fp, #-72]	; 0xffffffb8
   10844:	e50b0034 	str	r0, [fp, #-52]	; 0xffffffcc
   10848:	ea00002d 	b	10904 <SYSTEM_$$_SHIFT128RIGHTJAMMING$QWORD$QWORD$SMALLINT$QWORD$QWORD+0x228>
   1084c:	e35a0080 	cmp	sl, #128	; 0x80
   10850:	aa000021 	bge	108dc <SYSTEM_$$_SHIFT128RIGHTJAMMING$QWORD$QWORD$SMALLINT$QWORD$QWORD+0x200>
   10854:	e1a06009 	mov	r6, r9
   10858:	e3560040 	cmp	r6, #64	; 0x40
   1085c:	23a06040 	movcs	r6, #64	; 0x40
   10860:	e266c020 	rsb	ip, r6, #32
   10864:	e1a04611 	lsl	r4, r1, r6
   10868:	e51b0030 	ldr	r0, [fp, #-48]	; 0xffffffd0
   1086c:	e1a05610 	lsl	r5, r0, r6
   10870:	e51b0030 	ldr	r0, [fp, #-48]	; 0xffffffd0
   10874:	e1844c30 	orr	r4, r4, r0, lsr ip
   10878:	e256c020 	subs	ip, r6, #32
   1087c:	e51b0030 	ldr	r0, [fp, #-48]	; 0xffffffd0
   10880:	51a04c10 	lslpl	r4, r0, ip
   10884:	e185c002 	orr	ip, r5, r2
   10888:	e1840003 	orr	r0, r4, r3
   1088c:	e19c0000 	orrs	r0, ip, r0
   10890:	13a05001 	movne	r5, #1
   10894:	03a05000 	moveq	r5, #0
   10898:	e20550ff 	and	r5, r5, #255	; 0xff
   1089c:	e3a04000 	mov	r4, #0
   108a0:	e20a603f 	and	r6, sl, #63	; 0x3f
   108a4:	e3560040 	cmp	r6, #64	; 0x40
   108a8:	23a06040 	movcs	r6, #64	; 0x40
   108ac:	e266c020 	rsb	ip, r6, #32
   108b0:	e51b0030 	ldr	r0, [fp, #-48]	; 0xffffffd0
   108b4:	e1a07630 	lsr	r7, r0, r6
   108b8:	e1a00631 	lsr	r0, r1, r6
   108bc:	e1877c11 	orr	r7, r7, r1, lsl ip
   108c0:	e256c020 	subs	ip, r6, #32
   108c4:	51a07c31 	lsrpl	r7, r1, ip
   108c8:	e185c007 	orr	ip, r5, r7
   108cc:	e1840000 	orr	r0, r4, r0
   108d0:	e50bc048 	str	ip, [fp, #-72]	; 0xffffffb8
   108d4:	e50b0034 	str	r0, [fp, #-52]	; 0xffffffcc
   108d8:	ea000009 	b	10904 <SYSTEM_$$_SHIFT128RIGHTJAMMING$QWORD$QWORD$SMALLINT$QWORD$QWORD+0x228>
   108dc:	e51b0030 	ldr	r0, [fp, #-48]	; 0xffffffd0
   108e0:	e1802002 	orr	r2, r0, r2
   108e4:	e1810003 	orr	r0, r1, r3
   108e8:	e1920000 	orrs	r0, r2, r0
   108ec:	13a01001 	movne	r1, #1
   108f0:	03a01000 	moveq	r1, #0
   108f4:	e20110ff 	and	r1, r1, #255	; 0xff
   108f8:	e3a00000 	mov	r0, #0
   108fc:	e50b1048 	str	r1, [fp, #-72]	; 0xffffffb8
   10900:	e50b0034 	str	r0, [fp, #-52]	; 0xffffffcc
   10904:	e3a00000 	mov	r0, #0
   10908:	e50b0038 	str	r0, [fp, #-56]	; 0xffffffc8
   1090c:	e50b003c 	str	r0, [fp, #-60]	; 0xffffffc4
   10910:	e51b1048 	ldr	r1, [fp, #-72]	; 0xffffffb8
   10914:	e51b2034 	ldr	r2, [fp, #-52]	; 0xffffffcc
   10918:	e51b0040 	ldr	r0, [fp, #-64]	; 0xffffffc0
   1091c:	e5801000 	str	r1, [r0]
   10920:	e51b0040 	ldr	r0, [fp, #-64]	; 0xffffffc0
   10924:	e5802004 	str	r2, [r0, #4]
   10928:	e51b1038 	ldr	r1, [fp, #-56]	; 0xffffffc8
   1092c:	e51b203c 	ldr	r2, [fp, #-60]	; 0xffffffc4
   10930:	e51b0044 	ldr	r0, [fp, #-68]	; 0xffffffbc
   10934:	e5801000 	str	r1, [r0]
   10938:	e51b0044 	ldr	r0, [fp, #-68]	; 0xffffffbc
   1093c:	e5802004 	str	r2, [r0, #4]
   10940:	e91baff8 	ldmdb	fp, {r3, r4, r5, r6, r7, r8, r9, sl, fp, sp, pc}

00010944 <SYSTEM_$$_SHIFT64RIGHT$LONGWORD$LONGWORD$SMALLINT$LONGWORD$LONGWORD>:
   10944:	e1a0c00d 	mov	ip, sp
   10948:	e92dd878 	push	{r3, r4, r5, r6, fp, ip, lr, pc}
   1094c:	e24cb004 	sub	fp, ip, #4
   10950:	e24dd030 	sub	sp, sp, #48	; 0x30
   10954:	e59b6004 	ldr	r6, [fp, #4]
   10958:	e262c000 	rsb	ip, r2, #0
   1095c:	e20cc01f 	and	ip, ip, #31
   10960:	e6afc07c 	sxtb	ip, ip
   10964:	e3520000 	cmp	r2, #0
   10968:	01a04001 	moveq	r4, r1
   1096c:	01a05000 	moveq	r5, r0
   10970:	0a000009 	beq	1099c <SYSTEM_$$_SHIFT64RIGHT$LONGWORD$LONGWORD$SMALLINT$LONGWORD$LONGWORD+0x58>
   10974:	e3520020 	cmp	r2, #32
   10978:	b1a0cc10 	lsllt	ip, r0, ip
   1097c:	b18c4231 	orrlt	r4, ip, r1, lsr r2
   10980:	b1a05230 	lsrlt	r5, r0, r2
   10984:	ba000004 	blt	1099c <SYSTEM_$$_SHIFT64RIGHT$LONGWORD$LONGWORD$SMALLINT$LONGWORD$LONGWORD+0x58>
   10988:	e3520040 	cmp	r2, #64	; 0x40
   1098c:	b202101f 	andlt	r1, r2, #31
   10990:	b1a04130 	lsrlt	r4, r0, r1
   10994:	a3a04000 	movge	r4, #0
   10998:	e3a05000 	mov	r5, #0
   1099c:	e5864000 	str	r4, [r6]
   109a0:	e5835000 	str	r5, [r3]
   109a4:	e91ba878 	ldmdb	fp, {r3, r4, r5, r6, fp, sp, pc}

000109a8 <SYSTEM_$$_SHIFT64RIGHTJAMMING$LONGWORD$LONGWORD$SMALLINT$LONGWORD$LONGWORD>:
   109a8:	e1a0c00d 	mov	ip, sp
   109ac:	e92ddbf0 	push	{r4, r5, r6, r7, r8, r9, fp, ip, lr, pc}
   109b0:	e24cb004 	sub	fp, ip, #4
   109b4:	e24dd030 	sub	sp, sp, #48	; 0x30
   109b8:	e59b7004 	ldr	r7, [fp, #4]
   109bc:	e262c000 	rsb	ip, r2, #0
   109c0:	e20cc01f 	and	ip, ip, #31
   109c4:	e6afc07c 	sxtb	ip, ip
   109c8:	e3520000 	cmp	r2, #0
   109cc:	01a04001 	moveq	r4, r1
   109d0:	01a05000 	moveq	r5, r0
   109d4:	0a00001b 	beq	10a48 <SYSTEM_$$_SHIFT64RIGHTJAMMING$LONGWORD$LONGWORD$SMALLINT$LONGWORD$LONGWORD+0xa0>
   109d8:	e3520020 	cmp	r2, #32
   109dc:	aa000007 	bge	10a00 <SYSTEM_$$_SHIFT64RIGHTJAMMING$LONGWORD$LONGWORD$SMALLINT$LONGWORD$LONGWORD+0x58>
   109e0:	e1a08231 	lsr	r8, r1, r2
   109e4:	e1a0600c 	mov	r6, ip
   109e8:	e1888610 	orr	r8, r8, r0, lsl r6
   109ec:	e1b06611 	lsls	r6, r1, r6
   109f0:	13a06001 	movne	r6, #1
   109f4:	e1864008 	orr	r4, r6, r8
   109f8:	e1a05230 	lsr	r5, r0, r2
   109fc:	ea000011 	b	10a48 <SYSTEM_$$_SHIFT64RIGHTJAMMING$LONGWORD$LONGWORD$SMALLINT$LONGWORD$LONGWORD+0xa0>
   10a00:	e3520020 	cmp	r2, #32
   10a04:	1a000004 	bne	10a1c <SYSTEM_$$_SHIFT64RIGHTJAMMING$LONGWORD$LONGWORD$SMALLINT$LONGWORD$LONGWORD+0x74>
   10a08:	e3510000 	cmp	r1, #0
   10a0c:	13a06001 	movne	r6, #1
   10a10:	03a06000 	moveq	r6, #0
   10a14:	e1804006 	orr	r4, r0, r6
   10a18:	ea000009 	b	10a44 <SYSTEM_$$_SHIFT64RIGHTJAMMING$LONGWORD$LONGWORD$SMALLINT$LONGWORD$LONGWORD+0x9c>
   10a1c:	e3520040 	cmp	r2, #64	; 0x40
   10a20:	aa000004 	bge	10a38 <SYSTEM_$$_SHIFT64RIGHTJAMMING$LONGWORD$LONGWORD$SMALLINT$LONGWORD$LONGWORD+0x90>
   10a24:	e191cc10 	orrs	ip, r1, r0, lsl ip
   10a28:	13a0c001 	movne	ip, #1
   10a2c:	e202201f 	and	r2, r2, #31
   10a30:	e18c4230 	orr	r4, ip, r0, lsr r2
   10a34:	ea000002 	b	10a44 <SYSTEM_$$_SHIFT64RIGHTJAMMING$LONGWORD$LONGWORD$SMALLINT$LONGWORD$LONGWORD+0x9c>
   10a38:	e1910000 	orrs	r0, r1, r0
   10a3c:	13a00001 	movne	r0, #1
   10a40:	e1a04000 	mov	r4, r0
   10a44:	e3a05000 	mov	r5, #0
   10a48:	e5874000 	str	r4, [r7]
   10a4c:	e5835000 	str	r5, [r3]
   10a50:	e91babf0 	ldmdb	fp, {r4, r5, r6, r7, r8, r9, fp, sp, pc}

00010a54 <SYSTEM_$$_SHIFT64RIGHTJAMMING$QWORD$SMALLINT$QWORD>:
   10a54:	e92d43f8 	push	{r3, r4, r5, r6, r7, r8, r9, lr}
   10a58:	e3520000 	cmp	r2, #0
   10a5c:	01a0c000 	moveq	ip, r0
   10a60:	01a04001 	moveq	r4, r1
   10a64:	0a000024 	beq	10afc <SYSTEM_$$_SHIFT64RIGHTJAMMING$QWORD$SMALLINT$QWORD+0xa8>
   10a68:	e3520040 	cmp	r2, #64	; 0x40
   10a6c:	aa00001b 	bge	10ae0 <SYSTEM_$$_SHIFT64RIGHTJAMMING$QWORD$SMALLINT$QWORD+0x8c>
   10a70:	e2625000 	rsb	r5, r2, #0
   10a74:	e205503f 	and	r5, r5, #63	; 0x3f
   10a78:	e3550040 	cmp	r5, #64	; 0x40
   10a7c:	23a05040 	movcs	r5, #64	; 0x40
   10a80:	e2657020 	rsb	r7, r5, #32
   10a84:	e1a06511 	lsl	r6, r1, r5
   10a88:	e1a08510 	lsl	r8, r0, r5
   10a8c:	e1866730 	orr	r6, r6, r0, lsr r7
   10a90:	e2557020 	subs	r7, r5, #32
   10a94:	51a06710 	lslpl	r6, r0, r7
   10a98:	e1985006 	orrs	r5, r8, r6
   10a9c:	13a08001 	movne	r8, #1
   10aa0:	03a08000 	moveq	r8, #0
   10aa4:	e20880ff 	and	r8, r8, #255	; 0xff
   10aa8:	e3a09000 	mov	r9, #0
   10aac:	e3520040 	cmp	r2, #64	; 0x40
   10ab0:	23a02040 	movcs	r2, #64	; 0x40
   10ab4:	e2625020 	rsb	r5, r2, #32
   10ab8:	e1a06230 	lsr	r6, r0, r2
   10abc:	e1a07231 	lsr	r7, r1, r2
   10ac0:	e1866511 	orr	r6, r6, r1, lsl r5
   10ac4:	e2525020 	subs	r5, r2, #32
   10ac8:	51a06531 	lsrpl	r6, r1, r5
   10acc:	e1882006 	orr	r2, r8, r6
   10ad0:	e1895007 	orr	r5, r9, r7
   10ad4:	e1a0c002 	mov	ip, r2
   10ad8:	e1a04005 	mov	r4, r5
   10adc:	ea000006 	b	10afc <SYSTEM_$$_SHIFT64RIGHTJAMMING$QWORD$SMALLINT$QWORD+0xa8>
   10ae0:	e1900001 	orrs	r0, r0, r1
   10ae4:	13a00001 	movne	r0, #1
   10ae8:	03a00000 	moveq	r0, #0
   10aec:	e20000ff 	and	r0, r0, #255	; 0xff
   10af0:	e3a01000 	mov	r1, #0
   10af4:	e1a0c000 	mov	ip, r0
   10af8:	e1a04001 	mov	r4, r1
   10afc:	e583c000 	str	ip, [r3]
   10b00:	e5834004 	str	r4, [r3, #4]
   10b04:	e8bd83f8 	pop	{r3, r4, r5, r6, r7, r8, r9, pc}

00010b08 <SYSTEM_$$_SHIFT64EXTRARIGHTJAMMING$LONGWORD$LONGWORD$LONGWORD$SMALLINT$LONGWORD$LONGWORD$LONGWORD>:
   10b08:	e1a0c00d 	mov	ip, sp
   10b0c:	e92ddff8 	push	{r3, r4, r5, r6, r7, r8, r9, sl, fp, ip, lr, pc}
   10b10:	e24cb004 	sub	fp, ip, #4
   10b14:	e24dd030 	sub	sp, sp, #48	; 0x30
   10b18:	e59ba004 	ldr	sl, [fp, #4]
   10b1c:	e59b8008 	ldr	r8, [fp, #8]
   10b20:	e59b900c 	ldr	r9, [fp, #12]
   10b24:	e263c000 	rsb	ip, r3, #0
   10b28:	e20cc01f 	and	ip, ip, #31
   10b2c:	e6afc07c 	sxtb	ip, ip
   10b30:	e3530000 	cmp	r3, #0
   10b34:	01a04002 	moveq	r4, r2
   10b38:	01a05001 	moveq	r5, r1
   10b3c:	01a06000 	moveq	r6, r0
   10b40:	0a00001c 	beq	10bb8 <SYSTEM_$$_SHIFT64EXTRARIGHTJAMMING$LONGWORD$LONGWORD$LONGWORD$SMALLINT$LONGWORD$LONGWORD$LONGWORD+0xb0>
   10b44:	e3530020 	cmp	r3, #32
   10b48:	aa000004 	bge	10b60 <SYSTEM_$$_SHIFT64EXTRARIGHTJAMMING$LONGWORD$LONGWORD$LONGWORD$SMALLINT$LONGWORD$LONGWORD$LONGWORD+0x58>
   10b4c:	e1a04c11 	lsl	r4, r1, ip
   10b50:	e1a0ec10 	lsl	lr, r0, ip
   10b54:	e18e5331 	orr	r5, lr, r1, lsr r3
   10b58:	e1a06330 	lsr	r6, r0, r3
   10b5c:	ea000011 	b	10ba8 <SYSTEM_$$_SHIFT64EXTRARIGHTJAMMING$LONGWORD$LONGWORD$LONGWORD$SMALLINT$LONGWORD$LONGWORD$LONGWORD+0xa0>
   10b60:	e3530020 	cmp	r3, #32
   10b64:	01a04001 	moveq	r4, r1
   10b68:	01a05000 	moveq	r5, r0
   10b6c:	0a00000c 	beq	10ba4 <SYSTEM_$$_SHIFT64EXTRARIGHTJAMMING$LONGWORD$LONGWORD$LONGWORD$SMALLINT$LONGWORD$LONGWORD$LONGWORD+0x9c>
   10b70:	e1812002 	orr	r2, r1, r2
   10b74:	e3530040 	cmp	r3, #64	; 0x40
   10b78:	b1a04c10 	lsllt	r4, r0, ip
   10b7c:	b203101f 	andlt	r1, r3, #31
   10b80:	b1a05130 	lsrlt	r5, r0, r1
   10b84:	ba000006 	blt	10ba4 <SYSTEM_$$_SHIFT64EXTRARIGHTJAMMING$LONGWORD$LONGWORD$LONGWORD$SMALLINT$LONGWORD$LONGWORD$LONGWORD+0x9c>
   10b88:	e3530040 	cmp	r3, #64	; 0x40
   10b8c:	01a04000 	moveq	r4, r0
   10b90:	0a000002 	beq	10ba0 <SYSTEM_$$_SHIFT64EXTRARIGHTJAMMING$LONGWORD$LONGWORD$LONGWORD$SMALLINT$LONGWORD$LONGWORD$LONGWORD+0x98>
   10b94:	e3500000 	cmp	r0, #0
   10b98:	13a00001 	movne	r0, #1
   10b9c:	e1a04000 	mov	r4, r0
   10ba0:	e3a05000 	mov	r5, #0
   10ba4:	e3a06000 	mov	r6, #0
   10ba8:	e3520000 	cmp	r2, #0
   10bac:	13a00001 	movne	r0, #1
   10bb0:	03a00000 	moveq	r0, #0
   10bb4:	e1844000 	orr	r4, r4, r0
   10bb8:	e5894000 	str	r4, [r9]
   10bbc:	e5885000 	str	r5, [r8]
   10bc0:	e58a6000 	str	r6, [sl]
   10bc4:	e91baff8 	ldmdb	fp, {r3, r4, r5, r6, r7, r8, r9, sl, fp, sp, pc}

00010bc8 <SYSTEM_$$_SHORTSHIFT64LEFT$LONGWORD$LONGWORD$SMALLINT$LONGWORD$LONGWORD>:
   10bc8:	e1a0c00d 	mov	ip, sp
   10bcc:	e92dd818 	push	{r3, r4, fp, ip, lr, pc}
   10bd0:	e24cb004 	sub	fp, ip, #4
   10bd4:	e24dd030 	sub	sp, sp, #48	; 0x30
   10bd8:	e59bc004 	ldr	ip, [fp, #4]
   10bdc:	e1a04211 	lsl	r4, r1, r2
   10be0:	e58c4000 	str	r4, [ip]
   10be4:	e3520000 	cmp	r2, #0
   10be8:	05830000 	streq	r0, [r3]
   10bec:	0a000004 	beq	10c04 <SYSTEM_$$_SHORTSHIFT64LEFT$LONGWORD$LONGWORD$SMALLINT$LONGWORD$LONGWORD+0x3c>
   10bf0:	e262c000 	rsb	ip, r2, #0
   10bf4:	e20cc01f 	and	ip, ip, #31
   10bf8:	e1a01c31 	lsr	r1, r1, ip
   10bfc:	e1810210 	orr	r0, r1, r0, lsl r2
   10c00:	e5830000 	str	r0, [r3]
   10c04:	e91ba818 	ldmdb	fp, {r3, r4, fp, sp, pc}

00010c08 <SYSTEM_$$_SHORTSHIFT96LEFT$LONGWORD$LONGWORD$LONGWORD$SMALLINT$LONGWORD$LONGWORD$LONGWORD>:
   10c08:	e1a0c00d 	mov	ip, sp
   10c0c:	e92dd8f0 	push	{r4, r5, r6, r7, fp, ip, lr, pc}
   10c10:	e24cb004 	sub	fp, ip, #4
   10c14:	e24dd030 	sub	sp, sp, #48	; 0x30
   10c18:	e59b7004 	ldr	r7, [fp, #4]
   10c1c:	e59b5008 	ldr	r5, [fp, #8]
   10c20:	e59b600c 	ldr	r6, [fp, #12]
   10c24:	e1a0c312 	lsl	ip, r2, r3
   10c28:	e1a04311 	lsl	r4, r1, r3
   10c2c:	e1a00310 	lsl	r0, r0, r3
   10c30:	e3530000 	cmp	r3, #0
   10c34:	da000004 	ble	10c4c <SYSTEM_$$_SHORTSHIFT96LEFT$LONGWORD$LONGWORD$LONGWORD$SMALLINT$LONGWORD$LONGWORD$LONGWORD+0x44>
   10c38:	e2633000 	rsb	r3, r3, #0
   10c3c:	e203301f 	and	r3, r3, #31
   10c40:	e6af3073 	sxtb	r3, r3
   10c44:	e1844332 	orr	r4, r4, r2, lsr r3
   10c48:	e1800331 	orr	r0, r0, r1, lsr r3
   10c4c:	e586c000 	str	ip, [r6]
   10c50:	e5854000 	str	r4, [r5]
   10c54:	e5870000 	str	r0, [r7]
   10c58:	e91ba8f0 	ldmdb	fp, {r4, r5, r6, r7, fp, sp, pc}

00010c5c <SYSTEM_$$_SHORTSHIFT128LEFT$QWORD$QWORD$SMALLINT$QWORD$QWORD>:
   10c5c:	e1a0c00d 	mov	ip, sp
   10c60:	e92ddbf0 	push	{r4, r5, r6, r7, r8, r9, fp, ip, lr, pc}
   10c64:	e24cb004 	sub	fp, ip, #4
   10c68:	e24dd030 	sub	sp, sp, #48	; 0x30
   10c6c:	e1db40f4 	ldrsh	r4, [fp, #4]
   10c70:	e59b5008 	ldr	r5, [fp, #8]
   10c74:	e59b700c 	ldr	r7, [fp, #12]
   10c78:	e1a0c004 	mov	ip, r4
   10c7c:	e35c0040 	cmp	ip, #64	; 0x40
   10c80:	23a0c040 	movcs	ip, #64	; 0x40
   10c84:	e26c8020 	rsb	r8, ip, #32
   10c88:	e1a06c13 	lsl	r6, r3, ip
   10c8c:	e1a09c12 	lsl	r9, r2, ip
   10c90:	e1866832 	orr	r6, r6, r2, lsr r8
   10c94:	e25c8020 	subs	r8, ip, #32
   10c98:	51a06812 	lslpl	r6, r2, r8
   10c9c:	e5879000 	str	r9, [r7]
   10ca0:	e5876004 	str	r6, [r7, #4]
   10ca4:	e3540000 	cmp	r4, #0
   10ca8:	05850000 	streq	r0, [r5]
   10cac:	05851004 	streq	r1, [r5, #4]
   10cb0:	0a000015 	beq	10d0c <SYSTEM_$$_SHORTSHIFT128LEFT$QWORD$QWORD$SMALLINT$QWORD$QWORD+0xb0>
   10cb4:	e264c000 	rsb	ip, r4, #0
   10cb8:	e20cc03f 	and	ip, ip, #63	; 0x3f
   10cbc:	e35c0040 	cmp	ip, #64	; 0x40
   10cc0:	23a0c040 	movcs	ip, #64	; 0x40
   10cc4:	e26c6020 	rsb	r6, ip, #32
   10cc8:	e1a08c32 	lsr	r8, r2, ip
   10ccc:	e1a07c33 	lsr	r7, r3, ip
   10cd0:	e1888613 	orr	r8, r8, r3, lsl r6
   10cd4:	e25c6020 	subs	r6, ip, #32
   10cd8:	51a08633 	lsrpl	r8, r3, r6
   10cdc:	e3540040 	cmp	r4, #64	; 0x40
   10ce0:	23a04040 	movcs	r4, #64	; 0x40
   10ce4:	e2642020 	rsb	r2, r4, #32
   10ce8:	e1a03411 	lsl	r3, r1, r4
   10cec:	e1a01410 	lsl	r1, r0, r4
   10cf0:	e1833230 	orr	r3, r3, r0, lsr r2
   10cf4:	e2542020 	subs	r2, r4, #32
   10cf8:	51a03210 	lslpl	r3, r0, r2
   10cfc:	e1881001 	orr	r1, r8, r1
   10d00:	e1870003 	orr	r0, r7, r3
   10d04:	e5851000 	str	r1, [r5]
   10d08:	e5850004 	str	r0, [r5, #4]
   10d0c:	e91babf0 	ldmdb	fp, {r4, r5, r6, r7, r8, r9, fp, sp, pc}

00010d10 <SYSTEM_$$_ADD64$LONGWORD$LONGWORD$LONGWORD$LONGWORD$LONGWORD$LONGWORD>:
   10d10:	e1a0c00d 	mov	ip, sp
   10d14:	e92dd818 	push	{r3, r4, fp, ip, lr, pc}
   10d18:	e24cb004 	sub	fp, ip, #4
   10d1c:	e24dd030 	sub	sp, sp, #48	; 0x30
   10d20:	e59b4004 	ldr	r4, [fp, #4]
   10d24:	e59bc008 	ldr	ip, [fp, #8]
   10d28:	e0833001 	add	r3, r3, r1
   10d2c:	e58c3000 	str	r3, [ip]
   10d30:	e1530001 	cmp	r3, r1
   10d34:	33a01001 	movcc	r1, #1
   10d38:	23a01000 	movcs	r1, #0
   10d3c:	e0820000 	add	r0, r2, r0
   10d40:	e0800001 	add	r0, r0, r1
   10d44:	e5840000 	str	r0, [r4]
   10d48:	e91ba818 	ldmdb	fp, {r3, r4, fp, sp, pc}

00010d4c <SYSTEM_$$_ADD96$crcEA7CF4C0>:
   10d4c:	e1a0c00d 	mov	ip, sp
   10d50:	e92ddbf0 	push	{r4, r5, r6, r7, r8, r9, fp, ip, lr, pc}
   10d54:	e24cb004 	sub	fp, ip, #4
   10d58:	e24dd030 	sub	sp, sp, #48	; 0x30
   10d5c:	e59b4004 	ldr	r4, [fp, #4]
   10d60:	e59bc008 	ldr	ip, [fp, #8]
   10d64:	e59b500c 	ldr	r5, [fp, #12]
   10d68:	e59b6010 	ldr	r6, [fp, #16]
   10d6c:	e59b7014 	ldr	r7, [fp, #20]
   10d70:	e08cc002 	add	ip, ip, r2
   10d74:	e15c0002 	cmp	ip, r2
   10d78:	33a02001 	movcc	r2, #1
   10d7c:	23a02000 	movcs	r2, #0
   10d80:	e0844001 	add	r4, r4, r1
   10d84:	e1540001 	cmp	r4, r1
   10d88:	33a01001 	movcc	r1, #1
   10d8c:	23a01000 	movcs	r1, #0
   10d90:	e0830000 	add	r0, r3, r0
   10d94:	e0843002 	add	r3, r4, r2
   10d98:	e1a04003 	mov	r4, r3
   10d9c:	e3a08000 	mov	r8, #0
   10da0:	e6af2072 	sxtb	r2, r2
   10da4:	e1580fc2 	cmp	r8, r2, asr #31
   10da8:	ba000002 	blt	10db8 <SYSTEM_$$_ADD96$crcEA7CF4C0+0x6c>
   10dac:	ca000003 	bgt	10dc0 <SYSTEM_$$_ADD96$crcEA7CF4C0+0x74>
   10db0:	e1540002 	cmp	r4, r2
   10db4:	2a000001 	bcs	10dc0 <SYSTEM_$$_ADD96$crcEA7CF4C0+0x74>
   10db8:	e3a02001 	mov	r2, #1
   10dbc:	ea000000 	b	10dc4 <SYSTEM_$$_ADD96$crcEA7CF4C0+0x78>
   10dc0:	e3a02000 	mov	r2, #0
   10dc4:	e0800002 	add	r0, r0, r2
   10dc8:	e0800001 	add	r0, r0, r1
   10dcc:	e587c000 	str	ip, [r7]
   10dd0:	e5863000 	str	r3, [r6]
   10dd4:	e5850000 	str	r0, [r5]
   10dd8:	e91babf0 	ldmdb	fp, {r4, r5, r6, r7, r8, r9, fp, sp, pc}

00010ddc <SYSTEM_$$_SHORTSHIFT192LEFT$QWORD$QWORD$QWORD$SMALLINT$QWORD$QWORD$QWORD>:
   10ddc:	e1a0c00d 	mov	ip, sp
   10de0:	e92ddff8 	push	{r3, r4, r5, r6, r7, r8, r9, sl, fp, ip, lr, pc}
   10de4:	e24cb004 	sub	fp, ip, #4
   10de8:	e24dd040 	sub	sp, sp, #64	; 0x40
   10dec:	e50b3030 	str	r3, [fp, #-48]	; 0xffffffd0
   10df0:	e59bc004 	ldr	ip, [fp, #4]
   10df4:	e59b4008 	ldr	r4, [fp, #8]
   10df8:	e1db50fc 	ldrsh	r5, [fp, #12]
   10dfc:	e59b3010 	ldr	r3, [fp, #16]
   10e00:	e50b303c 	str	r3, [fp, #-60]	; 0xffffffc4
   10e04:	e59b3014 	ldr	r3, [fp, #20]
   10e08:	e50b3038 	str	r3, [fp, #-56]	; 0xffffffc8
   10e0c:	e59b3018 	ldr	r3, [fp, #24]
   10e10:	e50b3034 	str	r3, [fp, #-52]	; 0xffffffcc
   10e14:	e1a07005 	mov	r7, r5
   10e18:	e3570040 	cmp	r7, #64	; 0x40
   10e1c:	23a07040 	movcs	r7, #64	; 0x40
   10e20:	e2673020 	rsb	r3, r7, #32
   10e24:	e1a06714 	lsl	r6, r4, r7
   10e28:	e1a0871c 	lsl	r8, ip, r7
   10e2c:	e186633c 	orr	r6, r6, ip, lsr r3
   10e30:	e2573020 	subs	r3, r7, #32
   10e34:	51a0631c 	lslpl	r6, ip, r3
   10e38:	e1a0e008 	mov	lr, r8
   10e3c:	e1a0a006 	mov	sl, r6
   10e40:	e1a08005 	mov	r8, r5
   10e44:	e3580040 	cmp	r8, #64	; 0x40
   10e48:	23a08040 	movcs	r8, #64	; 0x40
   10e4c:	e2683020 	rsb	r3, r8, #32
   10e50:	e51b6030 	ldr	r6, [fp, #-48]	; 0xffffffd0
   10e54:	e1a07816 	lsl	r7, r6, r8
   10e58:	e1a06812 	lsl	r6, r2, r8
   10e5c:	e1877332 	orr	r7, r7, r2, lsr r3
   10e60:	e2583020 	subs	r3, r8, #32
   10e64:	51a07312 	lslpl	r7, r2, r3
   10e68:	e1a03006 	mov	r3, r6
   10e6c:	e1a06007 	mov	r6, r7
   10e70:	e1a08005 	mov	r8, r5
   10e74:	e3580040 	cmp	r8, #64	; 0x40
   10e78:	23a08040 	movcs	r8, #64	; 0x40
   10e7c:	e2687020 	rsb	r7, r8, #32
   10e80:	e1a01811 	lsl	r1, r1, r8
   10e84:	e1a09810 	lsl	r9, r0, r8
   10e88:	e1811730 	orr	r1, r1, r0, lsr r7
   10e8c:	e2587020 	subs	r7, r8, #32
   10e90:	51a01710 	lslpl	r1, r0, r7
   10e94:	e1a07009 	mov	r7, r9
   10e98:	e3550000 	cmp	r5, #0
   10e9c:	da000020 	ble	10f24 <SYSTEM_$$_SHORTSHIFT192LEFT$QWORD$QWORD$QWORD$SMALLINT$QWORD$QWORD$QWORD+0x148>
   10ea0:	e2650000 	rsb	r0, r5, #0
   10ea4:	e200003f 	and	r0, r0, #63	; 0x3f
   10ea8:	e6af0070 	sxtb	r0, r0
   10eac:	e1a08000 	mov	r8, r0
   10eb0:	e1a09008 	mov	r9, r8
   10eb4:	e3590040 	cmp	r9, #64	; 0x40
   10eb8:	23a09040 	movcs	r9, #64	; 0x40
   10ebc:	e2695020 	rsb	r5, r9, #32
   10ec0:	e1a0093c 	lsr	r0, ip, r9
   10ec4:	e1a0c934 	lsr	ip, r4, r9
   10ec8:	e1800514 	orr	r0, r0, r4, lsl r5
   10ecc:	e2595020 	subs	r5, r9, #32
   10ed0:	51a00534 	lsrpl	r0, r4, r5
   10ed4:	e1804003 	orr	r4, r0, r3
   10ed8:	e18c0006 	orr	r0, ip, r6
   10edc:	e1a03004 	mov	r3, r4
   10ee0:	e1a06000 	mov	r6, r0
   10ee4:	e1a00008 	mov	r0, r8
   10ee8:	e3500040 	cmp	r0, #64	; 0x40
   10eec:	23a00040 	movcs	r0, #64	; 0x40
   10ef0:	e260c020 	rsb	ip, r0, #32
   10ef4:	e1a02032 	lsr	r2, r2, r0
   10ef8:	e51b5030 	ldr	r5, [fp, #-48]	; 0xffffffd0
   10efc:	e1a04035 	lsr	r4, r5, r0
   10f00:	e51b5030 	ldr	r5, [fp, #-48]	; 0xffffffd0
   10f04:	e1822c15 	orr	r2, r2, r5, lsl ip
   10f08:	e250c020 	subs	ip, r0, #32
   10f0c:	e51b0030 	ldr	r0, [fp, #-48]	; 0xffffffd0
   10f10:	51a02c30 	lsrpl	r2, r0, ip
   10f14:	e1822007 	orr	r2, r2, r7
   10f18:	e1840001 	orr	r0, r4, r1
   10f1c:	e1a07002 	mov	r7, r2
   10f20:	e1a01000 	mov	r1, r0
   10f24:	e1a0200e 	mov	r2, lr
   10f28:	e1a0c00a 	mov	ip, sl
   10f2c:	e51b0034 	ldr	r0, [fp, #-52]	; 0xffffffcc
   10f30:	e5802000 	str	r2, [r0]
   10f34:	e51b0034 	ldr	r0, [fp, #-52]	; 0xffffffcc
   10f38:	e580c004 	str	ip, [r0, #4]
   10f3c:	e1a02006 	mov	r2, r6
   10f40:	e51b0038 	ldr	r0, [fp, #-56]	; 0xffffffc8
   10f44:	e5803000 	str	r3, [r0]
   10f48:	e51b0038 	ldr	r0, [fp, #-56]	; 0xffffffc8
   10f4c:	e5802004 	str	r2, [r0, #4]
   10f50:	e1a02007 	mov	r2, r7
   10f54:	e51b003c 	ldr	r0, [fp, #-60]	; 0xffffffc4
   10f58:	e5802000 	str	r2, [r0]
   10f5c:	e51b003c 	ldr	r0, [fp, #-60]	; 0xffffffc4
   10f60:	e5801004 	str	r1, [r0, #4]
   10f64:	e91baff8 	ldmdb	fp, {r3, r4, r5, r6, r7, r8, r9, sl, fp, sp, pc}

00010f68 <SYSTEM_$$_ADD128$QWORD$QWORD$QWORD$QWORD$QWORD$QWORD>:
   10f68:	e1a0c00d 	mov	ip, sp
   10f6c:	e92dd9f8 	push	{r3, r4, r5, r6, r7, r8, fp, ip, lr, pc}
   10f70:	e24cb004 	sub	fp, ip, #4
   10f74:	e24dd030 	sub	sp, sp, #48	; 0x30
   10f78:	e59b8004 	ldr	r8, [fp, #4]
   10f7c:	e59b5008 	ldr	r5, [fp, #8]
   10f80:	e59bc00c 	ldr	ip, [fp, #12]
   10f84:	e59b4010 	ldr	r4, [fp, #16]
   10f88:	e59b7014 	ldr	r7, [fp, #20]
   10f8c:	e59b6018 	ldr	r6, [fp, #24]
   10f90:	e09cc002 	adds	ip, ip, r2
   10f94:	e0a44003 	adc	r4, r4, r3
   10f98:	e586c000 	str	ip, [r6]
   10f9c:	e5864004 	str	r4, [r6, #4]
   10fa0:	e1540003 	cmp	r4, r3
   10fa4:	015c0002 	cmpeq	ip, r2
   10fa8:	33a03001 	movcc	r3, #1
   10fac:	23a03000 	movcs	r3, #0
   10fb0:	e20330ff 	and	r3, r3, #255	; 0xff
   10fb4:	e3a0c000 	mov	ip, #0
   10fb8:	e0982000 	adds	r2, r8, r0
   10fbc:	e0a50001 	adc	r0, r5, r1
   10fc0:	e0921003 	adds	r1, r2, r3
   10fc4:	e0a0000c 	adc	r0, r0, ip
   10fc8:	e5871000 	str	r1, [r7]
   10fcc:	e5870004 	str	r0, [r7, #4]
   10fd0:	e91ba9f8 	ldmdb	fp, {r3, r4, r5, r6, r7, r8, fp, sp, pc}

00010fd4 <SYSTEM_$$_ADD192$QWORD$QWORD$QWORD$QWORD$QWORD$QWORD$QWORD$QWORD$QWORD>:
   10fd4:	e1a0c00d 	mov	ip, sp
   10fd8:	e92ddff8 	push	{r3, r4, r5, r6, r7, r8, r9, sl, fp, ip, lr, pc}
   10fdc:	e24cb004 	sub	fp, ip, #4
   10fe0:	e24dd038 	sub	sp, sp, #56	; 0x38
   10fe4:	e59bc004 	ldr	ip, [fp, #4]
   10fe8:	e59b4008 	ldr	r4, [fp, #8]
   10fec:	e59b900c 	ldr	r9, [fp, #12]
   10ff0:	e59ba010 	ldr	sl, [fp, #16]
   10ff4:	e59b5014 	ldr	r5, [fp, #20]
   10ff8:	e59b6018 	ldr	r6, [fp, #24]
   10ffc:	e59b701c 	ldr	r7, [fp, #28]
   11000:	e59b8020 	ldr	r8, [fp, #32]
   11004:	e59be024 	ldr	lr, [fp, #36]	; 0x24
   11008:	e50be034 	str	lr, [fp, #-52]	; 0xffffffcc
   1100c:	e59be028 	ldr	lr, [fp, #40]	; 0x28
   11010:	e50be030 	str	lr, [fp, #-48]	; 0xffffffd0
   11014:	e59be02c 	ldr	lr, [fp, #44]	; 0x2c
   11018:	e50be038 	str	lr, [fp, #-56]	; 0xffffffc8
   1101c:	e097700c 	adds	r7, r7, ip
   11020:	e0a88004 	adc	r8, r8, r4
   11024:	e1a0e007 	mov	lr, r7
   11028:	e1a07008 	mov	r7, r8
   1102c:	e1570004 	cmp	r7, r4
   11030:	015e000c 	cmpeq	lr, ip
   11034:	33a0c001 	movcc	ip, #1
   11038:	23a0c000 	movcs	ip, #0
   1103c:	e6afc07c 	sxtb	ip, ip
   11040:	e0954002 	adds	r4, r5, r2
   11044:	e0a65003 	adc	r5, r6, r3
   11048:	e1550003 	cmp	r5, r3
   1104c:	01540002 	cmpeq	r4, r2
   11050:	33a02001 	movcc	r2, #1
   11054:	23a02000 	movcs	r2, #0
   11058:	e6af2072 	sxtb	r2, r2
   1105c:	e0990000 	adds	r0, r9, r0
   11060:	e0aa3001 	adc	r3, sl, r1
   11064:	e6af107c 	sxtb	r1, ip
   11068:	e1a06fc1 	asr	r6, r1, #31
   1106c:	e0914004 	adds	r4, r1, r4
   11070:	e0a65005 	adc	r5, r6, r5
   11074:	e6af107c 	sxtb	r1, ip
   11078:	e1a0cfc1 	asr	ip, r1, #31
   1107c:	e15c0005 	cmp	ip, r5
   11080:	01510004 	cmpeq	r1, r4
   11084:	83a01001 	movhi	r1, #1
   11088:	93a01000 	movls	r1, #0
   1108c:	e20110ff 	and	r1, r1, #255	; 0xff
   11090:	e3a0c000 	mov	ip, #0
   11094:	e0910000 	adds	r0, r1, r0
   11098:	e0ac3003 	adc	r3, ip, r3
   1109c:	e6af1072 	sxtb	r1, r2
   110a0:	e1a02fc1 	asr	r2, r1, #31
   110a4:	e0910000 	adds	r0, r1, r0
   110a8:	e0a23003 	adc	r3, r2, r3
   110ac:	e1a0c00e 	mov	ip, lr
   110b0:	e1a02007 	mov	r2, r7
   110b4:	e51b1038 	ldr	r1, [fp, #-56]	; 0xffffffc8
   110b8:	e581c000 	str	ip, [r1]
   110bc:	e51b1038 	ldr	r1, [fp, #-56]	; 0xffffffc8
   110c0:	e5812004 	str	r2, [r1, #4]
   110c4:	e1a0c004 	mov	ip, r4
   110c8:	e1a02005 	mov	r2, r5
   110cc:	e51b1030 	ldr	r1, [fp, #-48]	; 0xffffffd0
   110d0:	e581c000 	str	ip, [r1]
   110d4:	e51b1030 	ldr	r1, [fp, #-48]	; 0xffffffd0
   110d8:	e5812004 	str	r2, [r1, #4]
   110dc:	e51b1034 	ldr	r1, [fp, #-52]	; 0xffffffcc
   110e0:	e5810000 	str	r0, [r1]
   110e4:	e51b0034 	ldr	r0, [fp, #-52]	; 0xffffffcc
   110e8:	e5803004 	str	r3, [r0, #4]
   110ec:	e91baff8 	ldmdb	fp, {r3, r4, r5, r6, r7, r8, r9, sl, fp, sp, pc}

000110f0 <SYSTEM_$$_SUB64$LONGWORD$LONGWORD$LONGWORD$LONGWORD$LONGWORD$LONGWORD>:
   110f0:	e1a0c00d 	mov	ip, sp
   110f4:	e92dd830 	push	{r4, r5, fp, ip, lr, pc}
   110f8:	e24cb004 	sub	fp, ip, #4
   110fc:	e24dd030 	sub	sp, sp, #48	; 0x30
   11100:	e59b5004 	ldr	r5, [fp, #4]
   11104:	e59b4008 	ldr	r4, [fp, #8]
   11108:	e041c003 	sub	ip, r1, r3
   1110c:	e584c000 	str	ip, [r4]
   11110:	e1510003 	cmp	r1, r3
   11114:	33a01001 	movcc	r1, #1
   11118:	23a01000 	movcs	r1, #0
   1111c:	e0400002 	sub	r0, r0, r2
   11120:	e0400001 	sub	r0, r0, r1
   11124:	e5850000 	str	r0, [r5]
   11128:	e91ba830 	ldmdb	fp, {r4, r5, fp, sp, pc}

0001112c <SYSTEM_$$_SUB96$crcEA7CF4C0>:
   1112c:	e1a0c00d 	mov	ip, sp
   11130:	e92ddff8 	push	{r3, r4, r5, r6, r7, r8, r9, sl, fp, ip, lr, pc}
   11134:	e24cb004 	sub	fp, ip, #4
   11138:	e24dd030 	sub	sp, sp, #48	; 0x30
   1113c:	e59b8004 	ldr	r8, [fp, #4]
   11140:	e59b7008 	ldr	r7, [fp, #8]
   11144:	e59b400c 	ldr	r4, [fp, #12]
   11148:	e59b5010 	ldr	r5, [fp, #16]
   1114c:	e59b6014 	ldr	r6, [fp, #20]
   11150:	e042c007 	sub	ip, r2, r7
   11154:	e1520007 	cmp	r2, r7
   11158:	33a02001 	movcc	r2, #1
   1115c:	23a02000 	movcs	r2, #0
   11160:	e0417008 	sub	r7, r1, r8
   11164:	e1510008 	cmp	r1, r8
   11168:	33a01001 	movcc	r1, #1
   1116c:	23a01000 	movcs	r1, #0
   11170:	e0400003 	sub	r0, r0, r3
   11174:	e1a03007 	mov	r3, r7
   11178:	e3a09000 	mov	r9, #0
   1117c:	e6af8072 	sxtb	r8, r2
   11180:	e1590fc8 	cmp	r9, r8, asr #31
   11184:	ba000002 	blt	11194 <SYSTEM_$$_SUB96$crcEA7CF4C0+0x68>
   11188:	ca000003 	bgt	1119c <SYSTEM_$$_SUB96$crcEA7CF4C0+0x70>
   1118c:	e1530008 	cmp	r3, r8
   11190:	2a000001 	bcs	1119c <SYSTEM_$$_SUB96$crcEA7CF4C0+0x70>
   11194:	e3a03001 	mov	r3, #1
   11198:	ea000000 	b	111a0 <SYSTEM_$$_SUB96$crcEA7CF4C0+0x74>
   1119c:	e3a03000 	mov	r3, #0
   111a0:	e0400003 	sub	r0, r0, r3
   111a4:	e0472002 	sub	r2, r7, r2
   111a8:	e0400001 	sub	r0, r0, r1
   111ac:	e586c000 	str	ip, [r6]
   111b0:	e5852000 	str	r2, [r5]
   111b4:	e5840000 	str	r0, [r4]
   111b8:	e91baff8 	ldmdb	fp, {r3, r4, r5, r6, r7, r8, r9, sl, fp, sp, pc}

000111bc <SYSTEM_$$_SUB128$QWORD$QWORD$QWORD$QWORD$QWORD$QWORD>:
   111bc:	e1a0c00d 	mov	ip, sp
   111c0:	e92ddff8 	push	{r3, r4, r5, r6, r7, r8, r9, sl, fp, ip, lr, pc}
   111c4:	e24cb004 	sub	fp, ip, #4
   111c8:	e24dd030 	sub	sp, sp, #48	; 0x30
   111cc:	e59b8004 	ldr	r8, [fp, #4]
   111d0:	e59b7008 	ldr	r7, [fp, #8]
   111d4:	e59b600c 	ldr	r6, [fp, #12]
   111d8:	e59b9010 	ldr	r9, [fp, #16]
   111dc:	e59b4014 	ldr	r4, [fp, #20]
   111e0:	e59ba018 	ldr	sl, [fp, #24]
   111e4:	e0525006 	subs	r5, r2, r6
   111e8:	e0c3c009 	sbc	ip, r3, r9
   111ec:	e58a5000 	str	r5, [sl]
   111f0:	e58ac004 	str	ip, [sl, #4]
   111f4:	e1530009 	cmp	r3, r9
   111f8:	01520006 	cmpeq	r2, r6
   111fc:	33a03001 	movcc	r3, #1
   11200:	23a03000 	movcs	r3, #0
   11204:	e20330ff 	and	r3, r3, #255	; 0xff
   11208:	e3a0c000 	mov	ip, #0
   1120c:	e0502008 	subs	r2, r0, r8
   11210:	e0c10007 	sbc	r0, r1, r7
   11214:	e0521003 	subs	r1, r2, r3
   11218:	e0c0000c 	sbc	r0, r0, ip
   1121c:	e5841000 	str	r1, [r4]
   11220:	e5840004 	str	r0, [r4, #4]
   11224:	e91baff8 	ldmdb	fp, {r3, r4, r5, r6, r7, r8, r9, sl, fp, sp, pc}

00011228 <SYSTEM_$$_SUB192$QWORD$QWORD$QWORD$QWORD$QWORD$QWORD$QWORD$QWORD$QWORD>:
   11228:	e1a0c00d 	mov	ip, sp
   1122c:	e92ddff8 	push	{r3, r4, r5, r6, r7, r8, r9, sl, fp, ip, lr, pc}
   11230:	e24cb004 	sub	fp, ip, #4
   11234:	e24dd040 	sub	sp, sp, #64	; 0x40
   11238:	e50b0030 	str	r0, [fp, #-48]	; 0xffffffd0
   1123c:	e59b9004 	ldr	r9, [fp, #4]
   11240:	e59b0008 	ldr	r0, [fp, #8]
   11244:	e59ba00c 	ldr	sl, [fp, #12]
   11248:	e59be010 	ldr	lr, [fp, #16]
   1124c:	e59bc014 	ldr	ip, [fp, #20]
   11250:	e59b4018 	ldr	r4, [fp, #24]
   11254:	e59b501c 	ldr	r5, [fp, #28]
   11258:	e59b6020 	ldr	r6, [fp, #32]
   1125c:	e59b7024 	ldr	r7, [fp, #36]	; 0x24
   11260:	e50b703c 	str	r7, [fp, #-60]	; 0xffffffc4
   11264:	e59b7028 	ldr	r7, [fp, #40]	; 0x28
   11268:	e50b7038 	str	r7, [fp, #-56]	; 0xffffffc8
   1126c:	e59b702c 	ldr	r7, [fp, #44]	; 0x2c
   11270:	e50b7034 	str	r7, [fp, #-52]	; 0xffffffcc
   11274:	e0597005 	subs	r7, r9, r5
   11278:	e0c08006 	sbc	r8, r0, r6
   1127c:	e50b7040 	str	r7, [fp, #-64]	; 0xffffffc0
   11280:	e1a07008 	mov	r7, r8
   11284:	e1500006 	cmp	r0, r6
   11288:	01590005 	cmpeq	r9, r5
   1128c:	33a00001 	movcc	r0, #1
   11290:	23a00000 	movcs	r0, #0
   11294:	e6af0070 	sxtb	r0, r0
   11298:	e052600c 	subs	r6, r2, ip
   1129c:	e0c35004 	sbc	r5, r3, r4
   112a0:	e1530004 	cmp	r3, r4
   112a4:	0152000c 	cmpeq	r2, ip
   112a8:	33a02001 	movcc	r2, #1
   112ac:	23a02000 	movcs	r2, #0
   112b0:	e6af2072 	sxtb	r2, r2
   112b4:	e51b3030 	ldr	r3, [fp, #-48]	; 0xffffffd0
   112b8:	e053c00a 	subs	ip, r3, sl
   112bc:	e0c1300e 	sbc	r3, r1, lr
   112c0:	e1a0100c 	mov	r1, ip
   112c4:	e6afc070 	sxtb	ip, r0
   112c8:	e1a04fcc 	asr	r4, ip, #31
   112cc:	e1540005 	cmp	r4, r5
   112d0:	015c0006 	cmpeq	ip, r6
   112d4:	83a0c001 	movhi	ip, #1
   112d8:	93a0c000 	movls	ip, #0
   112dc:	e20cc0ff 	and	ip, ip, #255	; 0xff
   112e0:	e3a04000 	mov	r4, #0
   112e4:	e051100c 	subs	r1, r1, ip
   112e8:	e0c33004 	sbc	r3, r3, r4
   112ec:	e6af0070 	sxtb	r0, r0
   112f0:	e1a0cfc0 	asr	ip, r0, #31
   112f4:	e0566000 	subs	r6, r6, r0
   112f8:	e0c5500c 	sbc	r5, r5, ip
   112fc:	e6af0072 	sxtb	r0, r2
   11300:	e1a02fc0 	asr	r2, r0, #31
   11304:	e0511000 	subs	r1, r1, r0
   11308:	e0c33002 	sbc	r3, r3, r2
   1130c:	e51bc040 	ldr	ip, [fp, #-64]	; 0xffffffc0
   11310:	e1a02007 	mov	r2, r7
   11314:	e51b0034 	ldr	r0, [fp, #-52]	; 0xffffffcc
   11318:	e580c000 	str	ip, [r0]
   1131c:	e51b0034 	ldr	r0, [fp, #-52]	; 0xffffffcc
   11320:	e5802004 	str	r2, [r0, #4]
   11324:	e1a0c006 	mov	ip, r6
   11328:	e1a02005 	mov	r2, r5
   1132c:	e51b0038 	ldr	r0, [fp, #-56]	; 0xffffffc8
   11330:	e580c000 	str	ip, [r0]
   11334:	e51b0038 	ldr	r0, [fp, #-56]	; 0xffffffc8
   11338:	e5802004 	str	r2, [r0, #4]
   1133c:	e51b003c 	ldr	r0, [fp, #-60]	; 0xffffffc4
   11340:	e5801000 	str	r1, [r0]
   11344:	e51b003c 	ldr	r0, [fp, #-60]	; 0xffffffc4
   11348:	e5803004 	str	r3, [r0, #4]
   1134c:	e91baff8 	ldmdb	fp, {r3, r4, r5, r6, r7, r8, r9, sl, fp, sp, pc}

00011350 <SYSTEM_$$_MUL32TO64$LONGWORD$LONGWORD$LONGWORD$LONGWORD>:
   11350:	e92d4038 	push	{r3, r4, r5, lr}
   11354:	e6ffc070 	uxth	ip, r0
   11358:	e1a00820 	lsr	r0, r0, #16
   1135c:	e6ff0070 	uxth	r0, r0
   11360:	e6ff4071 	uxth	r4, r1
   11364:	e1a01821 	lsr	r1, r1, #16
   11368:	e6ff1071 	uxth	r1, r1
   1136c:	e0050c94 	mul	r5, r4, ip
   11370:	e00c0c91 	mul	ip, r1, ip
   11374:	e0040094 	mul	r4, r4, r0
   11378:	e0000091 	mul	r0, r1, r0
   1137c:	e084100c 	add	r1, r4, ip
   11380:	e1510004 	cmp	r1, r4
   11384:	33a0c001 	movcc	ip, #1
   11388:	23a0c000 	movcs	ip, #0
   1138c:	e080080c 	add	r0, r0, ip, lsl #16
   11390:	e0800821 	add	r0, r0, r1, lsr #16
   11394:	e1a01801 	lsl	r1, r1, #16
   11398:	e081c005 	add	ip, r1, r5
   1139c:	e15c0001 	cmp	ip, r1
   113a0:	33a01001 	movcc	r1, #1
   113a4:	23a01000 	movcs	r1, #0
   113a8:	e0800001 	add	r0, r0, r1
   113ac:	e583c000 	str	ip, [r3]
   113b0:	e5820000 	str	r0, [r2]
   113b4:	e8bd8038 	pop	{r3, r4, r5, pc}

000113b8 <SYSTEM_$$_MUL64BY32TO96$LONGWORD$LONGWORD$LONGWORD$LONGWORD$LONGWORD$LONGWORD>:
   113b8:	e1a0c00d 	mov	ip, sp
   113bc:	e92dd9f8 	push	{r3, r4, r5, r6, r7, r8, fp, ip, lr, pc}
   113c0:	e24cb004 	sub	fp, ip, #4
   113c4:	e24dd048 	sub	sp, sp, #72	; 0x48
   113c8:	e1a04000 	mov	r4, r0
   113cc:	e1a00001 	mov	r0, r1
   113d0:	e1a05002 	mov	r5, r2
   113d4:	e1a06003 	mov	r6, r3
   113d8:	e59b8004 	ldr	r8, [fp, #4]
   113dc:	e59b7008 	ldr	r7, [fp, #8]
   113e0:	e24b3038 	sub	r3, fp, #56	; 0x38
   113e4:	e24b2034 	sub	r2, fp, #52	; 0x34
   113e8:	e1a01005 	mov	r1, r5
   113ec:	ebffffd7 	bl	11350 <SYSTEM_$$_MUL32TO64$LONGWORD$LONGWORD$LONGWORD$LONGWORD>
   113f0:	e24b303c 	sub	r3, fp, #60	; 0x3c
   113f4:	e24b2030 	sub	r2, fp, #48	; 0x30
   113f8:	e1a01005 	mov	r1, r5
   113fc:	e1a00004 	mov	r0, r4
   11400:	ebffffd2 	bl	11350 <SYSTEM_$$_MUL32TO64$LONGWORD$LONGWORD$LONGWORD$LONGWORD>
   11404:	e24b0034 	sub	r0, fp, #52	; 0x34
   11408:	e58d0004 	str	r0, [sp, #4]
   1140c:	e24b0030 	sub	r0, fp, #48	; 0x30
   11410:	e58d0000 	str	r0, [sp]
   11414:	e51b3034 	ldr	r3, [fp, #-52]	; 0xffffffcc
   11418:	e51b103c 	ldr	r1, [fp, #-60]	; 0xffffffc4
   1141c:	e51b0030 	ldr	r0, [fp, #-48]	; 0xffffffd0
   11420:	e3a02000 	mov	r2, #0
   11424:	ebfffe39 	bl	10d10 <SYSTEM_$$_ADD64$LONGWORD$LONGWORD$LONGWORD$LONGWORD$LONGWORD$LONGWORD>
   11428:	e51b0038 	ldr	r0, [fp, #-56]	; 0xffffffc8
   1142c:	e5870000 	str	r0, [r7]
   11430:	e51b0034 	ldr	r0, [fp, #-52]	; 0xffffffcc
   11434:	e5880000 	str	r0, [r8]
   11438:	e51b0030 	ldr	r0, [fp, #-48]	; 0xffffffd0
   1143c:	e5860000 	str	r0, [r6]
   11440:	e91ba9f8 	ldmdb	fp, {r3, r4, r5, r6, r7, r8, fp, sp, pc}

00011444 <SYSTEM_$$_MUL64TO128$crc85E57A26>:
   11444:	e1a0c00d 	mov	ip, sp
   11448:	e92ddff8 	push	{r3, r4, r5, r6, r7, r8, r9, sl, fp, ip, lr, pc}
   1144c:	e24cb004 	sub	fp, ip, #4
   11450:	e24dd050 	sub	sp, sp, #80	; 0x50
   11454:	e1a05000 	mov	r5, r0
   11458:	e1a00001 	mov	r0, r1
   1145c:	e1a04002 	mov	r4, r2
   11460:	e59b1004 	ldr	r1, [fp, #4]
   11464:	e50b1048 	str	r1, [fp, #-72]	; 0xffffffb8
   11468:	e59ba008 	ldr	sl, [fp, #8]
   1146c:	e59b900c 	ldr	r9, [fp, #12]
   11470:	e59b8010 	ldr	r8, [fp, #16]
   11474:	e24bc03c 	sub	ip, fp, #60	; 0x3c
   11478:	e24b2038 	sub	r2, fp, #56	; 0x38
   1147c:	e1a07003 	mov	r7, r3
   11480:	e1a01007 	mov	r1, r7
   11484:	e1a06000 	mov	r6, r0
   11488:	e1a00006 	mov	r0, r6
   1148c:	e1a0300c 	mov	r3, ip
   11490:	ebffffae 	bl	11350 <SYSTEM_$$_MUL32TO64$LONGWORD$LONGWORD$LONGWORD$LONGWORD>
   11494:	e24b3044 	sub	r3, fp, #68	; 0x44
   11498:	e24b2034 	sub	r2, fp, #52	; 0x34
   1149c:	e1a01004 	mov	r1, r4
   114a0:	e1a00006 	mov	r0, r6
   114a4:	ebffffa9 	bl	11350 <SYSTEM_$$_MUL32TO64$LONGWORD$LONGWORD$LONGWORD$LONGWORD>
   114a8:	e24b0038 	sub	r0, fp, #56	; 0x38
   114ac:	e58d0004 	str	r0, [sp, #4]
   114b0:	e24b0034 	sub	r0, fp, #52	; 0x34
   114b4:	e58d0000 	str	r0, [sp]
   114b8:	e51b3038 	ldr	r3, [fp, #-56]	; 0xffffffc8
   114bc:	e51b1044 	ldr	r1, [fp, #-68]	; 0xffffffbc
   114c0:	e51b0034 	ldr	r0, [fp, #-52]	; 0xffffffcc
   114c4:	e3a02000 	mov	r2, #0
   114c8:	ebfffe10 	bl	10d10 <SYSTEM_$$_ADD64$LONGWORD$LONGWORD$LONGWORD$LONGWORD$LONGWORD$LONGWORD>
   114cc:	e24b3040 	sub	r3, fp, #64	; 0x40
   114d0:	e24b2030 	sub	r2, fp, #48	; 0x30
   114d4:	e1a01004 	mov	r1, r4
   114d8:	e1a04005 	mov	r4, r5
   114dc:	e1a00004 	mov	r0, r4
   114e0:	ebffff9a 	bl	11350 <SYSTEM_$$_MUL32TO64$LONGWORD$LONGWORD$LONGWORD$LONGWORD>
   114e4:	e24b0034 	sub	r0, fp, #52	; 0x34
   114e8:	e58d0004 	str	r0, [sp, #4]
   114ec:	e24b0030 	sub	r0, fp, #48	; 0x30
   114f0:	e58d0000 	str	r0, [sp]
   114f4:	e51b3034 	ldr	r3, [fp, #-52]	; 0xffffffcc
   114f8:	e51b1040 	ldr	r1, [fp, #-64]	; 0xffffffc0
   114fc:	e51b0030 	ldr	r0, [fp, #-48]	; 0xffffffd0
   11500:	e3a02000 	mov	r2, #0
   11504:	ebfffe01 	bl	10d10 <SYSTEM_$$_ADD64$LONGWORD$LONGWORD$LONGWORD$LONGWORD$LONGWORD$LONGWORD>
   11508:	e24b3044 	sub	r3, fp, #68	; 0x44
   1150c:	e24b2040 	sub	r2, fp, #64	; 0x40
   11510:	e1a01007 	mov	r1, r7
   11514:	e1a00004 	mov	r0, r4
   11518:	ebffff8c 	bl	11350 <SYSTEM_$$_MUL32TO64$LONGWORD$LONGWORD$LONGWORD$LONGWORD>
   1151c:	e24b0038 	sub	r0, fp, #56	; 0x38
   11520:	e58d0004 	str	r0, [sp, #4]
   11524:	e24b0040 	sub	r0, fp, #64	; 0x40
   11528:	e58d0000 	str	r0, [sp]
   1152c:	e51b3038 	ldr	r3, [fp, #-56]	; 0xffffffc8
   11530:	e51b1044 	ldr	r1, [fp, #-68]	; 0xffffffbc
   11534:	e51b0040 	ldr	r0, [fp, #-64]	; 0xffffffc0
   11538:	e3a02000 	mov	r2, #0
   1153c:	ebfffdf3 	bl	10d10 <SYSTEM_$$_ADD64$LONGWORD$LONGWORD$LONGWORD$LONGWORD$LONGWORD$LONGWORD>
   11540:	e24b0034 	sub	r0, fp, #52	; 0x34
   11544:	e58d0004 	str	r0, [sp, #4]
   11548:	e24b0030 	sub	r0, fp, #48	; 0x30
   1154c:	e58d0000 	str	r0, [sp]
   11550:	e51b3040 	ldr	r3, [fp, #-64]	; 0xffffffc0
   11554:	e51b1034 	ldr	r1, [fp, #-52]	; 0xffffffcc
   11558:	e51b0030 	ldr	r0, [fp, #-48]	; 0xffffffd0
   1155c:	e3a02000 	mov	r2, #0
   11560:	ebfffdea 	bl	10d10 <SYSTEM_$$_ADD64$LONGWORD$LONGWORD$LONGWORD$LONGWORD$LONGWORD$LONGWORD>
   11564:	e51b003c 	ldr	r0, [fp, #-60]	; 0xffffffc4
   11568:	e5880000 	str	r0, [r8]
   1156c:	e51b0038 	ldr	r0, [fp, #-56]	; 0xffffffc8
   11570:	e5890000 	str	r0, [r9]
   11574:	e51b0034 	ldr	r0, [fp, #-52]	; 0xffffffcc
   11578:	e58a0000 	str	r0, [sl]
   1157c:	e51b1030 	ldr	r1, [fp, #-48]	; 0xffffffd0
   11580:	e51b0048 	ldr	r0, [fp, #-72]	; 0xffffffb8
   11584:	e5801000 	str	r1, [r0]
   11588:	e91baff8 	ldmdb	fp, {r3, r4, r5, r6, r7, r8, r9, sl, fp, sp, pc}

0001158c <SYSTEM_$$_MUL64TO128$QWORD$QWORD$QWORD$QWORD>:
   1158c:	e1a0c00d 	mov	ip, sp
   11590:	e92ddbf0 	push	{r4, r5, r6, r7, r8, r9, fp, ip, lr, pc}
   11594:	e24cb004 	sub	fp, ip, #4
   11598:	e24dd030 	sub	sp, sp, #48	; 0x30
   1159c:	e59b5004 	ldr	r5, [fp, #4]
   115a0:	e59b6008 	ldr	r6, [fp, #8]
   115a4:	e1a0c000 	mov	ip, r0
   115a8:	e1a04002 	mov	r4, r2
   115ac:	e084c49c 	umull	ip, r4, ip, r4
   115b0:	e1a07003 	mov	r7, r3
   115b4:	e0870790 	umull	r0, r7, r0, r7
   115b8:	e1a08001 	mov	r8, r1
   115bc:	e0882298 	umull	r2, r8, r8, r2
   115c0:	e0831391 	umull	r1, r3, r1, r3
   115c4:	e0920000 	adds	r0, r2, r0
   115c8:	e0a87007 	adc	r7, r8, r7
   115cc:	e1570008 	cmp	r7, r8
   115d0:	01500002 	cmpeq	r0, r2
   115d4:	33a02001 	movcc	r2, #1
   115d8:	23a02000 	movcs	r2, #0
   115dc:	e3a08000 	mov	r8, #0
   115e0:	e3a09000 	mov	r9, #0
   115e4:	e0977008 	adds	r7, r7, r8
   115e8:	e0a92002 	adc	r2, r9, r2
   115ec:	e0971001 	adds	r1, r7, r1
   115f0:	e0a23003 	adc	r3, r2, r3
   115f4:	e3a02000 	mov	r2, #0
   115f8:	e092c00c 	adds	ip, r2, ip
   115fc:	e0a04004 	adc	r4, r0, r4
   11600:	e1540000 	cmp	r4, r0
   11604:	015c0002 	cmpeq	ip, r2
   11608:	33a00001 	movcc	r0, #1
   1160c:	23a00000 	movcs	r0, #0
   11610:	e20000ff 	and	r0, r0, #255	; 0xff
   11614:	e3a02000 	mov	r2, #0
   11618:	e0901001 	adds	r1, r0, r1
   1161c:	e0a23003 	adc	r3, r2, r3
   11620:	e586c000 	str	ip, [r6]
   11624:	e5864004 	str	r4, [r6, #4]
   11628:	e5851000 	str	r1, [r5]
   1162c:	e5853004 	str	r3, [r5, #4]
   11630:	e91babf0 	ldmdb	fp, {r4, r5, r6, r7, r8, r9, fp, sp, pc}

00011634 <SYSTEM_$$_MUL128TO256$QWORD$QWORD$QWORD$QWORD$QWORD$QWORD$QWORD$QWORD>:
   11634:	e1a0c00d 	mov	ip, sp
   11638:	e92ddff8 	push	{r3, r4, r5, r6, r7, r8, r9, sl, fp, ip, lr, pc}
   1163c:	e24cb004 	sub	fp, ip, #4
   11640:	e24dd080 	sub	sp, sp, #128	; 0x80
   11644:	e1a04000 	mov	r4, r0
   11648:	e1a09001 	mov	r9, r1
   1164c:	e1a01002 	mov	r1, r2
   11650:	e1a0c003 	mov	ip, r3
   11654:	e59b6004 	ldr	r6, [fp, #4]
   11658:	e59b5008 	ldr	r5, [fp, #8]
   1165c:	e59b300c 	ldr	r3, [fp, #12]
   11660:	e59b2010 	ldr	r2, [fp, #16]
   11664:	e59b0014 	ldr	r0, [fp, #20]
   11668:	e50b0074 	str	r0, [fp, #-116]	; 0xffffff8c
   1166c:	e59b0018 	ldr	r0, [fp, #24]
   11670:	e50b0070 	str	r0, [fp, #-112]	; 0xffffff90
   11674:	e59b001c 	ldr	r0, [fp, #28]
   11678:	e50b006c 	str	r0, [fp, #-108]	; 0xffffff94
   1167c:	e59b0020 	ldr	r0, [fp, #32]
   11680:	e50b0068 	str	r0, [fp, #-104]	; 0xffffff98
   11684:	e24b0050 	sub	r0, fp, #80	; 0x50
   11688:	e58d0004 	str	r0, [sp, #4]
   1168c:	e24b0048 	sub	r0, fp, #72	; 0x48
   11690:	e58d0000 	str	r0, [sp]
   11694:	e1a0a003 	mov	sl, r3
   11698:	e50b2064 	str	r2, [fp, #-100]	; 0xffffff9c
   1169c:	e1a03002 	mov	r3, r2
   116a0:	e1a0200a 	mov	r2, sl
   116a4:	e1a08001 	mov	r8, r1
   116a8:	e1a0700c 	mov	r7, ip
   116ac:	e1a01007 	mov	r1, r7
   116b0:	e1a00008 	mov	r0, r8
   116b4:	ebffffb4 	bl	1158c <SYSTEM_$$_MUL64TO128$QWORD$QWORD$QWORD$QWORD>
   116b8:	e24b0060 	sub	r0, fp, #96	; 0x60
   116bc:	e58d0004 	str	r0, [sp, #4]
   116c0:	e24b0040 	sub	r0, fp, #64	; 0x40
   116c4:	e58d0000 	str	r0, [sp]
   116c8:	e1a03005 	mov	r3, r5
   116cc:	e1a02006 	mov	r2, r6
   116d0:	e1a00008 	mov	r0, r8
   116d4:	e1a01007 	mov	r1, r7
   116d8:	ebffffab 	bl	1158c <SYSTEM_$$_MUL64TO128$QWORD$QWORD$QWORD$QWORD>
   116dc:	e51b0060 	ldr	r0, [fp, #-96]	; 0xffffffa0
   116e0:	e51b205c 	ldr	r2, [fp, #-92]	; 0xffffffa4
   116e4:	e51b1048 	ldr	r1, [fp, #-72]	; 0xffffffb8
   116e8:	e51b3044 	ldr	r3, [fp, #-68]	; 0xffffffbc
   116ec:	e0910000 	adds	r0, r1, r0
   116f0:	e0a31002 	adc	r1, r3, r2
   116f4:	e1a03000 	mov	r3, r0
   116f8:	e1a00001 	mov	r0, r1
   116fc:	e50b3048 	str	r3, [fp, #-72]	; 0xffffffb8
   11700:	e50b0044 	str	r0, [fp, #-68]	; 0xffffffbc
   11704:	e51b1060 	ldr	r1, [fp, #-96]	; 0xffffffa0
   11708:	e51b205c 	ldr	r2, [fp, #-92]	; 0xffffffa4
   1170c:	e1500002 	cmp	r0, r2
   11710:	01530001 	cmpeq	r3, r1
   11714:	33a01001 	movcc	r1, #1
   11718:	23a01000 	movcs	r1, #0
   1171c:	e20110ff 	and	r1, r1, #255	; 0xff
   11720:	e3a02000 	mov	r2, #0
   11724:	e51b0040 	ldr	r0, [fp, #-64]	; 0xffffffc0
   11728:	e51b303c 	ldr	r3, [fp, #-60]	; 0xffffffc4
   1172c:	e0901001 	adds	r1, r0, r1
   11730:	e0a30002 	adc	r0, r3, r2
   11734:	e50b1040 	str	r1, [fp, #-64]	; 0xffffffc0
   11738:	e50b003c 	str	r0, [fp, #-60]	; 0xffffffc4
   1173c:	e24b0058 	sub	r0, fp, #88	; 0x58
   11740:	e58d0004 	str	r0, [sp, #4]
   11744:	e24b0038 	sub	r0, fp, #56	; 0x38
   11748:	e58d0000 	str	r0, [sp]
   1174c:	e1a02006 	mov	r2, r6
   11750:	e1a03005 	mov	r3, r5
   11754:	e1a05004 	mov	r5, r4
   11758:	e1a04009 	mov	r4, r9
   1175c:	e1a01004 	mov	r1, r4
   11760:	e1a00005 	mov	r0, r5
   11764:	ebffff88 	bl	1158c <SYSTEM_$$_MUL64TO128$QWORD$QWORD$QWORD$QWORD>
   11768:	e51b0058 	ldr	r0, [fp, #-88]	; 0xffffffa8
   1176c:	e51b3054 	ldr	r3, [fp, #-84]	; 0xffffffac
   11770:	e51b1040 	ldr	r1, [fp, #-64]	; 0xffffffc0
   11774:	e51b203c 	ldr	r2, [fp, #-60]	; 0xffffffc4
   11778:	e0911000 	adds	r1, r1, r0
   1177c:	e0a20003 	adc	r0, r2, r3
   11780:	e50b1040 	str	r1, [fp, #-64]	; 0xffffffc0
   11784:	e50b003c 	str	r0, [fp, #-60]	; 0xffffffc4
   11788:	e51b2058 	ldr	r2, [fp, #-88]	; 0xffffffa8
   1178c:	e51b3054 	ldr	r3, [fp, #-84]	; 0xffffffac
   11790:	e1500003 	cmp	r0, r3
   11794:	01510002 	cmpeq	r1, r2
   11798:	33a00001 	movcc	r0, #1
   1179c:	23a00000 	movcs	r0, #0
   117a0:	e20000ff 	and	r0, r0, #255	; 0xff
   117a4:	e3a02000 	mov	r2, #0
   117a8:	e51b1038 	ldr	r1, [fp, #-56]	; 0xffffffc8
   117ac:	e51b3034 	ldr	r3, [fp, #-52]	; 0xffffffcc
   117b0:	e0911000 	adds	r1, r1, r0
   117b4:	e0a30002 	adc	r0, r3, r2
   117b8:	e50b1038 	str	r1, [fp, #-56]	; 0xffffffc8
   117bc:	e50b0034 	str	r0, [fp, #-52]	; 0xffffffcc
   117c0:	e24b0060 	sub	r0, fp, #96	; 0x60
   117c4:	e58d0004 	str	r0, [sp, #4]
   117c8:	e24b0058 	sub	r0, fp, #88	; 0x58
   117cc:	e58d0000 	str	r0, [sp]
   117d0:	e1a0200a 	mov	r2, sl
   117d4:	e51b3064 	ldr	r3, [fp, #-100]	; 0xffffff9c
   117d8:	e1a00005 	mov	r0, r5
   117dc:	e1a01004 	mov	r1, r4
   117e0:	ebffff69 	bl	1158c <SYSTEM_$$_MUL64TO128$QWORD$QWORD$QWORD$QWORD>
   117e4:	e51b0060 	ldr	r0, [fp, #-96]	; 0xffffffa0
   117e8:	e51b305c 	ldr	r3, [fp, #-92]	; 0xffffffa4
   117ec:	e51b1048 	ldr	r1, [fp, #-72]	; 0xffffffb8
   117f0:	e51b2044 	ldr	r2, [fp, #-68]	; 0xffffffbc
   117f4:	e0911000 	adds	r1, r1, r0
   117f8:	e0a20003 	adc	r0, r2, r3
   117fc:	e50b1048 	str	r1, [fp, #-72]	; 0xffffffb8
   11800:	e50b0044 	str	r0, [fp, #-68]	; 0xffffffbc
   11804:	e51b2060 	ldr	r2, [fp, #-96]	; 0xffffffa0
   11808:	e51b305c 	ldr	r3, [fp, #-92]	; 0xffffffa4
   1180c:	e1500003 	cmp	r0, r3
   11810:	01510002 	cmpeq	r1, r2
   11814:	33a01001 	movcc	r1, #1
   11818:	23a01000 	movcs	r1, #0
   1181c:	e20110ff 	and	r1, r1, #255	; 0xff
   11820:	e3a03000 	mov	r3, #0
   11824:	e51b0058 	ldr	r0, [fp, #-88]	; 0xffffffa8
   11828:	e51b2054 	ldr	r2, [fp, #-84]	; 0xffffffac
   1182c:	e0901001 	adds	r1, r0, r1
   11830:	e0a20003 	adc	r0, r2, r3
   11834:	e50b1058 	str	r1, [fp, #-88]	; 0xffffffa8
   11838:	e50b0054 	str	r0, [fp, #-84]	; 0xffffffac
   1183c:	e51b0040 	ldr	r0, [fp, #-64]	; 0xffffffc0
   11840:	e51b303c 	ldr	r3, [fp, #-60]	; 0xffffffc4
   11844:	e51b1058 	ldr	r1, [fp, #-88]	; 0xffffffa8
   11848:	e51b2054 	ldr	r2, [fp, #-84]	; 0xffffffac
   1184c:	e0911000 	adds	r1, r1, r0
   11850:	e0a20003 	adc	r0, r2, r3
   11854:	e50b1040 	str	r1, [fp, #-64]	; 0xffffffc0
   11858:	e50b003c 	str	r0, [fp, #-60]	; 0xffffffc4
   1185c:	e51b3040 	ldr	r3, [fp, #-64]	; 0xffffffc0
   11860:	e51b203c 	ldr	r2, [fp, #-60]	; 0xffffffc4
   11864:	e1500002 	cmp	r0, r2
   11868:	01510003 	cmpeq	r1, r3
   1186c:	33a00001 	movcc	r0, #1
   11870:	23a00000 	movcs	r0, #0
   11874:	e20000ff 	and	r0, r0, #255	; 0xff
   11878:	e3a03000 	mov	r3, #0
   1187c:	e51b1038 	ldr	r1, [fp, #-56]	; 0xffffffc8
   11880:	e51b2034 	ldr	r2, [fp, #-52]	; 0xffffffcc
   11884:	e0911000 	adds	r1, r1, r0
   11888:	e0a20003 	adc	r0, r2, r3
   1188c:	e50b1038 	str	r1, [fp, #-56]	; 0xffffffc8
   11890:	e50b0034 	str	r0, [fp, #-52]	; 0xffffffcc
   11894:	e51b2050 	ldr	r2, [fp, #-80]	; 0xffffffb0
   11898:	e51b104c 	ldr	r1, [fp, #-76]	; 0xffffffb4
   1189c:	e51b0068 	ldr	r0, [fp, #-104]	; 0xffffff98
   118a0:	e5802000 	str	r2, [r0]
   118a4:	e5801004 	str	r1, [r0, #4]
   118a8:	e51b2048 	ldr	r2, [fp, #-72]	; 0xffffffb8
   118ac:	e51b1044 	ldr	r1, [fp, #-68]	; 0xffffffbc
   118b0:	e51b006c 	ldr	r0, [fp, #-108]	; 0xffffff94
   118b4:	e5802000 	str	r2, [r0]
   118b8:	e5801004 	str	r1, [r0, #4]
   118bc:	e51b2040 	ldr	r2, [fp, #-64]	; 0xffffffc0
   118c0:	e51b103c 	ldr	r1, [fp, #-60]	; 0xffffffc4
   118c4:	e51b0070 	ldr	r0, [fp, #-112]	; 0xffffff90
   118c8:	e5802000 	str	r2, [r0]
   118cc:	e5801004 	str	r1, [r0, #4]
   118d0:	e51b2038 	ldr	r2, [fp, #-56]	; 0xffffffc8
   118d4:	e51b1034 	ldr	r1, [fp, #-52]	; 0xffffffcc
   118d8:	e51b0074 	ldr	r0, [fp, #-116]	; 0xffffff8c
   118dc:	e5802000 	str	r2, [r0]
   118e0:	e5801004 	str	r1, [r0, #4]
   118e4:	e91baff8 	ldmdb	fp, {r3, r4, r5, r6, r7, r8, r9, sl, fp, sp, pc}

000118e8 <SYSTEM_$$_MUL128BY64TO192$QWORD$QWORD$QWORD$QWORD$QWORD$QWORD>:
   118e8:	e1a0c00d 	mov	ip, sp
   118ec:	e92ddff8 	push	{r3, r4, r5, r6, r7, r8, r9, sl, fp, ip, lr, pc}
   118f0:	e24cb004 	sub	fp, ip, #4
   118f4:	e24dd058 	sub	sp, sp, #88	; 0x58
   118f8:	e1a09000 	mov	r9, r0
   118fc:	e1a04001 	mov	r4, r1
   11900:	e1a00002 	mov	r0, r2
   11904:	e1a01003 	mov	r1, r3
   11908:	e59b3004 	ldr	r3, [fp, #4]
   1190c:	e59b2008 	ldr	r2, [fp, #8]
   11910:	e59ba00c 	ldr	sl, [fp, #12]
   11914:	e59b5010 	ldr	r5, [fp, #16]
   11918:	e59b6014 	ldr	r6, [fp, #20]
   1191c:	e24bc048 	sub	ip, fp, #72	; 0x48
   11920:	e58dc004 	str	ip, [sp, #4]
   11924:	e24bc040 	sub	ip, fp, #64	; 0x40
   11928:	e58dc000 	str	ip, [sp]
   1192c:	e1a07003 	mov	r7, r3
   11930:	e1a08002 	mov	r8, r2
   11934:	e1a03008 	mov	r3, r8
   11938:	e1a02007 	mov	r2, r7
   1193c:	ebffff12 	bl	1158c <SYSTEM_$$_MUL64TO128$QWORD$QWORD$QWORD$QWORD>
   11940:	e24b0050 	sub	r0, fp, #80	; 0x50
   11944:	e58d0004 	str	r0, [sp, #4]
   11948:	e24b0038 	sub	r0, fp, #56	; 0x38
   1194c:	e58d0000 	str	r0, [sp]
   11950:	e1a02007 	mov	r2, r7
   11954:	e1a03008 	mov	r3, r8
   11958:	e1a00009 	mov	r0, r9
   1195c:	e1a01004 	mov	r1, r4
   11960:	ebffff09 	bl	1158c <SYSTEM_$$_MUL64TO128$QWORD$QWORD$QWORD$QWORD>
   11964:	e51b1050 	ldr	r1, [fp, #-80]	; 0xffffffb0
   11968:	e51b304c 	ldr	r3, [fp, #-76]	; 0xffffffb4
   1196c:	e51b0040 	ldr	r0, [fp, #-64]	; 0xffffffc0
   11970:	e51b203c 	ldr	r2, [fp, #-60]	; 0xffffffc4
   11974:	e0900001 	adds	r0, r0, r1
   11978:	e0a21003 	adc	r1, r2, r3
   1197c:	e50b0040 	str	r0, [fp, #-64]	; 0xffffffc0
   11980:	e50b103c 	str	r1, [fp, #-60]	; 0xffffffc4
   11984:	e51b3050 	ldr	r3, [fp, #-80]	; 0xffffffb0
   11988:	e51b204c 	ldr	r2, [fp, #-76]	; 0xffffffb4
   1198c:	e1510002 	cmp	r1, r2
   11990:	01500003 	cmpeq	r0, r3
   11994:	33a01001 	movcc	r1, #1
   11998:	23a01000 	movcs	r1, #0
   1199c:	e20110ff 	and	r1, r1, #255	; 0xff
   119a0:	e3a03000 	mov	r3, #0
   119a4:	e51b0038 	ldr	r0, [fp, #-56]	; 0xffffffc8
   119a8:	e51b2034 	ldr	r2, [fp, #-52]	; 0xffffffcc
   119ac:	e0901001 	adds	r1, r0, r1
   119b0:	e0a20003 	adc	r0, r2, r3
   119b4:	e50b1038 	str	r1, [fp, #-56]	; 0xffffffc8
   119b8:	e50b0034 	str	r0, [fp, #-52]	; 0xffffffcc
   119bc:	e51b2048 	ldr	r2, [fp, #-72]	; 0xffffffb8
   119c0:	e51b1044 	ldr	r1, [fp, #-68]	; 0xffffffbc
   119c4:	e1a00006 	mov	r0, r6
   119c8:	e5802000 	str	r2, [r0]
   119cc:	e5801004 	str	r1, [r0, #4]
   119d0:	e51b2040 	ldr	r2, [fp, #-64]	; 0xffffffc0
   119d4:	e51b103c 	ldr	r1, [fp, #-60]	; 0xffffffc4
   119d8:	e1a00005 	mov	r0, r5
   119dc:	e5802000 	str	r2, [r0]
   119e0:	e5801004 	str	r1, [r0, #4]
   119e4:	e51b2038 	ldr	r2, [fp, #-56]	; 0xffffffc8
   119e8:	e51b1034 	ldr	r1, [fp, #-52]	; 0xffffffcc
   119ec:	e1a0000a 	mov	r0, sl
   119f0:	e5802000 	str	r2, [r0]
   119f4:	e5801004 	str	r1, [r0, #4]
   119f8:	e91baff8 	ldmdb	fp, {r3, r4, r5, r6, r7, r8, r9, sl, fp, sp, pc}

000119fc <SYSTEM_$$_ESTIMATEDIV128TO64$QWORD$QWORD$QWORD$$QWORD>:
   119fc:	e1a0c00d 	mov	ip, sp
   11a00:	e92ddff8 	push	{r3, r4, r5, r6, r7, r8, r9, sl, fp, ip, lr, pc}
   11a04:	e24cb004 	sub	fp, ip, #4
   11a08:	e24dd080 	sub	sp, sp, #128	; 0x80
   11a0c:	e1a0a000 	mov	sl, r0
   11a10:	e50b1054 	str	r1, [fp, #-84]	; 0xffffffac
   11a14:	e1a08002 	mov	r8, r2
   11a18:	e1a09003 	mov	r9, r3
   11a1c:	e59b5004 	ldr	r5, [fp, #4]
   11a20:	e59b4008 	ldr	r4, [fp, #8]
   11a24:	e51b0054 	ldr	r0, [fp, #-84]	; 0xffffffac
   11a28:	e1540000 	cmp	r4, r0
   11a2c:	0155000a 	cmpeq	r5, sl
   11a30:	8a000004 	bhi	11a48 <SYSTEM_$$_ESTIMATEDIV128TO64$QWORD$QWORD$QWORD$$QWORD+0x4c>
   11a34:	e3e00000 	mvn	r0, #0
   11a38:	e50b0068 	str	r0, [fp, #-104]	; 0xffffff98
   11a3c:	e3e00000 	mvn	r0, #0
   11a40:	e50b0064 	str	r0, [fp, #-100]	; 0xffffff9c
   11a44:	ea000079 	b	11c30 <SYSTEM_$$_ESTIMATEDIV128TO64$QWORD$QWORD$QWORD$$QWORD+0x234>
   11a48:	e3a00000 	mov	r0, #0
   11a4c:	e1a01004 	mov	r1, r4
   11a50:	e50b1060 	str	r1, [fp, #-96]	; 0xffffffa0
   11a54:	e50b005c 	str	r0, [fp, #-92]	; 0xffffffa4
   11a58:	e3a01000 	mov	r1, #0
   11a5c:	e51b2060 	ldr	r2, [fp, #-96]	; 0xffffffa0
   11a60:	e51b0054 	ldr	r0, [fp, #-84]	; 0xffffffac
   11a64:	e1520000 	cmp	r2, r0
   11a68:	0151000a 	cmpeq	r1, sl
   11a6c:	93a07000 	movls	r7, #0
   11a70:	93e06000 	mvnls	r6, #0
   11a74:	9a000006 	bls	11a94 <SYSTEM_$$_ESTIMATEDIV128TO64$QWORD$QWORD$QWORD$$QWORD+0x98>
   11a78:	e51b3054 	ldr	r3, [fp, #-84]	; 0xffffffac
   11a7c:	e1a0200a 	mov	r2, sl
   11a80:	e51b105c 	ldr	r1, [fp, #-92]	; 0xffffffa4
   11a84:	e51b0060 	ldr	r0, [fp, #-96]	; 0xffffffa0
   11a88:	eb0045e6 	bl	23228 <fpc_div_qword>
   11a8c:	e3a07000 	mov	r7, #0
   11a90:	e1a06000 	mov	r6, r0
   11a94:	e24b0050 	sub	r0, fp, #80	; 0x50
   11a98:	e58d0004 	str	r0, [sp, #4]
   11a9c:	e24b0048 	sub	r0, fp, #72	; 0x48
   11aa0:	e58d0000 	str	r0, [sp]
   11aa4:	e50b7058 	str	r7, [fp, #-88]	; 0xffffffa8
   11aa8:	e1a03006 	mov	r3, r6
   11aac:	e51b2058 	ldr	r2, [fp, #-88]	; 0xffffffa8
   11ab0:	e1a01004 	mov	r1, r4
   11ab4:	e1a00005 	mov	r0, r5
   11ab8:	ebfffeb3 	bl	1158c <SYSTEM_$$_MUL64TO128$QWORD$QWORD$QWORD$QWORD>
   11abc:	e24b0040 	sub	r0, fp, #64	; 0x40
   11ac0:	e58d0014 	str	r0, [sp, #20]
   11ac4:	e24b0038 	sub	r0, fp, #56	; 0x38
   11ac8:	e58d0010 	str	r0, [sp, #16]
   11acc:	e51b004c 	ldr	r0, [fp, #-76]	; 0xffffffb4
   11ad0:	e58d000c 	str	r0, [sp, #12]
   11ad4:	e51b0050 	ldr	r0, [fp, #-80]	; 0xffffffb0
   11ad8:	e58d0008 	str	r0, [sp, #8]
   11adc:	e51b0044 	ldr	r0, [fp, #-68]	; 0xffffffbc
   11ae0:	e58d0004 	str	r0, [sp, #4]
   11ae4:	e51b0048 	ldr	r0, [fp, #-72]	; 0xffffffb8
   11ae8:	e58d0000 	str	r0, [sp]
   11aec:	e1a01008 	mov	r1, r8
   11af0:	e1a03009 	mov	r3, r9
   11af4:	e1a02001 	mov	r2, r1
   11af8:	e1a0000a 	mov	r0, sl
   11afc:	e51b1054 	ldr	r1, [fp, #-84]	; 0xffffffac
   11b00:	ebfffdad 	bl	111bc <SYSTEM_$$_SUB128$QWORD$QWORD$QWORD$QWORD$QWORD$QWORD>
   11b04:	ea000021 	b	11b90 <SYSTEM_$$_ESTIMATEDIV128TO64$QWORD$QWORD$QWORD$$QWORD+0x194>
   11b08:	e51b0058 	ldr	r0, [fp, #-88]	; 0xffffffa8
   11b0c:	e2500000 	subs	r0, r0, #0
   11b10:	e50b0058 	str	r0, [fp, #-88]	; 0xffffffa8
   11b14:	e2c66001 	sbc	r6, r6, #1
   11b18:	e3a01000 	mov	r1, #0
   11b1c:	e1a00005 	mov	r0, r5
   11b20:	e1a03001 	mov	r3, r1
   11b24:	e1a02000 	mov	r2, r0
   11b28:	e51b0040 	ldr	r0, [fp, #-64]	; 0xffffffc0
   11b2c:	e51bc03c 	ldr	ip, [fp, #-60]	; 0xffffffc4
   11b30:	e0931000 	adds	r1, r3, r0
   11b34:	e0a2000c 	adc	r0, r2, ip
   11b38:	e1a07001 	mov	r7, r1
   11b3c:	e1a01000 	mov	r1, r0
   11b40:	e50b7040 	str	r7, [fp, #-64]	; 0xffffffc0
   11b44:	e50b103c 	str	r1, [fp, #-60]	; 0xffffffc4
   11b48:	e51b0040 	ldr	r0, [fp, #-64]	; 0xffffffc0
   11b4c:	e51bc03c 	ldr	ip, [fp, #-60]	; 0xffffffc4
   11b50:	e151000c 	cmp	r1, ip
   11b54:	01570000 	cmpeq	r7, r0
   11b58:	33a09001 	movcc	r9, #1
   11b5c:	23a09000 	movcs	r9, #0
   11b60:	e20990ff 	and	r9, r9, #255	; 0xff
   11b64:	e3a08000 	mov	r8, #0
   11b68:	e51b0038 	ldr	r0, [fp, #-56]	; 0xffffffc8
   11b6c:	e51bc034 	ldr	ip, [fp, #-52]	; 0xffffffcc
   11b70:	e51b1060 	ldr	r1, [fp, #-96]	; 0xffffffa0
   11b74:	e0917000 	adds	r7, r1, r0
   11b78:	e51b105c 	ldr	r1, [fp, #-92]	; 0xffffffa4
   11b7c:	e0a1000c 	adc	r0, r1, ip
   11b80:	e0971009 	adds	r1, r7, r9
   11b84:	e0a00008 	adc	r0, r0, r8
   11b88:	e50b1038 	str	r1, [fp, #-56]	; 0xffffffc8
   11b8c:	e50b0034 	str	r0, [fp, #-52]	; 0xffffffcc
   11b90:	e51b0038 	ldr	r0, [fp, #-56]	; 0xffffffc8
   11b94:	e51b0034 	ldr	r0, [fp, #-52]	; 0xffffffcc
   11b98:	e3100102 	tst	r0, #-2147483648	; 0x80000000
   11b9c:	1affffd9 	bne	11b08 <SYSTEM_$$_ESTIMATEDIV128TO64$QWORD$QWORD$QWORD$$QWORD+0x10c>
   11ba0:	e51b3038 	ldr	r3, [fp, #-56]	; 0xffffffc8
   11ba4:	e51b0034 	ldr	r0, [fp, #-52]	; 0xffffffcc
   11ba8:	e3a01000 	mov	r1, #0
   11bac:	e51b0040 	ldr	r0, [fp, #-64]	; 0xffffffc0
   11bb0:	e51b003c 	ldr	r0, [fp, #-60]	; 0xffffffc4
   11bb4:	e3a02000 	mov	r2, #0
   11bb8:	e1811000 	orr	r1, r1, r0
   11bbc:	e1830002 	orr	r0, r3, r2
   11bc0:	e50b1038 	str	r1, [fp, #-56]	; 0xffffffc8
   11bc4:	e50b0034 	str	r0, [fp, #-52]	; 0xffffffcc
   11bc8:	e3a00000 	mov	r0, #0
   11bcc:	e51b1060 	ldr	r1, [fp, #-96]	; 0xffffffa0
   11bd0:	e51b2038 	ldr	r2, [fp, #-56]	; 0xffffffc8
   11bd4:	e51b3034 	ldr	r3, [fp, #-52]	; 0xffffffcc
   11bd8:	e1510003 	cmp	r1, r3
   11bdc:	01500002 	cmpeq	r0, r2
   11be0:	8a000004 	bhi	11bf8 <SYSTEM_$$_ESTIMATEDIV128TO64$QWORD$QWORD$QWORD$$QWORD+0x1fc>
   11be4:	e3e01000 	mvn	r1, #0
   11be8:	e1a00006 	mov	r0, r6
   11bec:	e50b1058 	str	r1, [fp, #-88]	; 0xffffffa8
   11bf0:	e1a06000 	mov	r6, r0
   11bf4:	ea000009 	b	11c20 <SYSTEM_$$_ESTIMATEDIV128TO64$QWORD$QWORD$QWORD$$QWORD+0x224>
   11bf8:	e51b3034 	ldr	r3, [fp, #-52]	; 0xffffffcc
   11bfc:	e51b2038 	ldr	r2, [fp, #-56]	; 0xffffffc8
   11c00:	e51b105c 	ldr	r1, [fp, #-92]	; 0xffffffa4
   11c04:	e51b0060 	ldr	r0, [fp, #-96]	; 0xffffffa0
   11c08:	eb004586 	bl	23228 <fpc_div_qword>
   11c0c:	e51b2058 	ldr	r2, [fp, #-88]	; 0xffffffa8
   11c10:	e1823000 	orr	r3, r2, r0
   11c14:	e1860001 	orr	r0, r6, r1
   11c18:	e50b3058 	str	r3, [fp, #-88]	; 0xffffffa8
   11c1c:	e1a06000 	mov	r6, r0
   11c20:	e51b1058 	ldr	r1, [fp, #-88]	; 0xffffffa8
   11c24:	e1a00006 	mov	r0, r6
   11c28:	e50b1068 	str	r1, [fp, #-104]	; 0xffffff98
   11c2c:	e50b0064 	str	r0, [fp, #-100]	; 0xffffff9c
   11c30:	e51b1064 	ldr	r1, [fp, #-100]	; 0xffffff9c
   11c34:	e51b0068 	ldr	r0, [fp, #-104]	; 0xffffff98
   11c38:	e91baff8 	ldmdb	fp, {r3, r4, r5, r6, r7, r8, r9, sl, fp, sp, pc}

00011c3c <SYSTEM_$$_ESTIMATEDIV64TO32$LONGWORD$LONGWORD$LONGWORD$$LONGWORD>:
   11c3c:	e1a0c00d 	mov	ip, sp
   11c40:	e92ddbf0 	push	{r4, r5, r6, r7, r8, r9, fp, ip, lr, pc}
   11c44:	e24cb004 	sub	fp, ip, #4
   11c48:	e24dd048 	sub	sp, sp, #72	; 0x48
   11c4c:	e1a05000 	mov	r5, r0
   11c50:	e1a04001 	mov	r4, r1
   11c54:	e1a09002 	mov	r9, r2
   11c58:	e1590005 	cmp	r9, r5
   11c5c:	93e06000 	mvnls	r6, #0
   11c60:	9a000036 	bls	11d40 <SYSTEM_$$_ESTIMATEDIV64TO32$LONGWORD$LONGWORD$LONGWORD$$LONGWORD+0x104>
   11c64:	e1a07829 	lsr	r7, r9, #16
   11c68:	e1a00807 	lsl	r0, r7, #16
   11c6c:	e1500005 	cmp	r0, r5
   11c70:	93a084ff 	movls	r8, #-16777216	; 0xff000000
   11c74:	938888ff 	orrls	r8, r8, #16711680	; 0xff0000
   11c78:	9a000003 	bls	11c8c <SYSTEM_$$_ESTIMATEDIV64TO32$LONGWORD$LONGWORD$LONGWORD$$LONGWORD+0x50>
   11c7c:	e1a01005 	mov	r1, r5
   11c80:	e1a00007 	mov	r0, r7
   11c84:	eb001f51 	bl	199d0 <fpc_div_dword>
   11c88:	e1a08800 	lsl	r8, r0, #16
   11c8c:	e24b303c 	sub	r3, fp, #60	; 0x3c
   11c90:	e24b2038 	sub	r2, fp, #56	; 0x38
   11c94:	e1a01008 	mov	r1, r8
   11c98:	e1a00009 	mov	r0, r9
   11c9c:	ebfffdab 	bl	11350 <SYSTEM_$$_MUL32TO64$LONGWORD$LONGWORD$LONGWORD$LONGWORD>
   11ca0:	e24b0034 	sub	r0, fp, #52	; 0x34
   11ca4:	e58d0004 	str	r0, [sp, #4]
   11ca8:	e24b0030 	sub	r0, fp, #48	; 0x30
   11cac:	e58d0000 	str	r0, [sp]
   11cb0:	e51b303c 	ldr	r3, [fp, #-60]	; 0xffffffc4
   11cb4:	e51b2038 	ldr	r2, [fp, #-56]	; 0xffffffc8
   11cb8:	e1a01004 	mov	r1, r4
   11cbc:	e1a00005 	mov	r0, r5
   11cc0:	ebfffd0a 	bl	110f0 <SYSTEM_$$_SUB64$LONGWORD$LONGWORD$LONGWORD$LONGWORD$LONGWORD$LONGWORD>
   11cc4:	ea00000a 	b	11cf4 <SYSTEM_$$_ESTIMATEDIV64TO32$LONGWORD$LONGWORD$LONGWORD$$LONGWORD+0xb8>
   11cc8:	e2488801 	sub	r8, r8, #65536	; 0x10000
   11ccc:	e1a04809 	lsl	r4, r9, #16
   11cd0:	e24b0034 	sub	r0, fp, #52	; 0x34
   11cd4:	e58d0004 	str	r0, [sp, #4]
   11cd8:	e24b0030 	sub	r0, fp, #48	; 0x30
   11cdc:	e58d0000 	str	r0, [sp]
   11ce0:	e1a03004 	mov	r3, r4
   11ce4:	e1a02007 	mov	r2, r7
   11ce8:	e51b1034 	ldr	r1, [fp, #-52]	; 0xffffffcc
   11cec:	e51b0030 	ldr	r0, [fp, #-48]	; 0xffffffd0
   11cf0:	ebfffc06 	bl	10d10 <SYSTEM_$$_ADD64$LONGWORD$LONGWORD$LONGWORD$LONGWORD$LONGWORD$LONGWORD>
   11cf4:	e51b0030 	ldr	r0, [fp, #-48]	; 0xffffffd0
   11cf8:	e3500000 	cmp	r0, #0
   11cfc:	bafffff1 	blt	11cc8 <SYSTEM_$$_ESTIMATEDIV64TO32$LONGWORD$LONGWORD$LONGWORD$$LONGWORD+0x8c>
   11d00:	e51b0030 	ldr	r0, [fp, #-48]	; 0xffffffd0
   11d04:	e1a01800 	lsl	r1, r0, #16
   11d08:	e51b0034 	ldr	r0, [fp, #-52]	; 0xffffffcc
   11d0c:	e1810820 	orr	r0, r1, r0, lsr #16
   11d10:	e50b0030 	str	r0, [fp, #-48]	; 0xffffffd0
   11d14:	e1a00807 	lsl	r0, r7, #16
   11d18:	e51b1030 	ldr	r1, [fp, #-48]	; 0xffffffd0
   11d1c:	e1500001 	cmp	r0, r1
   11d20:	938800ff 	orrls	r0, r8, #255	; 0xff
   11d24:	93808cff 	orrls	r8, r0, #65280	; 0xff00
   11d28:	9a000003 	bls	11d3c <SYSTEM_$$_ESTIMATEDIV64TO32$LONGWORD$LONGWORD$LONGWORD$$LONGWORD+0x100>
   11d2c:	e51b1030 	ldr	r1, [fp, #-48]	; 0xffffffd0
   11d30:	e1a00007 	mov	r0, r7
   11d34:	eb001f25 	bl	199d0 <fpc_div_dword>
   11d38:	e1808008 	orr	r8, r0, r8
   11d3c:	e1a06008 	mov	r6, r8
   11d40:	e1a00006 	mov	r0, r6
   11d44:	e91babf0 	ldmdb	fp, {r4, r5, r6, r7, r8, r9, fp, sp, pc}

00011d48 <SYSTEM_$$_ESTIMATESQRT32$SMALLINT$LONGWORD$$LONGWORD>:
   11d48:	e92d4070 	push	{r4, r5, r6, lr}
   11d4c:	e1a04001 	mov	r4, r1
   11d50:	e1a01da4 	lsr	r1, r4, #27
   11d54:	e201100f 	and	r1, r1, #15
   11d58:	e6af5071 	sxtb	r5, r1
   11d5c:	e2100001 	ands	r0, r0, #1
   11d60:	0a00000d 	beq	11d9c <SYSTEM_$$_ESTIMATESQRT32$SMALLINT$LONGWORD$$LONGWORD+0x54>
   11d64:	e1a008a4 	lsr	r0, r4, #17
   11d68:	e2802901 	add	r2, r0, #16384	; 0x4000
   11d6c:	e20500ff 	and	r0, r5, #255	; 0xff
   11d70:	e1a00080 	lsl	r0, r0, #1
   11d74:	e59f1088 	ldr	r1, [pc, #136]	; 11e04 <SYSTEM_$$_ESTIMATESQRT32$SMALLINT$LONGWORD$$LONGWORD+0xbc>
   11d78:	e19000b1 	ldrh	r0, [r0, r1]
   11d7c:	e0426000 	sub	r6, r2, r0
   11d80:	e1a01004 	mov	r1, r4
   11d84:	e1a00006 	mov	r0, r6
   11d88:	eb001f10 	bl	199d0 <fpc_div_dword>
   11d8c:	e1a00700 	lsl	r0, r0, #14
   11d90:	e0806786 	add	r6, r0, r6, lsl #15
   11d94:	e1a040a4 	lsr	r4, r4, #1
   11d98:	ea000011 	b	11de4 <SYSTEM_$$_ESTIMATESQRT32$SMALLINT$LONGWORD$$LONGWORD+0x9c>
   11d9c:	e1a008a4 	lsr	r0, r4, #17
   11da0:	e2802902 	add	r2, r0, #32768	; 0x8000
   11da4:	e20500ff 	and	r0, r5, #255	; 0xff
   11da8:	e1a00080 	lsl	r0, r0, #1
   11dac:	e59f1054 	ldr	r1, [pc, #84]	; 11e08 <SYSTEM_$$_ESTIMATESQRT32$SMALLINT$LONGWORD$$LONGWORD+0xc0>
   11db0:	e19000b1 	ldrh	r0, [r0, r1]
   11db4:	e0426000 	sub	r6, r2, r0
   11db8:	e1a01004 	mov	r1, r4
   11dbc:	e1a00006 	mov	r0, r6
   11dc0:	eb001f02 	bl	199d0 <fpc_div_dword>
   11dc4:	e0866000 	add	r6, r6, r0
   11dc8:	e3560802 	cmp	r6, #131072	; 0x20000
   11dcc:	23e060ff 	mvncs	r6, #255	; 0xff
   11dd0:	23c66c7f 	biccs	r6, r6, #32512	; 0x7f00
   11dd4:	31a06786 	lslcc	r6, r6, #15
   11dd8:	e1560004 	cmp	r6, r4
   11ddc:	91a050c4 	asrls	r5, r4, #1
   11de0:	9a000005 	bls	11dfc <SYSTEM_$$_ESTIMATESQRT32$SMALLINT$LONGWORD$$LONGWORD+0xb4>
   11de4:	e1a02006 	mov	r2, r6
   11de8:	e1a00004 	mov	r0, r4
   11dec:	e3a01000 	mov	r1, #0
   11df0:	ebffff91 	bl	11c3c <SYSTEM_$$_ESTIMATEDIV64TO32$LONGWORD$LONGWORD$LONGWORD$$LONGWORD>
   11df4:	e1a010a0 	lsr	r1, r0, #1
   11df8:	e08150a6 	add	r5, r1, r6, lsr #1
   11dfc:	e1a00005 	mov	r0, r5
   11e00:	e8bd8070 	pop	{r4, r5, r6, pc}
   11e04:	0005027c 	andeq	r0, r5, ip, ror r2
   11e08:	0005029c 	muleq	r5, ip, r2

00011e0c <SYSTEM_$$_COUNTLEADINGZEROS32$LONGWORD$$SHORTINT>:
   11e0c:	e3a01000 	mov	r1, #0
   11e10:	e3500801 	cmp	r0, #65536	; 0x10000
   11e14:	32812010 	addcc	r2, r1, #16
   11e18:	36af2072 	sxtbcc	r2, r2
   11e1c:	31a01002 	movcc	r1, r2
   11e20:	31a00800 	lslcc	r0, r0, #16
   11e24:	e3500401 	cmp	r0, #16777216	; 0x1000000
   11e28:	32812008 	addcc	r2, r1, #8
   11e2c:	36af2072 	sxtbcc	r2, r2
   11e30:	31a01002 	movcc	r1, r2
   11e34:	31a00400 	lslcc	r0, r0, #8
   11e38:	e1a00c20 	lsr	r0, r0, #24
   11e3c:	e59f200c 	ldr	r2, [pc, #12]	; 11e50 <SYSTEM_$$_COUNTLEADINGZEROS32$LONGWORD$$SHORTINT+0x44>
   11e40:	e19000d2 	ldrsb	r0, [r0, r2]
   11e44:	e0810000 	add	r0, r1, r0
   11e48:	e6af0070 	sxtb	r0, r0
   11e4c:	e12fff1e 	bx	lr
   11e50:	000502bc 			; <UNDEFINED> instruction: 0x000502bc

00011e54 <SYSTEM_$$_COUNTLEADINGZEROS64$QWORD$$SHORTINT>:
   11e54:	e92d4010 	push	{r4, lr}
   11e58:	e3a04000 	mov	r4, #0
   11e5c:	e3a02000 	mov	r2, #0
   11e60:	e3a03001 	mov	r3, #1
   11e64:	e1510003 	cmp	r1, r3
   11e68:	01500002 	cmpeq	r0, r2
   11e6c:	32842020 	addcc	r2, r4, #32
   11e70:	36af2072 	sxtbcc	r2, r2
   11e74:	31a04002 	movcc	r4, r2
   11e78:	23a03000 	movcs	r3, #0
   11e7c:	21a00001 	movcs	r0, r1
   11e80:	21a01003 	movcs	r1, r3
   11e84:	ebffffe0 	bl	11e0c <SYSTEM_$$_COUNTLEADINGZEROS32$LONGWORD$$SHORTINT>
   11e88:	e0800004 	add	r0, r0, r4
   11e8c:	e6af0070 	sxtb	r0, r0
   11e90:	e8bd8010 	pop	{r4, pc}

00011e94 <SYSTEM_$$_LE64$LONGWORD$LONGWORD$LONGWORD$LONGWORD$$BYTE>:
   11e94:	e1500002 	cmp	r0, r2
   11e98:	1a000002 	bne	11ea8 <SYSTEM_$$_LE64$LONGWORD$LONGWORD$LONGWORD$LONGWORD$$BYTE+0x14>
   11e9c:	e1510003 	cmp	r1, r3
   11ea0:	93a01001 	movls	r1, #1
   11ea4:	9a000000 	bls	11eac <SYSTEM_$$_LE64$LONGWORD$LONGWORD$LONGWORD$LONGWORD$$BYTE+0x18>
   11ea8:	e3a01000 	mov	r1, #0
   11eac:	e1500002 	cmp	r0, r2
   11eb0:	33a00001 	movcc	r0, #1
   11eb4:	23a00000 	movcs	r0, #0
   11eb8:	e1800001 	orr	r0, r0, r1
   11ebc:	e12fff1e 	bx	lr

00011ec0 <SYSTEM_$$_LT64$LONGWORD$LONGWORD$LONGWORD$LONGWORD$$BYTE>:
   11ec0:	e1500002 	cmp	r0, r2
   11ec4:	1a000002 	bne	11ed4 <SYSTEM_$$_LT64$LONGWORD$LONGWORD$LONGWORD$LONGWORD$$BYTE+0x14>
   11ec8:	e1510003 	cmp	r1, r3
   11ecc:	33a01001 	movcc	r1, #1
   11ed0:	3a000000 	bcc	11ed8 <SYSTEM_$$_LT64$LONGWORD$LONGWORD$LONGWORD$LONGWORD$$BYTE+0x18>
   11ed4:	e3a01000 	mov	r1, #0
   11ed8:	e1500002 	cmp	r0, r2
   11edc:	33a00001 	movcc	r0, #1
   11ee0:	23a00000 	movcs	r0, #0
   11ee4:	e1800001 	orr	r0, r0, r1
   11ee8:	e12fff1e 	bx	lr

00011eec <SYSTEM_$$_FLOAT32_IS_NAN$LONGWORD$$BYTE>:
   11eec:	e1a00080 	lsl	r0, r0, #1
   11ef0:	e35004ff 	cmp	r0, #-16777216	; 0xff000000
   11ef4:	83a00001 	movhi	r0, #1
   11ef8:	93a00000 	movls	r0, #0
   11efc:	e12fff1e 	bx	lr

00011f00 <SYSTEM_$$_FLOAT32_IS_SIGNALING_NAN$LONGWORD$$BYTE>:
   11f00:	e1a01b20 	lsr	r1, r0, #22
   11f04:	e1a02b81 	lsl	r2, r1, #23
   11f08:	e1a02ba2 	lsr	r2, r2, #23
   11f0c:	e3a010fe 	mov	r1, #254	; 0xfe
   11f10:	e3811c01 	orr	r1, r1, #256	; 0x100
   11f14:	e1520001 	cmp	r2, r1
   11f18:	1a000003 	bne	11f2c <SYSTEM_$$_FLOAT32_IS_SIGNALING_NAN$LONGWORD$$BYTE+0x2c>
   11f1c:	e1a00500 	lsl	r0, r0, #10
   11f20:	e1b00520 	lsrs	r0, r0, #10
   11f24:	13a00001 	movne	r0, #1
   11f28:	1a000000 	bne	11f30 <SYSTEM_$$_FLOAT32_IS_SIGNALING_NAN$LONGWORD$$BYTE+0x30>
   11f2c:	e3a00000 	mov	r0, #0
   11f30:	e12fff1e 	bx	lr

00011f34 <SYSTEM_$$_FLOAT32TOCOMMONNAN$LONGWORD$COMMONNANT>:
   11f34:	e92d4038 	push	{r3, r4, r5, lr}
   11f38:	e24dd010 	sub	sp, sp, #16
   11f3c:	e1a04000 	mov	r4, r0
   11f40:	e1a05001 	mov	r5, r1
   11f44:	e1a00004 	mov	r0, r4
   11f48:	ebffffec 	bl	11f00 <SYSTEM_$$_FLOAT32_IS_SIGNALING_NAN$LONGWORD$$BYTE>
   11f4c:	e3500000 	cmp	r0, #0
   11f50:	0a000001 	beq	11f5c <SYSTEM_$$_FLOAT32TOCOMMONNAN$LONGWORD$COMMONNANT+0x28>
   11f54:	e3a00000 	mov	r0, #0
   11f58:	eb002770 	bl	1bd20 <SYSTEM_$$_FLOAT_RAISE$TFPUEXCEPTION>
   11f5c:	e1a00fa4 	lsr	r0, r4, #31
   11f60:	e5cd0008 	strb	r0, [sp, #8]
   11f64:	e3a00000 	mov	r0, #0
   11f68:	e58d0004 	str	r0, [sp, #4]
   11f6c:	e1a00484 	lsl	r0, r4, #9
   11f70:	e58d0000 	str	r0, [sp]
   11f74:	e1a0000d 	mov	r0, sp
   11f78:	e5902000 	ldr	r2, [r0]
   11f7c:	e5901004 	ldr	r1, [r0, #4]
   11f80:	e5900008 	ldr	r0, [r0, #8]
   11f84:	e5852000 	str	r2, [r5]
   11f88:	e5851004 	str	r1, [r5, #4]
   11f8c:	e5850008 	str	r0, [r5, #8]
   11f90:	e28dd010 	add	sp, sp, #16
   11f94:	e8bd8038 	pop	{r3, r4, r5, pc}

00011f98 <SYSTEM_$$_COMMONNANTOFLOAT32$COMMONNANT$$LONGWORD>:
   11f98:	e52d0010 	str	r0, [sp, #-16]!
   11f9c:	e58d1004 	str	r1, [sp, #4]
   11fa0:	e58d2008 	str	r2, [sp, #8]
   11fa4:	e59d0000 	ldr	r0, [sp]
   11fa8:	e1a014a0 	lsr	r1, r0, #9
   11fac:	e5dd0008 	ldrb	r0, [sp, #8]
   11fb0:	e1a00f80 	lsl	r0, r0, #31
   11fb4:	e3800101 	orr	r0, r0, #1073741824	; 0x40000000
   11fb8:	e38005ff 	orr	r0, r0, #1069547520	; 0x3fc00000
   11fbc:	e1800001 	orr	r0, r0, r1
   11fc0:	e28dd010 	add	sp, sp, #16
   11fc4:	e12fff1e 	bx	lr

00011fc8 <SYSTEM_$$_PROPAGATEFLOAT32NAN$LONGWORD$LONGWORD$$LONGWORD>:
   11fc8:	e92d47f0 	push	{r4, r5, r6, r7, r8, r9, sl, lr}
   11fcc:	e1a04000 	mov	r4, r0
   11fd0:	e1a05001 	mov	r5, r1
   11fd4:	e1a00004 	mov	r0, r4
   11fd8:	ebffffc3 	bl	11eec <SYSTEM_$$_FLOAT32_IS_NAN$LONGWORD$$BYTE>
   11fdc:	e1a06000 	mov	r6, r0
   11fe0:	e1a00004 	mov	r0, r4
   11fe4:	ebffffc5 	bl	11f00 <SYSTEM_$$_FLOAT32_IS_SIGNALING_NAN$LONGWORD$$BYTE>
   11fe8:	e1a08000 	mov	r8, r0
   11fec:	e1a00005 	mov	r0, r5
   11ff0:	ebffffbd 	bl	11eec <SYSTEM_$$_FLOAT32_IS_NAN$LONGWORD$$BYTE>
   11ff4:	e1a09000 	mov	r9, r0
   11ff8:	e1a00005 	mov	r0, r5
   11ffc:	ebffffbf 	bl	11f00 <SYSTEM_$$_FLOAT32_IS_SIGNALING_NAN$LONGWORD$$BYTE>
   12000:	e1a0a000 	mov	sl, r0
   12004:	e3844501 	orr	r4, r4, #4194304	; 0x400000
   12008:	e3855501 	orr	r5, r5, #4194304	; 0x400000
   1200c:	e19a0008 	orrs	r0, sl, r8
   12010:	0a000001 	beq	1201c <SYSTEM_$$_PROPAGATEFLOAT32NAN$LONGWORD$LONGWORD$$LONGWORD+0x54>
   12014:	e3a00000 	mov	r0, #0
   12018:	eb002740 	bl	1bd20 <SYSTEM_$$_FLOAT_RAISE$TFPUEXCEPTION>
   1201c:	e3580000 	cmp	r8, #0
   12020:	0a000006 	beq	12040 <SYSTEM_$$_PROPAGATEFLOAT32NAN$LONGWORD$LONGWORD$$LONGWORD+0x78>
   12024:	e35a0000 	cmp	sl, #0
   12028:	1a00000a 	bne	12058 <SYSTEM_$$_PROPAGATEFLOAT32NAN$LONGWORD$LONGWORD$$LONGWORD+0x90>
   1202c:	e3590000 	cmp	r9, #0
   12030:	11a07005 	movne	r7, r5
   12034:	1a000014 	bne	1208c <SYSTEM_$$_PROPAGATEFLOAT32NAN$LONGWORD$LONGWORD$$LONGWORD+0xc4>
   12038:	e1a07004 	mov	r7, r4
   1203c:	ea000012 	b	1208c <SYSTEM_$$_PROPAGATEFLOAT32NAN$LONGWORD$LONGWORD$$LONGWORD+0xc4>
   12040:	e3560000 	cmp	r6, #0
   12044:	0a00000f 	beq	12088 <SYSTEM_$$_PROPAGATEFLOAT32NAN$LONGWORD$LONGWORD$$LONGWORD+0xc0>
   12048:	e1e00c09 	mvn	r0, r9, lsl #24
   1204c:	e19a0c20 	orrs	r0, sl, r0, lsr #24
   12050:	11a07004 	movne	r7, r4
   12054:	1a00000c 	bne	1208c <SYSTEM_$$_PROPAGATEFLOAT32NAN$LONGWORD$LONGWORD$$LONGWORD+0xc4>
   12058:	e1a00084 	lsl	r0, r4, #1
   1205c:	e1500085 	cmp	r0, r5, lsl #1
   12060:	31a07005 	movcc	r7, r5
   12064:	3a000008 	bcc	1208c <SYSTEM_$$_PROPAGATEFLOAT32NAN$LONGWORD$LONGWORD$$LONGWORD+0xc4>
   12068:	e1a00085 	lsl	r0, r5, #1
   1206c:	e1500084 	cmp	r0, r4, lsl #1
   12070:	31a07004 	movcc	r7, r4
   12074:	e1540005 	cmp	r4, r5
   12078:	31a07004 	movcc	r7, r4
   1207c:	3a000002 	bcc	1208c <SYSTEM_$$_PROPAGATEFLOAT32NAN$LONGWORD$LONGWORD$$LONGWORD+0xc4>
   12080:	e1a07005 	mov	r7, r5
   12084:	ea000000 	b	1208c <SYSTEM_$$_PROPAGATEFLOAT32NAN$LONGWORD$LONGWORD$$LONGWORD+0xc4>
   12088:	e1a07005 	mov	r7, r5
   1208c:	e1a00007 	mov	r0, r7
   12090:	e8bd87f0 	pop	{r4, r5, r6, r7, r8, r9, sl, pc}

00012094 <SYSTEM_$$_FLOAT64_IS_NAN$FLOAT64$$BYTE>:
   12094:	e52d0008 	str	r0, [sp, #-8]!
   12098:	e58d1004 	str	r1, [sp, #4]
   1209c:	e1a02081 	lsl	r2, r1, #1
   120a0:	e3a0020f 	mov	r0, #-268435456	; 0xf0000000
   120a4:	e38006fe 	orr	r0, r0, #266338304	; 0xfe00000
   120a8:	e1520000 	cmp	r2, r0
   120ac:	3a000005 	bcc	120c8 <SYSTEM_$$_FLOAT64_IS_NAN$FLOAT64$$BYTE+0x34>
   120b0:	e1a01601 	lsl	r1, r1, #12
   120b4:	e1a01621 	lsr	r1, r1, #12
   120b8:	e59d0000 	ldr	r0, [sp]
   120bc:	e1910000 	orrs	r0, r1, r0
   120c0:	13a00001 	movne	r0, #1
   120c4:	1a000000 	bne	120cc <SYSTEM_$$_FLOAT64_IS_NAN$FLOAT64$$BYTE+0x38>
   120c8:	e3a00000 	mov	r0, #0
   120cc:	e28dd008 	add	sp, sp, #8
   120d0:	e12fff1e 	bx	lr

000120d4 <SYSTEM_$$_FLOAT64_IS_SIGNALING_NAN$FLOAT64$$BYTE>:
   120d4:	e52d0008 	str	r0, [sp, #-8]!
   120d8:	e58d1004 	str	r1, [sp, #4]
   120dc:	e1a03001 	mov	r3, r1
   120e0:	e1a00083 	lsl	r0, r3, #1
   120e4:	e1a00a20 	lsr	r0, r0, #20
   120e8:	e3a010fe 	mov	r1, #254	; 0xfe
   120ec:	e3811c0f 	orr	r1, r1, #3840	; 0xf00
   120f0:	e1500001 	cmp	r0, r1
   120f4:	03a02001 	moveq	r2, #1
   120f8:	13a02000 	movne	r2, #0
   120fc:	e1a01683 	lsl	r1, r3, #13
   12100:	e1a016a1 	lsr	r1, r1, #13
   12104:	e59d0000 	ldr	r0, [sp]
   12108:	e1810000 	orr	r0, r1, r0
   1210c:	e0000002 	and	r0, r0, r2
   12110:	e20000ff 	and	r0, r0, #255	; 0xff
   12114:	e28dd008 	add	sp, sp, #8
   12118:	e12fff1e 	bx	lr

0001211c <SYSTEM_$$_FLOAT64TOCOMMONNAN$FLOAT64$COMMONNANT>:
   1211c:	e1a0c00d 	mov	ip, sp
   12120:	e92dd818 	push	{r3, r4, fp, ip, lr, pc}
   12124:	e24cb004 	sub	fp, ip, #4
   12128:	e24dd048 	sub	sp, sp, #72	; 0x48
   1212c:	e14b03f4 	strd	r0, [fp, #-52]	; 0xffffffcc
   12130:	e1a04002 	mov	r4, r2
   12134:	e51b1030 	ldr	r1, [fp, #-48]	; 0xffffffd0
   12138:	e51b0034 	ldr	r0, [fp, #-52]	; 0xffffffcc
   1213c:	ebffffe4 	bl	120d4 <SYSTEM_$$_FLOAT64_IS_SIGNALING_NAN$FLOAT64$$BYTE>
   12140:	e3500000 	cmp	r0, #0
   12144:	0a000001 	beq	12150 <SYSTEM_$$_FLOAT64TOCOMMONNAN$FLOAT64$COMMONNANT+0x34>
   12148:	e3a00000 	mov	r0, #0
   1214c:	eb0026f3 	bl	1bd20 <SYSTEM_$$_FLOAT_RAISE$TFPUEXCEPTION>
   12150:	e51b0030 	ldr	r0, [fp, #-48]	; 0xffffffd0
   12154:	e1a00fa0 	lsr	r0, r0, #31
   12158:	e54b0038 	strb	r0, [fp, #-56]	; 0xffffffc8
   1215c:	e24b003c 	sub	r0, fp, #60	; 0x3c
   12160:	e58d0000 	str	r0, [sp]
   12164:	e24b3040 	sub	r3, fp, #64	; 0x40
   12168:	e51b1034 	ldr	r1, [fp, #-52]	; 0xffffffcc
   1216c:	e51b0030 	ldr	r0, [fp, #-48]	; 0xffffffd0
   12170:	e3a0200c 	mov	r2, #12
   12174:	ebfffa93 	bl	10bc8 <SYSTEM_$$_SHORTSHIFT64LEFT$LONGWORD$LONGWORD$SMALLINT$LONGWORD$LONGWORD>
   12178:	e51b2040 	ldr	r2, [fp, #-64]	; 0xffffffc0
   1217c:	e51b103c 	ldr	r1, [fp, #-60]	; 0xffffffc4
   12180:	e51b0038 	ldr	r0, [fp, #-56]	; 0xffffffc8
   12184:	e5842000 	str	r2, [r4]
   12188:	e5841004 	str	r1, [r4, #4]
   1218c:	e5840008 	str	r0, [r4, #8]
   12190:	e91ba818 	ldmdb	fp, {r3, r4, fp, sp, pc}

00012194 <SYSTEM_$$_FLOAT64TOCOMMONNAN$FLOAT64$$COMMONNANT>:
   12194:	e1a0c00d 	mov	ip, sp
   12198:	e92dd818 	push	{r3, r4, fp, ip, lr, pc}
   1219c:	e24cb004 	sub	fp, ip, #4
   121a0:	e24dd048 	sub	sp, sp, #72	; 0x48
   121a4:	e1a04000 	mov	r4, r0
   121a8:	e14b23f4 	strd	r2, [fp, #-52]	; 0xffffffcc
   121ac:	e51b1030 	ldr	r1, [fp, #-48]	; 0xffffffd0
   121b0:	e51b0034 	ldr	r0, [fp, #-52]	; 0xffffffcc
   121b4:	ebffffc6 	bl	120d4 <SYSTEM_$$_FLOAT64_IS_SIGNALING_NAN$FLOAT64$$BYTE>
   121b8:	e3500000 	cmp	r0, #0
   121bc:	0a000001 	beq	121c8 <SYSTEM_$$_FLOAT64TOCOMMONNAN$FLOAT64$$COMMONNANT+0x34>
   121c0:	e3a00000 	mov	r0, #0
   121c4:	eb0026d5 	bl	1bd20 <SYSTEM_$$_FLOAT_RAISE$TFPUEXCEPTION>
   121c8:	e51b0030 	ldr	r0, [fp, #-48]	; 0xffffffd0
   121cc:	e1a00fa0 	lsr	r0, r0, #31
   121d0:	e54b0038 	strb	r0, [fp, #-56]	; 0xffffffc8
   121d4:	e24b003c 	sub	r0, fp, #60	; 0x3c
   121d8:	e58d0000 	str	r0, [sp]
   121dc:	e24b3040 	sub	r3, fp, #64	; 0x40
   121e0:	e51b1034 	ldr	r1, [fp, #-52]	; 0xffffffcc
   121e4:	e51b0030 	ldr	r0, [fp, #-48]	; 0xffffffd0
   121e8:	e3a0200c 	mov	r2, #12
   121ec:	ebfffa75 	bl	10bc8 <SYSTEM_$$_SHORTSHIFT64LEFT$LONGWORD$LONGWORD$SMALLINT$LONGWORD$LONGWORD>
   121f0:	e51b2040 	ldr	r2, [fp, #-64]	; 0xffffffc0
   121f4:	e51b103c 	ldr	r1, [fp, #-60]	; 0xffffffc4
   121f8:	e51b0038 	ldr	r0, [fp, #-56]	; 0xffffffc8
   121fc:	e5842000 	str	r2, [r4]
   12200:	e5841004 	str	r1, [r4, #4]
   12204:	e5840008 	str	r0, [r4, #8]
   12208:	e91ba818 	ldmdb	fp, {r3, r4, fp, sp, pc}

0001220c <SYSTEM_$$_COMMONNANTOFLOAT64$COMMONNANT$FLOAT64>:
   1220c:	e1a0c00d 	mov	ip, sp
   12210:	e92dd818 	push	{r3, r4, fp, ip, lr, pc}
   12214:	e24cb004 	sub	fp, ip, #4
   12218:	e24dd048 	sub	sp, sp, #72	; 0x48
   1221c:	e50b0038 	str	r0, [fp, #-56]	; 0xffffffc8
   12220:	e50b1034 	str	r1, [fp, #-52]	; 0xffffffcc
   12224:	e50b2030 	str	r2, [fp, #-48]	; 0xffffffd0
   12228:	e1a04003 	mov	r4, r3
   1222c:	e24b0040 	sub	r0, fp, #64	; 0x40
   12230:	e58d0000 	str	r0, [sp]
   12234:	e24b303c 	sub	r3, fp, #60	; 0x3c
   12238:	e51b1034 	ldr	r1, [fp, #-52]	; 0xffffffcc
   1223c:	e51b0038 	ldr	r0, [fp, #-56]	; 0xffffffc8
   12240:	e3a0200c 	mov	r2, #12
   12244:	ebfff9be 	bl	10944 <SYSTEM_$$_SHIFT64RIGHT$LONGWORD$LONGWORD$SMALLINT$LONGWORD$LONGWORD>
   12248:	e55b0030 	ldrb	r0, [fp, #-48]	; 0xffffffd0
   1224c:	e1a00f80 	lsl	r0, r0, #31
   12250:	e51b103c 	ldr	r1, [fp, #-60]	; 0xffffffc4
   12254:	e1810000 	orr	r0, r1, r0
   12258:	e380031f 	orr	r0, r0, #2080374784	; 0x7c000000
   1225c:	e38007fe 	orr	r0, r0, #66584576	; 0x3f80000
   12260:	e50b003c 	str	r0, [fp, #-60]	; 0xffffffc4
   12264:	e51b1040 	ldr	r1, [fp, #-64]	; 0xffffffc0
   12268:	e51b003c 	ldr	r0, [fp, #-60]	; 0xffffffc4
   1226c:	e5841000 	str	r1, [r4]
   12270:	e5840004 	str	r0, [r4, #4]
   12274:	e91ba818 	ldmdb	fp, {r3, r4, fp, sp, pc}

00012278 <SYSTEM_$$_PROPAGATEFLOAT64NAN$FLOAT64$FLOAT64$FLOAT64>:
   12278:	e1a0c00d 	mov	ip, sp
   1227c:	e92dd9f8 	push	{r3, r4, r5, r6, r7, r8, fp, ip, lr, pc}
   12280:	e24cb004 	sub	fp, ip, #4
   12284:	e24dd040 	sub	sp, sp, #64	; 0x40
   12288:	e14b03f4 	strd	r0, [fp, #-52]	; 0xffffffcc
   1228c:	e14b23fc 	strd	r2, [fp, #-60]	; 0xffffffc4
   12290:	e59b5004 	ldr	r5, [fp, #4]
   12294:	e51b1030 	ldr	r1, [fp, #-48]	; 0xffffffd0
   12298:	e51b0034 	ldr	r0, [fp, #-52]	; 0xffffffcc
   1229c:	ebffff7c 	bl	12094 <SYSTEM_$$_FLOAT64_IS_NAN$FLOAT64$$BYTE>
   122a0:	e1a04000 	mov	r4, r0
   122a4:	e51b1030 	ldr	r1, [fp, #-48]	; 0xffffffd0
   122a8:	e51b0034 	ldr	r0, [fp, #-52]	; 0xffffffcc
   122ac:	ebffff88 	bl	120d4 <SYSTEM_$$_FLOAT64_IS_SIGNALING_NAN$FLOAT64$$BYTE>
   122b0:	e1a06000 	mov	r6, r0
   122b4:	e51b1038 	ldr	r1, [fp, #-56]	; 0xffffffc8
   122b8:	e51b003c 	ldr	r0, [fp, #-60]	; 0xffffffc4
   122bc:	ebffff74 	bl	12094 <SYSTEM_$$_FLOAT64_IS_NAN$FLOAT64$$BYTE>
   122c0:	e1a07000 	mov	r7, r0
   122c4:	e51b1038 	ldr	r1, [fp, #-56]	; 0xffffffc8
   122c8:	e51b003c 	ldr	r0, [fp, #-60]	; 0xffffffc4
   122cc:	ebffff80 	bl	120d4 <SYSTEM_$$_FLOAT64_IS_SIGNALING_NAN$FLOAT64$$BYTE>
   122d0:	e1a08000 	mov	r8, r0
   122d4:	e51b0030 	ldr	r0, [fp, #-48]	; 0xffffffd0
   122d8:	e3800702 	orr	r0, r0, #524288	; 0x80000
   122dc:	e50b0030 	str	r0, [fp, #-48]	; 0xffffffd0
   122e0:	e51b0038 	ldr	r0, [fp, #-56]	; 0xffffffc8
   122e4:	e3800702 	orr	r0, r0, #524288	; 0x80000
   122e8:	e50b0038 	str	r0, [fp, #-56]	; 0xffffffc8
   122ec:	e1980006 	orrs	r0, r8, r6
   122f0:	0a000001 	beq	122fc <SYSTEM_$$_PROPAGATEFLOAT64NAN$FLOAT64$FLOAT64$FLOAT64+0x84>
   122f4:	e3a00000 	mov	r0, #0
   122f8:	eb002688 	bl	1bd20 <SYSTEM_$$_FLOAT_RAISE$TFPUEXCEPTION>
   122fc:	e3560000 	cmp	r6, #0
   12300:	0a00000f 	beq	12344 <SYSTEM_$$_PROPAGATEFLOAT64NAN$FLOAT64$FLOAT64$FLOAT64+0xcc>
   12304:	e3580000 	cmp	r8, #0
   12308:	1a000018 	bne	12370 <SYSTEM_$$_PROPAGATEFLOAT64NAN$FLOAT64$FLOAT64$FLOAT64+0xf8>
   1230c:	e3570000 	cmp	r7, #0
   12310:	0a000005 	beq	1232c <SYSTEM_$$_PROPAGATEFLOAT64NAN$FLOAT64$FLOAT64$FLOAT64+0xb4>
   12314:	e51b203c 	ldr	r2, [fp, #-60]	; 0xffffffc4
   12318:	e51b1038 	ldr	r1, [fp, #-56]	; 0xffffffc8
   1231c:	e1a00005 	mov	r0, r5
   12320:	e5802000 	str	r2, [r0]
   12324:	e5801004 	str	r1, [r0, #4]
   12328:	ea000043 	b	1243c <SYSTEM_$$_PROPAGATEFLOAT64NAN$FLOAT64$FLOAT64$FLOAT64+0x1c4>
   1232c:	e51b2034 	ldr	r2, [fp, #-52]	; 0xffffffcc
   12330:	e51b1030 	ldr	r1, [fp, #-48]	; 0xffffffd0
   12334:	e1a00005 	mov	r0, r5
   12338:	e5802000 	str	r2, [r0]
   1233c:	e5801004 	str	r1, [r0, #4]
   12340:	ea00003d 	b	1243c <SYSTEM_$$_PROPAGATEFLOAT64NAN$FLOAT64$FLOAT64$FLOAT64+0x1c4>
   12344:	e3540000 	cmp	r4, #0
   12348:	0a000036 	beq	12428 <SYSTEM_$$_PROPAGATEFLOAT64NAN$FLOAT64$FLOAT64$FLOAT64+0x1b0>
   1234c:	e1e00c07 	mvn	r0, r7, lsl #24
   12350:	e1980c20 	orrs	r0, r8, r0, lsr #24
   12354:	0a000005 	beq	12370 <SYSTEM_$$_PROPAGATEFLOAT64NAN$FLOAT64$FLOAT64$FLOAT64+0xf8>
   12358:	e51b2034 	ldr	r2, [fp, #-52]	; 0xffffffcc
   1235c:	e51b1030 	ldr	r1, [fp, #-48]	; 0xffffffd0
   12360:	e1a00005 	mov	r0, r5
   12364:	e5802000 	str	r2, [r0]
   12368:	e5801004 	str	r1, [r0, #4]
   1236c:	ea000032 	b	1243c <SYSTEM_$$_PROPAGATEFLOAT64NAN$FLOAT64$FLOAT64$FLOAT64+0x1c4>
   12370:	e51b0038 	ldr	r0, [fp, #-56]	; 0xffffffc8
   12374:	e1a02080 	lsl	r2, r0, #1
   12378:	e51b0030 	ldr	r0, [fp, #-48]	; 0xffffffd0
   1237c:	e1a00080 	lsl	r0, r0, #1
   12380:	e51b303c 	ldr	r3, [fp, #-60]	; 0xffffffc4
   12384:	e51b1034 	ldr	r1, [fp, #-52]	; 0xffffffcc
   12388:	ebfffecc 	bl	11ec0 <SYSTEM_$$_LT64$LONGWORD$LONGWORD$LONGWORD$LONGWORD$$BYTE>
   1238c:	e3500000 	cmp	r0, #0
   12390:	0a000005 	beq	123ac <SYSTEM_$$_PROPAGATEFLOAT64NAN$FLOAT64$FLOAT64$FLOAT64+0x134>
   12394:	e51b203c 	ldr	r2, [fp, #-60]	; 0xffffffc4
   12398:	e51b1038 	ldr	r1, [fp, #-56]	; 0xffffffc8
   1239c:	e1a00005 	mov	r0, r5
   123a0:	e5802000 	str	r2, [r0]
   123a4:	e5801004 	str	r1, [r0, #4]
   123a8:	ea000023 	b	1243c <SYSTEM_$$_PROPAGATEFLOAT64NAN$FLOAT64$FLOAT64$FLOAT64+0x1c4>
   123ac:	e51b0030 	ldr	r0, [fp, #-48]	; 0xffffffd0
   123b0:	e1a02080 	lsl	r2, r0, #1
   123b4:	e51b0038 	ldr	r0, [fp, #-56]	; 0xffffffc8
   123b8:	e1a00080 	lsl	r0, r0, #1
   123bc:	e51b3034 	ldr	r3, [fp, #-52]	; 0xffffffcc
   123c0:	e51b103c 	ldr	r1, [fp, #-60]	; 0xffffffc4
   123c4:	ebfffebd 	bl	11ec0 <SYSTEM_$$_LT64$LONGWORD$LONGWORD$LONGWORD$LONGWORD$$BYTE>
   123c8:	e3500000 	cmp	r0, #0
   123cc:	0a000005 	beq	123e8 <SYSTEM_$$_PROPAGATEFLOAT64NAN$FLOAT64$FLOAT64$FLOAT64+0x170>
   123d0:	e51b2034 	ldr	r2, [fp, #-52]	; 0xffffffcc
   123d4:	e51b1030 	ldr	r1, [fp, #-48]	; 0xffffffd0
   123d8:	e1a00005 	mov	r0, r5
   123dc:	e5802000 	str	r2, [r0]
   123e0:	e5801004 	str	r1, [r0, #4]
   123e4:	ea000014 	b	1243c <SYSTEM_$$_PROPAGATEFLOAT64NAN$FLOAT64$FLOAT64$FLOAT64+0x1c4>
   123e8:	e51b0030 	ldr	r0, [fp, #-48]	; 0xffffffd0
   123ec:	e51b1038 	ldr	r1, [fp, #-56]	; 0xffffffc8
   123f0:	e1500001 	cmp	r0, r1
   123f4:	2a000005 	bcs	12410 <SYSTEM_$$_PROPAGATEFLOAT64NAN$FLOAT64$FLOAT64$FLOAT64+0x198>
   123f8:	e51b2034 	ldr	r2, [fp, #-52]	; 0xffffffcc
   123fc:	e51b1030 	ldr	r1, [fp, #-48]	; 0xffffffd0
   12400:	e1a00005 	mov	r0, r5
   12404:	e5802000 	str	r2, [r0]
   12408:	e5801004 	str	r1, [r0, #4]
   1240c:	ea00000a 	b	1243c <SYSTEM_$$_PROPAGATEFLOAT64NAN$FLOAT64$FLOAT64$FLOAT64+0x1c4>
   12410:	e51b203c 	ldr	r2, [fp, #-60]	; 0xffffffc4
   12414:	e51b1038 	ldr	r1, [fp, #-56]	; 0xffffffc8
   12418:	e1a00005 	mov	r0, r5
   1241c:	e5802000 	str	r2, [r0]
   12420:	e5801004 	str	r1, [r0, #4]
   12424:	ea000004 	b	1243c <SYSTEM_$$_PROPAGATEFLOAT64NAN$FLOAT64$FLOAT64$FLOAT64+0x1c4>
   12428:	e51b203c 	ldr	r2, [fp, #-60]	; 0xffffffc4
   1242c:	e51b1038 	ldr	r1, [fp, #-56]	; 0xffffffc8
   12430:	e1a00005 	mov	r0, r5
   12434:	e5802000 	str	r2, [r0]
   12438:	e5801004 	str	r1, [r0, #4]
   1243c:	e91ba9f8 	ldmdb	fp, {r3, r4, r5, r6, r7, r8, fp, sp, pc}

00012440 <SYSTEM_$$_LT128$QWORD$QWORD$QWORD$QWORD$$BYTE>:
   12440:	e1a0c00d 	mov	ip, sp
   12444:	e92dd878 	push	{r3, r4, r5, r6, fp, ip, lr, pc}
   12448:	e24cb004 	sub	fp, ip, #4
   1244c:	e24dd030 	sub	sp, sp, #48	; 0x30
   12450:	e59bc004 	ldr	ip, [fp, #4]
   12454:	e59b4008 	ldr	r4, [fp, #8]
   12458:	e59b500c 	ldr	r5, [fp, #12]
   1245c:	e59b6010 	ldr	r6, [fp, #16]
   12460:	e1510004 	cmp	r1, r4
   12464:	0150000c 	cmpeq	r0, ip
   12468:	3a000005 	bcc	12484 <SYSTEM_$$_LT128$QWORD$QWORD$QWORD$QWORD$$BYTE+0x44>
   1246c:	e1510004 	cmp	r1, r4
   12470:	0150000c 	cmpeq	r0, ip
   12474:	1a000004 	bne	1248c <SYSTEM_$$_LT128$QWORD$QWORD$QWORD$QWORD$$BYTE+0x4c>
   12478:	e1530006 	cmp	r3, r6
   1247c:	01520005 	cmpeq	r2, r5
   12480:	2a000001 	bcs	1248c <SYSTEM_$$_LT128$QWORD$QWORD$QWORD$QWORD$$BYTE+0x4c>
   12484:	e3a00001 	mov	r0, #1
   12488:	ea000000 	b	12490 <SYSTEM_$$_LT128$QWORD$QWORD$QWORD$QWORD$$BYTE+0x50>
   1248c:	e3a00000 	mov	r0, #0
   12490:	e91ba878 	ldmdb	fp, {r3, r4, r5, r6, fp, sp, pc}

00012494 <SYSTEM_$$_FLOAT128_IS_NAN$FLOAT128$$BYTE>:
   12494:	e92d4010 	push	{r4, lr}
   12498:	e52d0010 	str	r0, [sp, #-16]!
   1249c:	e58d1004 	str	r1, [sp, #4]
   124a0:	e1cd20f8 	strd	r2, [sp, #8]
   124a4:	e59d2008 	ldr	r2, [sp, #8]
   124a8:	e59d400c 	ldr	r4, [sp, #12]
   124ac:	e0920002 	adds	r0, r2, r2
   124b0:	e0a41004 	adc	r1, r4, r4
   124b4:	e3a0c000 	mov	ip, #0
   124b8:	e3a034ff 	mov	r3, #-16777216	; 0xff000000
   124bc:	e38338fe 	orr	r3, r3, #16646144	; 0xfe0000
   124c0:	e1510003 	cmp	r1, r3
   124c4:	0150000c 	cmpeq	r0, ip
   124c8:	3a000008 	bcc	124f0 <SYSTEM_$$_FLOAT128_IS_NAN$FLOAT128$$BYTE+0x5c>
   124cc:	e59d1000 	ldr	r1, [sp]
   124d0:	e59d0004 	ldr	r0, [sp, #4]
   124d4:	e1910000 	orrs	r0, r1, r0
   124d8:	1a000002 	bne	124e8 <SYSTEM_$$_FLOAT128_IS_NAN$FLOAT128$$BYTE+0x54>
   124dc:	e6ff0074 	uxth	r0, r4
   124e0:	e1920000 	orrs	r0, r2, r0
   124e4:	0a000001 	beq	124f0 <SYSTEM_$$_FLOAT128_IS_NAN$FLOAT128$$BYTE+0x5c>
   124e8:	e3a00001 	mov	r0, #1
   124ec:	ea000000 	b	124f4 <SYSTEM_$$_FLOAT128_IS_NAN$FLOAT128$$BYTE+0x60>
   124f0:	e3a00000 	mov	r0, #0
   124f4:	e28dd010 	add	sp, sp, #16
   124f8:	e8bd8010 	pop	{r4, pc}

000124fc <SYSTEM_$$_FLOAT128_IS_SIGNALING_NAN$FLOAT128$$BYTE>:
   124fc:	e92d4010 	push	{r4, lr}
   12500:	e52d0010 	str	r0, [sp, #-16]!
   12504:	e58d1004 	str	r1, [sp, #4]
   12508:	e1cd20f8 	strd	r2, [sp, #8]
   1250c:	e59d2008 	ldr	r2, [sp, #8]
   12510:	e59d400c 	ldr	r4, [sp, #12]
   12514:	e3a00000 	mov	r0, #0
   12518:	e1a007a4 	lsr	r0, r4, #15
   1251c:	e6ff0070 	uxth	r0, r0
   12520:	e3a01000 	mov	r1, #0
   12524:	e3a0c0fe 	mov	ip, #254	; 0xfe
   12528:	e38cccff 	orr	ip, ip, #65280	; 0xff00
   1252c:	e3a03000 	mov	r3, #0
   12530:	e1510003 	cmp	r1, r3
   12534:	0150000c 	cmpeq	r0, ip
   12538:	1a000009 	bne	12564 <SYSTEM_$$_FLOAT128_IS_SIGNALING_NAN$FLOAT128$$BYTE+0x68>
   1253c:	e59d1000 	ldr	r1, [sp]
   12540:	e59d0004 	ldr	r0, [sp, #4]
   12544:	e1910000 	orrs	r0, r1, r0
   12548:	1a000003 	bne	1255c <SYSTEM_$$_FLOAT128_IS_SIGNALING_NAN$FLOAT128$$BYTE+0x60>
   1254c:	e1a00884 	lsl	r0, r4, #17
   12550:	e1a008a0 	lsr	r0, r0, #17
   12554:	e1920000 	orrs	r0, r2, r0
   12558:	0a000001 	beq	12564 <SYSTEM_$$_FLOAT128_IS_SIGNALING_NAN$FLOAT128$$BYTE+0x68>
   1255c:	e3a00001 	mov	r0, #1
   12560:	ea000000 	b	12568 <SYSTEM_$$_FLOAT128_IS_SIGNALING_NAN$FLOAT128$$BYTE+0x6c>
   12564:	e3a00000 	mov	r0, #0
   12568:	e28dd010 	add	sp, sp, #16
   1256c:	e8bd8010 	pop	{r4, pc}

00012570 <SYSTEM_$$_FLOAT128TOCOMMONNAN$FLOAT128$$COMMONNANT>:
   12570:	e1a0c00d 	mov	ip, sp
   12574:	e92dd818 	push	{r3, r4, fp, ip, lr, pc}
   12578:	e24cb004 	sub	fp, ip, #4
   1257c:	e24dd068 	sub	sp, sp, #104	; 0x68
   12580:	e1a04000 	mov	r4, r0
   12584:	e14b23fc 	strd	r2, [fp, #-60]	; 0xffffffc4
   12588:	e59b2004 	ldr	r2, [fp, #4]
   1258c:	e59b1008 	ldr	r1, [fp, #8]
   12590:	e50b2034 	str	r2, [fp, #-52]	; 0xffffffcc
   12594:	e50b1030 	str	r1, [fp, #-48]	; 0xffffffd0
   12598:	e14b03dc 	ldrd	r0, [fp, #-60]	; 0xffffffc4
   1259c:	e14b23d4 	ldrd	r2, [fp, #-52]	; 0xffffffcc
   125a0:	ebffffd5 	bl	124fc <SYSTEM_$$_FLOAT128_IS_SIGNALING_NAN$FLOAT128$$BYTE>
   125a4:	e3500000 	cmp	r0, #0
   125a8:	0a000001 	beq	125b4 <SYSTEM_$$_FLOAT128TOCOMMONNAN$FLOAT128$$COMMONNANT+0x44>
   125ac:	e3a00000 	mov	r0, #0
   125b0:	eb0025da 	bl	1bd20 <SYSTEM_$$_FLOAT_RAISE$TFPUEXCEPTION>
   125b4:	e14b03d4 	ldrd	r0, [fp, #-52]	; 0xffffffcc
   125b8:	e3a00000 	mov	r0, #0
   125bc:	e1a00fa1 	lsr	r0, r1, #31
   125c0:	e54b0040 	strb	r0, [fp, #-64]	; 0xffffffc0
   125c4:	e3a00010 	mov	r0, #16
   125c8:	e1cd00b0 	strh	r0, [sp]
   125cc:	e24b0058 	sub	r0, fp, #88	; 0x58
   125d0:	e58d0008 	str	r0, [sp, #8]
   125d4:	e24b0050 	sub	r0, fp, #80	; 0x50
   125d8:	e58d0004 	str	r0, [sp, #4]
   125dc:	e51b3038 	ldr	r3, [fp, #-56]	; 0xffffffc8
   125e0:	e51b203c 	ldr	r2, [fp, #-60]	; 0xffffffc4
   125e4:	e51b1030 	ldr	r1, [fp, #-48]	; 0xffffffd0
   125e8:	e51b0034 	ldr	r0, [fp, #-52]	; 0xffffffcc
   125ec:	ebfff99a 	bl	10c5c <SYSTEM_$$_SHORTSHIFT128LEFT$QWORD$QWORD$SMALLINT$QWORD$QWORD>
   125f0:	e51b0050 	ldr	r0, [fp, #-80]	; 0xffffffb0
   125f4:	e51b004c 	ldr	r0, [fp, #-76]	; 0xffffffb4
   125f8:	e3a01000 	mov	r1, #0
   125fc:	e50b0048 	str	r0, [fp, #-72]	; 0xffffffb8
   12600:	e51b0050 	ldr	r0, [fp, #-80]	; 0xffffffb0
   12604:	e50b0044 	str	r0, [fp, #-68]	; 0xffffffbc
   12608:	e51b2048 	ldr	r2, [fp, #-72]	; 0xffffffb8
   1260c:	e51b1044 	ldr	r1, [fp, #-68]	; 0xffffffbc
   12610:	e51b0040 	ldr	r0, [fp, #-64]	; 0xffffffc0
   12614:	e5842000 	str	r2, [r4]
   12618:	e5841004 	str	r1, [r4, #4]
   1261c:	e5840008 	str	r0, [r4, #8]
   12620:	e91ba818 	ldmdb	fp, {r3, r4, fp, sp, pc}

00012624 <SYSTEM_$$_COMMONNANTOFLOAT128$COMMONNANT$$FLOAT128>:
   12624:	e1a0c00d 	mov	ip, sp
   12628:	e92dd818 	push	{r3, r4, fp, ip, lr, pc}
   1262c:	e24cb004 	sub	fp, ip, #4
   12630:	e24dd058 	sub	sp, sp, #88	; 0x58
   12634:	e1a04000 	mov	r4, r0
   12638:	e50b1038 	str	r1, [fp, #-56]	; 0xffffffc8
   1263c:	e14b23f4 	strd	r2, [fp, #-52]	; 0xffffffcc
   12640:	e3a00010 	mov	r0, #16
   12644:	e1cd00b0 	strh	r0, [sp]
   12648:	e24b0048 	sub	r0, fp, #72	; 0x48
   1264c:	e58d0008 	str	r0, [sp, #8]
   12650:	e24b0040 	sub	r0, fp, #64	; 0x40
   12654:	e58d0004 	str	r0, [sp, #4]
   12658:	e51b2034 	ldr	r2, [fp, #-52]	; 0xffffffcc
   1265c:	e3a03000 	mov	r3, #0
   12660:	e51b0038 	ldr	r0, [fp, #-56]	; 0xffffffc8
   12664:	e3a01000 	mov	r1, #0
   12668:	ebfff7bd 	bl	10564 <SYSTEM_$$_SHIFT128RIGHT$QWORD$QWORD$SMALLINT$QWORD$QWORD>
   1266c:	e55b1030 	ldrb	r1, [fp, #-48]	; 0xffffffd0
   12670:	e3a00000 	mov	r0, #0
   12674:	e3a02000 	mov	r2, #0
   12678:	e1a01f81 	lsl	r1, r1, #31
   1267c:	e51b0040 	ldr	r0, [fp, #-64]	; 0xffffffc0
   12680:	e51b303c 	ldr	r3, [fp, #-60]	; 0xffffffc4
   12684:	e1820000 	orr	r0, r2, r0
   12688:	e1812003 	orr	r2, r1, r3
   1268c:	e59f102c 	ldr	r1, [pc, #44]	; 126c0 <SYSTEM_$$_COMMONNANTOFLOAT128$COMMONNANT$$FLOAT128+0x9c>
   12690:	e1821001 	orr	r1, r2, r1
   12694:	e50b0040 	str	r0, [fp, #-64]	; 0xffffffc0
   12698:	e50b103c 	str	r1, [fp, #-60]	; 0xffffffc4
   1269c:	e51b1048 	ldr	r1, [fp, #-72]	; 0xffffffb8
   126a0:	e51b3044 	ldr	r3, [fp, #-68]	; 0xffffffbc
   126a4:	e51b2040 	ldr	r2, [fp, #-64]	; 0xffffffc0
   126a8:	e51b003c 	ldr	r0, [fp, #-60]	; 0xffffffc4
   126ac:	e5841000 	str	r1, [r4]
   126b0:	e5843004 	str	r3, [r4, #4]
   126b4:	e5842008 	str	r2, [r4, #8]
   126b8:	e584000c 	str	r0, [r4, #12]
   126bc:	e91ba818 	ldmdb	fp, {r3, r4, fp, sp, pc}
   126c0:	7fff8000 	svcvc	0x00ff8000

000126c4 <SYSTEM_$$_PROPAGATEFLOAT128NAN$FLOAT128$FLOAT128$$FLOAT128>:
   126c4:	e1a0c00d 	mov	ip, sp
   126c8:	e92ddff8 	push	{r3, r4, r5, r6, r7, r8, r9, sl, fp, ip, lr, pc}
   126cc:	e24cb004 	sub	fp, ip, #4
   126d0:	e24dd058 	sub	sp, sp, #88	; 0x58
   126d4:	e50b0054 	str	r0, [fp, #-84]	; 0xffffffac
   126d8:	e14b23fc 	strd	r2, [fp, #-60]	; 0xffffffc4
   126dc:	e59b2004 	ldr	r2, [fp, #4]
   126e0:	e59b1008 	ldr	r1, [fp, #8]
   126e4:	e50b2034 	str	r2, [fp, #-52]	; 0xffffffcc
   126e8:	e50b1030 	str	r1, [fp, #-48]	; 0xffffffd0
   126ec:	e59b200c 	ldr	r2, [fp, #12]
   126f0:	e59bc010 	ldr	ip, [fp, #16]
   126f4:	e59b3014 	ldr	r3, [fp, #20]
   126f8:	e59b1018 	ldr	r1, [fp, #24]
   126fc:	e50b204c 	str	r2, [fp, #-76]	; 0xffffffb4
   12700:	e50bc048 	str	ip, [fp, #-72]	; 0xffffffb8
   12704:	e50b3044 	str	r3, [fp, #-68]	; 0xffffffbc
   12708:	e50b1040 	str	r1, [fp, #-64]	; 0xffffffc0
   1270c:	e14b03dc 	ldrd	r0, [fp, #-60]	; 0xffffffc4
   12710:	e14b23d4 	ldrd	r2, [fp, #-52]	; 0xffffffcc
   12714:	ebffff5e 	bl	12494 <SYSTEM_$$_FLOAT128_IS_NAN$FLOAT128$$BYTE>
   12718:	e50b0050 	str	r0, [fp, #-80]	; 0xffffffb0
   1271c:	e14b03dc 	ldrd	r0, [fp, #-60]	; 0xffffffc4
   12720:	e14b23d4 	ldrd	r2, [fp, #-52]	; 0xffffffcc
   12724:	ebffff74 	bl	124fc <SYSTEM_$$_FLOAT128_IS_SIGNALING_NAN$FLOAT128$$BYTE>
   12728:	e1a06000 	mov	r6, r0
   1272c:	e14b04dc 	ldrd	r0, [fp, #-76]	; 0xffffffb4
   12730:	e14b24d4 	ldrd	r2, [fp, #-68]	; 0xffffffbc
   12734:	ebffff56 	bl	12494 <SYSTEM_$$_FLOAT128_IS_NAN$FLOAT128$$BYTE>
   12738:	e1a05000 	mov	r5, r0
   1273c:	e14b04dc 	ldrd	r0, [fp, #-76]	; 0xffffffb4
   12740:	e14b24d4 	ldrd	r2, [fp, #-68]	; 0xffffffbc
   12744:	ebffff6c 	bl	124fc <SYSTEM_$$_FLOAT128_IS_SIGNALING_NAN$FLOAT128$$BYTE>
   12748:	e1a04000 	mov	r4, r0
   1274c:	e51b1034 	ldr	r1, [fp, #-52]	; 0xffffffcc
   12750:	e51b0030 	ldr	r0, [fp, #-48]	; 0xffffffd0
   12754:	e3800902 	orr	r0, r0, #32768	; 0x8000
   12758:	e50b1034 	str	r1, [fp, #-52]	; 0xffffffcc
   1275c:	e50b0030 	str	r0, [fp, #-48]	; 0xffffffd0
   12760:	e51b1044 	ldr	r1, [fp, #-68]	; 0xffffffbc
   12764:	e51b0040 	ldr	r0, [fp, #-64]	; 0xffffffc0
   12768:	e3800902 	orr	r0, r0, #32768	; 0x8000
   1276c:	e50b1044 	str	r1, [fp, #-68]	; 0xffffffbc
   12770:	e50b0040 	str	r0, [fp, #-64]	; 0xffffffc0
   12774:	e1940006 	orrs	r0, r4, r6
   12778:	0a000001 	beq	12784 <SYSTEM_$$_PROPAGATEFLOAT128NAN$FLOAT128$FLOAT128$$FLOAT128+0xc0>
   1277c:	e3a00000 	mov	r0, #0
   12780:	eb002566 	bl	1bd20 <SYSTEM_$$_FLOAT_RAISE$TFPUEXCEPTION>
   12784:	e3560000 	cmp	r6, #0
   12788:	0a000017 	beq	127ec <SYSTEM_$$_PROPAGATEFLOAT128NAN$FLOAT128$FLOAT128$$FLOAT128+0x128>
   1278c:	e3540000 	cmp	r4, #0
   12790:	1a000025 	bne	1282c <SYSTEM_$$_PROPAGATEFLOAT128NAN$FLOAT128$FLOAT128$$FLOAT128+0x168>
   12794:	e3550000 	cmp	r5, #0
   12798:	0a000009 	beq	127c4 <SYSTEM_$$_PROPAGATEFLOAT128NAN$FLOAT128$FLOAT128$$FLOAT128+0x100>
   1279c:	e51b204c 	ldr	r2, [fp, #-76]	; 0xffffffb4
   127a0:	e51bc048 	ldr	ip, [fp, #-72]	; 0xffffffb8
   127a4:	e51b3044 	ldr	r3, [fp, #-68]	; 0xffffffbc
   127a8:	e51b1040 	ldr	r1, [fp, #-64]	; 0xffffffc0
   127ac:	e51b0054 	ldr	r0, [fp, #-84]	; 0xffffffac
   127b0:	e5802000 	str	r2, [r0]
   127b4:	e580c004 	str	ip, [r0, #4]
   127b8:	e5803008 	str	r3, [r0, #8]
   127bc:	e580100c 	str	r1, [r0, #12]
   127c0:	ea00008b 	b	129f4 <SYSTEM_$$_PROPAGATEFLOAT128NAN$FLOAT128$FLOAT128$$FLOAT128+0x330>
   127c4:	e51b303c 	ldr	r3, [fp, #-60]	; 0xffffffc4
   127c8:	e51bc038 	ldr	ip, [fp, #-56]	; 0xffffffc8
   127cc:	e51b2034 	ldr	r2, [fp, #-52]	; 0xffffffcc
   127d0:	e51b1030 	ldr	r1, [fp, #-48]	; 0xffffffd0
   127d4:	e51b0054 	ldr	r0, [fp, #-84]	; 0xffffffac
   127d8:	e5803000 	str	r3, [r0]
   127dc:	e580c004 	str	ip, [r0, #4]
   127e0:	e5802008 	str	r2, [r0, #8]
   127e4:	e580100c 	str	r1, [r0, #12]
   127e8:	ea000081 	b	129f4 <SYSTEM_$$_PROPAGATEFLOAT128NAN$FLOAT128$FLOAT128$$FLOAT128+0x330>
   127ec:	e51b0050 	ldr	r0, [fp, #-80]	; 0xffffffb0
   127f0:	e3500000 	cmp	r0, #0
   127f4:	0a000076 	beq	129d4 <SYSTEM_$$_PROPAGATEFLOAT128NAN$FLOAT128$FLOAT128$$FLOAT128+0x310>
   127f8:	e1e00c05 	mvn	r0, r5, lsl #24
   127fc:	e1940c20 	orrs	r0, r4, r0, lsr #24
   12800:	0a000009 	beq	1282c <SYSTEM_$$_PROPAGATEFLOAT128NAN$FLOAT128$FLOAT128$$FLOAT128+0x168>
   12804:	e51b303c 	ldr	r3, [fp, #-60]	; 0xffffffc4
   12808:	e51bc038 	ldr	ip, [fp, #-56]	; 0xffffffc8
   1280c:	e51b2034 	ldr	r2, [fp, #-52]	; 0xffffffcc
   12810:	e51b1030 	ldr	r1, [fp, #-48]	; 0xffffffd0
   12814:	e51b0054 	ldr	r0, [fp, #-84]	; 0xffffffac
   12818:	e5803000 	str	r3, [r0]
   1281c:	e580c004 	str	ip, [r0, #4]
   12820:	e5802008 	str	r2, [r0, #8]
   12824:	e580100c 	str	r1, [r0, #12]
   12828:	ea000071 	b	129f4 <SYSTEM_$$_PROPAGATEFLOAT128NAN$FLOAT128$FLOAT128$$FLOAT128+0x330>
   1282c:	e24b304c 	sub	r3, fp, #76	; 0x4c
   12830:	e51b0044 	ldr	r0, [fp, #-68]	; 0xffffffbc
   12834:	e51b2040 	ldr	r2, [fp, #-64]	; 0xffffffc0
   12838:	e0901000 	adds	r1, r0, r0
   1283c:	e0a20002 	adc	r0, r2, r2
   12840:	e1a0c001 	mov	ip, r1
   12844:	e1a07000 	mov	r7, r0
   12848:	e24b803c 	sub	r8, fp, #60	; 0x3c
   1284c:	e14b03d4 	ldrd	r0, [fp, #-52]	; 0xffffffcc
   12850:	e0902000 	adds	r2, r0, r0
   12854:	e0a10001 	adc	r0, r1, r1
   12858:	e1a01002 	mov	r1, r2
   1285c:	e1a09000 	mov	r9, r0
   12860:	e1590007 	cmp	r9, r7
   12864:	0151000c 	cmpeq	r1, ip
   12868:	3a000009 	bcc	12894 <SYSTEM_$$_PROPAGATEFLOAT128NAN$FLOAT128$FLOAT128$$FLOAT128+0x1d0>
   1286c:	e1590007 	cmp	r9, r7
   12870:	0151000c 	cmpeq	r1, ip
   12874:	1a000008 	bne	1289c <SYSTEM_$$_PROPAGATEFLOAT128NAN$FLOAT128$FLOAT128$$FLOAT128+0x1d8>
   12878:	e598e000 	ldr	lr, [r8]
   1287c:	e5980004 	ldr	r0, [r8, #4]
   12880:	e5932000 	ldr	r2, [r3]
   12884:	e593a004 	ldr	sl, [r3, #4]
   12888:	e150000a 	cmp	r0, sl
   1288c:	015e0002 	cmpeq	lr, r2
   12890:	2a000001 	bcs	1289c <SYSTEM_$$_PROPAGATEFLOAT128NAN$FLOAT128$FLOAT128$$FLOAT128+0x1d8>
   12894:	e3a00001 	mov	r0, #1
   12898:	ea000000 	b	128a0 <SYSTEM_$$_PROPAGATEFLOAT128NAN$FLOAT128$FLOAT128$$FLOAT128+0x1dc>
   1289c:	e3a00000 	mov	r0, #0
   128a0:	e3500000 	cmp	r0, #0
   128a4:	0a000009 	beq	128d0 <SYSTEM_$$_PROPAGATEFLOAT128NAN$FLOAT128$FLOAT128$$FLOAT128+0x20c>
   128a8:	e51b304c 	ldr	r3, [fp, #-76]	; 0xffffffb4
   128ac:	e51b2048 	ldr	r2, [fp, #-72]	; 0xffffffb8
   128b0:	e51bc044 	ldr	ip, [fp, #-68]	; 0xffffffbc
   128b4:	e51b0040 	ldr	r0, [fp, #-64]	; 0xffffffc0
   128b8:	e51b1054 	ldr	r1, [fp, #-84]	; 0xffffffac
   128bc:	e5813000 	str	r3, [r1]
   128c0:	e5812004 	str	r2, [r1, #4]
   128c4:	e581c008 	str	ip, [r1, #8]
   128c8:	e581000c 	str	r0, [r1, #12]
   128cc:	ea000048 	b	129f4 <SYSTEM_$$_PROPAGATEFLOAT128NAN$FLOAT128$FLOAT128$$FLOAT128+0x330>
   128d0:	e24b203c 	sub	r2, fp, #60	; 0x3c
   128d4:	e14b03d4 	ldrd	r0, [fp, #-52]	; 0xffffffcc
   128d8:	e0900000 	adds	r0, r0, r0
   128dc:	e0a11001 	adc	r1, r1, r1
   128e0:	e1a03000 	mov	r3, r0
   128e4:	e1a07001 	mov	r7, r1
   128e8:	e24b804c 	sub	r8, fp, #76	; 0x4c
   128ec:	e14b04d4 	ldrd	r0, [fp, #-68]	; 0xffffffbc
   128f0:	e090c000 	adds	ip, r0, r0
   128f4:	e0a19001 	adc	r9, r1, r1
   128f8:	e1590007 	cmp	r9, r7
   128fc:	015c0003 	cmpeq	ip, r3
   12900:	3a000009 	bcc	1292c <SYSTEM_$$_PROPAGATEFLOAT128NAN$FLOAT128$FLOAT128$$FLOAT128+0x268>
   12904:	e1590007 	cmp	r9, r7
   12908:	015c0003 	cmpeq	ip, r3
   1290c:	1a000008 	bne	12934 <SYSTEM_$$_PROPAGATEFLOAT128NAN$FLOAT128$FLOAT128$$FLOAT128+0x270>
   12910:	e598a000 	ldr	sl, [r8]
   12914:	e598e004 	ldr	lr, [r8, #4]
   12918:	e5920000 	ldr	r0, [r2]
   1291c:	e5921004 	ldr	r1, [r2, #4]
   12920:	e15e0001 	cmp	lr, r1
   12924:	015a0000 	cmpeq	sl, r0
   12928:	2a000001 	bcs	12934 <SYSTEM_$$_PROPAGATEFLOAT128NAN$FLOAT128$FLOAT128$$FLOAT128+0x270>
   1292c:	e3a00001 	mov	r0, #1
   12930:	ea000000 	b	12938 <SYSTEM_$$_PROPAGATEFLOAT128NAN$FLOAT128$FLOAT128$$FLOAT128+0x274>
   12934:	e3a00000 	mov	r0, #0
   12938:	e3500000 	cmp	r0, #0
   1293c:	0a000009 	beq	12968 <SYSTEM_$$_PROPAGATEFLOAT128NAN$FLOAT128$FLOAT128$$FLOAT128+0x2a4>
   12940:	e51bc03c 	ldr	ip, [fp, #-60]	; 0xffffffc4
   12944:	e51b3038 	ldr	r3, [fp, #-56]	; 0xffffffc8
   12948:	e51b2034 	ldr	r2, [fp, #-52]	; 0xffffffcc
   1294c:	e51b1030 	ldr	r1, [fp, #-48]	; 0xffffffd0
   12950:	e51b0054 	ldr	r0, [fp, #-84]	; 0xffffffac
   12954:	e580c000 	str	ip, [r0]
   12958:	e5803004 	str	r3, [r0, #4]
   1295c:	e5802008 	str	r2, [r0, #8]
   12960:	e580100c 	str	r1, [r0, #12]
   12964:	ea000022 	b	129f4 <SYSTEM_$$_PROPAGATEFLOAT128NAN$FLOAT128$FLOAT128$$FLOAT128+0x330>
   12968:	e51b2034 	ldr	r2, [fp, #-52]	; 0xffffffcc
   1296c:	e51b1030 	ldr	r1, [fp, #-48]	; 0xffffffd0
   12970:	e51b3044 	ldr	r3, [fp, #-68]	; 0xffffffbc
   12974:	e51b0040 	ldr	r0, [fp, #-64]	; 0xffffffc0
   12978:	e1510000 	cmp	r1, r0
   1297c:	01520003 	cmpeq	r2, r3
   12980:	2a000009 	bcs	129ac <SYSTEM_$$_PROPAGATEFLOAT128NAN$FLOAT128$FLOAT128$$FLOAT128+0x2e8>
   12984:	e51b303c 	ldr	r3, [fp, #-60]	; 0xffffffc4
   12988:	e51bc038 	ldr	ip, [fp, #-56]	; 0xffffffc8
   1298c:	e51b2034 	ldr	r2, [fp, #-52]	; 0xffffffcc
   12990:	e51b1030 	ldr	r1, [fp, #-48]	; 0xffffffd0
   12994:	e51b0054 	ldr	r0, [fp, #-84]	; 0xffffffac
   12998:	e5803000 	str	r3, [r0]
   1299c:	e580c004 	str	ip, [r0, #4]
   129a0:	e5802008 	str	r2, [r0, #8]
   129a4:	e580100c 	str	r1, [r0, #12]
   129a8:	ea000011 	b	129f4 <SYSTEM_$$_PROPAGATEFLOAT128NAN$FLOAT128$FLOAT128$$FLOAT128+0x330>
   129ac:	e51bc04c 	ldr	ip, [fp, #-76]	; 0xffffffb4
   129b0:	e51b2048 	ldr	r2, [fp, #-72]	; 0xffffffb8
   129b4:	e51b3044 	ldr	r3, [fp, #-68]	; 0xffffffbc
   129b8:	e51b1040 	ldr	r1, [fp, #-64]	; 0xffffffc0
   129bc:	e51b0054 	ldr	r0, [fp, #-84]	; 0xffffffac
   129c0:	e580c000 	str	ip, [r0]
   129c4:	e5802004 	str	r2, [r0, #4]
   129c8:	e5803008 	str	r3, [r0, #8]
   129cc:	e580100c 	str	r1, [r0, #12]
   129d0:	ea000007 	b	129f4 <SYSTEM_$$_PROPAGATEFLOAT128NAN$FLOAT128$FLOAT128$$FLOAT128+0x330>
   129d4:	e14b24dc 	ldrd	r2, [fp, #-76]	; 0xffffffb4
   129d8:	e51bc044 	ldr	ip, [fp, #-68]	; 0xffffffbc
   129dc:	e51b1040 	ldr	r1, [fp, #-64]	; 0xffffffc0
   129e0:	e51b0054 	ldr	r0, [fp, #-84]	; 0xffffffac
   129e4:	e5802000 	str	r2, [r0]
   129e8:	e5803004 	str	r3, [r0, #4]
   129ec:	e580c008 	str	ip, [r0, #8]
   129f0:	e580100c 	str	r1, [r0, #12]
   129f4:	e91baff8 	ldmdb	fp, {r3, r4, r5, r6, r7, r8, r9, sl, fp, sp, pc}

000129f8 <SYSTEM_$$_EXTRACTFLOAT32FRAC$LONGWORD$$LONGWORD>:
   129f8:	e1a00480 	lsl	r0, r0, #9
   129fc:	e1a004a0 	lsr	r0, r0, #9
   12a00:	e12fff1e 	bx	lr

00012a04 <SYSTEM_$$_EXTRACTFLOAT32EXP$LONGWORD$$SMALLINT>:
   12a04:	e1a00ba0 	lsr	r0, r0, #23
   12a08:	e20000ff 	and	r0, r0, #255	; 0xff
   12a0c:	e6bf0070 	sxth	r0, r0
   12a10:	e12fff1e 	bx	lr

00012a14 <SYSTEM_$$_EXTRACTFLOAT32SIGN$LONGWORD$$BYTE>:
   12a14:	e1a00fa0 	lsr	r0, r0, #31
   12a18:	e12fff1e 	bx	lr

00012a1c <SYSTEM_$$_NORMALIZEFLOAT32SUBNORMAL$LONGWORD$SMALLINT$LONGWORD>:
   12a1c:	e92d4070 	push	{r4, r5, r6, lr}
   12a20:	e1a04000 	mov	r4, r0
   12a24:	e1a05001 	mov	r5, r1
   12a28:	e1a06002 	mov	r6, r2
   12a2c:	e1a00004 	mov	r0, r4
   12a30:	ebfffcf5 	bl	11e0c <SYSTEM_$$_COUNTLEADINGZEROS32$LONGWORD$$SHORTINT>
   12a34:	e2400008 	sub	r0, r0, #8
   12a38:	e20000ff 	and	r0, r0, #255	; 0xff
   12a3c:	e1a01014 	lsl	r1, r4, r0
   12a40:	e5861000 	str	r1, [r6]
   12a44:	e3a01001 	mov	r1, #1
   12a48:	e0410000 	sub	r0, r1, r0
   12a4c:	e6bf0070 	sxth	r0, r0
   12a50:	e1c500b0 	strh	r0, [r5]
   12a54:	e8bd8070 	pop	{r4, r5, r6, pc}

00012a58 <SYSTEM_$$_PACKFLOAT32$BYTE$SMALLINT$LONGWORD$$LONGWORD>:
   12a58:	e1a03f80 	lsl	r3, r0, #31
   12a5c:	e6bf0071 	sxth	r0, r1
   12a60:	e0830b80 	add	r0, r3, r0, lsl #23
   12a64:	e0820000 	add	r0, r2, r0
   12a68:	e12fff1e 	bx	lr

00012a6c <SYSTEM_$$_ROUNDANDPACKFLOAT32$BYTE$SMALLINT$LONGWORD$$LONGWORD>:
   12a6c:	e92d47f0 	push	{r4, r5, r6, r7, r8, r9, sl, lr}
   12a70:	e24dd008 	sub	sp, sp, #8
   12a74:	e1a04000 	mov	r4, r0
   12a78:	e1a05001 	mov	r5, r1
   12a7c:	e58d2000 	str	r2, [sp]
   12a80:	e59f01a4 	ldr	r0, [pc, #420]	; 12c2c <SYSTEM_$$_ROUNDANDPACKFLOAT32$BYTE$SMALLINT$LONGWORD$$LONGWORD+0x1c0>
   12a84:	e5901000 	ldr	r1, [r0]
   12a88:	e3510000 	cmp	r1, #0
   12a8c:	0a000003 	beq	12aa0 <SYSTEM_$$_ROUNDANDPACKFLOAT32$BYTE$SMALLINT$LONGWORD$$LONGWORD+0x34>
   12a90:	e59f2198 	ldr	r2, [pc, #408]	; 12c30 <SYSTEM_$$_ROUNDANDPACKFLOAT32$BYTE$SMALLINT$LONGWORD$$LONGWORD+0x1c4>
   12a94:	e5920000 	ldr	r0, [r2]
   12a98:	e12fff31 	blx	r1
   12a9c:	ea000000 	b	12aa4 <SYSTEM_$$_ROUNDANDPACKFLOAT32$BYTE$SMALLINT$LONGWORD$$LONGWORD+0x38>
   12aa0:	e59f018c 	ldr	r0, [pc, #396]	; 12c34 <SYSTEM_$$_ROUNDANDPACKFLOAT32$BYTE$SMALLINT$LONGWORD$$LONGWORD+0x1c8>
   12aa4:	e5900000 	ldr	r0, [r0]
   12aa8:	e3500000 	cmp	r0, #0
   12aac:	03a07001 	moveq	r7, #1
   12ab0:	13a07000 	movne	r7, #0
   12ab4:	e3a08040 	mov	r8, #64	; 0x40
   12ab8:	e3570000 	cmp	r7, #0
   12abc:	1a00000b 	bne	12af0 <SYSTEM_$$_ROUNDANDPACKFLOAT32$BYTE$SMALLINT$LONGWORD$$LONGWORD+0x84>
   12ac0:	e3500003 	cmp	r0, #3
   12ac4:	03a08000 	moveq	r8, #0
   12ac8:	0a000008 	beq	12af0 <SYSTEM_$$_ROUNDANDPACKFLOAT32$BYTE$SMALLINT$LONGWORD$$LONGWORD+0x84>
   12acc:	e3a0807f 	mov	r8, #127	; 0x7f
   12ad0:	e3540000 	cmp	r4, #0
   12ad4:	0a000003 	beq	12ae8 <SYSTEM_$$_ROUNDANDPACKFLOAT32$BYTE$SMALLINT$LONGWORD$$LONGWORD+0x7c>
   12ad8:	e3500002 	cmp	r0, #2
   12adc:	1a000003 	bne	12af0 <SYSTEM_$$_ROUNDANDPACKFLOAT32$BYTE$SMALLINT$LONGWORD$$LONGWORD+0x84>
   12ae0:	e3a08000 	mov	r8, #0
   12ae4:	ea000001 	b	12af0 <SYSTEM_$$_ROUNDANDPACKFLOAT32$BYTE$SMALLINT$LONGWORD$$LONGWORD+0x84>
   12ae8:	e3500001 	cmp	r0, #1
   12aec:	03a08000 	moveq	r8, #0
   12af0:	e59d0000 	ldr	r0, [sp]
   12af4:	e200607f 	and	r6, r0, #127	; 0x7f
   12af8:	e6ff0075 	uxth	r0, r5
   12afc:	e35000fd 	cmp	r0, #253	; 0xfd
   12b00:	3a00002f 	bcc	12bc4 <SYSTEM_$$_ROUNDANDPACKFLOAT32$BYTE$SMALLINT$LONGWORD$$LONGWORD+0x158>
   12b04:	e35500fd 	cmp	r5, #253	; 0xfd
   12b08:	ca000005 	bgt	12b24 <SYSTEM_$$_ROUNDANDPACKFLOAT32$BYTE$SMALLINT$LONGWORD$$LONGWORD+0xb8>
   12b0c:	e35500fd 	cmp	r5, #253	; 0xfd
   12b10:	1a00000d 	bne	12b4c <SYSTEM_$$_ROUNDANDPACKFLOAT32$BYTE$SMALLINT$LONGWORD$$LONGWORD+0xe0>
   12b14:	e59d0000 	ldr	r0, [sp]
   12b18:	e0800008 	add	r0, r0, r8
   12b1c:	e3500000 	cmp	r0, #0
   12b20:	aa000009 	bge	12b4c <SYSTEM_$$_ROUNDANDPACKFLOAT32$BYTE$SMALLINT$LONGWORD$$LONGWORD+0xe0>
   12b24:	e3a00028 	mov	r0, #40	; 0x28
   12b28:	eb002482 	bl	1bd38 <SYSTEM_$$_FLOAT_RAISE$TFPUEXCEPTIONMASK>
   12b2c:	e3580000 	cmp	r8, #0
   12b30:	03a01001 	moveq	r1, #1
   12b34:	13a01000 	movne	r1, #0
   12b38:	e1a00f84 	lsl	r0, r4, #31
   12b3c:	e2800101 	add	r0, r0, #1073741824	; 0x40000000
   12b40:	e28005fe 	add	r0, r0, #1065353216	; 0x3f800000
   12b44:	e0409001 	sub	r9, r0, r1
   12b48:	ea000034 	b	12c20 <SYSTEM_$$_ROUNDANDPACKFLOAT32$BYTE$SMALLINT$LONGWORD$$LONGWORD+0x1b4>
   12b4c:	e3550000 	cmp	r5, #0
   12b50:	aa00001b 	bge	12bc4 <SYSTEM_$$_ROUNDANDPACKFLOAT32$BYTE$SMALLINT$LONGWORD$$LONGWORD+0x158>
   12b54:	e59f00dc 	ldr	r0, [pc, #220]	; 12c38 <SYSTEM_$$_ROUNDANDPACKFLOAT32$BYTE$SMALLINT$LONGWORD$$LONGWORD+0x1cc>
   12b58:	e1d000d0 	ldrsb	r0, [r0]
   12b5c:	e3500001 	cmp	r0, #1
   12b60:	0a000006 	beq	12b80 <SYSTEM_$$_ROUNDANDPACKFLOAT32$BYTE$SMALLINT$LONGWORD$$LONGWORD+0x114>
   12b64:	e3e00000 	mvn	r0, #0
   12b68:	e1550000 	cmp	r5, r0
   12b6c:	ba000003 	blt	12b80 <SYSTEM_$$_ROUNDANDPACKFLOAT32$BYTE$SMALLINT$LONGWORD$$LONGWORD+0x114>
   12b70:	e59d0000 	ldr	r0, [sp]
   12b74:	e0800008 	add	r0, r0, r8
   12b78:	e3500102 	cmp	r0, #-2147483648	; 0x80000000
   12b7c:	2a000001 	bcs	12b88 <SYSTEM_$$_ROUNDANDPACKFLOAT32$BYTE$SMALLINT$LONGWORD$$LONGWORD+0x11c>
   12b80:	e3a0a001 	mov	sl, #1
   12b84:	ea000000 	b	12b8c <SYSTEM_$$_ROUNDANDPACKFLOAT32$BYTE$SMALLINT$LONGWORD$$LONGWORD+0x120>
   12b88:	e3a0a000 	mov	sl, #0
   12b8c:	e2650000 	rsb	r0, r5, #0
   12b90:	e6bf1070 	sxth	r1, r0
   12b94:	e1a0200d 	mov	r2, sp
   12b98:	e59d0000 	ldr	r0, [sp]
   12b9c:	ebfff660 	bl	10524 <SYSTEM_$$_SHIFT32RIGHTJAMMING$LONGWORD$SMALLINT$LONGWORD>
   12ba0:	e3a05000 	mov	r5, #0
   12ba4:	e59d0000 	ldr	r0, [sp]
   12ba8:	e200607f 	and	r6, r0, #127	; 0x7f
   12bac:	e35a0000 	cmp	sl, #0
   12bb0:	0a000003 	beq	12bc4 <SYSTEM_$$_ROUNDANDPACKFLOAT32$BYTE$SMALLINT$LONGWORD$$LONGWORD+0x158>
   12bb4:	e3560000 	cmp	r6, #0
   12bb8:	0a000001 	beq	12bc4 <SYSTEM_$$_ROUNDANDPACKFLOAT32$BYTE$SMALLINT$LONGWORD$$LONGWORD+0x158>
   12bbc:	e3a00004 	mov	r0, #4
   12bc0:	eb002456 	bl	1bd20 <SYSTEM_$$_FLOAT_RAISE$TFPUEXCEPTION>
   12bc4:	e3560000 	cmp	r6, #0
   12bc8:	0a000000 	beq	12bd0 <SYSTEM_$$_ROUNDANDPACKFLOAT32$BYTE$SMALLINT$LONGWORD$$LONGWORD+0x164>
   12bcc:	ebfff57e 	bl	101cc <SYSTEM_$$_SET_INEXACT_FLAG>
   12bd0:	e59d0000 	ldr	r0, [sp]
   12bd4:	e0800008 	add	r0, r0, r8
   12bd8:	e1a003a0 	lsr	r0, r0, #7
   12bdc:	e58d0000 	str	r0, [sp]
   12be0:	e2260040 	eor	r0, r6, #64	; 0x40
   12be4:	e3500000 	cmp	r0, #0
   12be8:	03a00001 	moveq	r0, #1
   12bec:	13a00000 	movne	r0, #0
   12bf0:	e0070000 	and	r0, r7, r0
   12bf4:	e1e01000 	mvn	r1, r0
   12bf8:	e59d0000 	ldr	r0, [sp]
   12bfc:	e0000001 	and	r0, r0, r1
   12c00:	e58d0000 	str	r0, [sp]
   12c04:	e3500000 	cmp	r0, #0
   12c08:	03a05000 	moveq	r5, #0
   12c0c:	e1a01f84 	lsl	r1, r4, #31
   12c10:	e6bf0075 	sxth	r0, r5
   12c14:	e0810b80 	add	r0, r1, r0, lsl #23
   12c18:	e59d1000 	ldr	r1, [sp]
   12c1c:	e0819000 	add	r9, r1, r0
   12c20:	e1a00009 	mov	r0, r9
   12c24:	e28dd008 	add	sp, sp, #8
   12c28:	e8bd87f0 	pop	{r4, r5, r6, r7, r8, r9, sl, pc}
   12c2c:	00052b90 	muleq	r5, r0, fp
   12c30:	00051e50 	andeq	r1, r5, r0, asr lr
   12c34:	00051e54 	andeq	r1, r5, r4, asr lr
   12c38:	00050274 	andeq	r0, r5, r4, ror r2

00012c3c <SYSTEM_$$_NORMALIZEROUNDANDPACKFLOAT32$BYTE$SMALLINT$LONGWORD$$LONGWORD>:
   12c3c:	e92d4070 	push	{r4, r5, r6, lr}
   12c40:	e1a04000 	mov	r4, r0
   12c44:	e1a05001 	mov	r5, r1
   12c48:	e1a06002 	mov	r6, r2
   12c4c:	e1a00006 	mov	r0, r6
   12c50:	ebfffc6d 	bl	11e0c <SYSTEM_$$_COUNTLEADINGZEROS32$LONGWORD$$SHORTINT>
   12c54:	e2400001 	sub	r0, r0, #1
   12c58:	e6af0070 	sxtb	r0, r0
   12c5c:	e0451000 	sub	r1, r5, r0
   12c60:	e6bf1071 	sxth	r1, r1
   12c64:	e1a02016 	lsl	r2, r6, r0
   12c68:	e1a00004 	mov	r0, r4
   12c6c:	ebffff7e 	bl	12a6c <SYSTEM_$$_ROUNDANDPACKFLOAT32$BYTE$SMALLINT$LONGWORD$$LONGWORD>
   12c70:	e8bd8070 	pop	{r4, r5, r6, pc}

00012c74 <SYSTEM_$$_EXTRACTFLOAT64FRAC0$FLOAT64$$LONGWORD>:
   12c74:	e52d0008 	str	r0, [sp, #-8]!
   12c78:	e58d1004 	str	r1, [sp, #4]
   12c7c:	e1a00601 	lsl	r0, r1, #12
   12c80:	e1a00620 	lsr	r0, r0, #12
   12c84:	e28dd008 	add	sp, sp, #8
   12c88:	e12fff1e 	bx	lr

00012c8c <SYSTEM_$$_EXTRACTFLOAT64FRAC1$FLOAT64$$LONGWORD>:
   12c8c:	e52d0008 	str	r0, [sp, #-8]!
   12c90:	e58d1004 	str	r1, [sp, #4]
   12c94:	e49d0008 	ldr	r0, [sp], #8
   12c98:	e12fff1e 	bx	lr

00012c9c <SYSTEM_$$_EXTRACTFLOAT64FRAC$FLOAT64$$QWORD>:
   12c9c:	e52d0008 	str	r0, [sp, #-8]!
   12ca0:	e58d1004 	str	r1, [sp, #4]
   12ca4:	e1cd00d0 	ldrd	r0, [sp]
   12ca8:	e1a01601 	lsl	r1, r1, #12
   12cac:	e1a01621 	lsr	r1, r1, #12
   12cb0:	e28dd008 	add	sp, sp, #8
   12cb4:	e12fff1e 	bx	lr

00012cb8 <SYSTEM_$$_EXTRACTFLOAT64EXP$FLOAT64$$SMALLINT>:
   12cb8:	e52d0008 	str	r0, [sp, #-8]!
   12cbc:	e58d1004 	str	r1, [sp, #4]
   12cc0:	e1a00081 	lsl	r0, r1, #1
   12cc4:	e1a00aa0 	lsr	r0, r0, #21
   12cc8:	e6bf0070 	sxth	r0, r0
   12ccc:	e28dd008 	add	sp, sp, #8
   12cd0:	e12fff1e 	bx	lr

00012cd4 <SYSTEM_$$_EXTRACTFLOAT64SIGN$FLOAT64$$BYTE>:
   12cd4:	e52d0008 	str	r0, [sp, #-8]!
   12cd8:	e58d1004 	str	r1, [sp, #4]
   12cdc:	e1a00fa1 	lsr	r0, r1, #31
   12ce0:	e28dd008 	add	sp, sp, #8
   12ce4:	e12fff1e 	bx	lr

00012ce8 <SYSTEM_$$_NORMALIZEFLOAT64SUBNORMAL$LONGWORD$LONGWORD$SMALLINT$LONGWORD$LONGWORD>:
   12ce8:	e1a0c00d 	mov	ip, sp
   12cec:	e92ddbf0 	push	{r4, r5, r6, r7, r8, r9, fp, ip, lr, pc}
   12cf0:	e24cb004 	sub	fp, ip, #4
   12cf4:	e24dd030 	sub	sp, sp, #48	; 0x30
   12cf8:	e1a04000 	mov	r4, r0
   12cfc:	e1a05001 	mov	r5, r1
   12d00:	e1a06002 	mov	r6, r2
   12d04:	e1a07003 	mov	r7, r3
   12d08:	e59b8004 	ldr	r8, [fp, #4]
   12d0c:	e3540000 	cmp	r4, #0
   12d10:	1a000015 	bne	12d6c <SYSTEM_$$_NORMALIZEFLOAT64SUBNORMAL$LONGWORD$LONGWORD$SMALLINT$LONGWORD$LONGWORD+0x84>
   12d14:	e1a00005 	mov	r0, r5
   12d18:	ebfffc3b 	bl	11e0c <SYSTEM_$$_COUNTLEADINGZEROS32$LONGWORD$$SHORTINT>
   12d1c:	e240000b 	sub	r0, r0, #11
   12d20:	e6af9070 	sxtb	r9, r0
   12d24:	e3590000 	cmp	r9, #0
   12d28:	aa000006 	bge	12d48 <SYSTEM_$$_NORMALIZEFLOAT64SUBNORMAL$LONGWORD$LONGWORD$SMALLINT$LONGWORD$LONGWORD+0x60>
   12d2c:	e2690000 	rsb	r0, r9, #0
   12d30:	e1a00035 	lsr	r0, r5, r0
   12d34:	e5870000 	str	r0, [r7]
   12d38:	e209001f 	and	r0, r9, #31
   12d3c:	e1a00015 	lsl	r0, r5, r0
   12d40:	e5880000 	str	r0, [r8]
   12d44:	ea000003 	b	12d58 <SYSTEM_$$_NORMALIZEFLOAT64SUBNORMAL$LONGWORD$LONGWORD$SMALLINT$LONGWORD$LONGWORD+0x70>
   12d48:	e1a00915 	lsl	r0, r5, r9
   12d4c:	e5870000 	str	r0, [r7]
   12d50:	e3a00000 	mov	r0, #0
   12d54:	e5880000 	str	r0, [r8]
   12d58:	e2690000 	rsb	r0, r9, #0
   12d5c:	e240001f 	sub	r0, r0, #31
   12d60:	e6bf0070 	sxth	r0, r0
   12d64:	e1c600b0 	strh	r0, [r6]
   12d68:	ea00000e 	b	12da8 <SYSTEM_$$_NORMALIZEFLOAT64SUBNORMAL$LONGWORD$LONGWORD$SMALLINT$LONGWORD$LONGWORD+0xc0>
   12d6c:	e1a00004 	mov	r0, r4
   12d70:	ebfffc25 	bl	11e0c <SYSTEM_$$_COUNTLEADINGZEROS32$LONGWORD$$SHORTINT>
   12d74:	e240000b 	sub	r0, r0, #11
   12d78:	e6af0070 	sxtb	r0, r0
   12d7c:	e1a09000 	mov	r9, r0
   12d80:	e58d8000 	str	r8, [sp]
   12d84:	e1a03007 	mov	r3, r7
   12d88:	e1a02009 	mov	r2, r9
   12d8c:	e1a01005 	mov	r1, r5
   12d90:	e1a00004 	mov	r0, r4
   12d94:	ebfff78b 	bl	10bc8 <SYSTEM_$$_SHORTSHIFT64LEFT$LONGWORD$LONGWORD$SMALLINT$LONGWORD$LONGWORD>
   12d98:	e3a00001 	mov	r0, #1
   12d9c:	e0400009 	sub	r0, r0, r9
   12da0:	e6bf0070 	sxth	r0, r0
   12da4:	e1c600b0 	strh	r0, [r6]
   12da8:	e91babf0 	ldmdb	fp, {r4, r5, r6, r7, r8, r9, fp, sp, pc}

00012dac <SYSTEM_$$_NORMALIZEFLOAT64SUBNORMAL$QWORD$SMALLINT$QWORD>:
   12dac:	e92d40f8 	push	{r3, r4, r5, r6, r7, lr}
   12db0:	e1a04000 	mov	r4, r0
   12db4:	e1a05001 	mov	r5, r1
   12db8:	e1a06002 	mov	r6, r2
   12dbc:	e1a07003 	mov	r7, r3
   12dc0:	e1a01005 	mov	r1, r5
   12dc4:	e1a00004 	mov	r0, r4
   12dc8:	ebfffc21 	bl	11e54 <SYSTEM_$$_COUNTLEADINGZEROS64$QWORD$$SHORTINT>
   12dcc:	e240000b 	sub	r0, r0, #11
   12dd0:	e6af0070 	sxtb	r0, r0
   12dd4:	e1a01000 	mov	r1, r0
   12dd8:	e3510040 	cmp	r1, #64	; 0x40
   12ddc:	23a01040 	movcs	r1, #64	; 0x40
   12de0:	e261c020 	rsb	ip, r1, #32
   12de4:	e1a02115 	lsl	r2, r5, r1
   12de8:	e1a03114 	lsl	r3, r4, r1
   12dec:	e1822c34 	orr	r2, r2, r4, lsr ip
   12df0:	e251c020 	subs	ip, r1, #32
   12df4:	51a02c14 	lslpl	r2, r4, ip
   12df8:	e5873000 	str	r3, [r7]
   12dfc:	e5872004 	str	r2, [r7, #4]
   12e00:	e3a01001 	mov	r1, #1
   12e04:	e0410000 	sub	r0, r1, r0
   12e08:	e6bf0070 	sxth	r0, r0
   12e0c:	e1c600b0 	strh	r0, [r6]
   12e10:	e8bd80f8 	pop	{r3, r4, r5, r6, r7, pc}

00012e14 <SYSTEM_$$_PACKFLOAT64$BYTE$SMALLINT$LONGWORD$LONGWORD$FLOAT64>:
   12e14:	e1a0c00d 	mov	ip, sp
   12e18:	e92dd800 	push	{fp, ip, lr, pc}
   12e1c:	e24cb004 	sub	fp, ip, #4
   12e20:	e24dd038 	sub	sp, sp, #56	; 0x38
   12e24:	e59bc004 	ldr	ip, [fp, #4]
   12e28:	e50b3038 	str	r3, [fp, #-56]	; 0xffffffc8
   12e2c:	e1a03f80 	lsl	r3, r0, #31
   12e30:	e6bf0071 	sxth	r0, r1
   12e34:	e0830a00 	add	r0, r3, r0, lsl #20
   12e38:	e0820000 	add	r0, r2, r0
   12e3c:	e50b0034 	str	r0, [fp, #-52]	; 0xffffffcc
   12e40:	e51b1038 	ldr	r1, [fp, #-56]	; 0xffffffc8
   12e44:	e51b0034 	ldr	r0, [fp, #-52]	; 0xffffffcc
   12e48:	e58c1000 	str	r1, [ip]
   12e4c:	e58c0004 	str	r0, [ip, #4]
   12e50:	e91ba800 	ldmdb	fp, {fp, sp, pc}

00012e54 <SYSTEM_$$_PACKFLOAT64$BYTE$SMALLINT$QWORD$$FLOAT64>:
   12e54:	e1a0c00d 	mov	ip, sp
   12e58:	e92dd878 	push	{r3, r4, r5, r6, fp, ip, lr, pc}
   12e5c:	e24cb004 	sub	fp, ip, #4
   12e60:	e24dd030 	sub	sp, sp, #48	; 0x30
   12e64:	e59b4004 	ldr	r4, [fp, #4]
   12e68:	e59bc008 	ldr	ip, [fp, #8]
   12e6c:	e20130ff 	and	r3, r1, #255	; 0xff
   12e70:	e3a01000 	mov	r1, #0
   12e74:	e3a06000 	mov	r6, #0
   12e78:	e1a05f83 	lsl	r5, r3, #31
   12e7c:	e6bf2072 	sxth	r2, r2
   12e80:	e1a01fc2 	asr	r1, r2, #31
   12e84:	e3a03000 	mov	r3, #0
   12e88:	e1a01a02 	lsl	r1, r2, #20
   12e8c:	e0932006 	adds	r2, r3, r6
   12e90:	e0a11005 	adc	r1, r1, r5
   12e94:	e0942002 	adds	r2, r4, r2
   12e98:	e0ac1001 	adc	r1, ip, r1
   12e9c:	e5802000 	str	r2, [r0]
   12ea0:	e5801004 	str	r1, [r0, #4]
   12ea4:	e91ba878 	ldmdb	fp, {r3, r4, r5, r6, fp, sp, pc}

00012ea8 <SYSTEM_$$_ROUNDANDPACKFLOAT64$BYTE$SMALLINT$LONGWORD$LONGWORD$LONGWORD$FLOAT64>:
   12ea8:	e1a0c00d 	mov	ip, sp
   12eac:	e92ddff8 	push	{r3, r4, r5, r6, r7, r8, r9, sl, fp, ip, lr, pc}
   12eb0:	e24cb004 	sub	fp, ip, #4
   12eb4:	e24dd048 	sub	sp, sp, #72	; 0x48
   12eb8:	e1a0a000 	mov	sl, r0
   12ebc:	e1a04001 	mov	r4, r1
   12ec0:	e50b2030 	str	r2, [fp, #-48]	; 0xffffffd0
   12ec4:	e50b3034 	str	r3, [fp, #-52]	; 0xffffffcc
   12ec8:	e59b0004 	ldr	r0, [fp, #4]
   12ecc:	e50b0038 	str	r0, [fp, #-56]	; 0xffffffc8
   12ed0:	e59b5008 	ldr	r5, [fp, #8]
   12ed4:	e59f0324 	ldr	r0, [pc, #804]	; 13200 <SYSTEM_$$_ROUNDANDPACKFLOAT64$BYTE$SMALLINT$LONGWORD$LONGWORD$LONGWORD$FLOAT64+0x358>
   12ed8:	e5902000 	ldr	r2, [r0]
   12edc:	e3520000 	cmp	r2, #0
   12ee0:	0a000003 	beq	12ef4 <SYSTEM_$$_ROUNDANDPACKFLOAT64$BYTE$SMALLINT$LONGWORD$LONGWORD$LONGWORD$FLOAT64+0x4c>
   12ee4:	e59f1318 	ldr	r1, [pc, #792]	; 13204 <SYSTEM_$$_ROUNDANDPACKFLOAT64$BYTE$SMALLINT$LONGWORD$LONGWORD$LONGWORD$FLOAT64+0x35c>
   12ee8:	e5910000 	ldr	r0, [r1]
   12eec:	e12fff32 	blx	r2
   12ef0:	ea000000 	b	12ef8 <SYSTEM_$$_ROUNDANDPACKFLOAT64$BYTE$SMALLINT$LONGWORD$LONGWORD$LONGWORD$FLOAT64+0x50>
   12ef4:	e59f030c 	ldr	r0, [pc, #780]	; 13208 <SYSTEM_$$_ROUNDANDPACKFLOAT64$BYTE$SMALLINT$LONGWORD$LONGWORD$LONGWORD$FLOAT64+0x360>
   12ef8:	e5906000 	ldr	r6, [r0]
   12efc:	e3560000 	cmp	r6, #0
   12f00:	03a00001 	moveq	r0, #1
   12f04:	13a00000 	movne	r0, #0
   12f08:	e1a07000 	mov	r7, r0
   12f0c:	e51b0038 	ldr	r0, [fp, #-56]	; 0xffffffc8
   12f10:	e3500000 	cmp	r0, #0
   12f14:	b3a00001 	movlt	r0, #1
   12f18:	a3a00000 	movge	r0, #0
   12f1c:	e1a08000 	mov	r8, r0
   12f20:	e3570000 	cmp	r7, #0
   12f24:	1a000015 	bne	12f80 <SYSTEM_$$_ROUNDANDPACKFLOAT64$BYTE$SMALLINT$LONGWORD$LONGWORD$LONGWORD$FLOAT64+0xd8>
   12f28:	e3560003 	cmp	r6, #3
   12f2c:	03a08000 	moveq	r8, #0
   12f30:	0a000012 	beq	12f80 <SYSTEM_$$_ROUNDANDPACKFLOAT64$BYTE$SMALLINT$LONGWORD$LONGWORD$LONGWORD$FLOAT64+0xd8>
   12f34:	e35a0000 	cmp	sl, #0
   12f38:	0a000008 	beq	12f60 <SYSTEM_$$_ROUNDANDPACKFLOAT64$BYTE$SMALLINT$LONGWORD$LONGWORD$LONGWORD$FLOAT64+0xb8>
   12f3c:	e3560001 	cmp	r6, #1
   12f40:	1a000003 	bne	12f54 <SYSTEM_$$_ROUNDANDPACKFLOAT64$BYTE$SMALLINT$LONGWORD$LONGWORD$LONGWORD$FLOAT64+0xac>
   12f44:	e51b0038 	ldr	r0, [fp, #-56]	; 0xffffffc8
   12f48:	e3500000 	cmp	r0, #0
   12f4c:	13a00001 	movne	r0, #1
   12f50:	1a000000 	bne	12f58 <SYSTEM_$$_ROUNDANDPACKFLOAT64$BYTE$SMALLINT$LONGWORD$LONGWORD$LONGWORD$FLOAT64+0xb0>
   12f54:	e3a00000 	mov	r0, #0
   12f58:	e1a08000 	mov	r8, r0
   12f5c:	ea000007 	b	12f80 <SYSTEM_$$_ROUNDANDPACKFLOAT64$BYTE$SMALLINT$LONGWORD$LONGWORD$LONGWORD$FLOAT64+0xd8>
   12f60:	e3560002 	cmp	r6, #2
   12f64:	1a000003 	bne	12f78 <SYSTEM_$$_ROUNDANDPACKFLOAT64$BYTE$SMALLINT$LONGWORD$LONGWORD$LONGWORD$FLOAT64+0xd0>
   12f68:	e51b0038 	ldr	r0, [fp, #-56]	; 0xffffffc8
   12f6c:	e3500000 	cmp	r0, #0
   12f70:	13a00001 	movne	r0, #1
   12f74:	1a000000 	bne	12f7c <SYSTEM_$$_ROUNDANDPACKFLOAT64$BYTE$SMALLINT$LONGWORD$LONGWORD$LONGWORD$FLOAT64+0xd4>
   12f78:	e3a00000 	mov	r0, #0
   12f7c:	e1a08000 	mov	r8, r0
   12f80:	e6ff0074 	uxth	r0, r4
   12f84:	e3a010fd 	mov	r1, #253	; 0xfd
   12f88:	e3811c07 	orr	r1, r1, #1792	; 0x700
   12f8c:	e1500001 	cmp	r0, r1
   12f90:	3a000075 	bcc	1316c <SYSTEM_$$_ROUNDANDPACKFLOAT64$BYTE$SMALLINT$LONGWORD$LONGWORD$LONGWORD$FLOAT64+0x2c4>
   12f94:	e3a000fd 	mov	r0, #253	; 0xfd
   12f98:	e3800c07 	orr	r0, r0, #1792	; 0x700
   12f9c:	e1500004 	cmp	r0, r4
   12fa0:	ba00000c 	blt	12fd8 <SYSTEM_$$_ROUNDANDPACKFLOAT64$BYTE$SMALLINT$LONGWORD$LONGWORD$LONGWORD$FLOAT64+0x130>
   12fa4:	e1540000 	cmp	r4, r0
   12fa8:	1a000027 	bne	1304c <SYSTEM_$$_ROUNDANDPACKFLOAT64$BYTE$SMALLINT$LONGWORD$LONGWORD$LONGWORD$FLOAT64+0x1a4>
   12fac:	e51b1030 	ldr	r1, [fp, #-48]	; 0xffffffd0
   12fb0:	e3e0020f 	mvn	r0, #-268435456	; 0xf0000000
   12fb4:	e3c006fe 	bic	r0, r0, #266338304	; 0xfe00000
   12fb8:	e1510000 	cmp	r1, r0
   12fbc:	1a000022 	bne	1304c <SYSTEM_$$_ROUNDANDPACKFLOAT64$BYTE$SMALLINT$LONGWORD$LONGWORD$LONGWORD$FLOAT64+0x1a4>
   12fc0:	e51b0034 	ldr	r0, [fp, #-52]	; 0xffffffcc
   12fc4:	e3e01000 	mvn	r1, #0
   12fc8:	e1500001 	cmp	r0, r1
   12fcc:	1a00001e 	bne	1304c <SYSTEM_$$_ROUNDANDPACKFLOAT64$BYTE$SMALLINT$LONGWORD$LONGWORD$LONGWORD$FLOAT64+0x1a4>
   12fd0:	e3580000 	cmp	r8, #0
   12fd4:	0a00001c 	beq	1304c <SYSTEM_$$_ROUNDANDPACKFLOAT64$BYTE$SMALLINT$LONGWORD$LONGWORD$LONGWORD$FLOAT64+0x1a4>
   12fd8:	e3a00028 	mov	r0, #40	; 0x28
   12fdc:	eb002355 	bl	1bd38 <SYSTEM_$$_FLOAT_RAISE$TFPUEXCEPTIONMASK>
   12fe0:	e3560003 	cmp	r6, #3
   12fe4:	0a000007 	beq	13008 <SYSTEM_$$_ROUNDANDPACKFLOAT64$BYTE$SMALLINT$LONGWORD$LONGWORD$LONGWORD$FLOAT64+0x160>
   12fe8:	e35a0000 	cmp	sl, #0
   12fec:	0a000001 	beq	12ff8 <SYSTEM_$$_ROUNDANDPACKFLOAT64$BYTE$SMALLINT$LONGWORD$LONGWORD$LONGWORD$FLOAT64+0x150>
   12ff0:	e3560002 	cmp	r6, #2
   12ff4:	0a000003 	beq	13008 <SYSTEM_$$_ROUNDANDPACKFLOAT64$BYTE$SMALLINT$LONGWORD$LONGWORD$LONGWORD$FLOAT64+0x160>
   12ff8:	e35a0000 	cmp	sl, #0
   12ffc:	1a00000a 	bne	1302c <SYSTEM_$$_ROUNDANDPACKFLOAT64$BYTE$SMALLINT$LONGWORD$LONGWORD$LONGWORD$FLOAT64+0x184>
   13000:	e3560001 	cmp	r6, #1
   13004:	1a000008 	bne	1302c <SYSTEM_$$_ROUNDANDPACKFLOAT64$BYTE$SMALLINT$LONGWORD$LONGWORD$LONGWORD$FLOAT64+0x184>
   13008:	e58d5000 	str	r5, [sp]
   1300c:	e3e03000 	mvn	r3, #0
   13010:	e3e0220f 	mvn	r2, #-268435456	; 0xf0000000
   13014:	e3c226ff 	bic	r2, r2, #267386880	; 0xff00000
   13018:	e3a010fe 	mov	r1, #254	; 0xfe
   1301c:	e3811c07 	orr	r1, r1, #1792	; 0x700
   13020:	e1a0000a 	mov	r0, sl
   13024:	ebffff7a 	bl	12e14 <SYSTEM_$$_PACKFLOAT64$BYTE$SMALLINT$LONGWORD$LONGWORD$FLOAT64>
   13028:	ea000073 	b	131fc <SYSTEM_$$_ROUNDANDPACKFLOAT64$BYTE$SMALLINT$LONGWORD$LONGWORD$LONGWORD$FLOAT64+0x354>
   1302c:	e58d5000 	str	r5, [sp]
   13030:	e3a010ff 	mov	r1, #255	; 0xff
   13034:	e3811c07 	orr	r1, r1, #1792	; 0x700
   13038:	e1a0000a 	mov	r0, sl
   1303c:	e3a03000 	mov	r3, #0
   13040:	e3a02000 	mov	r2, #0
   13044:	ebffff72 	bl	12e14 <SYSTEM_$$_PACKFLOAT64$BYTE$SMALLINT$LONGWORD$LONGWORD$FLOAT64>
   13048:	ea00006b 	b	131fc <SYSTEM_$$_ROUNDANDPACKFLOAT64$BYTE$SMALLINT$LONGWORD$LONGWORD$LONGWORD$FLOAT64+0x354>
   1304c:	e3540000 	cmp	r4, #0
   13050:	aa000045 	bge	1316c <SYSTEM_$$_ROUNDANDPACKFLOAT64$BYTE$SMALLINT$LONGWORD$LONGWORD$LONGWORD$FLOAT64+0x2c4>
   13054:	e3580000 	cmp	r8, #0
   13058:	03a02001 	moveq	r2, #1
   1305c:	13a02000 	movne	r2, #0
   13060:	e59f01a4 	ldr	r0, [pc, #420]	; 1320c <SYSTEM_$$_ROUNDANDPACKFLOAT64$BYTE$SMALLINT$LONGWORD$LONGWORD$LONGWORD$FLOAT64+0x364>
   13064:	e1d000d0 	ldrsb	r0, [r0]
   13068:	e3500001 	cmp	r0, #1
   1306c:	03a01001 	moveq	r1, #1
   13070:	13a01000 	movne	r1, #0
   13074:	e3e00000 	mvn	r0, #0
   13078:	e1540000 	cmp	r4, r0
   1307c:	b3a00001 	movlt	r0, #1
   13080:	a3a00000 	movge	r0, #0
   13084:	e1800001 	orr	r0, r0, r1
   13088:	e1809002 	orr	r9, r0, r2
   1308c:	e3e03000 	mvn	r3, #0
   13090:	e3e0220f 	mvn	r2, #-268435456	; 0xf0000000
   13094:	e3c226fe 	bic	r2, r2, #266338304	; 0xfe00000
   13098:	e51b1034 	ldr	r1, [fp, #-52]	; 0xffffffcc
   1309c:	e51b0030 	ldr	r0, [fp, #-48]	; 0xffffffd0
   130a0:	ebfffb86 	bl	11ec0 <SYSTEM_$$_LT64$LONGWORD$LONGWORD$LONGWORD$LONGWORD$$BYTE>
   130a4:	e3500000 	cmp	r0, #0
   130a8:	13a00001 	movne	r0, #1
   130ac:	e1809009 	orr	r9, r0, r9
   130b0:	e24b0038 	sub	r0, fp, #56	; 0x38
   130b4:	e58d0008 	str	r0, [sp, #8]
   130b8:	e24b0034 	sub	r0, fp, #52	; 0x34
   130bc:	e58d0004 	str	r0, [sp, #4]
   130c0:	e24b0030 	sub	r0, fp, #48	; 0x30
   130c4:	e58d0000 	str	r0, [sp]
   130c8:	e2640000 	rsb	r0, r4, #0
   130cc:	e6bf3070 	sxth	r3, r0
   130d0:	e51b2038 	ldr	r2, [fp, #-56]	; 0xffffffc8
   130d4:	e51b1034 	ldr	r1, [fp, #-52]	; 0xffffffcc
   130d8:	e51b0030 	ldr	r0, [fp, #-48]	; 0xffffffd0
   130dc:	ebfff689 	bl	10b08 <SYSTEM_$$_SHIFT64EXTRARIGHTJAMMING$LONGWORD$LONGWORD$LONGWORD$SMALLINT$LONGWORD$LONGWORD$LONGWORD>
   130e0:	e3a04000 	mov	r4, #0
   130e4:	e3590000 	cmp	r9, #0
   130e8:	0a000004 	beq	13100 <SYSTEM_$$_ROUNDANDPACKFLOAT64$BYTE$SMALLINT$LONGWORD$LONGWORD$LONGWORD$FLOAT64+0x258>
   130ec:	e51b0038 	ldr	r0, [fp, #-56]	; 0xffffffc8
   130f0:	e3500000 	cmp	r0, #0
   130f4:	0a000001 	beq	13100 <SYSTEM_$$_ROUNDANDPACKFLOAT64$BYTE$SMALLINT$LONGWORD$LONGWORD$LONGWORD$FLOAT64+0x258>
   130f8:	e3a00004 	mov	r0, #4
   130fc:	eb002307 	bl	1bd20 <SYSTEM_$$_FLOAT_RAISE$TFPUEXCEPTION>
   13100:	e3570000 	cmp	r7, #0
   13104:	0a000005 	beq	13120 <SYSTEM_$$_ROUNDANDPACKFLOAT64$BYTE$SMALLINT$LONGWORD$LONGWORD$LONGWORD$FLOAT64+0x278>
   13108:	e51b0038 	ldr	r0, [fp, #-56]	; 0xffffffc8
   1310c:	e3500000 	cmp	r0, #0
   13110:	b3a00001 	movlt	r0, #1
   13114:	a3a00000 	movge	r0, #0
   13118:	e1a08000 	mov	r8, r0
   1311c:	ea000012 	b	1316c <SYSTEM_$$_ROUNDANDPACKFLOAT64$BYTE$SMALLINT$LONGWORD$LONGWORD$LONGWORD$FLOAT64+0x2c4>
   13120:	e35a0000 	cmp	sl, #0
   13124:	0a000008 	beq	1314c <SYSTEM_$$_ROUNDANDPACKFLOAT64$BYTE$SMALLINT$LONGWORD$LONGWORD$LONGWORD$FLOAT64+0x2a4>
   13128:	e3560001 	cmp	r6, #1
   1312c:	1a000003 	bne	13140 <SYSTEM_$$_ROUNDANDPACKFLOAT64$BYTE$SMALLINT$LONGWORD$LONGWORD$LONGWORD$FLOAT64+0x298>
   13130:	e51b0038 	ldr	r0, [fp, #-56]	; 0xffffffc8
   13134:	e3500000 	cmp	r0, #0
   13138:	13a00001 	movne	r0, #1
   1313c:	1a000000 	bne	13144 <SYSTEM_$$_ROUNDANDPACKFLOAT64$BYTE$SMALLINT$LONGWORD$LONGWORD$LONGWORD$FLOAT64+0x29c>
   13140:	e3a00000 	mov	r0, #0
   13144:	e1a08000 	mov	r8, r0
   13148:	ea000007 	b	1316c <SYSTEM_$$_ROUNDANDPACKFLOAT64$BYTE$SMALLINT$LONGWORD$LONGWORD$LONGWORD$FLOAT64+0x2c4>
   1314c:	e3560002 	cmp	r6, #2
   13150:	1a000003 	bne	13164 <SYSTEM_$$_ROUNDANDPACKFLOAT64$BYTE$SMALLINT$LONGWORD$LONGWORD$LONGWORD$FLOAT64+0x2bc>
   13154:	e51b0038 	ldr	r0, [fp, #-56]	; 0xffffffc8
   13158:	e3500000 	cmp	r0, #0
   1315c:	13a00001 	movne	r0, #1
   13160:	1a000000 	bne	13168 <SYSTEM_$$_ROUNDANDPACKFLOAT64$BYTE$SMALLINT$LONGWORD$LONGWORD$LONGWORD$FLOAT64+0x2c0>
   13164:	e3a00000 	mov	r0, #0
   13168:	e1a08000 	mov	r8, r0
   1316c:	e51b0038 	ldr	r0, [fp, #-56]	; 0xffffffc8
   13170:	e3500000 	cmp	r0, #0
   13174:	0a000000 	beq	1317c <SYSTEM_$$_ROUNDANDPACKFLOAT64$BYTE$SMALLINT$LONGWORD$LONGWORD$LONGWORD$FLOAT64+0x2d4>
   13178:	ebfff413 	bl	101cc <SYSTEM_$$_SET_INEXACT_FLAG>
   1317c:	e3580000 	cmp	r8, #0
   13180:	0a000013 	beq	131d4 <SYSTEM_$$_ROUNDANDPACKFLOAT64$BYTE$SMALLINT$LONGWORD$LONGWORD$LONGWORD$FLOAT64+0x32c>
   13184:	e24b0034 	sub	r0, fp, #52	; 0x34
   13188:	e58d0004 	str	r0, [sp, #4]
   1318c:	e24b0030 	sub	r0, fp, #48	; 0x30
   13190:	e58d0000 	str	r0, [sp]
   13194:	e51b1034 	ldr	r1, [fp, #-52]	; 0xffffffcc
   13198:	e51b0030 	ldr	r0, [fp, #-48]	; 0xffffffd0
   1319c:	e3a03001 	mov	r3, #1
   131a0:	e3a02000 	mov	r2, #0
   131a4:	ebfff6d9 	bl	10d10 <SYSTEM_$$_ADD64$LONGWORD$LONGWORD$LONGWORD$LONGWORD$LONGWORD$LONGWORD>
   131a8:	e51b0038 	ldr	r0, [fp, #-56]	; 0xffffffc8
   131ac:	e0800000 	add	r0, r0, r0
   131b0:	e3500000 	cmp	r0, #0
   131b4:	03a00001 	moveq	r0, #1
   131b8:	13a00000 	movne	r0, #0
   131bc:	e0070000 	and	r0, r7, r0
   131c0:	e1e00000 	mvn	r0, r0
   131c4:	e51b1034 	ldr	r1, [fp, #-52]	; 0xffffffcc
   131c8:	e0010000 	and	r0, r1, r0
   131cc:	e50b0034 	str	r0, [fp, #-52]	; 0xffffffcc
   131d0:	ea000003 	b	131e4 <SYSTEM_$$_ROUNDANDPACKFLOAT64$BYTE$SMALLINT$LONGWORD$LONGWORD$LONGWORD$FLOAT64+0x33c>
   131d4:	e51b0030 	ldr	r0, [fp, #-48]	; 0xffffffd0
   131d8:	e51b1034 	ldr	r1, [fp, #-52]	; 0xffffffcc
   131dc:	e1910000 	orrs	r0, r1, r0
   131e0:	03a04000 	moveq	r4, #0
   131e4:	e58d5000 	str	r5, [sp]
   131e8:	e51b3034 	ldr	r3, [fp, #-52]	; 0xffffffcc
   131ec:	e51b2030 	ldr	r2, [fp, #-48]	; 0xffffffd0
   131f0:	e1a01004 	mov	r1, r4
   131f4:	e1a0000a 	mov	r0, sl
   131f8:	ebffff05 	bl	12e14 <SYSTEM_$$_PACKFLOAT64$BYTE$SMALLINT$LONGWORD$LONGWORD$FLOAT64>
   131fc:	e91baff8 	ldmdb	fp, {r3, r4, r5, r6, r7, r8, r9, sl, fp, sp, pc}
   13200:	00052b90 	muleq	r5, r0, fp
   13204:	00051e50 	andeq	r1, r5, r0, asr lr
   13208:	00051e54 	andeq	r1, r5, r4, asr lr
   1320c:	00050274 	andeq	r0, r5, r4, ror r2

00013210 <SYSTEM_$$_ROUNDANDPACKFLOAT64$BYTE$SMALLINT$QWORD$$FLOAT64>:
   13210:	e1a0c00d 	mov	ip, sp
   13214:	e92ddff8 	push	{r3, r4, r5, r6, r7, r8, r9, sl, fp, ip, lr, pc}
   13218:	e24cb004 	sub	fp, ip, #4
   1321c:	e24dd040 	sub	sp, sp, #64	; 0x40
   13220:	e1a0a000 	mov	sl, r0
   13224:	e1a09001 	mov	r9, r1
   13228:	e1a04002 	mov	r4, r2
   1322c:	e59b2004 	ldr	r2, [fp, #4]
   13230:	e59b0008 	ldr	r0, [fp, #8]
   13234:	e50b2034 	str	r2, [fp, #-52]	; 0xffffffcc
   13238:	e50b0030 	str	r0, [fp, #-48]	; 0xffffffd0
   1323c:	e59f02b0 	ldr	r0, [pc, #688]	; 134f4 <SYSTEM_$$_ROUNDANDPACKFLOAT64$BYTE$SMALLINT$QWORD$$FLOAT64+0x2e4>
   13240:	e5902000 	ldr	r2, [r0]
   13244:	e3520000 	cmp	r2, #0
   13248:	0a000003 	beq	1325c <SYSTEM_$$_ROUNDANDPACKFLOAT64$BYTE$SMALLINT$QWORD$$FLOAT64+0x4c>
   1324c:	e59f12a4 	ldr	r1, [pc, #676]	; 134f8 <SYSTEM_$$_ROUNDANDPACKFLOAT64$BYTE$SMALLINT$QWORD$$FLOAT64+0x2e8>
   13250:	e5910000 	ldr	r0, [r1]
   13254:	e12fff32 	blx	r2
   13258:	ea000000 	b	13260 <SYSTEM_$$_ROUNDANDPACKFLOAT64$BYTE$SMALLINT$QWORD$$FLOAT64+0x50>
   1325c:	e59f0298 	ldr	r0, [pc, #664]	; 134fc <SYSTEM_$$_ROUNDANDPACKFLOAT64$BYTE$SMALLINT$QWORD$$FLOAT64+0x2ec>
   13260:	e5901000 	ldr	r1, [r0]
   13264:	e3510000 	cmp	r1, #0
   13268:	03a00001 	moveq	r0, #1
   1326c:	13a00000 	movne	r0, #0
   13270:	e1a05000 	mov	r5, r0
   13274:	e3a06c02 	mov	r6, #512	; 0x200
   13278:	e3550000 	cmp	r5, #0
   1327c:	1a00000c 	bne	132b4 <SYSTEM_$$_ROUNDANDPACKFLOAT64$BYTE$SMALLINT$QWORD$$FLOAT64+0xa4>
   13280:	e3510003 	cmp	r1, #3
   13284:	03a06000 	moveq	r6, #0
   13288:	0a000009 	beq	132b4 <SYSTEM_$$_ROUNDANDPACKFLOAT64$BYTE$SMALLINT$QWORD$$FLOAT64+0xa4>
   1328c:	e3a060ff 	mov	r6, #255	; 0xff
   13290:	e3866c03 	orr	r6, r6, #768	; 0x300
   13294:	e3590000 	cmp	r9, #0
   13298:	0a000003 	beq	132ac <SYSTEM_$$_ROUNDANDPACKFLOAT64$BYTE$SMALLINT$QWORD$$FLOAT64+0x9c>
   1329c:	e3510002 	cmp	r1, #2
   132a0:	1a000003 	bne	132b4 <SYSTEM_$$_ROUNDANDPACKFLOAT64$BYTE$SMALLINT$QWORD$$FLOAT64+0xa4>
   132a4:	e3a06000 	mov	r6, #0
   132a8:	ea000001 	b	132b4 <SYSTEM_$$_ROUNDANDPACKFLOAT64$BYTE$SMALLINT$QWORD$$FLOAT64+0xa4>
   132ac:	e3510001 	cmp	r1, #1
   132b0:	03a06000 	moveq	r6, #0
   132b4:	e14b03d4 	ldrd	r0, [fp, #-52]	; 0xffffffcc
   132b8:	e1a00b00 	lsl	r0, r0, #22
   132bc:	e1a00b20 	lsr	r0, r0, #22
   132c0:	e3a01000 	mov	r1, #0
   132c4:	e6bf0070 	sxth	r0, r0
   132c8:	e1a07000 	mov	r7, r0
   132cc:	e6ff0074 	uxth	r0, r4
   132d0:	e3a010fd 	mov	r1, #253	; 0xfd
   132d4:	e3811c07 	orr	r1, r1, #1792	; 0x700
   132d8:	e1500001 	cmp	r0, r1
   132dc:	3a000053 	bcc	13430 <SYSTEM_$$_ROUNDANDPACKFLOAT64$BYTE$SMALLINT$QWORD$$FLOAT64+0x220>
   132e0:	e3a000fd 	mov	r0, #253	; 0xfd
   132e4:	e3800c07 	orr	r0, r0, #1792	; 0x700
   132e8:	e1500004 	cmp	r0, r4
   132ec:	ba000009 	blt	13318 <SYSTEM_$$_ROUNDANDPACKFLOAT64$BYTE$SMALLINT$QWORD$$FLOAT64+0x108>
   132f0:	e1540000 	cmp	r4, r0
   132f4:	1a000023 	bne	13388 <SYSTEM_$$_ROUNDANDPACKFLOAT64$BYTE$SMALLINT$QWORD$$FLOAT64+0x178>
   132f8:	e6bf0076 	sxth	r0, r6
   132fc:	e1a03fc0 	asr	r3, r0, #31
   13300:	e51b1034 	ldr	r1, [fp, #-52]	; 0xffffffcc
   13304:	e51b2030 	ldr	r2, [fp, #-48]	; 0xffffffd0
   13308:	e0910000 	adds	r0, r1, r0
   1330c:	e0a20003 	adc	r0, r2, r3
   13310:	e3100102 	tst	r0, #-2147483648	; 0x80000000
   13314:	0a00001b 	beq	13388 <SYSTEM_$$_ROUNDANDPACKFLOAT64$BYTE$SMALLINT$QWORD$$FLOAT64+0x178>
   13318:	e3a00028 	mov	r0, #40	; 0x28
   1331c:	eb002285 	bl	1bd38 <SYSTEM_$$_FLOAT_RAISE$TFPUEXCEPTIONMASK>
   13320:	e3a020ff 	mov	r2, #255	; 0xff
   13324:	e3822c07 	orr	r2, r2, #1792	; 0x700
   13328:	e20910ff 	and	r1, r9, #255	; 0xff
   1332c:	e3a00000 	mov	r0, #0
   13330:	e3a03000 	mov	r3, #0
   13334:	e1a0cf81 	lsl	ip, r1, #31
   13338:	e6bf1072 	sxth	r1, r2
   1333c:	e1a00fc1 	asr	r0, r1, #31
   13340:	e3a02000 	mov	r2, #0
   13344:	e1a00a01 	lsl	r0, r1, #20
   13348:	e0921003 	adds	r1, r2, r3
   1334c:	e0a0000c 	adc	r0, r0, ip
   13350:	e50b1040 	str	r1, [fp, #-64]	; 0xffffffc0
   13354:	e50b003c 	str	r0, [fp, #-60]	; 0xffffffc4
   13358:	e3560000 	cmp	r6, #0
   1335c:	03a01001 	moveq	r1, #1
   13360:	13a01000 	movne	r1, #0
   13364:	e20110ff 	and	r1, r1, #255	; 0xff
   13368:	e3a02000 	mov	r2, #0
   1336c:	e51b0040 	ldr	r0, [fp, #-64]	; 0xffffffc0
   13370:	e51b303c 	ldr	r3, [fp, #-60]	; 0xffffffc4
   13374:	e0501001 	subs	r1, r0, r1
   13378:	e0c30002 	sbc	r0, r3, r2
   1337c:	e58a1000 	str	r1, [sl]
   13380:	e58a0004 	str	r0, [sl, #4]
   13384:	ea000059 	b	134f0 <SYSTEM_$$_ROUNDANDPACKFLOAT64$BYTE$SMALLINT$QWORD$$FLOAT64+0x2e0>
   13388:	e3540000 	cmp	r4, #0
   1338c:	aa000027 	bge	13430 <SYSTEM_$$_ROUNDANDPACKFLOAT64$BYTE$SMALLINT$QWORD$$FLOAT64+0x220>
   13390:	e59f0168 	ldr	r0, [pc, #360]	; 13500 <SYSTEM_$$_ROUNDANDPACKFLOAT64$BYTE$SMALLINT$QWORD$$FLOAT64+0x2f0>
   13394:	e1d000d0 	ldrsb	r0, [r0]
   13398:	e3500001 	cmp	r0, #1
   1339c:	0a00000d 	beq	133d8 <SYSTEM_$$_ROUNDANDPACKFLOAT64$BYTE$SMALLINT$QWORD$$FLOAT64+0x1c8>
   133a0:	e3e00000 	mvn	r0, #0
   133a4:	e1540000 	cmp	r4, r0
   133a8:	ba00000a 	blt	133d8 <SYSTEM_$$_ROUNDANDPACKFLOAT64$BYTE$SMALLINT$QWORD$$FLOAT64+0x1c8>
   133ac:	e6bf0076 	sxth	r0, r6
   133b0:	e1a03fc0 	asr	r3, r0, #31
   133b4:	e51b1034 	ldr	r1, [fp, #-52]	; 0xffffffcc
   133b8:	e51b2030 	ldr	r2, [fp, #-48]	; 0xffffffd0
   133bc:	e0910000 	adds	r0, r1, r0
   133c0:	e0a21003 	adc	r1, r2, r3
   133c4:	e3a03000 	mov	r3, #0
   133c8:	e3a02102 	mov	r2, #-2147483648	; 0x80000000
   133cc:	e1510002 	cmp	r1, r2
   133d0:	01500003 	cmpeq	r0, r3
   133d4:	2a000001 	bcs	133e0 <SYSTEM_$$_ROUNDANDPACKFLOAT64$BYTE$SMALLINT$QWORD$$FLOAT64+0x1d0>
   133d8:	e3a00001 	mov	r0, #1
   133dc:	ea000000 	b	133e4 <SYSTEM_$$_ROUNDANDPACKFLOAT64$BYTE$SMALLINT$QWORD$$FLOAT64+0x1d4>
   133e0:	e3a00000 	mov	r0, #0
   133e4:	e1a08000 	mov	r8, r0
   133e8:	e2640000 	rsb	r0, r4, #0
   133ec:	e6bf2070 	sxth	r2, r0
   133f0:	e24b3034 	sub	r3, fp, #52	; 0x34
   133f4:	e51b1030 	ldr	r1, [fp, #-48]	; 0xffffffd0
   133f8:	e51b0034 	ldr	r0, [fp, #-52]	; 0xffffffcc
   133fc:	ebfff594 	bl	10a54 <SYSTEM_$$_SHIFT64RIGHTJAMMING$QWORD$SMALLINT$QWORD>
   13400:	e3a04000 	mov	r4, #0
   13404:	e51b1034 	ldr	r1, [fp, #-52]	; 0xffffffcc
   13408:	e51b0030 	ldr	r0, [fp, #-48]	; 0xffffffd0
   1340c:	e1a00b01 	lsl	r0, r1, #22
   13410:	e1a00b20 	lsr	r0, r0, #22
   13414:	e3a01000 	mov	r1, #0
   13418:	e6bf0070 	sxth	r0, r0
   1341c:	e1a07000 	mov	r7, r0
   13420:	e0170008 	ands	r0, r7, r8
   13424:	0a000001 	beq	13430 <SYSTEM_$$_ROUNDANDPACKFLOAT64$BYTE$SMALLINT$QWORD$$FLOAT64+0x220>
   13428:	e3a00004 	mov	r0, #4
   1342c:	eb00223b 	bl	1bd20 <SYSTEM_$$_FLOAT_RAISE$TFPUEXCEPTION>
   13430:	e3570000 	cmp	r7, #0
   13434:	0a000000 	beq	1343c <SYSTEM_$$_ROUNDANDPACKFLOAT64$BYTE$SMALLINT$QWORD$$FLOAT64+0x22c>
   13438:	ebfff363 	bl	101cc <SYSTEM_$$_SET_INEXACT_FLAG>
   1343c:	e6bf0076 	sxth	r0, r6
   13440:	e1a03fc0 	asr	r3, r0, #31
   13444:	e51b1034 	ldr	r1, [fp, #-52]	; 0xffffffcc
   13448:	e51b2030 	ldr	r2, [fp, #-48]	; 0xffffffd0
   1344c:	e0910000 	adds	r0, r1, r0
   13450:	e0a22003 	adc	r2, r2, r3
   13454:	e1a00520 	lsr	r0, r0, #10
   13458:	e1a01522 	lsr	r1, r2, #10
   1345c:	e1800b02 	orr	r0, r0, r2, lsl #22
   13460:	e14b03f4 	strd	r0, [fp, #-52]	; 0xffffffcc
   13464:	e2270c02 	eor	r0, r7, #512	; 0x200
   13468:	e3500000 	cmp	r0, #0
   1346c:	03a00001 	moveq	r0, #1
   13470:	13a00000 	movne	r0, #0
   13474:	e0050000 	and	r0, r5, r0
   13478:	e20000ff 	and	r0, r0, #255	; 0xff
   1347c:	e3a01000 	mov	r1, #0
   13480:	e1e02000 	mvn	r2, r0
   13484:	e1e03001 	mvn	r3, r1
   13488:	e51b0034 	ldr	r0, [fp, #-52]	; 0xffffffcc
   1348c:	e51bc030 	ldr	ip, [fp, #-48]	; 0xffffffd0
   13490:	e0021000 	and	r1, r2, r0
   13494:	e003000c 	and	r0, r3, ip
   13498:	e50b1034 	str	r1, [fp, #-52]	; 0xffffffcc
   1349c:	e50b0030 	str	r0, [fp, #-48]	; 0xffffffd0
   134a0:	e51b1034 	ldr	r1, [fp, #-52]	; 0xffffffcc
   134a4:	e51b0030 	ldr	r0, [fp, #-48]	; 0xffffffd0
   134a8:	e1910000 	orrs	r0, r1, r0
   134ac:	03a04000 	moveq	r4, #0
   134b0:	e20910ff 	and	r1, r9, #255	; 0xff
   134b4:	e3a00000 	mov	r0, #0
   134b8:	e3a0c000 	mov	ip, #0
   134bc:	e1a03f81 	lsl	r3, r1, #31
   134c0:	e6bf2074 	sxth	r2, r4
   134c4:	e1a00fc2 	asr	r0, r2, #31
   134c8:	e3a01000 	mov	r1, #0
   134cc:	e1a00a02 	lsl	r0, r2, #20
   134d0:	e091100c 	adds	r1, r1, ip
   134d4:	e0a03003 	adc	r3, r0, r3
   134d8:	e51b0034 	ldr	r0, [fp, #-52]	; 0xffffffcc
   134dc:	e51b2030 	ldr	r2, [fp, #-48]	; 0xffffffd0
   134e0:	e0901001 	adds	r1, r0, r1
   134e4:	e0a20003 	adc	r0, r2, r3
   134e8:	e58a1000 	str	r1, [sl]
   134ec:	e58a0004 	str	r0, [sl, #4]
   134f0:	e91baff8 	ldmdb	fp, {r3, r4, r5, r6, r7, r8, r9, sl, fp, sp, pc}
   134f4:	00052b90 	muleq	r5, r0, fp
   134f8:	00051e50 	andeq	r1, r5, r0, asr lr
   134fc:	00051e54 	andeq	r1, r5, r4, asr lr
   13500:	00050274 	andeq	r0, r5, r4, ror r2

00013504 <SYSTEM_$$_NORMALIZEROUNDANDPACKFLOAT64$BYTE$SMALLINT$LONGWORD$LONGWORD$FLOAT64>:
   13504:	e1a0c00d 	mov	ip, sp
   13508:	e92dd8f0 	push	{r4, r5, r6, r7, fp, ip, lr, pc}
   1350c:	e24cb004 	sub	fp, ip, #4
   13510:	e24dd048 	sub	sp, sp, #72	; 0x48
   13514:	e1a04000 	mov	r4, r0
   13518:	e1a05001 	mov	r5, r1
   1351c:	e50b2030 	str	r2, [fp, #-48]	; 0xffffffd0
   13520:	e50b3034 	str	r3, [fp, #-52]	; 0xffffffcc
   13524:	e59b6004 	ldr	r6, [fp, #4]
   13528:	e51b0030 	ldr	r0, [fp, #-48]	; 0xffffffd0
   1352c:	e3500000 	cmp	r0, #0
   13530:	1a000006 	bne	13550 <SYSTEM_$$_NORMALIZEROUNDANDPACKFLOAT64$BYTE$SMALLINT$LONGWORD$LONGWORD$FLOAT64+0x4c>
   13534:	e51b0034 	ldr	r0, [fp, #-52]	; 0xffffffcc
   13538:	e50b0030 	str	r0, [fp, #-48]	; 0xffffffd0
   1353c:	e3a00000 	mov	r0, #0
   13540:	e50b0034 	str	r0, [fp, #-52]	; 0xffffffcc
   13544:	e2450020 	sub	r0, r5, #32
   13548:	e6bf0070 	sxth	r0, r0
   1354c:	e1a05000 	mov	r5, r0
   13550:	e51b0030 	ldr	r0, [fp, #-48]	; 0xffffffd0
   13554:	ebfffa2c 	bl	11e0c <SYSTEM_$$_COUNTLEADINGZEROS32$LONGWORD$$SHORTINT>
   13558:	e240000b 	sub	r0, r0, #11
   1355c:	e6af7070 	sxtb	r7, r0
   13560:	e3570000 	cmp	r7, #0
   13564:	ba000009 	blt	13590 <SYSTEM_$$_NORMALIZEROUNDANDPACKFLOAT64$BYTE$SMALLINT$LONGWORD$LONGWORD$FLOAT64+0x8c>
   13568:	e3a00000 	mov	r0, #0
   1356c:	e50b0038 	str	r0, [fp, #-56]	; 0xffffffc8
   13570:	e24b0034 	sub	r0, fp, #52	; 0x34
   13574:	e58d0000 	str	r0, [sp]
   13578:	e1a02007 	mov	r2, r7
   1357c:	e24b3030 	sub	r3, fp, #48	; 0x30
   13580:	e51b1034 	ldr	r1, [fp, #-52]	; 0xffffffcc
   13584:	e51b0030 	ldr	r0, [fp, #-48]	; 0xffffffd0
   13588:	ebfff58e 	bl	10bc8 <SYSTEM_$$_SHORTSHIFT64LEFT$LONGWORD$LONGWORD$SMALLINT$LONGWORD$LONGWORD>
   1358c:	ea00000b 	b	135c0 <SYSTEM_$$_NORMALIZEROUNDANDPACKFLOAT64$BYTE$SMALLINT$LONGWORD$LONGWORD$FLOAT64+0xbc>
   13590:	e24b0038 	sub	r0, fp, #56	; 0x38
   13594:	e58d0008 	str	r0, [sp, #8]
   13598:	e24b0034 	sub	r0, fp, #52	; 0x34
   1359c:	e58d0004 	str	r0, [sp, #4]
   135a0:	e24b0030 	sub	r0, fp, #48	; 0x30
   135a4:	e58d0000 	str	r0, [sp]
   135a8:	e2670000 	rsb	r0, r7, #0
   135ac:	e6bf3070 	sxth	r3, r0
   135b0:	e51b1034 	ldr	r1, [fp, #-52]	; 0xffffffcc
   135b4:	e51b0030 	ldr	r0, [fp, #-48]	; 0xffffffd0
   135b8:	e3a02000 	mov	r2, #0
   135bc:	ebfff551 	bl	10b08 <SYSTEM_$$_SHIFT64EXTRARIGHTJAMMING$LONGWORD$LONGWORD$LONGWORD$SMALLINT$LONGWORD$LONGWORD$LONGWORD>
   135c0:	e0450007 	sub	r0, r5, r7
   135c4:	e6bf1070 	sxth	r1, r0
   135c8:	e51b0038 	ldr	r0, [fp, #-56]	; 0xffffffc8
   135cc:	e58d0000 	str	r0, [sp]
   135d0:	e58d6004 	str	r6, [sp, #4]
   135d4:	e51b3034 	ldr	r3, [fp, #-52]	; 0xffffffcc
   135d8:	e51b2030 	ldr	r2, [fp, #-48]	; 0xffffffd0
   135dc:	e1a00004 	mov	r0, r4
   135e0:	ebfffe30 	bl	12ea8 <SYSTEM_$$_ROUNDANDPACKFLOAT64$BYTE$SMALLINT$LONGWORD$LONGWORD$LONGWORD$FLOAT64>
   135e4:	e91ba8f0 	ldmdb	fp, {r4, r5, r6, r7, fp, sp, pc}

000135e8 <SYSTEM_$$_NORMALIZEROUNDANDPACKFLOAT64$BYTE$SMALLINT$QWORD$$FLOAT64>:
   135e8:	e1a0c00d 	mov	ip, sp
   135ec:	e92dd9f8 	push	{r3, r4, r5, r6, r7, r8, fp, ip, lr, pc}
   135f0:	e24cb004 	sub	fp, ip, #4
   135f4:	e24dd038 	sub	sp, sp, #56	; 0x38
   135f8:	e1a04000 	mov	r4, r0
   135fc:	e1a05001 	mov	r5, r1
   13600:	e1a06002 	mov	r6, r2
   13604:	e59b7004 	ldr	r7, [fp, #4]
   13608:	e59b8008 	ldr	r8, [fp, #8]
   1360c:	e1a01008 	mov	r1, r8
   13610:	e1a00007 	mov	r0, r7
   13614:	ebfffa0e 	bl	11e54 <SYSTEM_$$_COUNTLEADINGZEROS64$QWORD$$SHORTINT>
   13618:	e2400001 	sub	r0, r0, #1
   1361c:	e6af0070 	sxtb	r0, r0
   13620:	e1a01000 	mov	r1, r0
   13624:	e3510040 	cmp	r1, #64	; 0x40
   13628:	23a01040 	movcs	r1, #64	; 0x40
   1362c:	e261c020 	rsb	ip, r1, #32
   13630:	e1a02118 	lsl	r2, r8, r1
   13634:	e1a03117 	lsl	r3, r7, r1
   13638:	e1822c37 	orr	r2, r2, r7, lsr ip
   1363c:	e251c020 	subs	ip, r1, #32
   13640:	51a02c17 	lslpl	r2, r7, ip
   13644:	e58d2004 	str	r2, [sp, #4]
   13648:	e58d3000 	str	r3, [sp]
   1364c:	e0460000 	sub	r0, r6, r0
   13650:	e6bf2070 	sxth	r2, r0
   13654:	e1a00004 	mov	r0, r4
   13658:	e1a01005 	mov	r1, r5
   1365c:	ebfffeeb 	bl	13210 <SYSTEM_$$_ROUNDANDPACKFLOAT64$BYTE$SMALLINT$QWORD$$FLOAT64>
   13660:	e91ba9f8 	ldmdb	fp, {r3, r4, r5, r6, r7, r8, fp, sp, pc}

00013664 <int32_to_float32>:
   13664:	e92d4008 	push	{r3, lr}
   13668:	e24dd008 	sub	sp, sp, #8
   1366c:	e1b02000 	movs	r2, r0
   13670:	03a00000 	moveq	r0, #0
   13674:	058d0000 	streq	r0, [sp]
   13678:	0a00000b 	beq	136ac <int32_to_float32+0x48>
   1367c:	e3520102 	cmp	r2, #-2147483648	; 0x80000000
   13680:	03a004cf 	moveq	r0, #-822083584	; 0xcf000000
   13684:	058d0000 	streq	r0, [sp]
   13688:	0a000007 	beq	136ac <int32_to_float32+0x48>
   1368c:	e3520000 	cmp	r2, #0
   13690:	b3a00001 	movlt	r0, #1
   13694:	a3a00000 	movge	r0, #0
   13698:	e3500000 	cmp	r0, #0
   1369c:	12622000 	rsbne	r2, r2, #0
   136a0:	e3a0109c 	mov	r1, #156	; 0x9c
   136a4:	ebfffd64 	bl	12c3c <SYSTEM_$$_NORMALIZEROUNDANDPACKFLOAT32$BYTE$SMALLINT$LONGWORD$$LONGWORD>
   136a8:	e58d0000 	str	r0, [sp]
   136ac:	e49d0008 	ldr	r0, [sp], #8
   136b0:	e8bd8008 	pop	{r3, pc}

000136b4 <int32_to_float64>:
   136b4:	e1a0c00d 	mov	ip, sp
   136b8:	e92dd8f0 	push	{r4, r5, r6, r7, fp, ip, lr, pc}
   136bc:	e24cb004 	sub	fp, ip, #4
   136c0:	e24dd038 	sub	sp, sp, #56	; 0x38
   136c4:	e1a04000 	mov	r4, r0
   136c8:	e1b05001 	movs	r5, r1
   136cc:	1a000007 	bne	136f0 <int32_to_float64+0x3c>
   136d0:	e1a00004 	mov	r0, r4
   136d4:	e58d0000 	str	r0, [sp]
   136d8:	e3a03000 	mov	r3, #0
   136dc:	e3a02000 	mov	r2, #0
   136e0:	e3a01000 	mov	r1, #0
   136e4:	e3a00000 	mov	r0, #0
   136e8:	ebfffdc9 	bl	12e14 <SYSTEM_$$_PACKFLOAT64$BYTE$SMALLINT$LONGWORD$LONGWORD$FLOAT64>
   136ec:	ea000021 	b	13778 <int32_to_float64+0xc4>
   136f0:	e3550000 	cmp	r5, #0
   136f4:	b3a06001 	movlt	r6, #1
   136f8:	a3a06000 	movge	r6, #0
   136fc:	e3560000 	cmp	r6, #0
   13700:	12657000 	rsbne	r7, r5, #0
   13704:	01a07005 	moveq	r7, r5
   13708:	e1a00007 	mov	r0, r7
   1370c:	ebfff9be 	bl	11e0c <SYSTEM_$$_COUNTLEADINGZEROS32$LONGWORD$$SHORTINT>
   13710:	e240000b 	sub	r0, r0, #11
   13714:	e6af5070 	sxtb	r5, r0
   13718:	e3550000 	cmp	r5, #0
   1371c:	ba000004 	blt	13734 <int32_to_float64+0x80>
   13720:	e1a00517 	lsl	r0, r7, r5
   13724:	e50b0030 	str	r0, [fp, #-48]	; 0xffffffd0
   13728:	e3a00000 	mov	r0, #0
   1372c:	e50b0034 	str	r0, [fp, #-52]	; 0xffffffcc
   13730:	ea000007 	b	13754 <int32_to_float64+0xa0>
   13734:	e24b0034 	sub	r0, fp, #52	; 0x34
   13738:	e58d0000 	str	r0, [sp]
   1373c:	e2650000 	rsb	r0, r5, #0
   13740:	e6bf2070 	sxth	r2, r0
   13744:	e24b3030 	sub	r3, fp, #48	; 0x30
   13748:	e1a00007 	mov	r0, r7
   1374c:	e3a01000 	mov	r1, #0
   13750:	ebfff47b 	bl	10944 <SYSTEM_$$_SHIFT64RIGHT$LONGWORD$LONGWORD$SMALLINT$LONGWORD$LONGWORD>
   13754:	e58d4000 	str	r4, [sp]
   13758:	e3a00012 	mov	r0, #18
   1375c:	e3800b01 	orr	r0, r0, #1024	; 0x400
   13760:	e0400005 	sub	r0, r0, r5
   13764:	e6bf1070 	sxth	r1, r0
   13768:	e51b3034 	ldr	r3, [fp, #-52]	; 0xffffffcc
   1376c:	e51b2030 	ldr	r2, [fp, #-48]	; 0xffffffd0
   13770:	e1a00006 	mov	r0, r6
   13774:	ebfffda6 	bl	12e14 <SYSTEM_$$_PACKFLOAT64$BYTE$SMALLINT$LONGWORD$LONGWORD$FLOAT64>
   13778:	e91ba8f0 	ldmdb	fp, {r4, r5, r6, r7, fp, sp, pc}

0001377c <float32_to_int32>:
   1377c:	e92d43f8 	push	{r3, r4, r5, r6, r7, r8, r9, lr}
   13780:	e1a01000 	mov	r1, r0
   13784:	e1a04481 	lsl	r4, r1, #9
   13788:	e1a044a4 	lsr	r4, r4, #9
   1378c:	e1a01ba0 	lsr	r1, r0, #23
   13790:	e20110ff 	and	r1, r1, #255	; 0xff
   13794:	e6bf5071 	sxth	r5, r1
   13798:	e1a06fa0 	lsr	r6, r0, #31
   1379c:	e2451096 	sub	r1, r5, #150	; 0x96
   137a0:	e6bf7071 	sxth	r7, r1
   137a4:	e3570000 	cmp	r7, #0
   137a8:	ba000015 	blt	13804 <float32_to_int32+0x88>
   137ac:	e355009e 	cmp	r5, #158	; 0x9e
   137b0:	ba00000d 	blt	137ec <float32_to_int32+0x70>
   137b4:	e35004cf 	cmp	r0, #-822083584	; 0xcf000000
   137b8:	0a000009 	beq	137e4 <float32_to_int32+0x68>
   137bc:	e3a00000 	mov	r0, #0
   137c0:	eb002156 	bl	1bd20 <SYSTEM_$$_FLOAT_RAISE$TFPUEXCEPTION>
   137c4:	e3560000 	cmp	r6, #0
   137c8:	0a000003 	beq	137dc <float32_to_int32+0x60>
   137cc:	e35500ff 	cmp	r5, #255	; 0xff
   137d0:	1a000003 	bne	137e4 <float32_to_int32+0x68>
   137d4:	e3540000 	cmp	r4, #0
   137d8:	0a000001 	beq	137e4 <float32_to_int32+0x68>
   137dc:	e3e09102 	mvn	r9, #-2147483648	; 0x80000000
   137e0:	ea00003b 	b	138d4 <float32_to_int32+0x158>
   137e4:	e3a09102 	mov	r9, #-2147483648	; 0x80000000
   137e8:	ea000039 	b	138d4 <float32_to_int32+0x158>
   137ec:	e3840502 	orr	r0, r4, #8388608	; 0x800000
   137f0:	e1a08710 	lsl	r8, r0, r7
   137f4:	e3560000 	cmp	r6, #0
   137f8:	0a000034 	beq	138d0 <float32_to_int32+0x154>
   137fc:	e2688000 	rsb	r8, r8, #0
   13800:	ea000032 	b	138d0 <float32_to_int32+0x154>
   13804:	e355007e 	cmp	r5, #126	; 0x7e
   13808:	b1845005 	orrlt	r5, r4, r5
   1380c:	b3a08000 	movlt	r8, #0
   13810:	ba000004 	blt	13828 <float32_to_int32+0xac>
   13814:	e3844502 	orr	r4, r4, #8388608	; 0x800000
   13818:	e207001f 	and	r0, r7, #31
   1381c:	e1a05014 	lsl	r5, r4, r0
   13820:	e2670000 	rsb	r0, r7, #0
   13824:	e1a08034 	lsr	r8, r4, r0
   13828:	e3550000 	cmp	r5, #0
   1382c:	0a000000 	beq	13834 <float32_to_int32+0xb8>
   13830:	ebfff265 	bl	101cc <SYSTEM_$$_SET_INEXACT_FLAG>
   13834:	e59f00a0 	ldr	r0, [pc, #160]	; 138dc <float32_to_int32+0x160>
   13838:	e5901000 	ldr	r1, [r0]
   1383c:	e3510000 	cmp	r1, #0
   13840:	0a000003 	beq	13854 <float32_to_int32+0xd8>
   13844:	e59f2094 	ldr	r2, [pc, #148]	; 138e0 <float32_to_int32+0x164>
   13848:	e5920000 	ldr	r0, [r2]
   1384c:	e12fff31 	blx	r1
   13850:	ea000000 	b	13858 <float32_to_int32+0xdc>
   13854:	e59f0088 	ldr	r0, [pc, #136]	; 138e4 <float32_to_int32+0x168>
   13858:	e5901000 	ldr	r1, [r0]
   1385c:	e3510000 	cmp	r1, #0
   13860:	1a000008 	bne	13888 <float32_to_int32+0x10c>
   13864:	e3550000 	cmp	r5, #0
   13868:	aa000002 	bge	13878 <float32_to_int32+0xfc>
   1386c:	e2888001 	add	r8, r8, #1
   13870:	e1b00085 	lsls	r0, r5, #1
   13874:	03c88001 	biceq	r8, r8, #1
   13878:	e3560000 	cmp	r6, #0
   1387c:	0a000013 	beq	138d0 <float32_to_int32+0x154>
   13880:	e2688000 	rsb	r8, r8, #0
   13884:	ea000011 	b	138d0 <float32_to_int32+0x154>
   13888:	e3550000 	cmp	r5, #0
   1388c:	13a00001 	movne	r0, #1
   13890:	03a00000 	moveq	r0, #0
   13894:	e1a05000 	mov	r5, r0
   13898:	e3560000 	cmp	r6, #0
   1389c:	0a000006 	beq	138bc <float32_to_int32+0x140>
   138a0:	e3510001 	cmp	r1, #1
   138a4:	03a00001 	moveq	r0, #1
   138a8:	13a00000 	movne	r0, #0
   138ac:	e0050000 	and	r0, r5, r0
   138b0:	e0888000 	add	r8, r8, r0
   138b4:	e2688000 	rsb	r8, r8, #0
   138b8:	ea000004 	b	138d0 <float32_to_int32+0x154>
   138bc:	e3510002 	cmp	r1, #2
   138c0:	03a00001 	moveq	r0, #1
   138c4:	13a00000 	movne	r0, #0
   138c8:	e0050000 	and	r0, r5, r0
   138cc:	e0888000 	add	r8, r8, r0
   138d0:	e1a09008 	mov	r9, r8
   138d4:	e1a00009 	mov	r0, r9
   138d8:	e8bd83f8 	pop	{r3, r4, r5, r6, r7, r8, r9, pc}
   138dc:	00052b90 	muleq	r5, r0, fp
   138e0:	00051e50 	andeq	r1, r5, r0, asr lr
   138e4:	00051e54 	andeq	r1, r5, r4, asr lr

000138e8 <float32_to_int32_round_to_zero>:
   138e8:	e92d41f0 	push	{r4, r5, r6, r7, r8, lr}
   138ec:	e1a01000 	mov	r1, r0
   138f0:	e1a04481 	lsl	r4, r1, #9
   138f4:	e1a044a4 	lsr	r4, r4, #9
   138f8:	e1a01ba0 	lsr	r1, r0, #23
   138fc:	e20110ff 	and	r1, r1, #255	; 0xff
   13900:	e6bf5071 	sxth	r5, r1
   13904:	e1a06fa0 	lsr	r6, r0, #31
   13908:	e245109e 	sub	r1, r5, #158	; 0x9e
   1390c:	e6bf7071 	sxth	r7, r1
   13910:	e3570000 	cmp	r7, #0
   13914:	ba00000d 	blt	13950 <float32_to_int32_round_to_zero+0x68>
   13918:	e35004cf 	cmp	r0, #-822083584	; 0xcf000000
   1391c:	0a000009 	beq	13948 <float32_to_int32_round_to_zero+0x60>
   13920:	e3a00000 	mov	r0, #0
   13924:	eb0020fd 	bl	1bd20 <SYSTEM_$$_FLOAT_RAISE$TFPUEXCEPTION>
   13928:	e3560000 	cmp	r6, #0
   1392c:	0a000003 	beq	13940 <float32_to_int32_round_to_zero+0x58>
   13930:	e35500ff 	cmp	r5, #255	; 0xff
   13934:	1a000003 	bne	13948 <float32_to_int32_round_to_zero+0x60>
   13938:	e3540000 	cmp	r4, #0
   1393c:	0a000001 	beq	13948 <float32_to_int32_round_to_zero+0x60>
   13940:	e3e08102 	mvn	r8, #-2147483648	; 0x80000000
   13944:	ea000019 	b	139b0 <float32_to_int32_round_to_zero+0xc8>
   13948:	e3a08102 	mov	r8, #-2147483648	; 0x80000000
   1394c:	ea000017 	b	139b0 <float32_to_int32_round_to_zero+0xc8>
   13950:	e355007e 	cmp	r5, #126	; 0x7e
   13954:	ca00000a 	bgt	13984 <float32_to_int32_round_to_zero+0x9c>
   13958:	e6bf1075 	sxth	r1, r5
   1395c:	e1a02fc1 	asr	r2, r1, #31
   13960:	e1a00004 	mov	r0, r4
   13964:	e3a03000 	mov	r3, #0
   13968:	e1811000 	orr	r1, r1, r0
   1396c:	e1820003 	orr	r0, r2, r3
   13970:	e1910000 	orrs	r0, r1, r0
   13974:	0a000000 	beq	1397c <float32_to_int32_round_to_zero+0x94>
   13978:	ebfff213 	bl	101cc <SYSTEM_$$_SET_INEXACT_FLAG>
   1397c:	e3a08000 	mov	r8, #0
   13980:	ea00000a 	b	139b0 <float32_to_int32_round_to_zero+0xc8>
   13984:	e3840502 	orr	r0, r4, #8388608	; 0x800000
   13988:	e1a00400 	lsl	r0, r0, #8
   1398c:	e2671000 	rsb	r1, r7, #0
   13990:	e1a04130 	lsr	r4, r0, r1
   13994:	e207101f 	and	r1, r7, #31
   13998:	e1b00110 	lsls	r0, r0, r1
   1399c:	0a000000 	beq	139a4 <float32_to_int32_round_to_zero+0xbc>
   139a0:	ebfff209 	bl	101cc <SYSTEM_$$_SET_INEXACT_FLAG>
   139a4:	e3560000 	cmp	r6, #0
   139a8:	12644000 	rsbne	r4, r4, #0
   139ac:	e1a08004 	mov	r8, r4
   139b0:	e1a00008 	mov	r0, r8
   139b4:	e8bd81f0 	pop	{r4, r5, r6, r7, r8, pc}

000139b8 <SYSTEM_$$_FLOAT32_TO_INT64$LONGWORD$$INT64>:
   139b8:	e1a0c00d 	mov	ip, sp
   139bc:	e92ddbf0 	push	{r4, r5, r6, r7, r8, r9, fp, ip, lr, pc}
   139c0:	e24cb004 	sub	fp, ip, #4
   139c4:	e24dd050 	sub	sp, sp, #80	; 0x50
   139c8:	e1a04480 	lsl	r4, r0, #9
   139cc:	e1a044a4 	lsr	r4, r4, #9
   139d0:	e1a01ba0 	lsr	r1, r0, #23
   139d4:	e20110ff 	and	r1, r1, #255	; 0xff
   139d8:	e6bf5071 	sxth	r5, r1
   139dc:	e1a06fa0 	lsr	r6, r0, #31
   139e0:	e3a000be 	mov	r0, #190	; 0xbe
   139e4:	e0400005 	sub	r0, r0, r5
   139e8:	e6bf7070 	sxth	r7, r0
   139ec:	e3570000 	cmp	r7, #0
   139f0:	aa00000d 	bge	13a2c <SYSTEM_$$_FLOAT32_TO_INT64$LONGWORD$$INT64+0x74>
   139f4:	e3a00000 	mov	r0, #0
   139f8:	eb0020c8 	bl	1bd20 <SYSTEM_$$_FLOAT_RAISE$TFPUEXCEPTION>
   139fc:	e3560000 	cmp	r6, #0
   13a00:	0a000003 	beq	13a14 <SYSTEM_$$_FLOAT32_TO_INT64$LONGWORD$$INT64+0x5c>
   13a04:	e35500ff 	cmp	r5, #255	; 0xff
   13a08:	1a000004 	bne	13a20 <SYSTEM_$$_FLOAT32_TO_INT64$LONGWORD$$INT64+0x68>
   13a0c:	e3540000 	cmp	r4, #0
   13a10:	0a000002 	beq	13a20 <SYSTEM_$$_FLOAT32_TO_INT64$LONGWORD$$INT64+0x68>
   13a14:	e3e08000 	mvn	r8, #0
   13a18:	e3e09102 	mvn	r9, #-2147483648	; 0x80000000
   13a1c:	ea000021 	b	13aa8 <SYSTEM_$$_FLOAT32_TO_INT64$LONGWORD$$INT64+0xf0>
   13a20:	e3a08000 	mov	r8, #0
   13a24:	e3a09102 	mov	r9, #-2147483648	; 0x80000000
   13a28:	ea00001e 	b	13aa8 <SYSTEM_$$_FLOAT32_TO_INT64$LONGWORD$$INT64+0xf0>
   13a2c:	e3550000 	cmp	r5, #0
   13a30:	13844502 	orrne	r4, r4, #8388608	; 0x800000
   13a34:	e3a00000 	mov	r0, #0
   13a38:	e50b4038 	str	r4, [fp, #-56]	; 0xffffffc8
   13a3c:	e50b0034 	str	r0, [fp, #-52]	; 0xffffffcc
   13a40:	e51b1038 	ldr	r1, [fp, #-56]	; 0xffffffc8
   13a44:	e51b0034 	ldr	r0, [fp, #-52]	; 0xffffffcc
   13a48:	e3a02000 	mov	r2, #0
   13a4c:	e1a00401 	lsl	r0, r1, #8
   13a50:	e50b2038 	str	r2, [fp, #-56]	; 0xffffffc8
   13a54:	e50b0034 	str	r0, [fp, #-52]	; 0xffffffcc
   13a58:	e24b0040 	sub	r0, fp, #64	; 0x40
   13a5c:	e58d0008 	str	r0, [sp, #8]
   13a60:	e24b0038 	sub	r0, fp, #56	; 0x38
   13a64:	e58d0004 	str	r0, [sp, #4]
   13a68:	e1cd70b0 	strh	r7, [sp]
   13a6c:	e51b1034 	ldr	r1, [fp, #-52]	; 0xffffffcc
   13a70:	e51b0038 	ldr	r0, [fp, #-56]	; 0xffffffc8
   13a74:	e3a03000 	mov	r3, #0
   13a78:	e3a02000 	mov	r2, #0
   13a7c:	eb00135c 	bl	187f4 <SYSTEM_$$_SHIFT64EXTRARIGHTJAMMING$QWORD$QWORD$SMALLINT$QWORD$QWORD>
   13a80:	e51b003c 	ldr	r0, [fp, #-60]	; 0xffffffc4
   13a84:	e58d0004 	str	r0, [sp, #4]
   13a88:	e51b0040 	ldr	r0, [fp, #-64]	; 0xffffffc0
   13a8c:	e58d0000 	str	r0, [sp]
   13a90:	e51b3034 	ldr	r3, [fp, #-52]	; 0xffffffcc
   13a94:	e51b2038 	ldr	r2, [fp, #-56]	; 0xffffffc8
   13a98:	e1a00006 	mov	r0, r6
   13a9c:	ebfff229 	bl	10348 <SYSTEM_$$_ROUNDANDPACKINT64$BYTE$QWORD$QWORD$$INT64>
   13aa0:	e1a08000 	mov	r8, r0
   13aa4:	e1a09001 	mov	r9, r1
   13aa8:	e1a01009 	mov	r1, r9
   13aac:	e1a00008 	mov	r0, r8
   13ab0:	e91babf0 	ldmdb	fp, {r4, r5, r6, r7, r8, r9, fp, sp, pc}

00013ab4 <SYSTEM_$$_FLOAT32_TO_INT64_ROUND_TO_ZERO$LONGWORD$$INT64>:
   13ab4:	e92d43f8 	push	{r3, r4, r5, r6, r7, r8, r9, lr}
   13ab8:	e1a05480 	lsl	r5, r0, #9
   13abc:	e1a054a5 	lsr	r5, r5, #9
   13ac0:	e1a01ba0 	lsr	r1, r0, #23
   13ac4:	e20110ff 	and	r1, r1, #255	; 0xff
   13ac8:	e6bf8071 	sxth	r8, r1
   13acc:	e1a06fa0 	lsr	r6, r0, #31
   13ad0:	e24810be 	sub	r1, r8, #190	; 0xbe
   13ad4:	e6bf4071 	sxth	r4, r1
   13ad8:	e3540000 	cmp	r4, #0
   13adc:	ba00000f 	blt	13b20 <SYSTEM_$$_FLOAT32_TO_INT64_ROUND_TO_ZERO$LONGWORD$$INT64+0x6c>
   13ae0:	e35004df 	cmp	r0, #-553648128	; 0xdf000000
   13ae4:	0a00000a 	beq	13b14 <SYSTEM_$$_FLOAT32_TO_INT64_ROUND_TO_ZERO$LONGWORD$$INT64+0x60>
   13ae8:	e3a00000 	mov	r0, #0
   13aec:	eb00208b 	bl	1bd20 <SYSTEM_$$_FLOAT_RAISE$TFPUEXCEPTION>
   13af0:	e3560000 	cmp	r6, #0
   13af4:	0a000003 	beq	13b08 <SYSTEM_$$_FLOAT32_TO_INT64_ROUND_TO_ZERO$LONGWORD$$INT64+0x54>
   13af8:	e35800ff 	cmp	r8, #255	; 0xff
   13afc:	1a000004 	bne	13b14 <SYSTEM_$$_FLOAT32_TO_INT64_ROUND_TO_ZERO$LONGWORD$$INT64+0x60>
   13b00:	e3550000 	cmp	r5, #0
   13b04:	0a000002 	beq	13b14 <SYSTEM_$$_FLOAT32_TO_INT64_ROUND_TO_ZERO$LONGWORD$$INT64+0x60>
   13b08:	e3e09000 	mvn	r9, #0
   13b0c:	e3e07102 	mvn	r7, #-2147483648	; 0x80000000
   13b10:	ea000030 	b	13bd8 <SYSTEM_$$_FLOAT32_TO_INT64_ROUND_TO_ZERO$LONGWORD$$INT64+0x124>
   13b14:	e3a09000 	mov	r9, #0
   13b18:	e3a07102 	mov	r7, #-2147483648	; 0x80000000
   13b1c:	ea00002d 	b	13bd8 <SYSTEM_$$_FLOAT32_TO_INT64_ROUND_TO_ZERO$LONGWORD$$INT64+0x124>
   13b20:	e358007e 	cmp	r8, #126	; 0x7e
   13b24:	ca00000b 	bgt	13b58 <SYSTEM_$$_FLOAT32_TO_INT64_ROUND_TO_ZERO$LONGWORD$$INT64+0xa4>
   13b28:	e6bf1078 	sxth	r1, r8
   13b2c:	e1a02fc1 	asr	r2, r1, #31
   13b30:	e1a00005 	mov	r0, r5
   13b34:	e3a03000 	mov	r3, #0
   13b38:	e1811000 	orr	r1, r1, r0
   13b3c:	e1820003 	orr	r0, r2, r3
   13b40:	e1910000 	orrs	r0, r1, r0
   13b44:	0a000000 	beq	13b4c <SYSTEM_$$_FLOAT32_TO_INT64_ROUND_TO_ZERO$LONGWORD$$INT64+0x98>
   13b48:	ebfff19f 	bl	101cc <SYSTEM_$$_SET_INEXACT_FLAG>
   13b4c:	e3a09000 	mov	r9, #0
   13b50:	e3a07000 	mov	r7, #0
   13b54:	ea00001f 	b	13bd8 <SYSTEM_$$_FLOAT32_TO_INT64_ROUND_TO_ZERO$LONGWORD$$INT64+0x124>
   13b58:	e3850502 	orr	r0, r5, #8388608	; 0x800000
   13b5c:	e3a01000 	mov	r1, #0
   13b60:	e1a00400 	lsl	r0, r0, #8
   13b64:	e2642000 	rsb	r2, r4, #0
   13b68:	e3520040 	cmp	r2, #64	; 0x40
   13b6c:	23a02040 	movcs	r2, #64	; 0x40
   13b70:	e2623020 	rsb	r3, r2, #32
   13b74:	e1a05231 	lsr	r5, r1, r2
   13b78:	e1a08230 	lsr	r8, r0, r2
   13b7c:	e1855310 	orr	r5, r5, r0, lsl r3
   13b80:	e2523020 	subs	r3, r2, #32
   13b84:	51a05330 	lsrpl	r5, r0, r3
   13b88:	e204203f 	and	r2, r4, #63	; 0x3f
   13b8c:	e3520040 	cmp	r2, #64	; 0x40
   13b90:	23a02040 	movcs	r2, #64	; 0x40
   13b94:	e262c020 	rsb	ip, r2, #32
   13b98:	e1a00210 	lsl	r0, r0, r2
   13b9c:	e1a03211 	lsl	r3, r1, r2
   13ba0:	e1800c31 	orr	r0, r0, r1, lsr ip
   13ba4:	e252c020 	subs	ip, r2, #32
   13ba8:	51a00c11 	lslpl	r0, r1, ip
   13bac:	e1930000 	orrs	r0, r3, r0
   13bb0:	0a000000 	beq	13bb8 <SYSTEM_$$_FLOAT32_TO_INT64_ROUND_TO_ZERO$LONGWORD$$INT64+0x104>
   13bb4:	ebfff184 	bl	101cc <SYSTEM_$$_SET_INEXACT_FLAG>
   13bb8:	e3560000 	cmp	r6, #0
   13bbc:	0a000003 	beq	13bd0 <SYSTEM_$$_FLOAT32_TO_INT64_ROUND_TO_ZERO$LONGWORD$$INT64+0x11c>
   13bc0:	e2750000 	rsbs	r0, r5, #0
   13bc4:	e2e81000 	rsc	r1, r8, #0
   13bc8:	e1a05000 	mov	r5, r0
   13bcc:	e1a08001 	mov	r8, r1
   13bd0:	e1a09005 	mov	r9, r5
   13bd4:	e1a07008 	mov	r7, r8
   13bd8:	e1a01007 	mov	r1, r7
   13bdc:	e1a00009 	mov	r0, r9
   13be0:	e8bd83f8 	pop	{r3, r4, r5, r6, r7, r8, r9, pc}

00013be4 <float32_to_float64>:
   13be4:	e1a0c00d 	mov	ip, sp
   13be8:	e92dd830 	push	{r4, r5, fp, ip, lr, pc}
   13bec:	e24cb004 	sub	fp, ip, #4
   13bf0:	e24dd050 	sub	sp, sp, #80	; 0x50
   13bf4:	e1a04000 	mov	r4, r0
   13bf8:	e1a00001 	mov	r0, r1
   13bfc:	e1a01480 	lsl	r1, r0, #9
   13c00:	e1a014a1 	lsr	r1, r1, #9
   13c04:	e50b1034 	str	r1, [fp, #-52]	; 0xffffffcc
   13c08:	e1a01ba0 	lsr	r1, r0, #23
   13c0c:	e20110ff 	and	r1, r1, #255	; 0xff
   13c10:	e6bf1071 	sxth	r1, r1
   13c14:	e14b13b0 	strh	r1, [fp, #-48]	; 0xffffffd0
   13c18:	e1a05fa0 	lsr	r5, r0, #31
   13c1c:	e15b13f0 	ldrsh	r1, [fp, #-48]	; 0xffffffd0
   13c20:	e35100ff 	cmp	r1, #255	; 0xff
   13c24:	1a000013 	bne	13c78 <float32_to_float64+0x94>
   13c28:	e51b1034 	ldr	r1, [fp, #-52]	; 0xffffffcc
   13c2c:	e3510000 	cmp	r1, #0
   13c30:	0a000007 	beq	13c54 <float32_to_float64+0x70>
   13c34:	e24b1048 	sub	r1, fp, #72	; 0x48
   13c38:	ebfff8bd 	bl	11f34 <SYSTEM_$$_FLOAT32TOCOMMONNAN$LONGWORD$COMMONNANT>
   13c3c:	e1a03004 	mov	r3, r4
   13c40:	e51b0048 	ldr	r0, [fp, #-72]	; 0xffffffb8
   13c44:	e51b1044 	ldr	r1, [fp, #-68]	; 0xffffffbc
   13c48:	e51b2040 	ldr	r2, [fp, #-64]	; 0xffffffc0
   13c4c:	ebfff96e 	bl	1220c <SYSTEM_$$_COMMONNANTOFLOAT64$COMMONNANT$FLOAT64>
   13c50:	ea00002d 	b	13d0c <float32_to_float64+0x128>
   13c54:	e1a00004 	mov	r0, r4
   13c58:	e58d0000 	str	r0, [sp]
   13c5c:	e3a010ff 	mov	r1, #255	; 0xff
   13c60:	e3811c07 	orr	r1, r1, #1792	; 0x700
   13c64:	e1a00005 	mov	r0, r5
   13c68:	e3a03000 	mov	r3, #0
   13c6c:	e3a02000 	mov	r2, #0
   13c70:	ebfffc67 	bl	12e14 <SYSTEM_$$_PACKFLOAT64$BYTE$SMALLINT$LONGWORD$LONGWORD$FLOAT64>
   13c74:	ea000024 	b	13d0c <float32_to_float64+0x128>
   13c78:	e15b03f0 	ldrsh	r0, [fp, #-48]	; 0xffffffd0
   13c7c:	e3500000 	cmp	r0, #0
   13c80:	1a000012 	bne	13cd0 <float32_to_float64+0xec>
   13c84:	e51b0034 	ldr	r0, [fp, #-52]	; 0xffffffcc
   13c88:	e3500000 	cmp	r0, #0
   13c8c:	1a000007 	bne	13cb0 <float32_to_float64+0xcc>
   13c90:	e1a00004 	mov	r0, r4
   13c94:	e58d0000 	str	r0, [sp]
   13c98:	e1a00005 	mov	r0, r5
   13c9c:	e3a03000 	mov	r3, #0
   13ca0:	e3a02000 	mov	r2, #0
   13ca4:	e3a01000 	mov	r1, #0
   13ca8:	ebfffc59 	bl	12e14 <SYSTEM_$$_PACKFLOAT64$BYTE$SMALLINT$LONGWORD$LONGWORD$FLOAT64>
   13cac:	ea000016 	b	13d0c <float32_to_float64+0x128>
   13cb0:	e24b2034 	sub	r2, fp, #52	; 0x34
   13cb4:	e24b1030 	sub	r1, fp, #48	; 0x30
   13cb8:	e51b0034 	ldr	r0, [fp, #-52]	; 0xffffffcc
   13cbc:	ebfffb56 	bl	12a1c <SYSTEM_$$_NORMALIZEFLOAT32SUBNORMAL$LONGWORD$SMALLINT$LONGWORD>
   13cc0:	e15b03f0 	ldrsh	r0, [fp, #-48]	; 0xffffffd0
   13cc4:	e2400001 	sub	r0, r0, #1
   13cc8:	e6bf0070 	sxth	r0, r0
   13ccc:	e14b03b0 	strh	r0, [fp, #-48]	; 0xffffffd0
   13cd0:	e24b003c 	sub	r0, fp, #60	; 0x3c
   13cd4:	e58d0000 	str	r0, [sp]
   13cd8:	e24b3038 	sub	r3, fp, #56	; 0x38
   13cdc:	e51b0034 	ldr	r0, [fp, #-52]	; 0xffffffcc
   13ce0:	e3a02003 	mov	r2, #3
   13ce4:	e3a01000 	mov	r1, #0
   13ce8:	ebfff315 	bl	10944 <SYSTEM_$$_SHIFT64RIGHT$LONGWORD$LONGWORD$SMALLINT$LONGWORD$LONGWORD>
   13cec:	e58d4000 	str	r4, [sp]
   13cf0:	e15b03f0 	ldrsh	r0, [fp, #-48]	; 0xffffffd0
   13cf4:	e2800d0e 	add	r0, r0, #896	; 0x380
   13cf8:	e6bf1070 	sxth	r1, r0
   13cfc:	e51b303c 	ldr	r3, [fp, #-60]	; 0xffffffc4
   13d00:	e51b2038 	ldr	r2, [fp, #-56]	; 0xffffffc8
   13d04:	e1a00005 	mov	r0, r5
   13d08:	ebfffc41 	bl	12e14 <SYSTEM_$$_PACKFLOAT64$BYTE$SMALLINT$LONGWORD$LONGWORD$FLOAT64>
   13d0c:	e91ba830 	ldmdb	fp, {r4, r5, fp, sp, pc}

00013d10 <float32_round_to_int>:
   13d10:	e92d40f8 	push	{r3, r4, r5, r6, r7, lr}
   13d14:	e24dd008 	sub	sp, sp, #8
   13d18:	e1a04000 	mov	r4, r0
   13d1c:	e1a00ba4 	lsr	r0, r4, #23
   13d20:	e20000ff 	and	r0, r0, #255	; 0xff
   13d24:	e6bf5070 	sxth	r5, r0
   13d28:	e3550096 	cmp	r5, #150	; 0x96
   13d2c:	ba00000b 	blt	13d60 <float32_round_to_int+0x50>
   13d30:	e35500ff 	cmp	r5, #255	; 0xff
   13d34:	1a000007 	bne	13d58 <float32_round_to_int+0x48>
   13d38:	e1a00484 	lsl	r0, r4, #9
   13d3c:	e1b004a0 	lsrs	r0, r0, #9
   13d40:	0a000004 	beq	13d58 <float32_round_to_int+0x48>
   13d44:	e1a01004 	mov	r1, r4
   13d48:	e1a00004 	mov	r0, r4
   13d4c:	ebfff89d 	bl	11fc8 <SYSTEM_$$_PROPAGATEFLOAT32NAN$LONGWORD$LONGWORD$$LONGWORD>
   13d50:	e58d0000 	str	r0, [sp]
   13d54:	ea00005a 	b	13ec4 <float32_round_to_int+0x1b4>
   13d58:	e58d4000 	str	r4, [sp]
   13d5c:	ea000058 	b	13ec4 <float32_round_to_int+0x1b4>
   13d60:	e355007e 	cmp	r5, #126	; 0x7e
   13d64:	ca000030 	bgt	13e2c <float32_round_to_int+0x11c>
   13d68:	e1b00084 	lsls	r0, r4, #1
   13d6c:	058d4000 	streq	r4, [sp]
   13d70:	0a000053 	beq	13ec4 <float32_round_to_int+0x1b4>
   13d74:	ebfff114 	bl	101cc <SYSTEM_$$_SET_INEXACT_FLAG>
   13d78:	e1a06fa4 	lsr	r6, r4, #31
   13d7c:	e59f0148 	ldr	r0, [pc, #328]	; 13ecc <float32_round_to_int+0x1bc>
   13d80:	e5902000 	ldr	r2, [r0]
   13d84:	e3520000 	cmp	r2, #0
   13d88:	0a000003 	beq	13d9c <float32_round_to_int+0x8c>
   13d8c:	e59f113c 	ldr	r1, [pc, #316]	; 13ed0 <float32_round_to_int+0x1c0>
   13d90:	e5910000 	ldr	r0, [r1]
   13d94:	e12fff32 	blx	r2
   13d98:	ea000000 	b	13da0 <float32_round_to_int+0x90>
   13d9c:	e59f0130 	ldr	r0, [pc, #304]	; 13ed4 <float32_round_to_int+0x1c4>
   13da0:	e5900000 	ldr	r0, [r0]
   13da4:	e3500000 	cmp	r0, #0
   13da8:	0a000004 	beq	13dc0 <float32_round_to_int+0xb0>
   13dac:	e2500001 	subs	r0, r0, #1
   13db0:	0a00000b 	beq	13de4 <float32_round_to_int+0xd4>
   13db4:	e2500001 	subs	r0, r0, #1
   13db8:	0a000011 	beq	13e04 <float32_round_to_int+0xf4>
   13dbc:	ea000017 	b	13e20 <float32_round_to_int+0x110>
   13dc0:	e355007e 	cmp	r5, #126	; 0x7e
   13dc4:	1a000015 	bne	13e20 <float32_round_to_int+0x110>
   13dc8:	e1a00484 	lsl	r0, r4, #9
   13dcc:	e1b004a0 	lsrs	r0, r0, #9
   13dd0:	0a000012 	beq	13e20 <float32_round_to_int+0x110>
   13dd4:	e1a00f86 	lsl	r0, r6, #31
   13dd8:	e28005fe 	add	r0, r0, #1065353216	; 0x3f800000
   13ddc:	e58d0000 	str	r0, [sp]
   13de0:	ea000037 	b	13ec4 <float32_round_to_int+0x1b4>
   13de4:	e3560000 	cmp	r6, #0
   13de8:	13a00102 	movne	r0, #-2147483648	; 0x80000000
   13dec:	138005fe 	orrne	r0, r0, #1065353216	; 0x3f800000
   13df0:	158d0000 	strne	r0, [sp]
   13df4:	1a000032 	bne	13ec4 <float32_round_to_int+0x1b4>
   13df8:	e3a00000 	mov	r0, #0
   13dfc:	e58d0000 	str	r0, [sp]
   13e00:	ea00002f 	b	13ec4 <float32_round_to_int+0x1b4>
   13e04:	e3560000 	cmp	r6, #0
   13e08:	13a00102 	movne	r0, #-2147483648	; 0x80000000
   13e0c:	158d0000 	strne	r0, [sp]
   13e10:	1a00002b 	bne	13ec4 <float32_round_to_int+0x1b4>
   13e14:	e3a005fe 	mov	r0, #1065353216	; 0x3f800000
   13e18:	e58d0000 	str	r0, [sp]
   13e1c:	ea000028 	b	13ec4 <float32_round_to_int+0x1b4>
   13e20:	e1a00f86 	lsl	r0, r6, #31
   13e24:	e58d0000 	str	r0, [sp]
   13e28:	ea000025 	b	13ec4 <float32_round_to_int+0x1b4>
   13e2c:	e3a01001 	mov	r1, #1
   13e30:	e3a00096 	mov	r0, #150	; 0x96
   13e34:	e0400005 	sub	r0, r0, r5
   13e38:	e1a05011 	lsl	r5, r1, r0
   13e3c:	e2456001 	sub	r6, r5, #1
   13e40:	e1a07004 	mov	r7, r4
   13e44:	e59f0080 	ldr	r0, [pc, #128]	; 13ecc <float32_round_to_int+0x1bc>
   13e48:	e5901000 	ldr	r1, [r0]
   13e4c:	e3510000 	cmp	r1, #0
   13e50:	0a000003 	beq	13e64 <float32_round_to_int+0x154>
   13e54:	e59f2074 	ldr	r2, [pc, #116]	; 13ed0 <float32_round_to_int+0x1c0>
   13e58:	e5920000 	ldr	r0, [r2]
   13e5c:	e12fff31 	blx	r1
   13e60:	ea000000 	b	13e68 <float32_round_to_int+0x158>
   13e64:	e59f0068 	ldr	r0, [pc, #104]	; 13ed4 <float32_round_to_int+0x1c4>
   13e68:	e5901000 	ldr	r1, [r0]
   13e6c:	e3510000 	cmp	r1, #0
   13e70:	1a000005 	bne	13e8c <float32_round_to_int+0x17c>
   13e74:	e08770a5 	add	r7, r7, r5, lsr #1
   13e78:	e0160007 	ands	r0, r6, r7
   13e7c:	1a00000a 	bne	13eac <float32_round_to_int+0x19c>
   13e80:	e1e00005 	mvn	r0, r5
   13e84:	e0077000 	and	r7, r7, r0
   13e88:	ea000007 	b	13eac <float32_round_to_int+0x19c>
   13e8c:	e3510003 	cmp	r1, #3
   13e90:	0a000005 	beq	13eac <float32_round_to_int+0x19c>
   13e94:	e1a00fa7 	lsr	r0, r7, #31
   13e98:	e3510002 	cmp	r1, #2
   13e9c:	03a01001 	moveq	r1, #1
   13ea0:	13a01000 	movne	r1, #0
   13ea4:	e0310000 	eors	r0, r1, r0
   13ea8:	10867007 	addne	r7, r6, r7
   13eac:	e1e00006 	mvn	r0, r6
   13eb0:	e0075000 	and	r5, r7, r0
   13eb4:	e1540005 	cmp	r4, r5
   13eb8:	0a000000 	beq	13ec0 <float32_round_to_int+0x1b0>
   13ebc:	ebfff0c2 	bl	101cc <SYSTEM_$$_SET_INEXACT_FLAG>
   13ec0:	e58d5000 	str	r5, [sp]
   13ec4:	e49d0008 	ldr	r0, [sp], #8
   13ec8:	e8bd80f8 	pop	{r3, r4, r5, r6, r7, pc}
   13ecc:	00052b90 	muleq	r5, r0, fp
   13ed0:	00051e50 	andeq	r1, r5, r0, asr lr
   13ed4:	00051e54 	andeq	r1, r5, r4, asr lr

00013ed8 <SYSTEM_$$_ADDFLOAT32SIGS$LONGWORD$LONGWORD$BYTE$$LONGWORD>:
   13ed8:	e92d4ff8 	push	{r3, r4, r5, r6, r7, r8, r9, sl, fp, lr}
   13edc:	e24dd010 	sub	sp, sp, #16
   13ee0:	e1a07000 	mov	r7, r0
   13ee4:	e1a08001 	mov	r8, r1
   13ee8:	e1a09002 	mov	r9, r2
   13eec:	e1a00487 	lsl	r0, r7, #9
   13ef0:	e1a004a0 	lsr	r0, r0, #9
   13ef4:	e58d0000 	str	r0, [sp]
   13ef8:	e1a00ba7 	lsr	r0, r7, #23
   13efc:	e20000ff 	and	r0, r0, #255	; 0xff
   13f00:	e6bf0070 	sxth	r0, r0
   13f04:	e1a06000 	mov	r6, r0
   13f08:	e1a00488 	lsl	r0, r8, #9
   13f0c:	e1a004a0 	lsr	r0, r0, #9
   13f10:	e58d0004 	str	r0, [sp, #4]
   13f14:	e1a00ba8 	lsr	r0, r8, #23
   13f18:	e20000ff 	and	r0, r0, #255	; 0xff
   13f1c:	e6bf0070 	sxth	r0, r0
   13f20:	e1a05000 	mov	r5, r0
   13f24:	e0460005 	sub	r0, r6, r5
   13f28:	e6bf0070 	sxth	r0, r0
   13f2c:	e1a04000 	mov	r4, r0
   13f30:	e59d0000 	ldr	r0, [sp]
   13f34:	e1a00300 	lsl	r0, r0, #6
   13f38:	e58d0000 	str	r0, [sp]
   13f3c:	e59d0004 	ldr	r0, [sp, #4]
   13f40:	e1a00300 	lsl	r0, r0, #6
   13f44:	e58d0004 	str	r0, [sp, #4]
   13f48:	e3540000 	cmp	r4, #0
   13f4c:	da000017 	ble	13fb0 <SYSTEM_$$_ADDFLOAT32SIGS$LONGWORD$LONGWORD$BYTE$$LONGWORD+0xd8>
   13f50:	e35600ff 	cmp	r6, #255	; 0xff
   13f54:	1a000009 	bne	13f80 <SYSTEM_$$_ADDFLOAT32SIGS$LONGWORD$LONGWORD$BYTE$$LONGWORD+0xa8>
   13f58:	e59d0000 	ldr	r0, [sp]
   13f5c:	e3500000 	cmp	r0, #0
   13f60:	0a000004 	beq	13f78 <SYSTEM_$$_ADDFLOAT32SIGS$LONGWORD$LONGWORD$BYTE$$LONGWORD+0xa0>
   13f64:	e1a01008 	mov	r1, r8
   13f68:	e1a00007 	mov	r0, r7
   13f6c:	ebfff815 	bl	11fc8 <SYSTEM_$$_PROPAGATEFLOAT32NAN$LONGWORD$LONGWORD$$LONGWORD>
   13f70:	e58d0008 	str	r0, [sp, #8]
   13f74:	ea00005a 	b	140e4 <SYSTEM_$$_ADDFLOAT32SIGS$LONGWORD$LONGWORD$BYTE$$LONGWORD+0x20c>
   13f78:	e58d7008 	str	r7, [sp, #8]
   13f7c:	ea000058 	b	140e4 <SYSTEM_$$_ADDFLOAT32SIGS$LONGWORD$LONGWORD$BYTE$$LONGWORD+0x20c>
   13f80:	e3550000 	cmp	r5, #0
   13f84:	02444001 	subeq	r4, r4, #1
   13f88:	06bf4074 	sxtheq	r4, r4
   13f8c:	159d0004 	ldrne	r0, [sp, #4]
   13f90:	13800202 	orrne	r0, r0, #536870912	; 0x20000000
   13f94:	158d0004 	strne	r0, [sp, #4]
   13f98:	e28d2004 	add	r2, sp, #4
   13f9c:	e1a01004 	mov	r1, r4
   13fa0:	e59d0004 	ldr	r0, [sp, #4]
   13fa4:	ebfff15e 	bl	10524 <SYSTEM_$$_SHIFT32RIGHTJAMMING$LONGWORD$SMALLINT$LONGWORD>
   13fa8:	e1a0a006 	mov	sl, r6
   13fac:	ea000037 	b	14090 <SYSTEM_$$_ADDFLOAT32SIGS$LONGWORD$LONGWORD$BYTE$$LONGWORD+0x1b8>
   13fb0:	e3540000 	cmp	r4, #0
   13fb4:	aa00001b 	bge	14028 <SYSTEM_$$_ADDFLOAT32SIGS$LONGWORD$LONGWORD$BYTE$$LONGWORD+0x150>
   13fb8:	e35500ff 	cmp	r5, #255	; 0xff
   13fbc:	1a00000c 	bne	13ff4 <SYSTEM_$$_ADDFLOAT32SIGS$LONGWORD$LONGWORD$BYTE$$LONGWORD+0x11c>
   13fc0:	e59d0004 	ldr	r0, [sp, #4]
   13fc4:	e3500000 	cmp	r0, #0
   13fc8:	0a000004 	beq	13fe0 <SYSTEM_$$_ADDFLOAT32SIGS$LONGWORD$LONGWORD$BYTE$$LONGWORD+0x108>
   13fcc:	e1a01008 	mov	r1, r8
   13fd0:	e1a00007 	mov	r0, r7
   13fd4:	ebfff7fb 	bl	11fc8 <SYSTEM_$$_PROPAGATEFLOAT32NAN$LONGWORD$LONGWORD$$LONGWORD>
   13fd8:	e58d0008 	str	r0, [sp, #8]
   13fdc:	ea000040 	b	140e4 <SYSTEM_$$_ADDFLOAT32SIGS$LONGWORD$LONGWORD$BYTE$$LONGWORD+0x20c>
   13fe0:	e1a00f89 	lsl	r0, r9, #31
   13fe4:	e2800101 	add	r0, r0, #1073741824	; 0x40000000
   13fe8:	e28005fe 	add	r0, r0, #1065353216	; 0x3f800000
   13fec:	e58d0008 	str	r0, [sp, #8]
   13ff0:	ea00003b 	b	140e4 <SYSTEM_$$_ADDFLOAT32SIGS$LONGWORD$LONGWORD$BYTE$$LONGWORD+0x20c>
   13ff4:	e3560000 	cmp	r6, #0
   13ff8:	02844001 	addeq	r4, r4, #1
   13ffc:	06bf4074 	sxtheq	r4, r4
   14000:	159d0000 	ldrne	r0, [sp]
   14004:	13800202 	orrne	r0, r0, #536870912	; 0x20000000
   14008:	158d0000 	strne	r0, [sp]
   1400c:	e2640000 	rsb	r0, r4, #0
   14010:	e6bf1070 	sxth	r1, r0
   14014:	e1a0200d 	mov	r2, sp
   14018:	e59d0000 	ldr	r0, [sp]
   1401c:	ebfff140 	bl	10524 <SYSTEM_$$_SHIFT32RIGHTJAMMING$LONGWORD$SMALLINT$LONGWORD>
   14020:	e1a0a005 	mov	sl, r5
   14024:	ea000019 	b	14090 <SYSTEM_$$_ADDFLOAT32SIGS$LONGWORD$LONGWORD$BYTE$$LONGWORD+0x1b8>
   14028:	e35600ff 	cmp	r6, #255	; 0xff
   1402c:	1a000009 	bne	14058 <SYSTEM_$$_ADDFLOAT32SIGS$LONGWORD$LONGWORD$BYTE$$LONGWORD+0x180>
   14030:	e1cd00d0 	ldrd	r0, [sp]
   14034:	e1910000 	orrs	r0, r1, r0
   14038:	0a000004 	beq	14050 <SYSTEM_$$_ADDFLOAT32SIGS$LONGWORD$LONGWORD$BYTE$$LONGWORD+0x178>
   1403c:	e1a01008 	mov	r1, r8
   14040:	e1a00007 	mov	r0, r7
   14044:	ebfff7df 	bl	11fc8 <SYSTEM_$$_PROPAGATEFLOAT32NAN$LONGWORD$LONGWORD$$LONGWORD>
   14048:	e58d0008 	str	r0, [sp, #8]
   1404c:	ea000024 	b	140e4 <SYSTEM_$$_ADDFLOAT32SIGS$LONGWORD$LONGWORD$BYTE$$LONGWORD+0x20c>
   14050:	e58d7008 	str	r7, [sp, #8]
   14054:	ea000022 	b	140e4 <SYSTEM_$$_ADDFLOAT32SIGS$LONGWORD$LONGWORD$BYTE$$LONGWORD+0x20c>
   14058:	e3560000 	cmp	r6, #0
   1405c:	1a000005 	bne	14078 <SYSTEM_$$_ADDFLOAT32SIGS$LONGWORD$LONGWORD$BYTE$$LONGWORD+0x1a0>
   14060:	e1cd00d0 	ldrd	r0, [sp]
   14064:	e0810000 	add	r0, r1, r0
   14068:	e1a00320 	lsr	r0, r0, #6
   1406c:	e0801f89 	add	r1, r0, r9, lsl #31
   14070:	e58d1008 	str	r1, [sp, #8]
   14074:	ea00001a 	b	140e4 <SYSTEM_$$_ADDFLOAT32SIGS$LONGWORD$LONGWORD$BYTE$$LONGWORD+0x20c>
   14078:	e59d0000 	ldr	r0, [sp]
   1407c:	e2400103 	sub	r0, r0, #-1073741824	; 0xc0000000
   14080:	e59d1004 	ldr	r1, [sp, #4]
   14084:	e081b000 	add	fp, r1, r0
   14088:	e1a0a006 	mov	sl, r6
   1408c:	ea00000f 	b	140d0 <SYSTEM_$$_ADDFLOAT32SIGS$LONGWORD$LONGWORD$BYTE$$LONGWORD+0x1f8>
   14090:	e59d0000 	ldr	r0, [sp]
   14094:	e3800202 	orr	r0, r0, #536870912	; 0x20000000
   14098:	e58d0000 	str	r0, [sp]
   1409c:	e1a01000 	mov	r1, r0
   140a0:	e59d0004 	ldr	r0, [sp, #4]
   140a4:	e0800001 	add	r0, r0, r1
   140a8:	e1a0b080 	lsl	fp, r0, #1
   140ac:	e24aa001 	sub	sl, sl, #1
   140b0:	e6bfa07a 	sxth	sl, sl
   140b4:	e35b0000 	cmp	fp, #0
   140b8:	aa000004 	bge	140d0 <SYSTEM_$$_ADDFLOAT32SIGS$LONGWORD$LONGWORD$BYTE$$LONGWORD+0x1f8>
   140bc:	e59d1000 	ldr	r1, [sp]
   140c0:	e59d0004 	ldr	r0, [sp, #4]
   140c4:	e080b001 	add	fp, r0, r1
   140c8:	e28aa001 	add	sl, sl, #1
   140cc:	e6bfa07a 	sxth	sl, sl
   140d0:	e1a0200b 	mov	r2, fp
   140d4:	e1a0100a 	mov	r1, sl
   140d8:	e1a00009 	mov	r0, r9
   140dc:	ebfffa62 	bl	12a6c <SYSTEM_$$_ROUNDANDPACKFLOAT32$BYTE$SMALLINT$LONGWORD$$LONGWORD>
   140e0:	e58d0008 	str	r0, [sp, #8]
   140e4:	e59d0008 	ldr	r0, [sp, #8]
   140e8:	e28dd010 	add	sp, sp, #16
   140ec:	e8bd8ff8 	pop	{r3, r4, r5, r6, r7, r8, r9, sl, fp, pc}

000140f0 <SYSTEM_$$_SUBFLOAT32SIGS$LONGWORD$LONGWORD$BYTE$$LONGWORD>:
   140f0:	e92d4ff8 	push	{r3, r4, r5, r6, r7, r8, r9, sl, fp, lr}
   140f4:	e24dd010 	sub	sp, sp, #16
   140f8:	e1a07000 	mov	r7, r0
   140fc:	e1a08001 	mov	r8, r1
   14100:	e1a09002 	mov	r9, r2
   14104:	e1a00487 	lsl	r0, r7, #9
   14108:	e1a004a0 	lsr	r0, r0, #9
   1410c:	e58d0000 	str	r0, [sp]
   14110:	e1a00ba7 	lsr	r0, r7, #23
   14114:	e20000ff 	and	r0, r0, #255	; 0xff
   14118:	e6bf0070 	sxth	r0, r0
   1411c:	e1a06000 	mov	r6, r0
   14120:	e1a00488 	lsl	r0, r8, #9
   14124:	e1a004a0 	lsr	r0, r0, #9
   14128:	e58d0004 	str	r0, [sp, #4]
   1412c:	e1a00ba8 	lsr	r0, r8, #23
   14130:	e20000ff 	and	r0, r0, #255	; 0xff
   14134:	e6bf0070 	sxth	r0, r0
   14138:	e1a05000 	mov	r5, r0
   1413c:	e0460005 	sub	r0, r6, r5
   14140:	e6bf0070 	sxth	r0, r0
   14144:	e1a04000 	mov	r4, r0
   14148:	e59d0000 	ldr	r0, [sp]
   1414c:	e1a00380 	lsl	r0, r0, #7
   14150:	e58d0000 	str	r0, [sp]
   14154:	e59d0004 	ldr	r0, [sp, #4]
   14158:	e1a00380 	lsl	r0, r0, #7
   1415c:	e58d0004 	str	r0, [sp, #4]
   14160:	e3540000 	cmp	r4, #0
   14164:	ca000051 	bgt	142b0 <SYSTEM_$$_SUBFLOAT32SIGS$LONGWORD$LONGWORD$BYTE$$LONGWORD+0x1c0>
   14168:	e3540000 	cmp	r4, #0
   1416c:	ba000029 	blt	14218 <SYSTEM_$$_SUBFLOAT32SIGS$LONGWORD$LONGWORD$BYTE$$LONGWORD+0x128>
   14170:	e35600ff 	cmp	r6, #255	; 0xff
   14174:	1a00000e 	bne	141b4 <SYSTEM_$$_SUBFLOAT32SIGS$LONGWORD$LONGWORD$BYTE$$LONGWORD+0xc4>
   14178:	e1cd00d0 	ldrd	r0, [sp]
   1417c:	e1910000 	orrs	r0, r1, r0
   14180:	0a000004 	beq	14198 <SYSTEM_$$_SUBFLOAT32SIGS$LONGWORD$LONGWORD$BYTE$$LONGWORD+0xa8>
   14184:	e1a01008 	mov	r1, r8
   14188:	e1a00007 	mov	r0, r7
   1418c:	ebfff78d 	bl	11fc8 <SYSTEM_$$_PROPAGATEFLOAT32NAN$LONGWORD$LONGWORD$$LONGWORD>
   14190:	e58d0008 	str	r0, [sp, #8]
   14194:	ea000068 	b	1433c <SYSTEM_$$_SUBFLOAT32SIGS$LONGWORD$LONGWORD$BYTE$$LONGWORD+0x24c>
   14198:	e3a00000 	mov	r0, #0
   1419c:	eb001edf 	bl	1bd20 <SYSTEM_$$_FLOAT_RAISE$TFPUEXCEPTION>
   141a0:	e3a00103 	mov	r0, #-1073741824	; 0xc0000000
   141a4:	e58d0008 	str	r0, [sp, #8]
   141a8:	e38005ff 	orr	r0, r0, #1069547520	; 0x3fc00000
   141ac:	e58d0008 	str	r0, [sp, #8]
   141b0:	ea000061 	b	1433c <SYSTEM_$$_SUBFLOAT32SIGS$LONGWORD$LONGWORD$BYTE$$LONGWORD+0x24c>
   141b4:	e3560000 	cmp	r6, #0
   141b8:	03a06001 	moveq	r6, #1
   141bc:	03a05001 	moveq	r5, #1
   141c0:	e59d0004 	ldr	r0, [sp, #4]
   141c4:	e59d1000 	ldr	r1, [sp]
   141c8:	e1500001 	cmp	r0, r1
   141cc:	3a000050 	bcc	14314 <SYSTEM_$$_SUBFLOAT32SIGS$LONGWORD$LONGWORD$BYTE$$LONGWORD+0x224>
   141d0:	e1cd00d0 	ldrd	r0, [sp]
   141d4:	e1500001 	cmp	r0, r1
   141d8:	3a00002d 	bcc	14294 <SYSTEM_$$_SUBFLOAT32SIGS$LONGWORD$LONGWORD$BYTE$$LONGWORD+0x1a4>
   141dc:	e59f0164 	ldr	r0, [pc, #356]	; 14348 <SYSTEM_$$_SUBFLOAT32SIGS$LONGWORD$LONGWORD$BYTE$$LONGWORD+0x258>
   141e0:	e5902000 	ldr	r2, [r0]
   141e4:	e3520000 	cmp	r2, #0
   141e8:	0a000003 	beq	141fc <SYSTEM_$$_SUBFLOAT32SIGS$LONGWORD$LONGWORD$BYTE$$LONGWORD+0x10c>
   141ec:	e59f1158 	ldr	r1, [pc, #344]	; 1434c <SYSTEM_$$_SUBFLOAT32SIGS$LONGWORD$LONGWORD$BYTE$$LONGWORD+0x25c>
   141f0:	e5910000 	ldr	r0, [r1]
   141f4:	e12fff32 	blx	r2
   141f8:	ea000000 	b	14200 <SYSTEM_$$_SUBFLOAT32SIGS$LONGWORD$LONGWORD$BYTE$$LONGWORD+0x110>
   141fc:	e59f014c 	ldr	r0, [pc, #332]	; 14350 <SYSTEM_$$_SUBFLOAT32SIGS$LONGWORD$LONGWORD$BYTE$$LONGWORD+0x260>
   14200:	e5900000 	ldr	r0, [r0]
   14204:	e3500001 	cmp	r0, #1
   14208:	13a00000 	movne	r0, #0
   1420c:	e1a01f80 	lsl	r1, r0, #31
   14210:	e58d1008 	str	r1, [sp, #8]
   14214:	ea000048 	b	1433c <SYSTEM_$$_SUBFLOAT32SIGS$LONGWORD$LONGWORD$BYTE$$LONGWORD+0x24c>
   14218:	e35500ff 	cmp	r5, #255	; 0xff
   1421c:	1a00000e 	bne	1425c <SYSTEM_$$_SUBFLOAT32SIGS$LONGWORD$LONGWORD$BYTE$$LONGWORD+0x16c>
   14220:	e59d0004 	ldr	r0, [sp, #4]
   14224:	e3500000 	cmp	r0, #0
   14228:	0a000004 	beq	14240 <SYSTEM_$$_SUBFLOAT32SIGS$LONGWORD$LONGWORD$BYTE$$LONGWORD+0x150>
   1422c:	e1a01008 	mov	r1, r8
   14230:	e1a00007 	mov	r0, r7
   14234:	ebfff763 	bl	11fc8 <SYSTEM_$$_PROPAGATEFLOAT32NAN$LONGWORD$LONGWORD$$LONGWORD>
   14238:	e58d0008 	str	r0, [sp, #8]
   1423c:	ea00003e 	b	1433c <SYSTEM_$$_SUBFLOAT32SIGS$LONGWORD$LONGWORD$BYTE$$LONGWORD+0x24c>
   14240:	e2290001 	eor	r0, r9, #1
   14244:	e20010ff 	and	r1, r0, #255	; 0xff
   14248:	e1a00f81 	lsl	r0, r1, #31
   1424c:	e2800101 	add	r0, r0, #1073741824	; 0x40000000
   14250:	e28005fe 	add	r0, r0, #1065353216	; 0x3f800000
   14254:	e58d0008 	str	r0, [sp, #8]
   14258:	ea000037 	b	1433c <SYSTEM_$$_SUBFLOAT32SIGS$LONGWORD$LONGWORD$BYTE$$LONGWORD+0x24c>
   1425c:	e3560000 	cmp	r6, #0
   14260:	02844001 	addeq	r4, r4, #1
   14264:	06bf4074 	sxtheq	r4, r4
   14268:	159d0000 	ldrne	r0, [sp]
   1426c:	13800101 	orrne	r0, r0, #1073741824	; 0x40000000
   14270:	158d0000 	strne	r0, [sp]
   14274:	e2640000 	rsb	r0, r4, #0
   14278:	e6bf1070 	sxth	r1, r0
   1427c:	e1a0200d 	mov	r2, sp
   14280:	e59d0000 	ldr	r0, [sp]
   14284:	ebfff0a6 	bl	10524 <SYSTEM_$$_SHIFT32RIGHTJAMMING$LONGWORD$SMALLINT$LONGWORD>
   14288:	e59d0004 	ldr	r0, [sp, #4]
   1428c:	e3800101 	orr	r0, r0, #1073741824	; 0x40000000
   14290:	e58d0004 	str	r0, [sp, #4]
   14294:	e59d1004 	ldr	r1, [sp, #4]
   14298:	e59d0000 	ldr	r0, [sp]
   1429c:	e041b000 	sub	fp, r1, r0
   142a0:	e1a0a005 	mov	sl, r5
   142a4:	e2290001 	eor	r0, r9, #1
   142a8:	e20090ff 	and	r9, r0, #255	; 0xff
   142ac:	ea00001b 	b	14320 <SYSTEM_$$_SUBFLOAT32SIGS$LONGWORD$LONGWORD$BYTE$$LONGWORD+0x230>
   142b0:	e35600ff 	cmp	r6, #255	; 0xff
   142b4:	1a000009 	bne	142e0 <SYSTEM_$$_SUBFLOAT32SIGS$LONGWORD$LONGWORD$BYTE$$LONGWORD+0x1f0>
   142b8:	e59d0000 	ldr	r0, [sp]
   142bc:	e3500000 	cmp	r0, #0
   142c0:	0a000004 	beq	142d8 <SYSTEM_$$_SUBFLOAT32SIGS$LONGWORD$LONGWORD$BYTE$$LONGWORD+0x1e8>
   142c4:	e1a01008 	mov	r1, r8
   142c8:	e1a00007 	mov	r0, r7
   142cc:	ebfff73d 	bl	11fc8 <SYSTEM_$$_PROPAGATEFLOAT32NAN$LONGWORD$LONGWORD$$LONGWORD>
   142d0:	e58d0008 	str	r0, [sp, #8]
   142d4:	ea000018 	b	1433c <SYSTEM_$$_SUBFLOAT32SIGS$LONGWORD$LONGWORD$BYTE$$LONGWORD+0x24c>
   142d8:	e58d7008 	str	r7, [sp, #8]
   142dc:	ea000016 	b	1433c <SYSTEM_$$_SUBFLOAT32SIGS$LONGWORD$LONGWORD$BYTE$$LONGWORD+0x24c>
   142e0:	e3550000 	cmp	r5, #0
   142e4:	02444001 	subeq	r4, r4, #1
   142e8:	06bf4074 	sxtheq	r4, r4
   142ec:	159d0004 	ldrne	r0, [sp, #4]
   142f0:	13800101 	orrne	r0, r0, #1073741824	; 0x40000000
   142f4:	158d0004 	strne	r0, [sp, #4]
   142f8:	e28d2004 	add	r2, sp, #4
   142fc:	e1a01004 	mov	r1, r4
   14300:	e59d0004 	ldr	r0, [sp, #4]
   14304:	ebfff086 	bl	10524 <SYSTEM_$$_SHIFT32RIGHTJAMMING$LONGWORD$SMALLINT$LONGWORD>
   14308:	e59d0000 	ldr	r0, [sp]
   1430c:	e3800101 	orr	r0, r0, #1073741824	; 0x40000000
   14310:	e58d0000 	str	r0, [sp]
   14314:	e1cd00d0 	ldrd	r0, [sp]
   14318:	e040b001 	sub	fp, r0, r1
   1431c:	e1a0a006 	mov	sl, r6
   14320:	e24aa001 	sub	sl, sl, #1
   14324:	e6bfa07a 	sxth	sl, sl
   14328:	e1a0200b 	mov	r2, fp
   1432c:	e1a0100a 	mov	r1, sl
   14330:	e1a00009 	mov	r0, r9
   14334:	ebfffa40 	bl	12c3c <SYSTEM_$$_NORMALIZEROUNDANDPACKFLOAT32$BYTE$SMALLINT$LONGWORD$$LONGWORD>
   14338:	e58d0008 	str	r0, [sp, #8]
   1433c:	e59d0008 	ldr	r0, [sp, #8]
   14340:	e28dd010 	add	sp, sp, #16
   14344:	e8bd8ff8 	pop	{r3, r4, r5, r6, r7, r8, r9, sl, fp, pc}
   14348:	00052b90 	muleq	r5, r0, fp
   1434c:	00051e50 	andeq	r1, r5, r0, asr lr
   14350:	00051e54 	andeq	r1, r5, r4, asr lr

00014354 <float32_add>:
   14354:	e92d4070 	push	{r4, r5, r6, lr}
   14358:	e24dd008 	sub	sp, sp, #8
   1435c:	e1a04000 	mov	r4, r0
   14360:	e1a05001 	mov	r5, r1
   14364:	e1a06fa4 	lsr	r6, r4, #31
   14368:	e1560fa5 	cmp	r6, r5, lsr #31
   1436c:	1a000005 	bne	14388 <float32_add+0x34>
   14370:	e1a01005 	mov	r1, r5
   14374:	e1a00004 	mov	r0, r4
   14378:	e1a02006 	mov	r2, r6
   1437c:	ebfffed5 	bl	13ed8 <SYSTEM_$$_ADDFLOAT32SIGS$LONGWORD$LONGWORD$BYTE$$LONGWORD>
   14380:	e58d0000 	str	r0, [sp]
   14384:	ea000004 	b	1439c <float32_add+0x48>
   14388:	e1a01005 	mov	r1, r5
   1438c:	e1a00004 	mov	r0, r4
   14390:	e1a02006 	mov	r2, r6
   14394:	ebffff55 	bl	140f0 <SYSTEM_$$_SUBFLOAT32SIGS$LONGWORD$LONGWORD$BYTE$$LONGWORD>
   14398:	e58d0000 	str	r0, [sp]
   1439c:	e49d0008 	ldr	r0, [sp], #8
   143a0:	e8bd8070 	pop	{r4, r5, r6, pc}

000143a4 <float32_sub>:
   143a4:	e92d4070 	push	{r4, r5, r6, lr}
   143a8:	e24dd008 	sub	sp, sp, #8
   143ac:	e1a04000 	mov	r4, r0
   143b0:	e1a05001 	mov	r5, r1
   143b4:	e1a06fa4 	lsr	r6, r4, #31
   143b8:	e1560fa5 	cmp	r6, r5, lsr #31
   143bc:	1a000005 	bne	143d8 <float32_sub+0x34>
   143c0:	e1a01005 	mov	r1, r5
   143c4:	e1a00004 	mov	r0, r4
   143c8:	e1a02006 	mov	r2, r6
   143cc:	ebffff47 	bl	140f0 <SYSTEM_$$_SUBFLOAT32SIGS$LONGWORD$LONGWORD$BYTE$$LONGWORD>
   143d0:	e58d0000 	str	r0, [sp]
   143d4:	ea000004 	b	143ec <float32_sub+0x48>
   143d8:	e1a01005 	mov	r1, r5
   143dc:	e1a00004 	mov	r0, r4
   143e0:	e1a02006 	mov	r2, r6
   143e4:	ebfffebb 	bl	13ed8 <SYSTEM_$$_ADDFLOAT32SIGS$LONGWORD$LONGWORD$BYTE$$LONGWORD>
   143e8:	e58d0000 	str	r0, [sp]
   143ec:	e49d0008 	ldr	r0, [sp], #8
   143f0:	e8bd8070 	pop	{r4, r5, r6, pc}

000143f4 <float32_mul>:
   143f4:	e92d4070 	push	{r4, r5, r6, lr}
   143f8:	e24dd020 	sub	sp, sp, #32
   143fc:	e1a04000 	mov	r4, r0
   14400:	e1a05001 	mov	r5, r1
   14404:	e1a00484 	lsl	r0, r4, #9
   14408:	e1a004a0 	lsr	r0, r0, #9
   1440c:	e58d000c 	str	r0, [sp, #12]
   14410:	e1a00ba4 	lsr	r0, r4, #23
   14414:	e20000ff 	and	r0, r0, #255	; 0xff
   14418:	e6bf0070 	sxth	r0, r0
   1441c:	e1cd00b4 	strh	r0, [sp, #4]
   14420:	e1a00fa4 	lsr	r0, r4, #31
   14424:	e1a01485 	lsl	r1, r5, #9
   14428:	e1a014a1 	lsr	r1, r1, #9
   1442c:	e58d1010 	str	r1, [sp, #16]
   14430:	e1a01ba5 	lsr	r1, r5, #23
   14434:	e20110ff 	and	r1, r1, #255	; 0xff
   14438:	e6bf1071 	sxth	r1, r1
   1443c:	e1cd10b8 	strh	r1, [sp, #8]
   14440:	e0206fa5 	eor	r6, r0, r5, lsr #31
   14444:	e1dd00f4 	ldrsh	r0, [sp, #4]
   14448:	e35000ff 	cmp	r0, #255	; 0xff
   1444c:	1a00001c 	bne	144c4 <float32_mul+0xd0>
   14450:	e59d000c 	ldr	r0, [sp, #12]
   14454:	e3500000 	cmp	r0, #0
   14458:	1a000005 	bne	14474 <float32_mul+0x80>
   1445c:	e1dd00f8 	ldrsh	r0, [sp, #8]
   14460:	e35000ff 	cmp	r0, #255	; 0xff
   14464:	1a000007 	bne	14488 <float32_mul+0x94>
   14468:	e59d0010 	ldr	r0, [sp, #16]
   1446c:	e3500000 	cmp	r0, #0
   14470:	0a000004 	beq	14488 <float32_mul+0x94>
   14474:	e1a01005 	mov	r1, r5
   14478:	e1a00004 	mov	r0, r4
   1447c:	ebfff6d1 	bl	11fc8 <SYSTEM_$$_PROPAGATEFLOAT32NAN$LONGWORD$LONGWORD$$LONGWORD>
   14480:	e58d0000 	str	r0, [sp]
   14484:	ea000065 	b	14620 <float32_mul+0x22c>
   14488:	e1dd00f8 	ldrsh	r0, [sp, #8]
   1448c:	e59d1010 	ldr	r1, [sp, #16]
   14490:	e1910000 	orrs	r0, r1, r0
   14494:	1a000005 	bne	144b0 <float32_mul+0xbc>
   14498:	e3a00000 	mov	r0, #0
   1449c:	eb001e1f 	bl	1bd20 <SYSTEM_$$_FLOAT_RAISE$TFPUEXCEPTION>
   144a0:	e3a00103 	mov	r0, #-1073741824	; 0xc0000000
   144a4:	e38005ff 	orr	r0, r0, #1069547520	; 0x3fc00000
   144a8:	e58d0000 	str	r0, [sp]
   144ac:	ea00005b 	b	14620 <float32_mul+0x22c>
   144b0:	e1a00f86 	lsl	r0, r6, #31
   144b4:	e2800101 	add	r0, r0, #1073741824	; 0x40000000
   144b8:	e28005fe 	add	r0, r0, #1065353216	; 0x3f800000
   144bc:	e58d0000 	str	r0, [sp]
   144c0:	ea000056 	b	14620 <float32_mul+0x22c>
   144c4:	e1dd00f8 	ldrsh	r0, [sp, #8]
   144c8:	e35000ff 	cmp	r0, #255	; 0xff
   144cc:	1a000016 	bne	1452c <float32_mul+0x138>
   144d0:	e59d0010 	ldr	r0, [sp, #16]
   144d4:	e3500000 	cmp	r0, #0
   144d8:	0a000004 	beq	144f0 <float32_mul+0xfc>
   144dc:	e1a01005 	mov	r1, r5
   144e0:	e1a00004 	mov	r0, r4
   144e4:	ebfff6b7 	bl	11fc8 <SYSTEM_$$_PROPAGATEFLOAT32NAN$LONGWORD$LONGWORD$$LONGWORD>
   144e8:	e58d0000 	str	r0, [sp]
   144ec:	ea00004b 	b	14620 <float32_mul+0x22c>
   144f0:	e1dd00f4 	ldrsh	r0, [sp, #4]
   144f4:	e59d100c 	ldr	r1, [sp, #12]
   144f8:	e1910000 	orrs	r0, r1, r0
   144fc:	1a000005 	bne	14518 <float32_mul+0x124>
   14500:	e3a00000 	mov	r0, #0
   14504:	eb001e05 	bl	1bd20 <SYSTEM_$$_FLOAT_RAISE$TFPUEXCEPTION>
   14508:	e3a00103 	mov	r0, #-1073741824	; 0xc0000000
   1450c:	e38005ff 	orr	r0, r0, #1069547520	; 0x3fc00000
   14510:	e58d0000 	str	r0, [sp]
   14514:	ea000041 	b	14620 <float32_mul+0x22c>
   14518:	e1a00f86 	lsl	r0, r6, #31
   1451c:	e2800101 	add	r0, r0, #1073741824	; 0x40000000
   14520:	e28005fe 	add	r0, r0, #1065353216	; 0x3f800000
   14524:	e58d0000 	str	r0, [sp]
   14528:	ea00003c 	b	14620 <float32_mul+0x22c>
   1452c:	e1dd00f4 	ldrsh	r0, [sp, #4]
   14530:	e3500000 	cmp	r0, #0
   14534:	1a000008 	bne	1455c <float32_mul+0x168>
   14538:	e59d000c 	ldr	r0, [sp, #12]
   1453c:	e3500000 	cmp	r0, #0
   14540:	01a00f86 	lsleq	r0, r6, #31
   14544:	058d0000 	streq	r0, [sp]
   14548:	0a000034 	beq	14620 <float32_mul+0x22c>
   1454c:	e28d200c 	add	r2, sp, #12
   14550:	e28d1004 	add	r1, sp, #4
   14554:	e59d000c 	ldr	r0, [sp, #12]
   14558:	ebfff92f 	bl	12a1c <SYSTEM_$$_NORMALIZEFLOAT32SUBNORMAL$LONGWORD$SMALLINT$LONGWORD>
   1455c:	e1dd00f8 	ldrsh	r0, [sp, #8]
   14560:	e3500000 	cmp	r0, #0
   14564:	1a000008 	bne	1458c <float32_mul+0x198>
   14568:	e59d0010 	ldr	r0, [sp, #16]
   1456c:	e3500000 	cmp	r0, #0
   14570:	01a00f86 	lsleq	r0, r6, #31
   14574:	058d0000 	streq	r0, [sp]
   14578:	0a000028 	beq	14620 <float32_mul+0x22c>
   1457c:	e28d2010 	add	r2, sp, #16
   14580:	e28d1008 	add	r1, sp, #8
   14584:	e59d0010 	ldr	r0, [sp, #16]
   14588:	ebfff923 	bl	12a1c <SYSTEM_$$_NORMALIZEFLOAT32SUBNORMAL$LONGWORD$SMALLINT$LONGWORD>
   1458c:	e1dd00f4 	ldrsh	r0, [sp, #4]
   14590:	e1dd10f8 	ldrsh	r1, [sp, #8]
   14594:	e0810000 	add	r0, r1, r0
   14598:	e240007f 	sub	r0, r0, #127	; 0x7f
   1459c:	e6bf4070 	sxth	r4, r0
   145a0:	e59d000c 	ldr	r0, [sp, #12]
   145a4:	e3800502 	orr	r0, r0, #8388608	; 0x800000
   145a8:	e1a00380 	lsl	r0, r0, #7
   145ac:	e58d000c 	str	r0, [sp, #12]
   145b0:	e59d0010 	ldr	r0, [sp, #16]
   145b4:	e3800502 	orr	r0, r0, #8388608	; 0x800000
   145b8:	e1a00400 	lsl	r0, r0, #8
   145bc:	e58d0010 	str	r0, [sp, #16]
   145c0:	e28d3018 	add	r3, sp, #24
   145c4:	e28d2014 	add	r2, sp, #20
   145c8:	e59d1010 	ldr	r1, [sp, #16]
   145cc:	e59d000c 	ldr	r0, [sp, #12]
   145d0:	ebfff35e 	bl	11350 <SYSTEM_$$_MUL32TO64$LONGWORD$LONGWORD$LONGWORD$LONGWORD>
   145d4:	e59d0018 	ldr	r0, [sp, #24]
   145d8:	e3500000 	cmp	r0, #0
   145dc:	13a00001 	movne	r0, #1
   145e0:	e59d1014 	ldr	r1, [sp, #20]
   145e4:	e1810000 	orr	r0, r1, r0
   145e8:	e58d0014 	str	r0, [sp, #20]
   145ec:	e1a00080 	lsl	r0, r0, #1
   145f0:	e3500000 	cmp	r0, #0
   145f4:	ba000004 	blt	1460c <float32_mul+0x218>
   145f8:	e59d0014 	ldr	r0, [sp, #20]
   145fc:	e1a00080 	lsl	r0, r0, #1
   14600:	e58d0014 	str	r0, [sp, #20]
   14604:	e2444001 	sub	r4, r4, #1
   14608:	e6bf4074 	sxth	r4, r4
   1460c:	e59d2014 	ldr	r2, [sp, #20]
   14610:	e1a01004 	mov	r1, r4
   14614:	e1a00006 	mov	r0, r6
   14618:	ebfff913 	bl	12a6c <SYSTEM_$$_ROUNDANDPACKFLOAT32$BYTE$SMALLINT$LONGWORD$$LONGWORD>
   1461c:	e58d0000 	str	r0, [sp]
   14620:	e49d0020 	ldr	r0, [sp], #32
   14624:	e8bd8070 	pop	{r4, r5, r6, pc}

00014628 <float32_div>:
   14628:	e1a0c00d 	mov	ip, sp
   1462c:	e92dd878 	push	{r3, r4, r5, r6, fp, ip, lr, pc}
   14630:	e24cb004 	sub	fp, ip, #4
   14634:	e24dd058 	sub	sp, sp, #88	; 0x58
   14638:	e1a04000 	mov	r4, r0
   1463c:	e1a05001 	mov	r5, r1
   14640:	e1a00484 	lsl	r0, r4, #9
   14644:	e1a004a0 	lsr	r0, r0, #9
   14648:	e50b003c 	str	r0, [fp, #-60]	; 0xffffffc4
   1464c:	e1a00ba4 	lsr	r0, r4, #23
   14650:	e20000ff 	and	r0, r0, #255	; 0xff
   14654:	e6bf0070 	sxth	r0, r0
   14658:	e14b03b4 	strh	r0, [fp, #-52]	; 0xffffffcc
   1465c:	e1a00fa4 	lsr	r0, r4, #31
   14660:	e1a01485 	lsl	r1, r5, #9
   14664:	e1a014a1 	lsr	r1, r1, #9
   14668:	e50b1040 	str	r1, [fp, #-64]	; 0xffffffc0
   1466c:	e1a01ba5 	lsr	r1, r5, #23
   14670:	e20110ff 	and	r1, r1, #255	; 0xff
   14674:	e6bf1071 	sxth	r1, r1
   14678:	e14b13b8 	strh	r1, [fp, #-56]	; 0xffffffc8
   1467c:	e0206fa5 	eor	r6, r0, r5, lsr #31
   14680:	e15b03f4 	ldrsh	r0, [fp, #-52]	; 0xffffffcc
   14684:	e35000ff 	cmp	r0, #255	; 0xff
   14688:	1a00001d 	bne	14704 <float32_div+0xdc>
   1468c:	e51b003c 	ldr	r0, [fp, #-60]	; 0xffffffc4
   14690:	e3500000 	cmp	r0, #0
   14694:	0a000004 	beq	146ac <float32_div+0x84>
   14698:	e1a01005 	mov	r1, r5
   1469c:	e1a00004 	mov	r0, r4
   146a0:	ebfff648 	bl	11fc8 <SYSTEM_$$_PROPAGATEFLOAT32NAN$LONGWORD$LONGWORD$$LONGWORD>
   146a4:	e50b0030 	str	r0, [fp, #-48]	; 0xffffffd0
   146a8:	ea00008e 	b	148e8 <float32_div+0x2c0>
   146ac:	e15b03f8 	ldrsh	r0, [fp, #-56]	; 0xffffffc8
   146b0:	e35000ff 	cmp	r0, #255	; 0xff
   146b4:	1a00000d 	bne	146f0 <float32_div+0xc8>
   146b8:	e51b0040 	ldr	r0, [fp, #-64]	; 0xffffffc0
   146bc:	e3500000 	cmp	r0, #0
   146c0:	0a000004 	beq	146d8 <float32_div+0xb0>
   146c4:	e1a01005 	mov	r1, r5
   146c8:	e1a00004 	mov	r0, r4
   146cc:	ebfff63d 	bl	11fc8 <SYSTEM_$$_PROPAGATEFLOAT32NAN$LONGWORD$LONGWORD$$LONGWORD>
   146d0:	e50b0030 	str	r0, [fp, #-48]	; 0xffffffd0
   146d4:	ea000083 	b	148e8 <float32_div+0x2c0>
   146d8:	e3a00000 	mov	r0, #0
   146dc:	eb001d8f 	bl	1bd20 <SYSTEM_$$_FLOAT_RAISE$TFPUEXCEPTION>
   146e0:	e3a00103 	mov	r0, #-1073741824	; 0xc0000000
   146e4:	e38005ff 	orr	r0, r0, #1069547520	; 0x3fc00000
   146e8:	e50b0030 	str	r0, [fp, #-48]	; 0xffffffd0
   146ec:	ea00007d 	b	148e8 <float32_div+0x2c0>
   146f0:	e1a00f86 	lsl	r0, r6, #31
   146f4:	e2800101 	add	r0, r0, #1073741824	; 0x40000000
   146f8:	e28005fe 	add	r0, r0, #1065353216	; 0x3f800000
   146fc:	e50b0030 	str	r0, [fp, #-48]	; 0xffffffd0
   14700:	ea000078 	b	148e8 <float32_div+0x2c0>
   14704:	e15b03f8 	ldrsh	r0, [fp, #-56]	; 0xffffffc8
   14708:	e35000ff 	cmp	r0, #255	; 0xff
   1470c:	1a00000a 	bne	1473c <float32_div+0x114>
   14710:	e51b0040 	ldr	r0, [fp, #-64]	; 0xffffffc0
   14714:	e3500000 	cmp	r0, #0
   14718:	0a000004 	beq	14730 <float32_div+0x108>
   1471c:	e1a01005 	mov	r1, r5
   14720:	e1a00004 	mov	r0, r4
   14724:	ebfff627 	bl	11fc8 <SYSTEM_$$_PROPAGATEFLOAT32NAN$LONGWORD$LONGWORD$$LONGWORD>
   14728:	e50b0030 	str	r0, [fp, #-48]	; 0xffffffd0
   1472c:	ea00006d 	b	148e8 <float32_div+0x2c0>
   14730:	e1a00f86 	lsl	r0, r6, #31
   14734:	e50b0030 	str	r0, [fp, #-48]	; 0xffffffd0
   14738:	ea00006a 	b	148e8 <float32_div+0x2c0>
   1473c:	e15b03f8 	ldrsh	r0, [fp, #-56]	; 0xffffffc8
   14740:	e3500000 	cmp	r0, #0
   14744:	1a000017 	bne	147a8 <float32_div+0x180>
   14748:	e51b0040 	ldr	r0, [fp, #-64]	; 0xffffffc0
   1474c:	e3500000 	cmp	r0, #0
   14750:	1a000010 	bne	14798 <float32_div+0x170>
   14754:	e15b03f4 	ldrsh	r0, [fp, #-52]	; 0xffffffcc
   14758:	e51b103c 	ldr	r1, [fp, #-60]	; 0xffffffc4
   1475c:	e1910000 	orrs	r0, r1, r0
   14760:	1a000005 	bne	1477c <float32_div+0x154>
   14764:	e3a00000 	mov	r0, #0
   14768:	eb001d6c 	bl	1bd20 <SYSTEM_$$_FLOAT_RAISE$TFPUEXCEPTION>
   1476c:	e3a00103 	mov	r0, #-1073741824	; 0xc0000000
   14770:	e38005ff 	orr	r0, r0, #1069547520	; 0x3fc00000
   14774:	e50b0030 	str	r0, [fp, #-48]	; 0xffffffd0
   14778:	ea00005a 	b	148e8 <float32_div+0x2c0>
   1477c:	e3a00002 	mov	r0, #2
   14780:	eb001d66 	bl	1bd20 <SYSTEM_$$_FLOAT_RAISE$TFPUEXCEPTION>
   14784:	e1a00f86 	lsl	r0, r6, #31
   14788:	e2800101 	add	r0, r0, #1073741824	; 0x40000000
   1478c:	e28005fe 	add	r0, r0, #1065353216	; 0x3f800000
   14790:	e50b0030 	str	r0, [fp, #-48]	; 0xffffffd0
   14794:	ea000053 	b	148e8 <float32_div+0x2c0>
   14798:	e24b2040 	sub	r2, fp, #64	; 0x40
   1479c:	e24b1038 	sub	r1, fp, #56	; 0x38
   147a0:	e51b0040 	ldr	r0, [fp, #-64]	; 0xffffffc0
   147a4:	ebfff89c 	bl	12a1c <SYSTEM_$$_NORMALIZEFLOAT32SUBNORMAL$LONGWORD$SMALLINT$LONGWORD>
   147a8:	e15b03f4 	ldrsh	r0, [fp, #-52]	; 0xffffffcc
   147ac:	e3500000 	cmp	r0, #0
   147b0:	1a000008 	bne	147d8 <float32_div+0x1b0>
   147b4:	e51b003c 	ldr	r0, [fp, #-60]	; 0xffffffc4
   147b8:	e3500000 	cmp	r0, #0
   147bc:	01a00f86 	lsleq	r0, r6, #31
   147c0:	050b0030 	streq	r0, [fp, #-48]	; 0xffffffd0
   147c4:	0a000047 	beq	148e8 <float32_div+0x2c0>
   147c8:	e24b203c 	sub	r2, fp, #60	; 0x3c
   147cc:	e24b1034 	sub	r1, fp, #52	; 0x34
   147d0:	e51b003c 	ldr	r0, [fp, #-60]	; 0xffffffc4
   147d4:	ebfff890 	bl	12a1c <SYSTEM_$$_NORMALIZEFLOAT32SUBNORMAL$LONGWORD$SMALLINT$LONGWORD>
   147d8:	e15b13f4 	ldrsh	r1, [fp, #-52]	; 0xffffffcc
   147dc:	e15b03f8 	ldrsh	r0, [fp, #-56]	; 0xffffffc8
   147e0:	e0410000 	sub	r0, r1, r0
   147e4:	e280007d 	add	r0, r0, #125	; 0x7d
   147e8:	e6bf4070 	sxth	r4, r0
   147ec:	e51b003c 	ldr	r0, [fp, #-60]	; 0xffffffc4
   147f0:	e3800502 	orr	r0, r0, #8388608	; 0x800000
   147f4:	e1a00380 	lsl	r0, r0, #7
   147f8:	e50b003c 	str	r0, [fp, #-60]	; 0xffffffc4
   147fc:	e51b0040 	ldr	r0, [fp, #-64]	; 0xffffffc0
   14800:	e3800502 	orr	r0, r0, #8388608	; 0x800000
   14804:	e1a00400 	lsl	r0, r0, #8
   14808:	e50b0040 	str	r0, [fp, #-64]	; 0xffffffc0
   1480c:	e51b003c 	ldr	r0, [fp, #-60]	; 0xffffffc4
   14810:	e0800000 	add	r0, r0, r0
   14814:	e51b1040 	ldr	r1, [fp, #-64]	; 0xffffffc0
   14818:	e1510000 	cmp	r1, r0
   1481c:	8a000004 	bhi	14834 <float32_div+0x20c>
   14820:	e51b003c 	ldr	r0, [fp, #-60]	; 0xffffffc4
   14824:	e1a000a0 	lsr	r0, r0, #1
   14828:	e50b003c 	str	r0, [fp, #-60]	; 0xffffffc4
   1482c:	e2844001 	add	r4, r4, #1
   14830:	e6bf4074 	sxth	r4, r4
   14834:	e51b2040 	ldr	r2, [fp, #-64]	; 0xffffffc0
   14838:	e51b003c 	ldr	r0, [fp, #-60]	; 0xffffffc4
   1483c:	e3a01000 	mov	r1, #0
   14840:	ebfff4fd 	bl	11c3c <SYSTEM_$$_ESTIMATEDIV64TO32$LONGWORD$LONGWORD$LONGWORD$$LONGWORD>
   14844:	e1a05000 	mov	r5, r0
   14848:	e205003f 	and	r0, r5, #63	; 0x3f
   1484c:	e3500002 	cmp	r0, #2
   14850:	8a00001f 	bhi	148d4 <float32_div+0x2ac>
   14854:	e24b3050 	sub	r3, fp, #80	; 0x50
   14858:	e24b204c 	sub	r2, fp, #76	; 0x4c
   1485c:	e1a01005 	mov	r1, r5
   14860:	e51b0040 	ldr	r0, [fp, #-64]	; 0xffffffc0
   14864:	ebfff2b9 	bl	11350 <SYSTEM_$$_MUL32TO64$LONGWORD$LONGWORD$LONGWORD$LONGWORD>
   14868:	e24b0048 	sub	r0, fp, #72	; 0x48
   1486c:	e58d0004 	str	r0, [sp, #4]
   14870:	e24b0044 	sub	r0, fp, #68	; 0x44
   14874:	e58d0000 	str	r0, [sp]
   14878:	e51b3050 	ldr	r3, [fp, #-80]	; 0xffffffb0
   1487c:	e51b204c 	ldr	r2, [fp, #-76]	; 0xffffffb4
   14880:	e51b003c 	ldr	r0, [fp, #-60]	; 0xffffffc4
   14884:	e3a01000 	mov	r1, #0
   14888:	ebfff218 	bl	110f0 <SYSTEM_$$_SUB64$LONGWORD$LONGWORD$LONGWORD$LONGWORD$LONGWORD$LONGWORD>
   1488c:	ea000009 	b	148b8 <float32_div+0x290>
   14890:	e2455001 	sub	r5, r5, #1
   14894:	e24b0048 	sub	r0, fp, #72	; 0x48
   14898:	e58d0004 	str	r0, [sp, #4]
   1489c:	e24b0044 	sub	r0, fp, #68	; 0x44
   148a0:	e58d0000 	str	r0, [sp]
   148a4:	e51b3040 	ldr	r3, [fp, #-64]	; 0xffffffc0
   148a8:	e51b1048 	ldr	r1, [fp, #-72]	; 0xffffffb8
   148ac:	e51b0044 	ldr	r0, [fp, #-68]	; 0xffffffbc
   148b0:	e3a02000 	mov	r2, #0
   148b4:	ebfff115 	bl	10d10 <SYSTEM_$$_ADD64$LONGWORD$LONGWORD$LONGWORD$LONGWORD$LONGWORD$LONGWORD>
   148b8:	e51b0044 	ldr	r0, [fp, #-68]	; 0xffffffbc
   148bc:	e3500000 	cmp	r0, #0
   148c0:	bafffff2 	blt	14890 <float32_div+0x268>
   148c4:	e51b0048 	ldr	r0, [fp, #-72]	; 0xffffffb8
   148c8:	e3500000 	cmp	r0, #0
   148cc:	13a00001 	movne	r0, #1
   148d0:	e1855000 	orr	r5, r5, r0
   148d4:	e1a02005 	mov	r2, r5
   148d8:	e1a01004 	mov	r1, r4
   148dc:	e1a00006 	mov	r0, r6
   148e0:	ebfff861 	bl	12a6c <SYSTEM_$$_ROUNDANDPACKFLOAT32$BYTE$SMALLINT$LONGWORD$$LONGWORD>
   148e4:	e50b0030 	str	r0, [fp, #-48]	; 0xffffffd0
   148e8:	e51b0030 	ldr	r0, [fp, #-48]	; 0xffffffd0
   148ec:	e91ba878 	ldmdb	fp, {r3, r4, r5, r6, fp, sp, pc}

000148f0 <float32_rem>:
   148f0:	e92d4070 	push	{r4, r5, r6, lr}
   148f4:	e24dd018 	sub	sp, sp, #24
   148f8:	e1a04000 	mov	r4, r0
   148fc:	e1a05001 	mov	r5, r1
   14900:	e1a00484 	lsl	r0, r4, #9
   14904:	e1a004a0 	lsr	r0, r0, #9
   14908:	e58d000c 	str	r0, [sp, #12]
   1490c:	e1a00ba4 	lsr	r0, r4, #23
   14910:	e20000ff 	and	r0, r0, #255	; 0xff
   14914:	e6bf0070 	sxth	r0, r0
   14918:	e1cd00b4 	strh	r0, [sp, #4]
   1491c:	e1a06fa4 	lsr	r6, r4, #31
   14920:	e1a00485 	lsl	r0, r5, #9
   14924:	e1a004a0 	lsr	r0, r0, #9
   14928:	e58d0010 	str	r0, [sp, #16]
   1492c:	e1a00ba5 	lsr	r0, r5, #23
   14930:	e20000ff 	and	r0, r0, #255	; 0xff
   14934:	e6bf0070 	sxth	r0, r0
   14938:	e1cd00b8 	strh	r0, [sp, #8]
   1493c:	e1dd00f4 	ldrsh	r0, [sp, #4]
   14940:	e35000ff 	cmp	r0, #255	; 0xff
   14944:	1a000013 	bne	14998 <float32_rem+0xa8>
   14948:	e59d000c 	ldr	r0, [sp, #12]
   1494c:	e3500000 	cmp	r0, #0
   14950:	1a000005 	bne	1496c <float32_rem+0x7c>
   14954:	e1dd00f8 	ldrsh	r0, [sp, #8]
   14958:	e35000ff 	cmp	r0, #255	; 0xff
   1495c:	1a000007 	bne	14980 <float32_rem+0x90>
   14960:	e59d0010 	ldr	r0, [sp, #16]
   14964:	e3500000 	cmp	r0, #0
   14968:	0a000004 	beq	14980 <float32_rem+0x90>
   1496c:	e1a01005 	mov	r1, r5
   14970:	e1a00004 	mov	r0, r4
   14974:	ebfff593 	bl	11fc8 <SYSTEM_$$_PROPAGATEFLOAT32NAN$LONGWORD$LONGWORD$$LONGWORD>
   14978:	e58d0000 	str	r0, [sp]
   1497c:	ea00009e 	b	14bfc <float32_rem+0x30c>
   14980:	e3a00000 	mov	r0, #0
   14984:	eb001ce5 	bl	1bd20 <SYSTEM_$$_FLOAT_RAISE$TFPUEXCEPTION>
   14988:	e3a00103 	mov	r0, #-1073741824	; 0xc0000000
   1498c:	e38005ff 	orr	r0, r0, #1069547520	; 0x3fc00000
   14990:	e58d0000 	str	r0, [sp]
   14994:	ea000098 	b	14bfc <float32_rem+0x30c>
   14998:	e1dd00f8 	ldrsh	r0, [sp, #8]
   1499c:	e35000ff 	cmp	r0, #255	; 0xff
   149a0:	1a000009 	bne	149cc <float32_rem+0xdc>
   149a4:	e59d0010 	ldr	r0, [sp, #16]
   149a8:	e3500000 	cmp	r0, #0
   149ac:	0a000004 	beq	149c4 <float32_rem+0xd4>
   149b0:	e1a01005 	mov	r1, r5
   149b4:	e1a00004 	mov	r0, r4
   149b8:	ebfff582 	bl	11fc8 <SYSTEM_$$_PROPAGATEFLOAT32NAN$LONGWORD$LONGWORD$$LONGWORD>
   149bc:	e58d0000 	str	r0, [sp]
   149c0:	ea00008d 	b	14bfc <float32_rem+0x30c>
   149c4:	e58d4000 	str	r4, [sp]
   149c8:	ea00008b 	b	14bfc <float32_rem+0x30c>
   149cc:	e1dd00f8 	ldrsh	r0, [sp, #8]
   149d0:	e3500000 	cmp	r0, #0
   149d4:	1a00000c 	bne	14a0c <float32_rem+0x11c>
   149d8:	e59d0010 	ldr	r0, [sp, #16]
   149dc:	e3500000 	cmp	r0, #0
   149e0:	1a000005 	bne	149fc <float32_rem+0x10c>
   149e4:	e3a00000 	mov	r0, #0
   149e8:	eb001ccc 	bl	1bd20 <SYSTEM_$$_FLOAT_RAISE$TFPUEXCEPTION>
   149ec:	e3a00103 	mov	r0, #-1073741824	; 0xc0000000
   149f0:	e38005ff 	orr	r0, r0, #1069547520	; 0x3fc00000
   149f4:	e58d0000 	str	r0, [sp]
   149f8:	ea00007f 	b	14bfc <float32_rem+0x30c>
   149fc:	e28d2010 	add	r2, sp, #16
   14a00:	e28d1008 	add	r1, sp, #8
   14a04:	e59d0010 	ldr	r0, [sp, #16]
   14a08:	ebfff803 	bl	12a1c <SYSTEM_$$_NORMALIZEFLOAT32SUBNORMAL$LONGWORD$SMALLINT$LONGWORD>
   14a0c:	e1dd00f4 	ldrsh	r0, [sp, #4]
   14a10:	e3500000 	cmp	r0, #0
   14a14:	1a000007 	bne	14a38 <float32_rem+0x148>
   14a18:	e59d000c 	ldr	r0, [sp, #12]
   14a1c:	e3500000 	cmp	r0, #0
   14a20:	058d4000 	streq	r4, [sp]
   14a24:	0a000074 	beq	14bfc <float32_rem+0x30c>
   14a28:	e28d200c 	add	r2, sp, #12
   14a2c:	e28d1004 	add	r1, sp, #4
   14a30:	e59d000c 	ldr	r0, [sp, #12]
   14a34:	ebfff7f8 	bl	12a1c <SYSTEM_$$_NORMALIZEFLOAT32SUBNORMAL$LONGWORD$SMALLINT$LONGWORD>
   14a38:	e1dd10f4 	ldrsh	r1, [sp, #4]
   14a3c:	e1dd00f8 	ldrsh	r0, [sp, #8]
   14a40:	e0410000 	sub	r0, r1, r0
   14a44:	e6bf0070 	sxth	r0, r0
   14a48:	e59d100c 	ldr	r1, [sp, #12]
   14a4c:	e3811502 	orr	r1, r1, #8388608	; 0x800000
   14a50:	e1a01401 	lsl	r1, r1, #8
   14a54:	e58d100c 	str	r1, [sp, #12]
   14a58:	e59d1010 	ldr	r1, [sp, #16]
   14a5c:	e3811502 	orr	r1, r1, #8388608	; 0x800000
   14a60:	e1a01401 	lsl	r1, r1, #8
   14a64:	e58d1010 	str	r1, [sp, #16]
   14a68:	e3500000 	cmp	r0, #0
   14a6c:	aa000006 	bge	14a8c <float32_rem+0x19c>
   14a70:	e3e01000 	mvn	r1, #0
   14a74:	e1500001 	cmp	r0, r1
   14a78:	b58d4000 	strlt	r4, [sp]
   14a7c:	ba00005e 	blt	14bfc <float32_rem+0x30c>
   14a80:	e59d100c 	ldr	r1, [sp, #12]
   14a84:	e1a010a1 	lsr	r1, r1, #1
   14a88:	e58d100c 	str	r1, [sp, #12]
   14a8c:	e59d1010 	ldr	r1, [sp, #16]
   14a90:	e59d200c 	ldr	r2, [sp, #12]
   14a94:	e1510002 	cmp	r1, r2
   14a98:	93a04001 	movls	r4, #1
   14a9c:	83a04000 	movhi	r4, #0
   14aa0:	e3540000 	cmp	r4, #0
   14aa4:	159d100c 	ldrne	r1, [sp, #12]
   14aa8:	159d2010 	ldrne	r2, [sp, #16]
   14aac:	10411002 	subne	r1, r1, r2
   14ab0:	158d100c 	strne	r1, [sp, #12]
   14ab4:	e2400020 	sub	r0, r0, #32
   14ab8:	e6bf5070 	sxth	r5, r0
   14abc:	ea00000f 	b	14b00 <float32_rem+0x210>
   14ac0:	e59d2010 	ldr	r2, [sp, #16]
   14ac4:	e59d000c 	ldr	r0, [sp, #12]
   14ac8:	e3a01000 	mov	r1, #0
   14acc:	ebfff45a 	bl	11c3c <SYSTEM_$$_ESTIMATEDIV64TO32$LONGWORD$LONGWORD$LONGWORD$$LONGWORD>
   14ad0:	e1a04000 	mov	r4, r0
   14ad4:	e3540002 	cmp	r4, #2
   14ad8:	82444002 	subhi	r4, r4, #2
   14adc:	93a04000 	movls	r4, #0
   14ae0:	e59d0010 	ldr	r0, [sp, #16]
   14ae4:	e1a00120 	lsr	r0, r0, #2
   14ae8:	e0000094 	mul	r0, r4, r0
   14aec:	e2600000 	rsb	r0, r0, #0
   14af0:	e58d000c 	str	r0, [sp, #12]
   14af4:	e245001e 	sub	r0, r5, #30
   14af8:	e6bf0070 	sxth	r0, r0
   14afc:	e1a05000 	mov	r5, r0
   14b00:	e3550000 	cmp	r5, #0
   14b04:	caffffed 	bgt	14ac0 <float32_rem+0x1d0>
   14b08:	e2850020 	add	r0, r5, #32
   14b0c:	e6bf5070 	sxth	r5, r0
   14b10:	e3550000 	cmp	r5, #0
   14b14:	da000014 	ble	14b6c <float32_rem+0x27c>
   14b18:	e59d2010 	ldr	r2, [sp, #16]
   14b1c:	e59d000c 	ldr	r0, [sp, #12]
   14b20:	e3a01000 	mov	r1, #0
   14b24:	ebfff444 	bl	11c3c <SYSTEM_$$_ESTIMATEDIV64TO32$LONGWORD$LONGWORD$LONGWORD$$LONGWORD>
   14b28:	e1a04000 	mov	r4, r0
   14b2c:	e3540002 	cmp	r4, #2
   14b30:	82444002 	subhi	r4, r4, #2
   14b34:	93a04000 	movls	r4, #0
   14b38:	e3a00020 	mov	r0, #32
   14b3c:	e0400005 	sub	r0, r0, r5
   14b40:	e1a04034 	lsr	r4, r4, r0
   14b44:	e59d0010 	ldr	r0, [sp, #16]
   14b48:	e1a00120 	lsr	r0, r0, #2
   14b4c:	e58d0010 	str	r0, [sp, #16]
   14b50:	e0020094 	mul	r2, r4, r0
   14b54:	e59d000c 	ldr	r0, [sp, #12]
   14b58:	e1a010a0 	lsr	r1, r0, #1
   14b5c:	e2450001 	sub	r0, r5, #1
   14b60:	e0620011 	rsb	r0, r2, r1, lsl r0
   14b64:	e58d000c 	str	r0, [sp, #12]
   14b68:	ea000005 	b	14b84 <float32_rem+0x294>
   14b6c:	e59d000c 	ldr	r0, [sp, #12]
   14b70:	e1a00120 	lsr	r0, r0, #2
   14b74:	e58d000c 	str	r0, [sp, #12]
   14b78:	e59d0010 	ldr	r0, [sp, #16]
   14b7c:	e1a00120 	lsr	r0, r0, #2
   14b80:	e58d0010 	str	r0, [sp, #16]
   14b84:	e59d200c 	ldr	r2, [sp, #12]
   14b88:	e2844001 	add	r4, r4, #1
   14b8c:	e59d100c 	ldr	r1, [sp, #12]
   14b90:	e59d0010 	ldr	r0, [sp, #16]
   14b94:	e0410000 	sub	r0, r1, r0
   14b98:	e58d000c 	str	r0, [sp, #12]
   14b9c:	e3500000 	cmp	r0, #0
   14ba0:	aafffff7 	bge	14b84 <float32_rem+0x294>
   14ba4:	e59d000c 	ldr	r0, [sp, #12]
   14ba8:	e0820000 	add	r0, r2, r0
   14bac:	e3500000 	cmp	r0, #0
   14bb0:	ba000003 	blt	14bc4 <float32_rem+0x2d4>
   14bb4:	e3500000 	cmp	r0, #0
   14bb8:	1a000002 	bne	14bc8 <float32_rem+0x2d8>
   14bbc:	e2140001 	ands	r0, r4, #1
   14bc0:	0a000000 	beq	14bc8 <float32_rem+0x2d8>
   14bc4:	e58d200c 	str	r2, [sp, #12]
   14bc8:	e59d000c 	ldr	r0, [sp, #12]
   14bcc:	e3500000 	cmp	r0, #0
   14bd0:	b3a00001 	movlt	r0, #1
   14bd4:	a3a00000 	movge	r0, #0
   14bd8:	e3500000 	cmp	r0, #0
   14bdc:	159d100c 	ldrne	r1, [sp, #12]
   14be0:	12611000 	rsbne	r1, r1, #0
   14be4:	158d100c 	strne	r1, [sp, #12]
   14be8:	e0200006 	eor	r0, r0, r6
   14bec:	e59d200c 	ldr	r2, [sp, #12]
   14bf0:	e1dd10f8 	ldrsh	r1, [sp, #8]
   14bf4:	ebfff810 	bl	12c3c <SYSTEM_$$_NORMALIZEROUNDANDPACKFLOAT32$BYTE$SMALLINT$LONGWORD$$LONGWORD>
   14bf8:	e58d0000 	str	r0, [sp]
   14bfc:	e49d0018 	ldr	r0, [sp], #24
   14c00:	e8bd8070 	pop	{r4, r5, r6, pc}

00014c04 <float32_sqrt>:
   14c04:	e1a0c00d 	mov	ip, sp
   14c08:	e92dd878 	push	{r3, r4, r5, r6, fp, ip, lr, pc}
   14c0c:	e24cb004 	sub	fp, ip, #4
   14c10:	e24dd058 	sub	sp, sp, #88	; 0x58
   14c14:	e1a04000 	mov	r4, r0
   14c18:	e1a00004 	mov	r0, r4
   14c1c:	e1a01480 	lsl	r1, r0, #9
   14c20:	e1a014a1 	lsr	r1, r1, #9
   14c24:	e50b1038 	str	r1, [fp, #-56]	; 0xffffffc8
   14c28:	e1a00004 	mov	r0, r4
   14c2c:	e1a01ba0 	lsr	r1, r0, #23
   14c30:	e20110ff 	and	r1, r1, #255	; 0xff
   14c34:	e6bf1071 	sxth	r1, r1
   14c38:	e14b13b4 	strh	r1, [fp, #-52]	; 0xffffffcc
   14c3c:	e1a00004 	mov	r0, r4
   14c40:	e1a05fa0 	lsr	r5, r0, #31
   14c44:	e15b03f4 	ldrsh	r0, [fp, #-52]	; 0xffffffcc
   14c48:	e35000ff 	cmp	r0, #255	; 0xff
   14c4c:	1a000010 	bne	14c94 <float32_sqrt+0x90>
   14c50:	e51b0038 	ldr	r0, [fp, #-56]	; 0xffffffc8
   14c54:	e3500000 	cmp	r0, #0
   14c58:	0a000004 	beq	14c70 <float32_sqrt+0x6c>
   14c5c:	e1a00004 	mov	r0, r4
   14c60:	e3a01000 	mov	r1, #0
   14c64:	ebfff4d7 	bl	11fc8 <SYSTEM_$$_PROPAGATEFLOAT32NAN$LONGWORD$LONGWORD$$LONGWORD>
   14c68:	e50b0030 	str	r0, [fp, #-48]	; 0xffffffd0
   14c6c:	ea000076 	b	14e4c <float32_sqrt+0x248>
   14c70:	e3550000 	cmp	r5, #0
   14c74:	050b4030 	streq	r4, [fp, #-48]	; 0xffffffd0
   14c78:	0a000073 	beq	14e4c <float32_sqrt+0x248>
   14c7c:	e3a00000 	mov	r0, #0
   14c80:	eb001c26 	bl	1bd20 <SYSTEM_$$_FLOAT_RAISE$TFPUEXCEPTION>
   14c84:	e3a00103 	mov	r0, #-1073741824	; 0xc0000000
   14c88:	e38005ff 	orr	r0, r0, #1069547520	; 0x3fc00000
   14c8c:	e50b0030 	str	r0, [fp, #-48]	; 0xffffffd0
   14c90:	ea00006d 	b	14e4c <float32_sqrt+0x248>
   14c94:	e3550000 	cmp	r5, #0
   14c98:	0a00000a 	beq	14cc8 <float32_sqrt+0xc4>
   14c9c:	e15b13f4 	ldrsh	r1, [fp, #-52]	; 0xffffffcc
   14ca0:	e51b0038 	ldr	r0, [fp, #-56]	; 0xffffffc8
   14ca4:	e1900001 	orrs	r0, r0, r1
   14ca8:	050b4030 	streq	r4, [fp, #-48]	; 0xffffffd0
   14cac:	0a000066 	beq	14e4c <float32_sqrt+0x248>
   14cb0:	e3a00000 	mov	r0, #0
   14cb4:	eb001c19 	bl	1bd20 <SYSTEM_$$_FLOAT_RAISE$TFPUEXCEPTION>
   14cb8:	e3a00103 	mov	r0, #-1073741824	; 0xc0000000
   14cbc:	e38005ff 	orr	r0, r0, #1069547520	; 0x3fc00000
   14cc0:	e50b0030 	str	r0, [fp, #-48]	; 0xffffffd0
   14cc4:	ea000060 	b	14e4c <float32_sqrt+0x248>
   14cc8:	e15b03f4 	ldrsh	r0, [fp, #-52]	; 0xffffffcc
   14ccc:	e3500000 	cmp	r0, #0
   14cd0:	1a000008 	bne	14cf8 <float32_sqrt+0xf4>
   14cd4:	e51b0038 	ldr	r0, [fp, #-56]	; 0xffffffc8
   14cd8:	e3500000 	cmp	r0, #0
   14cdc:	03a00000 	moveq	r0, #0
   14ce0:	050b0030 	streq	r0, [fp, #-48]	; 0xffffffd0
   14ce4:	0a000058 	beq	14e4c <float32_sqrt+0x248>
   14ce8:	e24b2038 	sub	r2, fp, #56	; 0x38
   14cec:	e24b1034 	sub	r1, fp, #52	; 0x34
   14cf0:	e51b0038 	ldr	r0, [fp, #-56]	; 0xffffffc8
   14cf4:	ebfff748 	bl	12a1c <SYSTEM_$$_NORMALIZEFLOAT32SUBNORMAL$LONGWORD$SMALLINT$LONGWORD>
   14cf8:	e15b03f4 	ldrsh	r0, [fp, #-52]	; 0xffffffcc
   14cfc:	e240007f 	sub	r0, r0, #127	; 0x7f
   14d00:	e1a000a0 	lsr	r0, r0, #1
   14d04:	e280007e 	add	r0, r0, #126	; 0x7e
   14d08:	e6bf6070 	sxth	r6, r0
   14d0c:	e51b0038 	ldr	r0, [fp, #-56]	; 0xffffffc8
   14d10:	e3800502 	orr	r0, r0, #8388608	; 0x800000
   14d14:	e1a00400 	lsl	r0, r0, #8
   14d18:	e50b0038 	str	r0, [fp, #-56]	; 0xffffffc8
   14d1c:	e1a01000 	mov	r1, r0
   14d20:	e15b03f4 	ldrsh	r0, [fp, #-52]	; 0xffffffcc
   14d24:	ebfff407 	bl	11d48 <SYSTEM_$$_ESTIMATESQRT32$SMALLINT$LONGWORD$$LONGWORD>
   14d28:	e2800002 	add	r0, r0, #2
   14d2c:	e50b003c 	str	r0, [fp, #-60]	; 0xffffffc4
   14d30:	e200007f 	and	r0, r0, #127	; 0x7f
   14d34:	e3500005 	cmp	r0, #5
   14d38:	8a00003a 	bhi	14e28 <float32_sqrt+0x224>
   14d3c:	e51b003c 	ldr	r0, [fp, #-60]	; 0xffffffc4
   14d40:	e3500002 	cmp	r0, #2
   14d44:	33e00102 	mvncc	r0, #-2147483648	; 0x80000000
   14d48:	350b003c 	strcc	r0, [fp, #-60]	; 0xffffffc4
   14d4c:	3a000039 	bcc	14e38 <float32_sqrt+0x234>
   14d50:	e15b03f4 	ldrsh	r0, [fp, #-52]	; 0xffffffcc
   14d54:	e2000001 	and	r0, r0, #1
   14d58:	e51b1038 	ldr	r1, [fp, #-56]	; 0xffffffc8
   14d5c:	e1a00031 	lsr	r0, r1, r0
   14d60:	e50b0038 	str	r0, [fp, #-56]	; 0xffffffc8
   14d64:	e24b304c 	sub	r3, fp, #76	; 0x4c
   14d68:	e24b2048 	sub	r2, fp, #72	; 0x48
   14d6c:	e51b103c 	ldr	r1, [fp, #-60]	; 0xffffffc4
   14d70:	e1a00001 	mov	r0, r1
   14d74:	ebfff175 	bl	11350 <SYSTEM_$$_MUL32TO64$LONGWORD$LONGWORD$LONGWORD$LONGWORD>
   14d78:	e24b0044 	sub	r0, fp, #68	; 0x44
   14d7c:	e58d0004 	str	r0, [sp, #4]
   14d80:	e24b0040 	sub	r0, fp, #64	; 0x40
   14d84:	e58d0000 	str	r0, [sp]
   14d88:	e51b304c 	ldr	r3, [fp, #-76]	; 0xffffffb4
   14d8c:	e51b2048 	ldr	r2, [fp, #-72]	; 0xffffffb8
   14d90:	e51b0038 	ldr	r0, [fp, #-56]	; 0xffffffc8
   14d94:	e3a01000 	mov	r1, #0
   14d98:	ebfff0d4 	bl	110f0 <SYSTEM_$$_SUB64$LONGWORD$LONGWORD$LONGWORD$LONGWORD$LONGWORD$LONGWORD>
   14d9c:	ea000015 	b	14df8 <float32_sqrt+0x1f4>
   14da0:	e51b003c 	ldr	r0, [fp, #-60]	; 0xffffffc4
   14da4:	e2400001 	sub	r0, r0, #1
   14da8:	e50b003c 	str	r0, [fp, #-60]	; 0xffffffc4
   14dac:	e24b004c 	sub	r0, fp, #76	; 0x4c
   14db0:	e58d0000 	str	r0, [sp]
   14db4:	e24b3048 	sub	r3, fp, #72	; 0x48
   14db8:	e51b103c 	ldr	r1, [fp, #-60]	; 0xffffffc4
   14dbc:	e3a02001 	mov	r2, #1
   14dc0:	e3a00000 	mov	r0, #0
   14dc4:	ebffef7f 	bl	10bc8 <SYSTEM_$$_SHORTSHIFT64LEFT$LONGWORD$LONGWORD$SMALLINT$LONGWORD$LONGWORD>
   14dc8:	e51b004c 	ldr	r0, [fp, #-76]	; 0xffffffb4
   14dcc:	e3800001 	orr	r0, r0, #1
   14dd0:	e50b004c 	str	r0, [fp, #-76]	; 0xffffffb4
   14dd4:	e24b0044 	sub	r0, fp, #68	; 0x44
   14dd8:	e58d0004 	str	r0, [sp, #4]
   14ddc:	e24b0040 	sub	r0, fp, #64	; 0x40
   14de0:	e58d0000 	str	r0, [sp]
   14de4:	e51b304c 	ldr	r3, [fp, #-76]	; 0xffffffb4
   14de8:	e51b2048 	ldr	r2, [fp, #-72]	; 0xffffffb8
   14dec:	e51b1044 	ldr	r1, [fp, #-68]	; 0xffffffbc
   14df0:	e51b0040 	ldr	r0, [fp, #-64]	; 0xffffffc0
   14df4:	ebffefc5 	bl	10d10 <SYSTEM_$$_ADD64$LONGWORD$LONGWORD$LONGWORD$LONGWORD$LONGWORD$LONGWORD>
   14df8:	e51b0040 	ldr	r0, [fp, #-64]	; 0xffffffc0
   14dfc:	e3500000 	cmp	r0, #0
   14e00:	baffffe6 	blt	14da0 <float32_sqrt+0x19c>
   14e04:	e51b0040 	ldr	r0, [fp, #-64]	; 0xffffffc0
   14e08:	e51b1044 	ldr	r1, [fp, #-68]	; 0xffffffbc
   14e0c:	e1810000 	orr	r0, r1, r0
   14e10:	e3500000 	cmp	r0, #0
   14e14:	13a01001 	movne	r1, #1
   14e18:	03a01000 	moveq	r1, #0
   14e1c:	e51b003c 	ldr	r0, [fp, #-60]	; 0xffffffc4
   14e20:	e1800001 	orr	r0, r0, r1
   14e24:	e50b003c 	str	r0, [fp, #-60]	; 0xffffffc4
   14e28:	e24b203c 	sub	r2, fp, #60	; 0x3c
   14e2c:	e51b003c 	ldr	r0, [fp, #-60]	; 0xffffffc4
   14e30:	e3a01001 	mov	r1, #1
   14e34:	ebffedba 	bl	10524 <SYSTEM_$$_SHIFT32RIGHTJAMMING$LONGWORD$SMALLINT$LONGWORD>
   14e38:	e51b203c 	ldr	r2, [fp, #-60]	; 0xffffffc4
   14e3c:	e1a01006 	mov	r1, r6
   14e40:	e3a00000 	mov	r0, #0
   14e44:	ebfff708 	bl	12a6c <SYSTEM_$$_ROUNDANDPACKFLOAT32$BYTE$SMALLINT$LONGWORD$$LONGWORD>
   14e48:	e50b0030 	str	r0, [fp, #-48]	; 0xffffffd0
   14e4c:	e51b0030 	ldr	r0, [fp, #-48]	; 0xffffffd0
   14e50:	e91ba878 	ldmdb	fp, {r3, r4, r5, r6, fp, sp, pc}

00014e54 <float32_eq>:
   14e54:	e92d4038 	push	{r3, r4, r5, lr}
   14e58:	e1a04000 	mov	r4, r0
   14e5c:	e1a05001 	mov	r5, r1
   14e60:	e1a00ba4 	lsr	r0, r4, #23
   14e64:	e20000ff 	and	r0, r0, #255	; 0xff
   14e68:	e6bf0070 	sxth	r0, r0
   14e6c:	e35000ff 	cmp	r0, #255	; 0xff
   14e70:	1a000002 	bne	14e80 <float32_eq+0x2c>
   14e74:	e1a00484 	lsl	r0, r4, #9
   14e78:	e1b004a0 	lsrs	r0, r0, #9
   14e7c:	1a000007 	bne	14ea0 <float32_eq+0x4c>
   14e80:	e1a00ba5 	lsr	r0, r5, #23
   14e84:	e20000ff 	and	r0, r0, #255	; 0xff
   14e88:	e6bf0070 	sxth	r0, r0
   14e8c:	e35000ff 	cmp	r0, #255	; 0xff
   14e90:	1a00000e 	bne	14ed0 <float32_eq+0x7c>
   14e94:	e1a00485 	lsl	r0, r5, #9
   14e98:	e1b004a0 	lsrs	r0, r0, #9
   14e9c:	0a00000b 	beq	14ed0 <float32_eq+0x7c>
   14ea0:	e1a00004 	mov	r0, r4
   14ea4:	ebfff415 	bl	11f00 <SYSTEM_$$_FLOAT32_IS_SIGNALING_NAN$LONGWORD$$BYTE>
   14ea8:	e3500000 	cmp	r0, #0
   14eac:	1a000003 	bne	14ec0 <float32_eq+0x6c>
   14eb0:	e1a00005 	mov	r0, r5
   14eb4:	ebfff411 	bl	11f00 <SYSTEM_$$_FLOAT32_IS_SIGNALING_NAN$LONGWORD$$BYTE>
   14eb8:	e3500000 	cmp	r0, #0
   14ebc:	0a000001 	beq	14ec8 <float32_eq+0x74>
   14ec0:	e3a00000 	mov	r0, #0
   14ec4:	eb001b95 	bl	1bd20 <SYSTEM_$$_FLOAT_RAISE$TFPUEXCEPTION>
   14ec8:	e3a00000 	mov	r0, #0
   14ecc:	ea000008 	b	14ef4 <float32_eq+0xa0>
   14ed0:	e1851004 	orr	r1, r5, r4
   14ed4:	e1a01081 	lsl	r1, r1, #1
   14ed8:	e3510000 	cmp	r1, #0
   14edc:	03a02001 	moveq	r2, #1
   14ee0:	13a02000 	movne	r2, #0
   14ee4:	e1540005 	cmp	r4, r5
   14ee8:	03a01001 	moveq	r1, #1
   14eec:	13a01000 	movne	r1, #0
   14ef0:	e1810002 	orr	r0, r1, r2
   14ef4:	e8bd8038 	pop	{r3, r4, r5, pc}

00014ef8 <float32_le>:
   14ef8:	e92d4038 	push	{r3, r4, r5, lr}
   14efc:	e1a04000 	mov	r4, r0
   14f00:	e1a05001 	mov	r5, r1
   14f04:	e1a00ba4 	lsr	r0, r4, #23
   14f08:	e20000ff 	and	r0, r0, #255	; 0xff
   14f0c:	e6bf0070 	sxth	r0, r0
   14f10:	e35000ff 	cmp	r0, #255	; 0xff
   14f14:	1a000002 	bne	14f24 <float32_le+0x2c>
   14f18:	e1a00484 	lsl	r0, r4, #9
   14f1c:	e1b004a0 	lsrs	r0, r0, #9
   14f20:	1a000007 	bne	14f44 <float32_le+0x4c>
   14f24:	e1a00ba5 	lsr	r0, r5, #23
   14f28:	e20000ff 	and	r0, r0, #255	; 0xff
   14f2c:	e6bf0070 	sxth	r0, r0
   14f30:	e35000ff 	cmp	r0, #255	; 0xff
   14f34:	1a000006 	bne	14f54 <float32_le+0x5c>
   14f38:	e1a00485 	lsl	r0, r5, #9
   14f3c:	e1b004a0 	lsrs	r0, r0, #9
   14f40:	0a000003 	beq	14f54 <float32_le+0x5c>
   14f44:	e3a00000 	mov	r0, #0
   14f48:	eb001b74 	bl	1bd20 <SYSTEM_$$_FLOAT_RAISE$TFPUEXCEPTION>
   14f4c:	e3a00000 	mov	r0, #0
   14f50:	ea000013 	b	14fa4 <float32_le+0xac>
   14f54:	e1a01fa4 	lsr	r1, r4, #31
   14f58:	e1510fa5 	cmp	r1, r5, lsr #31
   14f5c:	0a000008 	beq	14f84 <float32_le+0x8c>
   14f60:	e1a02004 	mov	r2, r4
   14f64:	e1a03005 	mov	r3, r5
   14f68:	e1832002 	orr	r2, r3, r2
   14f6c:	e1a02082 	lsl	r2, r2, #1
   14f70:	e3520000 	cmp	r2, #0
   14f74:	03a02001 	moveq	r2, #1
   14f78:	13a02000 	movne	r2, #0
   14f7c:	e1810002 	orr	r0, r1, r2
   14f80:	ea000007 	b	14fa4 <float32_le+0xac>
   14f84:	e1540005 	cmp	r4, r5
   14f88:	03a03001 	moveq	r3, #1
   14f8c:	13a03000 	movne	r3, #0
   14f90:	e1540005 	cmp	r4, r5
   14f94:	33a02001 	movcc	r2, #1
   14f98:	23a02000 	movcs	r2, #0
   14f9c:	e0221001 	eor	r1, r2, r1
   14fa0:	e1810003 	orr	r0, r1, r3
   14fa4:	e8bd8038 	pop	{r3, r4, r5, pc}

00014fa8 <float32_lt>:
   14fa8:	e92d4038 	push	{r3, r4, r5, lr}
   14fac:	e1a04000 	mov	r4, r0
   14fb0:	e1a05001 	mov	r5, r1
   14fb4:	e1a00ba4 	lsr	r0, r4, #23
   14fb8:	e20000ff 	and	r0, r0, #255	; 0xff
   14fbc:	e6bf0070 	sxth	r0, r0
   14fc0:	e35000ff 	cmp	r0, #255	; 0xff
   14fc4:	1a000002 	bne	14fd4 <float32_lt+0x2c>
   14fc8:	e1a00484 	lsl	r0, r4, #9
   14fcc:	e1b004a0 	lsrs	r0, r0, #9
   14fd0:	1a000007 	bne	14ff4 <float32_lt+0x4c>
   14fd4:	e1a00ba5 	lsr	r0, r5, #23
   14fd8:	e20000ff 	and	r0, r0, #255	; 0xff
   14fdc:	e6bf0070 	sxth	r0, r0
   14fe0:	e35000ff 	cmp	r0, #255	; 0xff
   14fe4:	1a000006 	bne	15004 <float32_lt+0x5c>
   14fe8:	e1a00485 	lsl	r0, r5, #9
   14fec:	e1b004a0 	lsrs	r0, r0, #9
   14ff0:	0a000003 	beq	15004 <float32_lt+0x5c>
   14ff4:	e3a00000 	mov	r0, #0
   14ff8:	eb001b48 	bl	1bd20 <SYSTEM_$$_FLOAT_RAISE$TFPUEXCEPTION>
   14ffc:	e3a00000 	mov	r0, #0
   15000:	ea000011 	b	1504c <float32_lt+0xa4>
   15004:	e1a01fa4 	lsr	r1, r4, #31
   15008:	e1510fa5 	cmp	r1, r5, lsr #31
   1500c:	0a000006 	beq	1502c <float32_lt+0x84>
   15010:	e1a02004 	mov	r2, r4
   15014:	e1a03005 	mov	r3, r5
   15018:	e1832002 	orr	r2, r3, r2
   1501c:	e1b02082 	lsls	r2, r2, #1
   15020:	13a02001 	movne	r2, #1
   15024:	e0010002 	and	r0, r1, r2
   15028:	ea000007 	b	1504c <float32_lt+0xa4>
   1502c:	e1540005 	cmp	r4, r5
   15030:	13a03001 	movne	r3, #1
   15034:	03a03000 	moveq	r3, #0
   15038:	e1540005 	cmp	r4, r5
   1503c:	33a02001 	movcc	r2, #1
   15040:	23a02000 	movcs	r2, #0
   15044:	e0221001 	eor	r1, r2, r1
   15048:	e0010003 	and	r0, r1, r3
   1504c:	e8bd8038 	pop	{r3, r4, r5, pc}

00015050 <SYSTEM_$$_FLOAT32_EQ_SIGNALING$LONGWORD$LONGWORD$$BYTE>:
   15050:	e92d4038 	push	{r3, r4, r5, lr}
   15054:	e1a04000 	mov	r4, r0
   15058:	e1a05001 	mov	r5, r1
   1505c:	e1a00ba4 	lsr	r0, r4, #23
   15060:	e20000ff 	and	r0, r0, #255	; 0xff
   15064:	e6bf0070 	sxth	r0, r0
   15068:	e35000ff 	cmp	r0, #255	; 0xff
   1506c:	1a000002 	bne	1507c <SYSTEM_$$_FLOAT32_EQ_SIGNALING$LONGWORD$LONGWORD$$BYTE+0x2c>
   15070:	e1a00484 	lsl	r0, r4, #9
   15074:	e1b004a0 	lsrs	r0, r0, #9
   15078:	1a000007 	bne	1509c <SYSTEM_$$_FLOAT32_EQ_SIGNALING$LONGWORD$LONGWORD$$BYTE+0x4c>
   1507c:	e1a00ba5 	lsr	r0, r5, #23
   15080:	e20000ff 	and	r0, r0, #255	; 0xff
   15084:	e6bf0070 	sxth	r0, r0
   15088:	e35000ff 	cmp	r0, #255	; 0xff
   1508c:	1a000006 	bne	150ac <SYSTEM_$$_FLOAT32_EQ_SIGNALING$LONGWORD$LONGWORD$$BYTE+0x5c>
   15090:	e1a00485 	lsl	r0, r5, #9
   15094:	e1b004a0 	lsrs	r0, r0, #9
   15098:	0a000003 	beq	150ac <SYSTEM_$$_FLOAT32_EQ_SIGNALING$LONGWORD$LONGWORD$$BYTE+0x5c>
   1509c:	e3a00000 	mov	r0, #0
   150a0:	eb001b1e 	bl	1bd20 <SYSTEM_$$_FLOAT_RAISE$TFPUEXCEPTION>
   150a4:	e3a00000 	mov	r0, #0
   150a8:	ea000008 	b	150d0 <SYSTEM_$$_FLOAT32_EQ_SIGNALING$LONGWORD$LONGWORD$$BYTE+0x80>
   150ac:	e1851004 	orr	r1, r5, r4
   150b0:	e1a01081 	lsl	r1, r1, #1
   150b4:	e3510000 	cmp	r1, #0
   150b8:	03a02001 	moveq	r2, #1
   150bc:	13a02000 	movne	r2, #0
   150c0:	e1540005 	cmp	r4, r5
   150c4:	03a01001 	moveq	r1, #1
   150c8:	13a01000 	movne	r1, #0
   150cc:	e1810002 	orr	r0, r1, r2
   150d0:	e8bd8038 	pop	{r3, r4, r5, pc}

000150d4 <SYSTEM_$$_FLOAT32_LE_QUIET$LONGWORD$LONGWORD$$BYTE>:
   150d4:	e92d4038 	push	{r3, r4, r5, lr}
   150d8:	e1a04000 	mov	r4, r0
   150dc:	e1a05001 	mov	r5, r1
   150e0:	e1a00ba4 	lsr	r0, r4, #23
   150e4:	e20000ff 	and	r0, r0, #255	; 0xff
   150e8:	e6bf0070 	sxth	r0, r0
   150ec:	e35000ff 	cmp	r0, #255	; 0xff
   150f0:	1a000002 	bne	15100 <SYSTEM_$$_FLOAT32_LE_QUIET$LONGWORD$LONGWORD$$BYTE+0x2c>
   150f4:	e1a00484 	lsl	r0, r4, #9
   150f8:	e1b004a0 	lsrs	r0, r0, #9
   150fc:	1a000007 	bne	15120 <SYSTEM_$$_FLOAT32_LE_QUIET$LONGWORD$LONGWORD$$BYTE+0x4c>
   15100:	e1a00ba5 	lsr	r0, r5, #23
   15104:	e20000ff 	and	r0, r0, #255	; 0xff
   15108:	e6bf0070 	sxth	r0, r0
   1510c:	e35000ff 	cmp	r0, #255	; 0xff
   15110:	1a00000e 	bne	15150 <SYSTEM_$$_FLOAT32_LE_QUIET$LONGWORD$LONGWORD$$BYTE+0x7c>
   15114:	e1a00485 	lsl	r0, r5, #9
   15118:	e1b004a0 	lsrs	r0, r0, #9
   1511c:	0a00000b 	beq	15150 <SYSTEM_$$_FLOAT32_LE_QUIET$LONGWORD$LONGWORD$$BYTE+0x7c>
   15120:	e1a00004 	mov	r0, r4
   15124:	ebfff375 	bl	11f00 <SYSTEM_$$_FLOAT32_IS_SIGNALING_NAN$LONGWORD$$BYTE>
   15128:	e3500000 	cmp	r0, #0
   1512c:	1a000003 	bne	15140 <SYSTEM_$$_FLOAT32_LE_QUIET$LONGWORD$LONGWORD$$BYTE+0x6c>
   15130:	e1a00005 	mov	r0, r5
   15134:	ebfff371 	bl	11f00 <SYSTEM_$$_FLOAT32_IS_SIGNALING_NAN$LONGWORD$$BYTE>
   15138:	e3500000 	cmp	r0, #0
   1513c:	0a000001 	beq	15148 <SYSTEM_$$_FLOAT32_LE_QUIET$LONGWORD$LONGWORD$$BYTE+0x74>
   15140:	e3a00000 	mov	r0, #0
   15144:	eb001af5 	bl	1bd20 <SYSTEM_$$_FLOAT_RAISE$TFPUEXCEPTION>
   15148:	e3a00000 	mov	r0, #0
   1514c:	ea000011 	b	15198 <SYSTEM_$$_FLOAT32_LE_QUIET$LONGWORD$LONGWORD$$BYTE+0xc4>
   15150:	e1a01fa4 	lsr	r1, r4, #31
   15154:	e1510fa5 	cmp	r1, r5, lsr #31
   15158:	0a000006 	beq	15178 <SYSTEM_$$_FLOAT32_LE_QUIET$LONGWORD$LONGWORD$$BYTE+0xa4>
   1515c:	e1852004 	orr	r2, r5, r4
   15160:	e1a02082 	lsl	r2, r2, #1
   15164:	e3520000 	cmp	r2, #0
   15168:	03a02001 	moveq	r2, #1
   1516c:	13a02000 	movne	r2, #0
   15170:	e1810002 	orr	r0, r1, r2
   15174:	ea000007 	b	15198 <SYSTEM_$$_FLOAT32_LE_QUIET$LONGWORD$LONGWORD$$BYTE+0xc4>
   15178:	e1540005 	cmp	r4, r5
   1517c:	33a02001 	movcc	r2, #1
   15180:	23a02000 	movcs	r2, #0
   15184:	e0212002 	eor	r2, r1, r2
   15188:	e1540005 	cmp	r4, r5
   1518c:	03a01001 	moveq	r1, #1
   15190:	13a01000 	movne	r1, #0
   15194:	e1810002 	orr	r0, r1, r2
   15198:	e8bd8038 	pop	{r3, r4, r5, pc}

0001519c <SYSTEM_$$_FLOAT32_LT_QUIET$LONGWORD$LONGWORD$$BYTE>:
   1519c:	e92d4038 	push	{r3, r4, r5, lr}
   151a0:	e1a04000 	mov	r4, r0
   151a4:	e1a05001 	mov	r5, r1
   151a8:	e1a00ba4 	lsr	r0, r4, #23
   151ac:	e20000ff 	and	r0, r0, #255	; 0xff
   151b0:	e6bf0070 	sxth	r0, r0
   151b4:	e35000ff 	cmp	r0, #255	; 0xff
   151b8:	1a000002 	bne	151c8 <SYSTEM_$$_FLOAT32_LT_QUIET$LONGWORD$LONGWORD$$BYTE+0x2c>
   151bc:	e1a00484 	lsl	r0, r4, #9
   151c0:	e1b004a0 	lsrs	r0, r0, #9
   151c4:	1a000007 	bne	151e8 <SYSTEM_$$_FLOAT32_LT_QUIET$LONGWORD$LONGWORD$$BYTE+0x4c>
   151c8:	e1a00ba5 	lsr	r0, r5, #23
   151cc:	e20000ff 	and	r0, r0, #255	; 0xff
   151d0:	e6bf0070 	sxth	r0, r0
   151d4:	e35000ff 	cmp	r0, #255	; 0xff
   151d8:	1a00000e 	bne	15218 <SYSTEM_$$_FLOAT32_LT_QUIET$LONGWORD$LONGWORD$$BYTE+0x7c>
   151dc:	e1a00485 	lsl	r0, r5, #9
   151e0:	e1b004a0 	lsrs	r0, r0, #9
   151e4:	0a00000b 	beq	15218 <SYSTEM_$$_FLOAT32_LT_QUIET$LONGWORD$LONGWORD$$BYTE+0x7c>
   151e8:	e1a00004 	mov	r0, r4
   151ec:	ebfff343 	bl	11f00 <SYSTEM_$$_FLOAT32_IS_SIGNALING_NAN$LONGWORD$$BYTE>
   151f0:	e3500000 	cmp	r0, #0
   151f4:	1a000003 	bne	15208 <SYSTEM_$$_FLOAT32_LT_QUIET$LONGWORD$LONGWORD$$BYTE+0x6c>
   151f8:	e1a00005 	mov	r0, r5
   151fc:	ebfff33f 	bl	11f00 <SYSTEM_$$_FLOAT32_IS_SIGNALING_NAN$LONGWORD$$BYTE>
   15200:	e3500000 	cmp	r0, #0
   15204:	0a000001 	beq	15210 <SYSTEM_$$_FLOAT32_LT_QUIET$LONGWORD$LONGWORD$$BYTE+0x74>
   15208:	e3a00000 	mov	r0, #0
   1520c:	eb001ac3 	bl	1bd20 <SYSTEM_$$_FLOAT_RAISE$TFPUEXCEPTION>
   15210:	e3a00000 	mov	r0, #0
   15214:	ea00000f 	b	15258 <SYSTEM_$$_FLOAT32_LT_QUIET$LONGWORD$LONGWORD$$BYTE+0xbc>
   15218:	e1a01fa4 	lsr	r1, r4, #31
   1521c:	e1510fa5 	cmp	r1, r5, lsr #31
   15220:	0a000004 	beq	15238 <SYSTEM_$$_FLOAT32_LT_QUIET$LONGWORD$LONGWORD$$BYTE+0x9c>
   15224:	e1852004 	orr	r2, r5, r4
   15228:	e1b02082 	lsls	r2, r2, #1
   1522c:	13a02001 	movne	r2, #1
   15230:	e0010002 	and	r0, r1, r2
   15234:	ea000007 	b	15258 <SYSTEM_$$_FLOAT32_LT_QUIET$LONGWORD$LONGWORD$$BYTE+0xbc>
   15238:	e1540005 	cmp	r4, r5
   1523c:	33a02001 	movcc	r2, #1
   15240:	23a02000 	movcs	r2, #0
   15244:	e0212002 	eor	r2, r1, r2
   15248:	e1540005 	cmp	r4, r5
   1524c:	13a01001 	movne	r1, #1
   15250:	03a01000 	moveq	r1, #0
   15254:	e0010002 	and	r0, r1, r2
   15258:	e8bd8038 	pop	{r3, r4, r5, pc}

0001525c <float64_to_int32>:
   1525c:	e1a0c00d 	mov	ip, sp
   15260:	e92ddff8 	push	{r3, r4, r5, r6, r7, r8, r9, sl, fp, ip, lr, pc}
   15264:	e24cb004 	sub	fp, ip, #4
   15268:	e24dd048 	sub	sp, sp, #72	; 0x48
   1526c:	e14b03f4 	strd	r0, [fp, #-52]	; 0xffffffcc
   15270:	e51b8034 	ldr	r8, [fp, #-52]	; 0xffffffcc
   15274:	e51b0030 	ldr	r0, [fp, #-48]	; 0xffffffd0
   15278:	e1a00600 	lsl	r0, r0, #12
   1527c:	e1a07620 	lsr	r7, r0, #12
   15280:	e51b0030 	ldr	r0, [fp, #-48]	; 0xffffffd0
   15284:	e1a00080 	lsl	r0, r0, #1
   15288:	e1a00aa0 	lsr	r0, r0, #21
   1528c:	e6bf0070 	sxth	r0, r0
   15290:	e1a06000 	mov	r6, r0
   15294:	e51b0030 	ldr	r0, [fp, #-48]	; 0xffffffd0
   15298:	e1a05fa0 	lsr	r5, r0, #31
   1529c:	e2460013 	sub	r0, r6, #19
   152a0:	e2400b01 	sub	r0, r0, #1024	; 0x400
   152a4:	e6bf0070 	sxth	r0, r0
   152a8:	e1a04000 	mov	r4, r0
   152ac:	e3540000 	cmp	r4, #0
   152b0:	ba000016 	blt	15310 <float64_to_int32+0xb4>
   152b4:	e3a0001e 	mov	r0, #30
   152b8:	e3800b01 	orr	r0, r0, #1024	; 0x400
   152bc:	e1560000 	cmp	r6, r0
   152c0:	da000007 	ble	152e4 <float64_to_int32+0x88>
   152c4:	e3a000ff 	mov	r0, #255	; 0xff
   152c8:	e3800c07 	orr	r0, r0, #1792	; 0x700
   152cc:	e1560000 	cmp	r6, r0
   152d0:	1a00005d 	bne	1544c <float64_to_int32+0x1f0>
   152d4:	e1980007 	orrs	r0, r8, r7
   152d8:	0a00005b 	beq	1544c <float64_to_int32+0x1f0>
   152dc:	e3a05000 	mov	r5, #0
   152e0:	ea000059 	b	1544c <float64_to_int32+0x1f0>
   152e4:	e24b003c 	sub	r0, fp, #60	; 0x3c
   152e8:	e58d0000 	str	r0, [sp]
   152ec:	e3870601 	orr	r0, r7, #1048576	; 0x100000
   152f0:	e24b3038 	sub	r3, fp, #56	; 0x38
   152f4:	e1a02004 	mov	r2, r4
   152f8:	e1a01008 	mov	r1, r8
   152fc:	ebffee31 	bl	10bc8 <SYSTEM_$$_SHORTSHIFT64LEFT$LONGWORD$LONGWORD$SMALLINT$LONGWORD$LONGWORD>
   15300:	e51b0038 	ldr	r0, [fp, #-56]	; 0xffffffc8
   15304:	e3500102 	cmp	r0, #-2147483648	; 0x80000000
   15308:	9a000015 	bls	15364 <float64_to_int32+0x108>
   1530c:	ea00004e 	b	1544c <float64_to_int32+0x1f0>
   15310:	e3580000 	cmp	r8, #0
   15314:	13a00001 	movne	r0, #1
   15318:	03a00000 	moveq	r0, #0
   1531c:	e1a08000 	mov	r8, r0
   15320:	e3a000fe 	mov	r0, #254	; 0xfe
   15324:	e3800c03 	orr	r0, r0, #768	; 0x300
   15328:	e1560000 	cmp	r6, r0
   1532c:	aa000005 	bge	15348 <float64_to_int32+0xec>
   15330:	e1870006 	orr	r0, r7, r6
   15334:	e1880000 	orr	r0, r8, r0
   15338:	e50b003c 	str	r0, [fp, #-60]	; 0xffffffc4
   1533c:	e3a00000 	mov	r0, #0
   15340:	e50b0038 	str	r0, [fp, #-56]	; 0xffffffc8
   15344:	ea000006 	b	15364 <float64_to_int32+0x108>
   15348:	e3877601 	orr	r7, r7, #1048576	; 0x100000
   1534c:	e204001f 	and	r0, r4, #31
   15350:	e1880017 	orr	r0, r8, r7, lsl r0
   15354:	e50b003c 	str	r0, [fp, #-60]	; 0xffffffc4
   15358:	e2640000 	rsb	r0, r4, #0
   1535c:	e1a00037 	lsr	r0, r7, r0
   15360:	e50b0038 	str	r0, [fp, #-56]	; 0xffffffc8
   15364:	e59f0120 	ldr	r0, [pc, #288]	; 1548c <float64_to_int32+0x230>
   15368:	e5901000 	ldr	r1, [r0]
   1536c:	e3510000 	cmp	r1, #0
   15370:	0a000003 	beq	15384 <float64_to_int32+0x128>
   15374:	e59f2114 	ldr	r2, [pc, #276]	; 15490 <float64_to_int32+0x234>
   15378:	e5920000 	ldr	r0, [r2]
   1537c:	e12fff31 	blx	r1
   15380:	ea000000 	b	15388 <float64_to_int32+0x12c>
   15384:	e59f0108 	ldr	r0, [pc, #264]	; 15494 <float64_to_int32+0x238>
   15388:	e590a000 	ldr	sl, [r0]
   1538c:	e35a0000 	cmp	sl, #0
   15390:	1a000010 	bne	153d8 <float64_to_int32+0x17c>
   15394:	e51b003c 	ldr	r0, [fp, #-60]	; 0xffffffc4
   15398:	e3500000 	cmp	r0, #0
   1539c:	aa000007 	bge	153c0 <float64_to_int32+0x164>
   153a0:	e51b0038 	ldr	r0, [fp, #-56]	; 0xffffffc8
   153a4:	e2800001 	add	r0, r0, #1
   153a8:	e50b0038 	str	r0, [fp, #-56]	; 0xffffffc8
   153ac:	e51b003c 	ldr	r0, [fp, #-60]	; 0xffffffc4
   153b0:	e1b00080 	lsls	r0, r0, #1
   153b4:	051b0038 	ldreq	r0, [fp, #-56]	; 0xffffffc8
   153b8:	03c00001 	biceq	r0, r0, #1
   153bc:	050b0038 	streq	r0, [fp, #-56]	; 0xffffffc8
   153c0:	e3550000 	cmp	r5, #0
   153c4:	151b0038 	ldrne	r0, [fp, #-56]	; 0xffffffc8
   153c8:	12609000 	rsbne	r9, r0, #0
   153cc:	1a000017 	bne	15430 <float64_to_int32+0x1d4>
   153d0:	e51b9038 	ldr	r9, [fp, #-56]	; 0xffffffc8
   153d4:	ea000015 	b	15430 <float64_to_int32+0x1d4>
   153d8:	e51b003c 	ldr	r0, [fp, #-60]	; 0xffffffc4
   153dc:	e3500000 	cmp	r0, #0
   153e0:	13a00001 	movne	r0, #1
   153e4:	e50b003c 	str	r0, [fp, #-60]	; 0xffffffc4
   153e8:	e3550000 	cmp	r5, #0
   153ec:	0a000008 	beq	15414 <float64_to_int32+0x1b8>
   153f0:	e35a0001 	cmp	sl, #1
   153f4:	03a01001 	moveq	r1, #1
   153f8:	13a01000 	movne	r1, #0
   153fc:	e51b003c 	ldr	r0, [fp, #-60]	; 0xffffffc4
   15400:	e0001001 	and	r1, r0, r1
   15404:	e51b0038 	ldr	r0, [fp, #-56]	; 0xffffffc8
   15408:	e0800001 	add	r0, r0, r1
   1540c:	e2609000 	rsb	r9, r0, #0
   15410:	ea000006 	b	15430 <float64_to_int32+0x1d4>
   15414:	e35a0002 	cmp	sl, #2
   15418:	03a01001 	moveq	r1, #1
   1541c:	13a01000 	movne	r1, #0
   15420:	e51b003c 	ldr	r0, [fp, #-60]	; 0xffffffc4
   15424:	e0000001 	and	r0, r0, r1
   15428:	e51b1038 	ldr	r1, [fp, #-56]	; 0xffffffc8
   1542c:	e0819000 	add	r9, r1, r0
   15430:	e3590000 	cmp	r9, #0
   15434:	b3a00001 	movlt	r0, #1
   15438:	a3a00000 	movge	r0, #0
   1543c:	e0350000 	eors	r0, r5, r0
   15440:	0a00000a 	beq	15470 <float64_to_int32+0x214>
   15444:	e3590000 	cmp	r9, #0
   15448:	0a000008 	beq	15470 <float64_to_int32+0x214>
   1544c:	e3a00000 	mov	r0, #0
   15450:	eb001a32 	bl	1bd20 <SYSTEM_$$_FLOAT_RAISE$TFPUEXCEPTION>
   15454:	e3550000 	cmp	r5, #0
   15458:	13a00102 	movne	r0, #-2147483648	; 0x80000000
   1545c:	150b0040 	strne	r0, [fp, #-64]	; 0xffffffc0
   15460:	1a000007 	bne	15484 <float64_to_int32+0x228>
   15464:	e3e00102 	mvn	r0, #-2147483648	; 0x80000000
   15468:	e50b0040 	str	r0, [fp, #-64]	; 0xffffffc0
   1546c:	ea000004 	b	15484 <float64_to_int32+0x228>
   15470:	e51b003c 	ldr	r0, [fp, #-60]	; 0xffffffc4
   15474:	e3500000 	cmp	r0, #0
   15478:	0a000000 	beq	15480 <float64_to_int32+0x224>
   1547c:	ebffeb52 	bl	101cc <SYSTEM_$$_SET_INEXACT_FLAG>
   15480:	e50b9040 	str	r9, [fp, #-64]	; 0xffffffc0
   15484:	e51b0040 	ldr	r0, [fp, #-64]	; 0xffffffc0
   15488:	e91baff8 	ldmdb	fp, {r3, r4, r5, r6, r7, r8, r9, sl, fp, sp, pc}
   1548c:	00052b90 	muleq	r5, r0, fp
   15490:	00051e50 	andeq	r1, r5, r0, asr lr
   15494:	00051e54 	andeq	r1, r5, r4, asr lr

00015498 <float64_to_int32_round_to_zero>:
   15498:	e1a0c00d 	mov	ip, sp
   1549c:	e92ddff8 	push	{r3, r4, r5, r6, r7, r8, r9, sl, fp, ip, lr, pc}
   154a0:	e24cb004 	sub	fp, ip, #4
   154a4:	e24dd040 	sub	sp, sp, #64	; 0x40
   154a8:	e14b03f4 	strd	r0, [fp, #-52]	; 0xffffffcc
   154ac:	e51b4034 	ldr	r4, [fp, #-52]	; 0xffffffcc
   154b0:	e51b0030 	ldr	r0, [fp, #-48]	; 0xffffffd0
   154b4:	e1a00600 	lsl	r0, r0, #12
   154b8:	e1a05620 	lsr	r5, r0, #12
   154bc:	e51b0030 	ldr	r0, [fp, #-48]	; 0xffffffd0
   154c0:	e1a00080 	lsl	r0, r0, #1
   154c4:	e1a00aa0 	lsr	r0, r0, #21
   154c8:	e6bf0070 	sxth	r0, r0
   154cc:	e1a06000 	mov	r6, r0
   154d0:	e51b0030 	ldr	r0, [fp, #-48]	; 0xffffffd0
   154d4:	e1a07fa0 	lsr	r7, r0, #31
   154d8:	e2460013 	sub	r0, r6, #19
   154dc:	e2400b01 	sub	r0, r0, #1024	; 0x400
   154e0:	e6bf0070 	sxth	r0, r0
   154e4:	e1a08000 	mov	r8, r0
   154e8:	e3580000 	cmp	r8, #0
   154ec:	ba000013 	blt	15540 <float64_to_int32_round_to_zero+0xa8>
   154f0:	e3a0001e 	mov	r0, #30
   154f4:	e3800b01 	orr	r0, r0, #1024	; 0x400
   154f8:	e1560000 	cmp	r6, r0
   154fc:	da000007 	ble	15520 <float64_to_int32_round_to_zero+0x88>
   15500:	e3a000ff 	mov	r0, #255	; 0xff
   15504:	e3800c07 	orr	r0, r0, #1792	; 0x700
   15508:	e1560000 	cmp	r6, r0
   1550c:	1a000028 	bne	155b4 <float64_to_int32_round_to_zero+0x11c>
   15510:	e1940005 	orrs	r0, r4, r5
   15514:	0a000026 	beq	155b4 <float64_to_int32_round_to_zero+0x11c>
   15518:	e3a07000 	mov	r7, #0
   1551c:	ea000024 	b	155b4 <float64_to_int32_round_to_zero+0x11c>
   15520:	e24b003c 	sub	r0, fp, #60	; 0x3c
   15524:	e58d0000 	str	r0, [sp]
   15528:	e3850601 	orr	r0, r5, #1048576	; 0x100000
   1552c:	e24b3038 	sub	r3, fp, #56	; 0x38
   15530:	e1a02008 	mov	r2, r8
   15534:	e1a01004 	mov	r1, r4
   15538:	ebffeda2 	bl	10bc8 <SYSTEM_$$_SHORTSHIFT64LEFT$LONGWORD$LONGWORD$SMALLINT$LONGWORD$LONGWORD>
   1553c:	ea000011 	b	15588 <float64_to_int32_round_to_zero+0xf0>
   15540:	e3a000ff 	mov	r0, #255	; 0xff
   15544:	e3800c03 	orr	r0, r0, #768	; 0x300
   15548:	e1560000 	cmp	r6, r0
   1554c:	aa000006 	bge	1556c <float64_to_int32_round_to_zero+0xd4>
   15550:	e6bf0076 	sxth	r0, r6
   15554:	e1850000 	orr	r0, r5, r0
   15558:	e1940000 	orrs	r0, r4, r0
   1555c:	0a000000 	beq	15564 <float64_to_int32_round_to_zero+0xcc>
   15560:	ebffeb19 	bl	101cc <SYSTEM_$$_SET_INEXACT_FLAG>
   15564:	e3a0a000 	mov	sl, #0
   15568:	ea00001d 	b	155e4 <float64_to_int32_round_to_zero+0x14c>
   1556c:	e3855601 	orr	r5, r5, #1048576	; 0x100000
   15570:	e208001f 	and	r0, r8, #31
   15574:	e1840015 	orr	r0, r4, r5, lsl r0
   15578:	e50b003c 	str	r0, [fp, #-60]	; 0xffffffc4
   1557c:	e2680000 	rsb	r0, r8, #0
   15580:	e1a00035 	lsr	r0, r5, r0
   15584:	e50b0038 	str	r0, [fp, #-56]	; 0xffffffc8
   15588:	e3570000 	cmp	r7, #0
   1558c:	151b0038 	ldrne	r0, [fp, #-56]	; 0xffffffc8
   15590:	12609000 	rsbne	r9, r0, #0
   15594:	051b9038 	ldreq	r9, [fp, #-56]	; 0xffffffc8
   15598:	e3590000 	cmp	r9, #0
   1559c:	b3a00001 	movlt	r0, #1
   155a0:	a3a00000 	movge	r0, #0
   155a4:	e0370000 	eors	r0, r7, r0
   155a8:	0a000008 	beq	155d0 <float64_to_int32_round_to_zero+0x138>
   155ac:	e3590000 	cmp	r9, #0
   155b0:	0a000006 	beq	155d0 <float64_to_int32_round_to_zero+0x138>
   155b4:	e3a00000 	mov	r0, #0
   155b8:	eb0019d8 	bl	1bd20 <SYSTEM_$$_FLOAT_RAISE$TFPUEXCEPTION>
   155bc:	e3570000 	cmp	r7, #0
   155c0:	13a0a102 	movne	sl, #-2147483648	; 0x80000000
   155c4:	1a000006 	bne	155e4 <float64_to_int32_round_to_zero+0x14c>
   155c8:	e3e0a102 	mvn	sl, #-2147483648	; 0x80000000
   155cc:	ea000004 	b	155e4 <float64_to_int32_round_to_zero+0x14c>
   155d0:	e51b003c 	ldr	r0, [fp, #-60]	; 0xffffffc4
   155d4:	e3500000 	cmp	r0, #0
