
add:     file format elf64-x86-64


Disassembly of section .text:

0000000000400140 <_dynamic_start>:
  400140:	48 8d 05 e1 d1 22 00 	lea    rax,[rip+0x22d1e1]        # 62d328 <__dl_fini>
  400147:	48 89 10             	mov    QWORD PTR [rax],rdx
  40014a:	eb 00                	jmp    40014c <_start>

000000000040014c <_start>:
  40014c:	5e                   	pop    rsi
  40014d:	48 8d 05 dc d1 22 00 	lea    rax,[rip+0x22d1dc]        # 62d330 <operatingsystem_parameter_argc>
  400154:	48 89 30             	mov    QWORD PTR [rax],rsi
  400157:	48 8d 05 da d1 22 00 	lea    rax,[rip+0x22d1da]        # 62d338 <operatingsystem_parameter_argv>
  40015e:	48 89 20             	mov    QWORD PTR [rax],rsp
  400161:	48 8d 04 f5 08 00 00 	lea    rax,[rsi*8+0x8]
  400168:	00 
  400169:	48 01 e0             	add    rax,rsp
  40016c:	48 8d 0d a5 d1 22 00 	lea    rcx,[rip+0x22d1a5]        # 62d318 <operatingsystem_parameter_envp>
  400173:	48 89 01             	mov    QWORD PTR [rcx],rax
  400176:	48 83 e4 f0          	and    rsp,0xfffffffffffffff0
  40017a:	48 8d 05 9f d1 22 00 	lea    rax,[rip+0x22d19f]        # 62d320 <__stkptr>
  400181:	48 89 20             	mov    QWORD PTR [rax],rsp
  400184:	48 31 ed             	xor    rbp,rbp
  400187:	e8 34 00 00 00       	call   4001c0 <PASCALMAIN>
  40018c:	eb 00                	jmp    40018e <_haltproc>

000000000040018e <_haltproc>:
  40018e:	48 8d 05 93 d1 22 00 	lea    rax,[rip+0x22d193]        # 62d328 <__dl_fini>
  400195:	48 8b 00             	mov    rax,QWORD PTR [rax]
  400198:	48 85 c0             	test   rax,rax
  40019b:	74 02                	je     40019f <_haltproc+0x11>
  40019d:	ff d0                	call   rax
  40019f:	48 8d 05 6a ad 22 00 	lea    rax,[rip+0x22ad6a]        # 62af10 <operatingsystem_result>
  4001a6:	0f b7 38             	movzx  edi,WORD PTR [rax]
  4001a9:	b8 e7 00 00 00       	mov    eax,0xe7
  4001ae:	0f 05                	syscall 
  4001b0:	eb dc                	jmp    40018e <_haltproc>
  4001b2:	90                   	nop
  4001b3:	90                   	nop
  4001b4:	90                   	nop
  4001b5:	90                   	nop
  4001b6:	90                   	nop
  4001b7:	90                   	nop
  4001b8:	90                   	nop
  4001b9:	90                   	nop
  4001ba:	90                   	nop
  4001bb:	90                   	nop
  4001bc:	90                   	nop
  4001bd:	90                   	nop
  4001be:	90                   	nop
  4001bf:	90                   	nop

00000000004001c0 <PASCALMAIN>:
  4001c0:	55                   	push   rbp
  4001c1:	48 89 e5             	mov    rbp,rsp
  4001c4:	e8 47 66 01 00       	call   416810 <FPC_INITIALIZEUNITS>
  4001c9:	66 c7 04 25 e0 ae 62 	mov    WORD PTR ds:0x62aee0,0x3
  4001d0:	00 03 00 
  4001d3:	66 c7 04 25 f0 ae 62 	mov    WORD PTR ds:0x62aef0,0x5
  4001da:	00 05 00 
  4001dd:	0f bf 14 25 e0 ae 62 	movsx  edx,WORD PTR ds:0x62aee0
  4001e4:	00 
  4001e5:	0f bf 04 25 f0 ae 62 	movsx  eax,WORD PTR ds:0x62aef0
  4001ec:	00 
  4001ed:	67 8d 04 02          	lea    eax,[edx+eax*1]
  4001f1:	66 a3 00 af 62 00 00 	movabs ds:0x62af00,ax
  4001f8:	00 00 00 
  4001fb:	e8 b0 6a 01 00       	call   416cb0 <FPC_DO_EXIT>
  400200:	c9                   	leave  
  400201:	c3                   	ret    
	...

0000000000400210 <FPC_SYS_GETERRNO>:
  400210:	48 8d 64 24 f8       	lea    rsp,[rsp-0x8]
  400215:	48 8d 05 34 cf 22 00 	lea    rax,[rip+0x22cf34]        # 62d150 <FPC_THREADVAR_RELOCATE>
  40021c:	48 8b 00             	mov    rax,QWORD PTR [rax]
  40021f:	48 85 c0             	test   rax,rax
  400222:	74 0a                	je     40022e <FPC_SYS_GETERRNO+0x1e>
  400224:	8b 3d 56 c0 22 00    	mov    edi,DWORD PTR [rip+0x22c056]        # 62c280 <U_$SYSTEM_$$_ERRNO>
  40022a:	ff d0                	call   rax
  40022c:	eb 07                	jmp    400235 <FPC_SYS_GETERRNO+0x25>
  40022e:	48 8d 05 53 c0 22 00 	lea    rax,[rip+0x22c053]        # 62c288 <U_$SYSTEM_$$_ERRNO+0x8>
  400235:	8b 00                	mov    eax,DWORD PTR [rax]
  400237:	48 8d 64 24 08       	lea    rsp,[rsp+0x8]
  40023c:	c3                   	ret    
  40023d:	00 00                	add    BYTE PTR [rax],al
	...

0000000000400240 <FPC_SYS_SETERRNO>:
  400240:	53                   	push   rbx
  400241:	89 fb                	mov    ebx,edi
  400243:	48 8d 05 06 cf 22 00 	lea    rax,[rip+0x22cf06]        # 62d150 <FPC_THREADVAR_RELOCATE>
  40024a:	48 8b 00             	mov    rax,QWORD PTR [rax]
  40024d:	48 85 c0             	test   rax,rax
  400250:	74 0a                	je     40025c <FPC_SYS_SETERRNO+0x1c>
  400252:	8b 3d 28 c0 22 00    	mov    edi,DWORD PTR [rip+0x22c028]        # 62c280 <U_$SYSTEM_$$_ERRNO>
  400258:	ff d0                	call   rax
  40025a:	eb 07                	jmp    400263 <FPC_SYS_SETERRNO+0x23>
  40025c:	48 8d 05 25 c0 22 00 	lea    rax,[rip+0x22c025]        # 62c288 <U_$SYSTEM_$$_ERRNO+0x8>
  400263:	89 da                	mov    edx,ebx
  400265:	89 10                	mov    DWORD PTR [rax],edx
  400267:	5b                   	pop    rbx
  400268:	c3                   	ret    
  400269:	00 00                	add    BYTE PTR [rax],al
  40026b:	00 00                	add    BYTE PTR [rax],al
  40026d:	00 00                	add    BYTE PTR [rax],al
	...

0000000000400270 <FPC_SYSCALL0>:
  400270:	55                   	push   rbp
  400271:	48 89 e5             	mov    rbp,rsp
  400274:	48 8d 64 24 f0       	lea    rsp,[rsp-0x10]
  400279:	48 89 f8             	mov    rax,rdi
  40027c:	0f 05                	syscall 
  40027e:	48 3d 01 f0 ff ff    	cmp    rax,0xfffffffffffff001
  400284:	72 15                	jb     40029b <FPC_SYSCALL0+0x2b>
  400286:	48 f7 d8             	neg    rax
  400289:	48 89 c7             	mov    rdi,rax
  40028c:	e8 af ff ff ff       	call   400240 <FPC_SYS_SETERRNO>
  400291:	48 b8 ff ff ff ff ff 	movabs rax,0xffffffffffffffff
  400298:	ff ff ff 
  40029b:	c9                   	leave  
  40029c:	c3                   	ret    
  40029d:	00 00                	add    BYTE PTR [rax],al
	...

00000000004002a0 <FPC_SYSCALL1>:
  4002a0:	55                   	push   rbp
  4002a1:	48 89 e5             	mov    rbp,rsp
  4002a4:	48 8d 64 24 f0       	lea    rsp,[rsp-0x10]
  4002a9:	48 89 f8             	mov    rax,rdi
  4002ac:	48 89 f7             	mov    rdi,rsi
  4002af:	0f 05                	syscall 
  4002b1:	48 3d 01 f0 ff ff    	cmp    rax,0xfffffffffffff001
  4002b7:	72 15                	jb     4002ce <FPC_SYSCALL1+0x2e>
  4002b9:	48 f7 d8             	neg    rax
  4002bc:	48 89 c7             	mov    rdi,rax
  4002bf:	e8 7c ff ff ff       	call   400240 <FPC_SYS_SETERRNO>
  4002c4:	48 b8 ff ff ff ff ff 	movabs rax,0xffffffffffffffff
  4002cb:	ff ff ff 
  4002ce:	c9                   	leave  
  4002cf:	c3                   	ret    

00000000004002d0 <FPC_SYSCALL2>:
  4002d0:	55                   	push   rbp
  4002d1:	48 89 e5             	mov    rbp,rsp
  4002d4:	48 8d 64 24 f0       	lea    rsp,[rsp-0x10]
  4002d9:	48 89 f8             	mov    rax,rdi
  4002dc:	48 89 f7             	mov    rdi,rsi
  4002df:	48 89 d6             	mov    rsi,rdx
  4002e2:	0f 05                	syscall 
  4002e4:	48 3d 01 f0 ff ff    	cmp    rax,0xfffffffffffff001
  4002ea:	72 15                	jb     400301 <FPC_SYSCALL2+0x31>
  4002ec:	48 f7 d8             	neg    rax
  4002ef:	48 89 c7             	mov    rdi,rax
  4002f2:	e8 49 ff ff ff       	call   400240 <FPC_SYS_SETERRNO>
  4002f7:	48 b8 ff ff ff ff ff 	movabs rax,0xffffffffffffffff
  4002fe:	ff ff ff 
  400301:	c9                   	leave  
  400302:	c3                   	ret    
	...

0000000000400310 <FPC_SYSCALL3>:
  400310:	55                   	push   rbp
  400311:	48 89 e5             	mov    rbp,rsp
  400314:	48 8d 64 24 f0       	lea    rsp,[rsp-0x10]
  400319:	48 89 f8             	mov    rax,rdi
  40031c:	48 89 f7             	mov    rdi,rsi
  40031f:	48 89 d6             	mov    rsi,rdx
  400322:	48 89 ca             	mov    rdx,rcx
  400325:	0f 05                	syscall 
  400327:	48 3d 01 f0 ff ff    	cmp    rax,0xfffffffffffff001
  40032d:	72 15                	jb     400344 <FPC_SYSCALL3+0x34>
  40032f:	48 f7 d8             	neg    rax
  400332:	48 89 c7             	mov    rdi,rax
  400335:	e8 06 ff ff ff       	call   400240 <FPC_SYS_SETERRNO>
  40033a:	48 b8 ff ff ff ff ff 	movabs rax,0xffffffffffffffff
  400341:	ff ff ff 
  400344:	c9                   	leave  
  400345:	c3                   	ret    
	...

0000000000400350 <FPC_SYSCALL4>:
  400350:	55                   	push   rbp
  400351:	48 89 e5             	mov    rbp,rsp
  400354:	48 8d 64 24 f0       	lea    rsp,[rsp-0x10]
  400359:	48 89 f8             	mov    rax,rdi
  40035c:	48 89 f7             	mov    rdi,rsi
  40035f:	48 89 d6             	mov    rsi,rdx
  400362:	48 89 ca             	mov    rdx,rcx
  400365:	4d 89 c2             	mov    r10,r8
  400368:	0f 05                	syscall 
  40036a:	48 3d 01 f0 ff ff    	cmp    rax,0xfffffffffffff001
  400370:	72 15                	jb     400387 <FPC_SYSCALL4+0x37>
  400372:	48 f7 d8             	neg    rax
  400375:	48 89 c7             	mov    rdi,rax
  400378:	e8 c3 fe ff ff       	call   400240 <FPC_SYS_SETERRNO>
  40037d:	48 b8 ff ff ff ff ff 	movabs rax,0xffffffffffffffff
  400384:	ff ff ff 
  400387:	c9                   	leave  
  400388:	c3                   	ret    
  400389:	00 00                	add    BYTE PTR [rax],al
  40038b:	00 00                	add    BYTE PTR [rax],al
  40038d:	00 00                	add    BYTE PTR [rax],al
	...

0000000000400390 <FPC_SYSCALL5>:
  400390:	55                   	push   rbp
  400391:	48 89 e5             	mov    rbp,rsp
  400394:	48 8d 64 24 f0       	lea    rsp,[rsp-0x10]
  400399:	48 89 f8             	mov    rax,rdi
  40039c:	48 89 f7             	mov    rdi,rsi
  40039f:	48 89 d6             	mov    rsi,rdx
  4003a2:	48 89 ca             	mov    rdx,rcx
  4003a5:	4d 89 c2             	mov    r10,r8
  4003a8:	4d 89 c8             	mov    r8,r9
  4003ab:	0f 05                	syscall 
  4003ad:	48 3d 01 f0 ff ff    	cmp    rax,0xfffffffffffff001
  4003b3:	72 15                	jb     4003ca <FPC_SYSCALL5+0x3a>
  4003b5:	48 f7 d8             	neg    rax
  4003b8:	48 89 c7             	mov    rdi,rax
  4003bb:	e8 80 fe ff ff       	call   400240 <FPC_SYS_SETERRNO>
  4003c0:	48 b8 ff ff ff ff ff 	movabs rax,0xffffffffffffffff
  4003c7:	ff ff ff 
  4003ca:	c9                   	leave  
  4003cb:	c3                   	ret    
  4003cc:	00 00                	add    BYTE PTR [rax],al
	...

00000000004003d0 <FPC_SYSCALL6>:
  4003d0:	55                   	push   rbp
  4003d1:	48 89 e5             	mov    rbp,rsp
  4003d4:	48 8d 64 24 f0       	lea    rsp,[rsp-0x10]
  4003d9:	48 89 f8             	mov    rax,rdi
  4003dc:	48 89 f7             	mov    rdi,rsi
  4003df:	48 89 d6             	mov    rsi,rdx
  4003e2:	48 89 ca             	mov    rdx,rcx
  4003e5:	4d 89 c2             	mov    r10,r8
  4003e8:	4d 89 c8             	mov    r8,r9
  4003eb:	4c 8b 4d 10          	mov    r9,QWORD PTR [rbp+0x10]
  4003ef:	0f 05                	syscall 
  4003f1:	48 3d 01 f0 ff ff    	cmp    rax,0xfffffffffffff001
  4003f7:	72 15                	jb     40040e <FPC_SYSCALL6+0x3e>
  4003f9:	48 f7 d8             	neg    rax
  4003fc:	48 89 c7             	mov    rdi,rax
  4003ff:	e8 3c fe ff ff       	call   400240 <FPC_SYS_SETERRNO>
  400404:	48 b8 ff ff ff ff ff 	movabs rax,0xffffffffffffffff
  40040b:	ff ff ff 
  40040e:	c9                   	leave  
  40040f:	c3                   	ret    

0000000000400410 <FPC_SYSC_TIME>:
  400410:	48 8d 64 24 f8       	lea    rsp,[rsp-0x8]
  400415:	48 89 fe             	mov    rsi,rdi
  400418:	48 bf c9 00 00 00 00 	movabs rdi,0xc9
  40041f:	00 00 00 
  400422:	e8 79 fe ff ff       	call   4002a0 <FPC_SYSCALL1>
  400427:	48 8d 64 24 08       	lea    rsp,[rsp+0x8]
  40042c:	c3                   	ret    
  40042d:	00 00                	add    BYTE PTR [rax],al
	...

0000000000400430 <FPC_SYSC_OPEN>:
  400430:	48 8d 64 24 f8       	lea    rsp,[rsp-0x8]
  400435:	89 d1                	mov    ecx,edx
  400437:	48 63 d6             	movsxd rdx,esi
  40043a:	48 81 ca 00 80 00 00 	or     rdx,0x8000
  400441:	48 63 c9             	movsxd rcx,ecx
  400444:	48 89 fe             	mov    rsi,rdi
  400447:	48 bf 02 00 00 00 00 	movabs rdi,0x2
  40044e:	00 00 00 
  400451:	e8 ba fe ff ff       	call   400310 <FPC_SYSCALL3>
  400456:	48 8d 64 24 08       	lea    rsp,[rsp+0x8]
  40045b:	c3                   	ret    
  40045c:	00 00                	add    BYTE PTR [rax],al
	...

0000000000400460 <FPC_SYSC_CLOSE>:
  400460:	48 8d 64 24 f8       	lea    rsp,[rsp-0x8]
  400465:	89 fe                	mov    esi,edi
  400467:	48 63 f6             	movsxd rsi,esi
  40046a:	48 bf 03 00 00 00 00 	movabs rdi,0x3
  400471:	00 00 00 
  400474:	e8 27 fe ff ff       	call   4002a0 <FPC_SYSCALL1>
  400479:	48 8d 64 24 08       	lea    rsp,[rsp+0x8]
  40047e:	c3                   	ret    
	...

0000000000400480 <FPC_SYSC_LSEEK>:
  400480:	48 8d 64 24 f8       	lea    rsp,[rsp-0x8]
  400485:	48 89 f0             	mov    rax,rsi
  400488:	89 d1                	mov    ecx,edx
  40048a:	48 63 c9             	movsxd rcx,ecx
  40048d:	48 63 f7             	movsxd rsi,edi
  400490:	48 89 c2             	mov    rdx,rax
  400493:	48 bf 08 00 00 00 00 	movabs rdi,0x8
  40049a:	00 00 00 
  40049d:	e8 6e fe ff ff       	call   400310 <FPC_SYSCALL3>
  4004a2:	48 8d 64 24 08       	lea    rsp,[rsp+0x8]
  4004a7:	c3                   	ret    
	...

00000000004004b0 <FPC_SYSC_READ>:
  4004b0:	48 8d 64 24 f8       	lea    rsp,[rsp-0x8]
  4004b5:	48 89 f0             	mov    rax,rsi
  4004b8:	48 89 d1             	mov    rcx,rdx
  4004bb:	48 63 f7             	movsxd rsi,edi
  4004be:	48 89 c2             	mov    rdx,rax
  4004c1:	48 bf 00 00 00 00 00 	movabs rdi,0x0
  4004c8:	00 00 00 
  4004cb:	e8 40 fe ff ff       	call   400310 <FPC_SYSCALL3>
  4004d0:	48 8d 64 24 08       	lea    rsp,[rsp+0x8]
  4004d5:	c3                   	ret    
	...

00000000004004e0 <FPC_SYSC_WRITE>:
  4004e0:	48 8d 64 24 f8       	lea    rsp,[rsp-0x8]
  4004e5:	48 89 f0             	mov    rax,rsi
  4004e8:	48 89 d1             	mov    rcx,rdx
  4004eb:	48 63 f7             	movsxd rsi,edi
  4004ee:	48 89 c2             	mov    rdx,rax
  4004f1:	48 bf 01 00 00 00 00 	movabs rdi,0x1
  4004f8:	00 00 00 
  4004fb:	e8 10 fe ff ff       	call   400310 <FPC_SYSCALL3>
  400500:	48 8d 64 24 08       	lea    rsp,[rsp+0x8]
  400505:	c3                   	ret    
	...

0000000000400510 <FPC_SYSC_UNLINK>:
  400510:	48 8d 64 24 f8       	lea    rsp,[rsp-0x8]
  400515:	48 89 fe             	mov    rsi,rdi
  400518:	48 bf 57 00 00 00 00 	movabs rdi,0x57
  40051f:	00 00 00 
  400522:	e8 79 fd ff ff       	call   4002a0 <FPC_SYSCALL1>
  400527:	48 8d 64 24 08       	lea    rsp,[rsp+0x8]
  40052c:	c3                   	ret    
  40052d:	00 00                	add    BYTE PTR [rax],al
	...

0000000000400530 <FPC_SYSC_RENAME>:
  400530:	48 8d 64 24 f8       	lea    rsp,[rsp-0x8]
  400535:	48 89 f2             	mov    rdx,rsi
  400538:	48 89 fe             	mov    rsi,rdi
  40053b:	48 bf 52 00 00 00 00 	movabs rdi,0x52
  400542:	00 00 00 
  400545:	e8 86 fd ff ff       	call   4002d0 <FPC_SYSCALL2>
  40054a:	48 8d 64 24 08       	lea    rsp,[rsp+0x8]
  40054f:	c3                   	ret    

0000000000400550 <FPC_SYSC_STAT>:
  400550:	48 8d 64 24 f8       	lea    rsp,[rsp-0x8]
  400555:	48 89 f2             	mov    rdx,rsi
  400558:	48 89 fe             	mov    rsi,rdi
  40055b:	48 bf 04 00 00 00 00 	movabs rdi,0x4
  400562:	00 00 00 
  400565:	e8 66 fd ff ff       	call   4002d0 <FPC_SYSCALL2>
  40056a:	48 8d 64 24 08       	lea    rsp,[rsp+0x8]
  40056f:	c3                   	ret    

0000000000400570 <FPC_SYSC_CHDIR>:
  400570:	48 8d 64 24 f8       	lea    rsp,[rsp-0x8]
  400575:	48 89 fe             	mov    rsi,rdi
  400578:	48 bf 50 00 00 00 00 	movabs rdi,0x50
  40057f:	00 00 00 
  400582:	e8 19 fd ff ff       	call   4002a0 <FPC_SYSCALL1>
  400587:	48 8d 64 24 08       	lea    rsp,[rsp+0x8]
  40058c:	c3                   	ret    
  40058d:	00 00                	add    BYTE PTR [rax],al
	...

0000000000400590 <FPC_SYSC_MKDIR>:
  400590:	48 8d 64 24 f8       	lea    rsp,[rsp-0x8]
  400595:	89 f2                	mov    edx,esi
  400597:	48 63 d2             	movsxd rdx,edx
  40059a:	48 89 fe             	mov    rsi,rdi
  40059d:	48 bf 53 00 00 00 00 	movabs rdi,0x53
  4005a4:	00 00 00 
  4005a7:	e8 24 fd ff ff       	call   4002d0 <FPC_SYSCALL2>
  4005ac:	48 8d 64 24 08       	lea    rsp,[rsp+0x8]
  4005b1:	c3                   	ret    
	...

00000000004005c0 <FPC_SYSC_RMDIR>:
  4005c0:	48 8d 64 24 f8       	lea    rsp,[rsp-0x8]
  4005c5:	48 89 fe             	mov    rsi,rdi
  4005c8:	48 bf 54 00 00 00 00 	movabs rdi,0x54
  4005cf:	00 00 00 
  4005d2:	e8 c9 fc ff ff       	call   4002a0 <FPC_SYSCALL1>
  4005d7:	48 8d 64 24 08       	lea    rsp,[rsp+0x8]
  4005dc:	c3                   	ret    
  4005dd:	00 00                	add    BYTE PTR [rax],al
	...

00000000004005e0 <FPC_SYSC_OPENDIR>:
  4005e0:	53                   	push   rbx
  4005e1:	41 54                	push   r12
  4005e3:	41 55                	push   r13
  4005e5:	48 8d a4 24 70 ff ff 	lea    rsp,[rsp-0x90]
  4005ec:	ff 
  4005ed:	48 89 fb             	mov    rbx,rdi
  4005f0:	49 bc 00 00 00 00 00 	movabs r12,0x0
  4005f7:	00 00 00 
  4005fa:	48 89 e6             	mov    rsi,rsp
  4005fd:	48 89 df             	mov    rdi,rbx
  400600:	e8 4b ff ff ff       	call   400550 <FPC_SYSC_STAT>
  400605:	83 f8 00             	cmp    eax,0x0
  400608:	0f 8c ad 00 00 00    	jl     4006bb <FPC_SYSC_OPENDIR+0xdb>
  40060e:	8b 44 24 18          	mov    eax,DWORD PTR [rsp+0x18]
  400612:	25 00 f0 00 00       	and    eax,0xf000
  400617:	3d 00 40 00 00       	cmp    eax,0x4000
  40061c:	74 2b                	je     400649 <FPC_SYSC_OPENDIR+0x69>
  40061e:	48 8d 05 2b cb 22 00 	lea    rax,[rip+0x22cb2b]        # 62d150 <FPC_THREADVAR_RELOCATE>
  400625:	48 8b 00             	mov    rax,QWORD PTR [rax]
  400628:	48 85 c0             	test   rax,rax
  40062b:	74 0a                	je     400637 <FPC_SYSC_OPENDIR+0x57>
  40062d:	8b 3d 4d bc 22 00    	mov    edi,DWORD PTR [rip+0x22bc4d]        # 62c280 <U_$SYSTEM_$$_ERRNO>
  400633:	ff d0                	call   rax
  400635:	eb 07                	jmp    40063e <FPC_SYSC_OPENDIR+0x5e>
  400637:	48 8d 05 4a bc 22 00 	lea    rax,[rip+0x22bc4a]        # 62c288 <U_$SYSTEM_$$_ERRNO+0x8>
  40063e:	c7 00 14 00 00 00    	mov    DWORD PTR [rax],0x14
  400644:	e9 72 00 00 00       	jmp    4006bb <FPC_SYSC_OPENDIR+0xdb>
  400649:	48 89 df             	mov    rdi,rbx
  40064c:	ba b6 01 00 00       	mov    edx,0x1b6
  400651:	be 00 00 00 00       	mov    esi,0x0
  400656:	e8 d5 fd ff ff       	call   400430 <FPC_SYSC_OPEN>
  40065b:	89 c3                	mov    ebx,eax
  40065d:	66 81 fb 00 00       	cmp    bx,0x0
  400662:	7c 57                	jl     4006bb <FPC_SYSC_OPENDIR+0xdb>
  400664:	48 bf 28 00 00 00 00 	movabs rdi,0x28
  40066b:	00 00 00 
  40066e:	e8 0d 75 01 00       	call   417b80 <FPC_GETMEM>
  400673:	49 89 c5             	mov    r13,rax
  400676:	4d 85 ed             	test   r13,r13
  400679:	74 40                	je     4006bb <FPC_SYSC_OPENDIR+0xdb>
  40067b:	48 bf 00 10 00 00 00 	movabs rdi,0x1000
  400682:	00 00 00 
  400685:	e8 f6 74 01 00       	call   417b80 <FPC_GETMEM>
  40068a:	49 89 45 10          	mov    QWORD PTR [r13+0x10],rax
  40068e:	49 83 7d 10 00       	cmp    QWORD PTR [r13+0x10],0x0
  400693:	74 26                	je     4006bb <FPC_SYSC_OPENDIR+0xdb>
  400695:	66 41 89 5d 00       	mov    WORD PTR [r13+0x0],bx
  40069a:	41 c7 45 04 00 00 00 	mov    DWORD PTR [r13+0x4],0x0
  4006a1:	00 
  4006a2:	66 41 c7 45 08 00 00 	mov    WORD PTR [r13+0x8],0x0
  4006a9:	41 c7 45 18 00 00 00 	mov    DWORD PTR [r13+0x18],0x0
  4006b0:	00 
  4006b1:	66 41 c7 45 1c 00 10 	mov    WORD PTR [r13+0x1c],0x1000
  4006b8:	4d 89 ec             	mov    r12,r13
  4006bb:	4c 89 e0             	mov    rax,r12
  4006be:	48 8d a4 24 90 00 00 	lea    rsp,[rsp+0x90]
  4006c5:	00 
  4006c6:	41 5d                	pop    r13
  4006c8:	41 5c                	pop    r12
  4006ca:	5b                   	pop    rbx
  4006cb:	c3                   	ret    
  4006cc:	00 00                	add    BYTE PTR [rax],al
	...

00000000004006d0 <FPC_SYSC_CLOSEDIR>:
  4006d0:	53                   	push   rbx
  4006d1:	41 54                	push   r12
  4006d3:	48 8d 64 24 f8       	lea    rsp,[rsp-0x8]
  4006d8:	48 89 fb             	mov    rbx,rdi
  4006db:	66 66 66 90          	data16 data16 xchg ax,ax
  4006df:	90                   	nop
  4006e0:	0f bf 3b             	movsx  edi,WORD PTR [rbx]
  4006e3:	e8 78 fd ff ff       	call   400460 <FPC_SYSC_CLOSE>
  4006e8:	41 89 c4             	mov    r12d,eax
  4006eb:	45 85 e4             	test   r12d,r12d
  4006ee:	74 25                	je     400715 <FPC_SYSC_CLOSEDIR+0x45>
  4006f0:	48 8d 05 59 ca 22 00 	lea    rax,[rip+0x22ca59]        # 62d150 <FPC_THREADVAR_RELOCATE>
  4006f7:	48 8b 00             	mov    rax,QWORD PTR [rax]
  4006fa:	48 85 c0             	test   rax,rax
  4006fd:	74 0a                	je     400709 <FPC_SYSC_CLOSEDIR+0x39>
  4006ff:	8b 3d 7b bb 22 00    	mov    edi,DWORD PTR [rip+0x22bb7b]        # 62c280 <U_$SYSTEM_$$_ERRNO>
  400705:	ff d0                	call   rax
  400707:	eb 07                	jmp    400710 <FPC_SYSC_CLOSEDIR+0x40>
  400709:	48 8d 05 78 bb 22 00 	lea    rax,[rip+0x22bb78]        # 62c288 <U_$SYSTEM_$$_ERRNO+0x8>
  400710:	83 38 04             	cmp    DWORD PTR [rax],0x4
  400713:	74 cb                	je     4006e0 <FPC_SYSC_CLOSEDIR+0x10>
  400715:	48 8b 7b 10          	mov    rdi,QWORD PTR [rbx+0x10]
  400719:	e8 82 74 01 00       	call   417ba0 <FPC_FREEMEM>
  40071e:	48 89 df             	mov    rdi,rbx
  400721:	e8 7a 74 01 00       	call   417ba0 <FPC_FREEMEM>
  400726:	44 89 e0             	mov    eax,r12d
  400729:	48 8d 64 24 08       	lea    rsp,[rsp+0x8]
  40072e:	41 5c                	pop    r12
  400730:	5b                   	pop    rbx
  400731:	c3                   	ret    
	...

0000000000400740 <FPC_SYSC_READDIR>:
  400740:	53                   	push   rbx
  400741:	41 54                	push   r12
  400743:	41 55                	push   r13
  400745:	41 56                	push   r14
  400747:	48 8d 64 24 f8       	lea    rsp,[rsp-0x8]
  40074c:	48 89 fb             	mov    rbx,rdi
  40074f:	90                   	nop
  400750:	8b 53 18             	mov    edx,DWORD PTR [rbx+0x18]
  400753:	48 0f bf 43 08       	movsx  rax,WORD PTR [rbx+0x8]
  400758:	48 39 c2             	cmp    rdx,rax
  40075b:	7c 40                	jl     40079d <FPC_SYSC_READDIR+0x5d>
  40075d:	48 0f bf 4b 1c       	movsx  rcx,WORD PTR [rbx+0x1c]
  400762:	48 0f bf 33          	movsx  rsi,WORD PTR [rbx]
  400766:	48 8b 53 10          	mov    rdx,QWORD PTR [rbx+0x10]
  40076a:	48 bf d9 00 00 00 00 	movabs rdi,0xd9
  400771:	00 00 00 
  400774:	e8 97 fb ff ff       	call   400310 <FPC_SYSCALL3>
  400779:	41 89 c4             	mov    r12d,eax
  40077c:	41 83 fc 00          	cmp    r12d,0x0
  400780:	7f 0c                	jg     40078e <FPC_SYSC_READDIR+0x4e>
  400782:	49 bd 00 00 00 00 00 	movabs r13,0x0
  400789:	00 00 00 
  40078c:	eb 36                	jmp    4007c4 <FPC_SYSC_READDIR+0x84>
  40078e:	66 44 89 e0          	mov    ax,r12w
  400792:	66 89 43 08          	mov    WORD PTR [rbx+0x8],ax
  400796:	c7 43 18 00 00 00 00 	mov    DWORD PTR [rbx+0x18],0x0
  40079d:	8b 43 18             	mov    eax,DWORD PTR [rbx+0x18]
  4007a0:	48 8b 53 10          	mov    rdx,QWORD PTR [rbx+0x10]
  4007a4:	48 8d 04 10          	lea    rax,[rax+rdx*1]
  4007a8:	49 89 c6             	mov    r14,rax
  4007ab:	41 0f b7 46 10       	movzx  eax,WORD PTR [r14+0x10]
  4007b0:	01 43 18             	add    DWORD PTR [rbx+0x18],eax
  4007b3:	41 0f b7 46 10       	movzx  eax,WORD PTR [r14+0x10]
  4007b8:	01 43 04             	add    DWORD PTR [rbx+0x4],eax
  4007bb:	49 83 3e 00          	cmp    QWORD PTR [r14],0x0
  4007bf:	74 8f                	je     400750 <FPC_SYSC_READDIR+0x10>
  4007c1:	4d 89 f5             	mov    r13,r14
  4007c4:	4c 89 e8             	mov    rax,r13
  4007c7:	48 8d 64 24 08       	lea    rsp,[rsp+0x8]
  4007cc:	41 5e                	pop    r14
  4007ce:	41 5d                	pop    r13
  4007d0:	41 5c                	pop    r12
  4007d2:	5b                   	pop    rbx
  4007d3:	c3                   	ret    
	...

00000000004007e0 <FPC_SYSC_EXIT>:
  4007e0:	48 8d 64 24 f8       	lea    rsp,[rsp-0x8]
  4007e5:	89 f8                	mov    eax,edi
  4007e7:	48 63 f0             	movsxd rsi,eax
  4007ea:	48 bf e7 00 00 00 00 	movabs rdi,0xe7
  4007f1:	00 00 00 
  4007f4:	e8 a7 fa ff ff       	call   4002a0 <FPC_SYSCALL1>
  4007f9:	48 8d 64 24 08       	lea    rsp,[rsp+0x8]
  4007fe:	c3                   	ret    
	...

0000000000400800 <SYSTEM_$$_LINUX_RESTORE>:
  400800:	48 b8 0f 00 00 00 00 	movabs rax,0xf
  400807:	00 00 00 
  40080a:	0f 05                	syscall 
  40080c:	c3                   	ret    
  40080d:	00 00                	add    BYTE PTR [rax],al
	...

0000000000400810 <FPC_SYSC_SIGACTION>:
  400810:	48 8d 64 24 f8       	lea    rsp,[rsp-0x8]
  400815:	48 89 f0             	mov    rax,rsi
  400818:	48 89 d1             	mov    rcx,rdx
  40081b:	48 85 c0             	test   rax,rax
  40081e:	74 2a                	je     40084a <FPC_SYSC_SIGACTION+0x3a>
  400820:	48 8b 50 08          	mov    rdx,QWORD PTR [rax+0x8]
  400824:	48 81 e2 00 00 00 0c 	and    rdx,0xc000000
  40082b:	48 85 d2             	test   rdx,rdx
  40082e:	75 1a                	jne    40084a <FPC_SYSC_SIGACTION+0x3a>
  400830:	48 8b 50 08          	mov    rdx,QWORD PTR [rax+0x8]
  400834:	48 81 ca 00 00 00 04 	or     rdx,0x4000000
  40083b:	48 89 50 08          	mov    QWORD PTR [rax+0x8],rdx
  40083f:	48 8d 15 ba ff ff ff 	lea    rdx,[rip+0xffffffffffffffba]        # 400800 <SYSTEM_$$_LINUX_RESTORE>
  400846:	48 89 50 10          	mov    QWORD PTR [rax+0x10],rdx
  40084a:	48 63 f7             	movsxd rsi,edi
  40084d:	48 89 c2             	mov    rdx,rax
  400850:	49 b8 08 00 00 00 00 	movabs r8,0x8
  400857:	00 00 00 
  40085a:	48 bf 0d 00 00 00 00 	movabs rdi,0xd
  400861:	00 00 00 
  400864:	e8 e7 fa ff ff       	call   400350 <FPC_SYSCALL4>
  400869:	48 8d 64 24 08       	lea    rsp,[rsp+0x8]
  40086e:	c3                   	ret    
	...

0000000000400870 <FPC_SYSC_FTRUNCATE>:
  400870:	48 8d 64 24 f8       	lea    rsp,[rsp-0x8]
  400875:	48 89 f2             	mov    rdx,rsi
  400878:	48 63 f7             	movsxd rsi,edi
  40087b:	48 bf 4d 00 00 00 00 	movabs rdi,0x4d
  400882:	00 00 00 
  400885:	e8 46 fa ff ff       	call   4002d0 <FPC_SYSCALL2>
  40088a:	48 8d 64 24 08       	lea    rsp,[rsp+0x8]
  40088f:	c3                   	ret    

0000000000400890 <FPC_SYSC_FSTAT>:
  400890:	48 8d 64 24 f8       	lea    rsp,[rsp-0x8]
  400895:	48 89 f2             	mov    rdx,rsi
  400898:	48 63 f7             	movsxd rsi,edi
  40089b:	48 bf 05 00 00 00 00 	movabs rdi,0x5
  4008a2:	00 00 00 
  4008a5:	e8 26 fa ff ff       	call   4002d0 <FPC_SYSCALL2>
  4008aa:	48 8d 64 24 08       	lea    rsp,[rsp+0x8]
  4008af:	c3                   	ret    

00000000004008b0 <FPC_SYSC_FORK>:
  4008b0:	48 8d 64 24 f8       	lea    rsp,[rsp-0x8]
  4008b5:	48 bf 39 00 00 00 00 	movabs rdi,0x39
  4008bc:	00 00 00 
  4008bf:	e8 ac f9 ff ff       	call   400270 <FPC_SYSCALL0>
  4008c4:	48 8d 64 24 08       	lea    rsp,[rsp+0x8]
  4008c9:	c3                   	ret    
  4008ca:	00 00                	add    BYTE PTR [rax],al
  4008cc:	00 00                	add    BYTE PTR [rax],al
	...

00000000004008d0 <FPC_SYSC_WAITPID>:
  4008d0:	48 8d 64 24 f8       	lea    rsp,[rsp-0x8]
  4008d5:	48 89 f0             	mov    rax,rsi
  4008d8:	89 d1                	mov    ecx,edx
  4008da:	48 63 c9             	movsxd rcx,ecx
  4008dd:	48 63 f7             	movsxd rsi,edi
  4008e0:	48 89 c2             	mov    rdx,rax
  4008e3:	49 b8 00 00 00 00 00 	movabs r8,0x0
  4008ea:	00 00 00 
  4008ed:	48 bf 3d 00 00 00 00 	movabs rdi,0x3d
  4008f4:	00 00 00 
  4008f7:	e8 54 fa ff ff       	call   400350 <FPC_SYSCALL4>
  4008fc:	48 8d 64 24 08       	lea    rsp,[rsp+0x8]
  400901:	c3                   	ret    
	...

0000000000400910 <FPC_SYSC_ACCESS>:
  400910:	48 8d 64 24 f8       	lea    rsp,[rsp-0x8]
  400915:	89 f2                	mov    edx,esi
  400917:	48 63 d2             	movsxd rdx,edx
  40091a:	48 89 fe             	mov    rsi,rdi
  40091d:	48 bf 15 00 00 00 00 	movabs rdi,0x15
  400924:	00 00 00 
  400927:	e8 a4 f9 ff ff       	call   4002d0 <FPC_SYSCALL2>
  40092c:	48 8d 64 24 08       	lea    rsp,[rsp+0x8]
  400931:	c3                   	ret    
	...

0000000000400940 <FPC_SYSC_DUP>:
  400940:	48 8d 64 24 f8       	lea    rsp,[rsp-0x8]
  400945:	89 fe                	mov    esi,edi
  400947:	48 63 f6             	movsxd rsi,esi
  40094a:	48 bf 20 00 00 00 00 	movabs rdi,0x20
  400951:	00 00 00 
  400954:	e8 47 f9 ff ff       	call   4002a0 <FPC_SYSCALL1>
  400959:	48 8d 64 24 08       	lea    rsp,[rsp+0x8]
  40095e:	c3                   	ret    
	...

0000000000400960 <FPC_SYSC_DUP2>:
  400960:	48 8d 64 24 f8       	lea    rsp,[rsp-0x8]
  400965:	89 f2                	mov    edx,esi
  400967:	48 63 d2             	movsxd rdx,edx
  40096a:	48 63 f7             	movsxd rsi,edi
  40096d:	48 bf 21 00 00 00 00 	movabs rdi,0x21
  400974:	00 00 00 
  400977:	e8 54 f9 ff ff       	call   4002d0 <FPC_SYSCALL2>
  40097c:	48 8d 64 24 08       	lea    rsp,[rsp+0x8]
  400981:	c3                   	ret    
	...

0000000000400990 <FPC_SYSC_MMAP>:
  400990:	48 8d 64 24 f8       	lea    rsp,[rsp-0x8]
  400995:	4c 89 0c 24          	mov    QWORD PTR [rsp],r9
  400999:	4d 63 c8             	movsxd r9,r8d
  40099c:	4c 63 c1             	movsxd r8,ecx
  40099f:	48 63 ca             	movsxd rcx,edx
  4009a2:	48 89 f2             	mov    rdx,rsi
  4009a5:	48 89 fe             	mov    rsi,rdi
  4009a8:	48 bf 09 00 00 00 00 	movabs rdi,0x9
  4009af:	00 00 00 
  4009b2:	e8 19 fa ff ff       	call   4003d0 <FPC_SYSCALL6>
  4009b7:	48 8d 64 24 08       	lea    rsp,[rsp+0x8]
  4009bc:	c3                   	ret    
  4009bd:	00 00                	add    BYTE PTR [rax],al
	...

00000000004009c0 <FPC_SYSC_MUNMAP>:
  4009c0:	48 8d 64 24 f8       	lea    rsp,[rsp-0x8]
  4009c5:	48 89 f2             	mov    rdx,rsi
  4009c8:	48 89 fe             	mov    rsi,rdi
  4009cb:	48 bf 0b 00 00 00 00 	movabs rdi,0xb
  4009d2:	00 00 00 
  4009d5:	e8 f6 f8 ff ff       	call   4002d0 <FPC_SYSCALL2>
  4009da:	48 8d 64 24 08       	lea    rsp,[rsp+0x8]
  4009df:	c3                   	ret    

00000000004009e0 <FPC_SYSC_IOCTL>:
  4009e0:	48 8d 64 24 f8       	lea    rsp,[rsp-0x8]
  4009e5:	48 89 d1             	mov    rcx,rdx
  4009e8:	48 63 d6             	movsxd rdx,esi
  4009eb:	48 63 f7             	movsxd rsi,edi
  4009ee:	48 bf 10 00 00 00 00 	movabs rdi,0x10
  4009f5:	00 00 00 
  4009f8:	e8 13 f9 ff ff       	call   400310 <FPC_SYSCALL3>
  4009fd:	48 8d 64 24 08       	lea    rsp,[rsp+0x8]
  400a02:	c3                   	ret    
	...

0000000000400a10 <FPC_SYSC_GETPID>:
  400a10:	48 8d 64 24 f8       	lea    rsp,[rsp-0x8]
  400a15:	48 bf 27 00 00 00 00 	movabs rdi,0x27
  400a1c:	00 00 00 
  400a1f:	e8 4c f8 ff ff       	call   400270 <FPC_SYSCALL0>
  400a24:	48 8d 64 24 08       	lea    rsp,[rsp+0x8]
  400a29:	c3                   	ret    
  400a2a:	00 00                	add    BYTE PTR [rax],al
  400a2c:	00 00                	add    BYTE PTR [rax],al
	...

0000000000400a30 <FPC_SYSC_READLINK>:
  400a30:	48 8d 64 24 f8       	lea    rsp,[rsp-0x8]
  400a35:	48 89 d1             	mov    rcx,rdx
  400a38:	48 89 f2             	mov    rdx,rsi
  400a3b:	48 89 fe             	mov    rsi,rdi
  400a3e:	48 bf 59 00 00 00 00 	movabs rdi,0x59
  400a45:	00 00 00 
  400a48:	e8 c3 f8 ff ff       	call   400310 <FPC_SYSCALL3>
  400a4d:	48 8d 64 24 08       	lea    rsp,[rsp+0x8]
  400a52:	c3                   	ret    
	...

0000000000400a60 <FPC_SYSC_SIGPROCMASK>:
  400a60:	48 8d 64 24 f8       	lea    rsp,[rsp-0x8]
  400a65:	48 89 f0             	mov    rax,rsi
  400a68:	48 89 d1             	mov    rcx,rdx
  400a6b:	48 63 f7             	movsxd rsi,edi
  400a6e:	48 89 c2             	mov    rdx,rax
  400a71:	49 b8 08 00 00 00 00 	movabs r8,0x8
  400a78:	00 00 00 
  400a7b:	48 bf 0e 00 00 00 00 	movabs rdi,0xe
  400a82:	00 00 00 
  400a85:	e8 c6 f8 ff ff       	call   400350 <FPC_SYSCALL4>
  400a8a:	48 8d 64 24 08       	lea    rsp,[rsp+0x8]
  400a8f:	c3                   	ret    

0000000000400a90 <FPC_SYSC_NANOSLEEP>:
  400a90:	48 8d 64 24 f8       	lea    rsp,[rsp-0x8]
  400a95:	48 89 f2             	mov    rdx,rsi
  400a98:	48 89 fe             	mov    rsi,rdi
  400a9b:	48 bf 23 00 00 00 00 	movabs rdi,0x23
  400aa2:	00 00 00 
  400aa5:	e8 26 f8 ff ff       	call   4002d0 <FPC_SYSCALL2>
  400aaa:	48 8d 64 24 08       	lea    rsp,[rsp+0x8]
  400aaf:	c3                   	ret    

0000000000400ab0 <FPC_SYSC_GETCWD>:
  400ab0:	48 8d 64 24 f8       	lea    rsp,[rsp-0x8]
  400ab5:	48 89 f2             	mov    rdx,rsi
  400ab8:	48 89 fe             	mov    rsi,rdi
  400abb:	48 bf 4f 00 00 00 00 	movabs rdi,0x4f
  400ac2:	00 00 00 
  400ac5:	e8 06 f8 ff ff       	call   4002d0 <FPC_SYSCALL2>
  400aca:	48 8d 64 24 08       	lea    rsp,[rsp+0x8]
  400acf:	c3                   	ret    

0000000000400ad0 <FPC_SYSC_GETTIMEOFDAY>:
  400ad0:	48 8d 64 24 f8       	lea    rsp,[rsp-0x8]
  400ad5:	48 89 f2             	mov    rdx,rsi
  400ad8:	48 89 fe             	mov    rsi,rdi
  400adb:	48 bf 60 00 00 00 00 	movabs rdi,0x60
  400ae2:	00 00 00 
  400ae5:	e8 e6 f7 ff ff       	call   4002d0 <FPC_SYSCALL2>
  400aea:	48 8d 64 24 08       	lea    rsp,[rsp+0x8]
  400aef:	c3                   	ret    

0000000000400af0 <FPC_SYSC_GETRLIMIT>:
  400af0:	48 8d 64 24 f8       	lea    rsp,[rsp-0x8]
  400af5:	48 89 f2             	mov    rdx,rsi
  400af8:	48 63 f7             	movsxd rsi,edi
  400afb:	48 bf 61 00 00 00 00 	movabs rdi,0x61
  400b02:	00 00 00 
  400b05:	e8 c6 f7 ff ff       	call   4002d0 <FPC_SYSCALL2>
  400b0a:	48 8d 64 24 08       	lea    rsp,[rsp+0x8]
  400b0f:	c3                   	ret    

0000000000400b10 <FPC_SYSC_SETRLIMIT>:
  400b10:	48 8d 64 24 f8       	lea    rsp,[rsp-0x8]
  400b15:	48 89 f2             	mov    rdx,rsi
  400b18:	48 63 f7             	movsxd rsi,edi
  400b1b:	48 bf a0 00 00 00 00 	movabs rdi,0xa0
  400b22:	00 00 00 
  400b25:	e8 a6 f7 ff ff       	call   4002d0 <FPC_SYSCALL2>
  400b2a:	48 8d 64 24 08       	lea    rsp,[rsp+0x8]
  400b2f:	c3                   	ret    

0000000000400b30 <FPC_SYSC_FPGETENVPCHAR>:
  400b30:	48 85 ff             	test   rdi,rdi
  400b33:	74 0d                	je     400b42 <FPC_SYSC_FPGETENVPCHAR+0x12>
  400b35:	48 8d 05 dc c7 22 00 	lea    rax,[rip+0x22c7dc]        # 62d318 <operatingsystem_parameter_envp>
  400b3c:	48 83 38 00          	cmp    QWORD PTR [rax],0x0
  400b40:	75 0f                	jne    400b51 <FPC_SYSC_FPGETENVPCHAR+0x21>
  400b42:	48 b8 00 00 00 00 00 	movabs rax,0x0
  400b49:	00 00 00 
  400b4c:	e9 8d 00 00 00       	jmp    400bde <FPC_SYSC_FPGETENVPCHAR+0xae>
  400b51:	48 89 fa             	mov    rdx,rdi
  400b54:	eb 06                	jmp    400b5c <FPC_SYSC_FPGETENVPCHAR+0x2c>
  400b56:	66 90                	xchg   ax,ax
  400b58:	48 83 c2 01          	add    rdx,0x1
  400b5c:	8a 0a                	mov    cl,BYTE PTR [rdx]
  400b5e:	84 c9                	test   cl,cl
  400b60:	74 05                	je     400b67 <FPC_SYSC_FPGETENVPCHAR+0x37>
  400b62:	80 f9 3d             	cmp    cl,0x3d
  400b65:	75 f1                	jne    400b58 <FPC_SYSC_FPGETENVPCHAR+0x28>
  400b67:	48 89 d1             	mov    rcx,rdx
  400b6a:	48 29 f9             	sub    rcx,rdi
  400b6d:	48 8d 35 a4 c7 22 00 	lea    rsi,[rip+0x22c7a4]        # 62d318 <operatingsystem_parameter_envp>
  400b74:	4c 8b 16             	mov    r10,QWORD PTR [rsi]
  400b77:	eb 55                	jmp    400bce <FPC_SYSC_FPGETENVPCHAR+0x9e>
  400b79:	66 66 66 90          	data16 data16 xchg ax,ax
  400b7d:	66 66 90             	data16 xchg ax,ax
  400b80:	4d 8b 0a             	mov    r9,QWORD PTR [r10]
  400b83:	48 89 fa             	mov    rdx,rdi
  400b86:	89 ce                	mov    esi,ecx
  400b88:	eb 23                	jmp    400bad <FPC_SYSC_FPGETENVPCHAR+0x7d>
  400b8a:	66 66 66 90          	data16 data16 xchg ax,ax
  400b8e:	66 90                	xchg   ax,ax
  400b90:	45 8a 01             	mov    r8b,BYTE PTR [r9]
  400b93:	44 3a 02             	cmp    r8b,BYTE PTR [rdx]
  400b96:	74 0a                	je     400ba2 <FPC_SYSC_FPGETENVPCHAR+0x72>
  400b98:	49 83 c1 01          	add    r9,0x1
  400b9c:	48 83 c2 01          	add    rdx,0x1
  400ba0:	eb 15                	jmp    400bb7 <FPC_SYSC_FPGETENVPCHAR+0x87>
  400ba2:	49 83 c1 01          	add    r9,0x1
  400ba6:	48 83 c2 01          	add    rdx,0x1
  400baa:	83 ee 01             	sub    esi,0x1
  400bad:	85 f6                	test   esi,esi
  400baf:	74 06                	je     400bb7 <FPC_SYSC_FPGETENVPCHAR+0x87>
  400bb1:	41 80 39 00          	cmp    BYTE PTR [r9],0x0
  400bb5:	75 d9                	jne    400b90 <FPC_SYSC_FPGETENVPCHAR+0x60>
  400bb7:	85 f6                	test   esi,esi
  400bb9:	75 0f                	jne    400bca <FPC_SYSC_FPGETENVPCHAR+0x9a>
  400bbb:	41 80 39 3d          	cmp    BYTE PTR [r9],0x3d
  400bbf:	75 09                	jne    400bca <FPC_SYSC_FPGETENVPCHAR+0x9a>
  400bc1:	4d 8d 41 01          	lea    r8,[r9+0x1]
  400bc5:	4c 89 c0             	mov    rax,r8
  400bc8:	eb 14                	jmp    400bde <FPC_SYSC_FPGETENVPCHAR+0xae>
  400bca:	49 83 c2 08          	add    r10,0x8
  400bce:	49 83 3a 00          	cmp    QWORD PTR [r10],0x0
  400bd2:	75 ac                	jne    400b80 <FPC_SYSC_FPGETENVPCHAR+0x50>
  400bd4:	48 b8 00 00 00 00 00 	movabs rax,0x0
  400bdb:	00 00 00 
  400bde:	c3                   	ret    
	...

0000000000400be0 <SYSTEM_$$_FPS_ISDIR$LONGINT$$BOOLEAN>:
  400be0:	81 e7 00 f0 00 00    	and    edi,0xf000
  400be6:	81 ff 00 40 00 00    	cmp    edi,0x4000
  400bec:	0f 94 c0             	sete   al
  400bef:	25 ff 00 00 00       	and    eax,0xff
  400bf4:	c3                   	ret    
	...

0000000000400c00 <SYSTEM_$$_FPS_ISCHR$LONGINT$$BOOLEAN>:
  400c00:	81 e7 00 f0 00 00    	and    edi,0xf000
  400c06:	81 ff 00 20 00 00    	cmp    edi,0x2000
  400c0c:	0f 94 c0             	sete   al
  400c0f:	25 ff 00 00 00       	and    eax,0xff
  400c14:	c3                   	ret    
	...

0000000000400c20 <SYSTEM_$$_FPS_ISBLK$LONGINT$$BOOLEAN>:
  400c20:	81 e7 00 f0 00 00    	and    edi,0xf000
  400c26:	81 ff 00 60 00 00    	cmp    edi,0x6000
  400c2c:	0f 94 c0             	sete   al
  400c2f:	25 ff 00 00 00       	and    eax,0xff
  400c34:	c3                   	ret    
	...

0000000000400c40 <SYSTEM_$$_FPS_ISREG$LONGINT$$BOOLEAN>:
  400c40:	81 e7 00 f0 00 00    	and    edi,0xf000
  400c46:	81 ff 00 80 00 00    	cmp    edi,0x8000
  400c4c:	0f 94 c0             	sete   al
  400c4f:	25 ff 00 00 00       	and    eax,0xff
  400c54:	c3                   	ret    
	...

0000000000400c60 <SYSTEM_$$_FPS_ISFIFO$LONGINT$$BOOLEAN>:
  400c60:	81 e7 00 f0 00 00    	and    edi,0xf000
  400c66:	81 ff 00 10 00 00    	cmp    edi,0x1000
  400c6c:	0f 94 c0             	sete   al
  400c6f:	25 ff 00 00 00       	and    eax,0xff
  400c74:	c3                   	ret    
	...

0000000000400c80 <SYSTEM_$$_FPS_ISLNK$LONGINT$$BOOLEAN>:
  400c80:	81 e7 00 f0 00 00    	and    edi,0xf000
  400c86:	81 ff 00 a0 00 00    	cmp    edi,0xa000
  400c8c:	0f 94 c0             	sete   al
  400c8f:	25 ff 00 00 00       	and    eax,0xff
  400c94:	c3                   	ret    
	...

0000000000400ca0 <SYSTEM_$$_FPS_ISSOCK$LONGINT$$BOOLEAN>:
  400ca0:	81 e7 00 f0 00 00    	and    edi,0xf000
  400ca6:	81 ff 00 c0 00 00    	cmp    edi,0xc000
  400cac:	0f 94 c0             	sete   al
  400caf:	25 ff 00 00 00       	and    eax,0xff
  400cb4:	c3                   	ret    
	...

0000000000400cc0 <SYSTEM_$$_WIFEXITED$LONGINT$$BOOLEAN>:
  400cc0:	83 e7 7f             	and    edi,0x7f
  400cc3:	85 ff                	test   edi,edi
  400cc5:	0f 94 c0             	sete   al
  400cc8:	25 ff 00 00 00       	and    eax,0xff
  400ccd:	c3                   	ret    
	...

0000000000400cd0 <SYSTEM_$$_WEXITSTATUS$LONGINT$$LONGINT>:
  400cd0:	89 f8                	mov    eax,edi
  400cd2:	25 00 ff 00 00       	and    eax,0xff00
  400cd7:	c1 e8 08             	shr    eax,0x8
  400cda:	c3                   	ret    
  400cdb:	00 00                	add    BYTE PTR [rax],al
  400cdd:	00 00                	add    BYTE PTR [rax],al
	...

0000000000400ce0 <SYSTEM_$$_WSTOPSIG$LONGINT$$LONGINT>:
  400ce0:	89 f8                	mov    eax,edi
  400ce2:	25 00 ff 00 00       	and    eax,0xff00
  400ce7:	c1 e8 08             	shr    eax,0x8
  400cea:	c3                   	ret    
  400ceb:	00 00                	add    BYTE PTR [rax],al
  400ced:	00 00                	add    BYTE PTR [rax],al
	...

0000000000400cf0 <SYSTEM_$$_WIFSIGNALED$LONGINT$$BOOLEAN>:
  400cf0:	89 f8                	mov    eax,edi
  400cf2:	25 ff 00 00 00       	and    eax,0xff
  400cf7:	83 f8 7f             	cmp    eax,0x7f
  400cfa:	74 0b                	je     400d07 <SYSTEM_$$_WIFSIGNALED$LONGINT$$BOOLEAN+0x17>
  400cfc:	83 e7 7f             	and    edi,0x7f
  400cff:	85 ff                	test   edi,edi
  400d01:	74 04                	je     400d07 <SYSTEM_$$_WIFSIGNALED$LONGINT$$BOOLEAN+0x17>
  400d03:	b0 01                	mov    al,0x1
  400d05:	eb 02                	jmp    400d09 <SYSTEM_$$_WIFSIGNALED$LONGINT$$BOOLEAN+0x19>
  400d07:	b0 00                	mov    al,0x0
  400d09:	25 ff 00 00 00       	and    eax,0xff
  400d0e:	c3                   	ret    
	...

0000000000400d10 <SYSTEM_$$_WTERMSIG$LONGINT$$LONGINT>:
  400d10:	89 f8                	mov    eax,edi
  400d12:	83 e0 7f             	and    eax,0x7f
  400d15:	c3                   	ret    
	...

0000000000400d20 <SYSTEM_$$_POSIXTORUNERROR$LONGINT$$WORD>:
  400d20:	53                   	push   rbx
  400d21:	89 f8                	mov    eax,edi
  400d23:	83 e8 02             	sub    eax,0x2
  400d26:	83 f8 25             	cmp    eax,0x25
  400d29:	77 4a                	ja     400d75 <SYSTEM_$$_POSIXTORUNERROR$LONGINT$$WORD+0x55>
  400d2b:	48 63 c0             	movsxd rax,eax
  400d2e:	48 8d 15 6b 25 22 00 	lea    rdx,[rip+0x22256b]        # 6232a0 <.Ld1>
  400d35:	48 63 04 82          	movsxd rax,DWORD PTR [rdx+rax*4]
  400d39:	48 8d 04 02          	lea    rax,[rdx+rax*1]
  400d3d:	ff e0                	jmp    rax
  400d3f:	66 bb 04 00          	mov    bx,0x4
  400d43:	eb 33                	jmp    400d78 <SYSTEM_$$_POSIXTORUNERROR$LONGINT$$WORD+0x58>
  400d45:	66 bb 02 00          	mov    bx,0x2
  400d49:	eb 2d                	jmp    400d78 <SYSTEM_$$_POSIXTORUNERROR$LONGINT$$WORD+0x58>
  400d4b:	66 bb 06 00          	mov    bx,0x6
  400d4f:	eb 27                	jmp    400d78 <SYSTEM_$$_POSIXTORUNERROR$LONGINT$$WORD+0x58>
  400d51:	66 bb d9 00          	mov    bx,0xd9
  400d55:	eb 21                	jmp    400d78 <SYSTEM_$$_POSIXTORUNERROR$LONGINT$$WORD+0x58>
  400d57:	66 bb da 00          	mov    bx,0xda
  400d5b:	eb 1b                	jmp    400d78 <SYSTEM_$$_POSIXTORUNERROR$LONGINT$$WORD+0x58>
  400d5d:	66 bb 65 00          	mov    bx,0x65
  400d61:	eb 15                	jmp    400d78 <SYSTEM_$$_POSIXTORUNERROR$LONGINT$$WORD+0x58>
  400d63:	66 bb 03 00          	mov    bx,0x3
  400d67:	eb 0f                	jmp    400d78 <SYSTEM_$$_POSIXTORUNERROR$LONGINT$$WORD+0x58>
  400d69:	66 bb 05 00          	mov    bx,0x5
  400d6d:	eb 09                	jmp    400d78 <SYSTEM_$$_POSIXTORUNERROR$LONGINT$$WORD+0x58>
  400d6f:	66 bb 05 00          	mov    bx,0x5
  400d73:	eb 03                	jmp    400d78 <SYSTEM_$$_POSIXTORUNERROR$LONGINT$$WORD+0x58>
  400d75:	66 89 fb             	mov    bx,di
  400d78:	48 8d 05 d1 c3 22 00 	lea    rax,[rip+0x22c3d1]        # 62d150 <FPC_THREADVAR_RELOCATE>
  400d7f:	48 8b 00             	mov    rax,QWORD PTR [rax]
  400d82:	48 85 c0             	test   rax,rax
  400d85:	74 10                	je     400d97 <SYSTEM_$$_POSIXTORUNERROR$LONGINT$$WORD+0x77>
  400d87:	48 8d 15 82 b3 22 00 	lea    rdx,[rip+0x22b382]        # 62c110 <U_$SYSTEM_$$_INOUTRES>
  400d8e:	8b 3a                	mov    edi,DWORD PTR [rdx]
  400d90:	ff d0                	call   rax
  400d92:	48 89 c2             	mov    rdx,rax
  400d95:	eb 0b                	jmp    400da2 <SYSTEM_$$_POSIXTORUNERROR$LONGINT$$WORD+0x82>
  400d97:	48 8d 15 72 b3 22 00 	lea    rdx,[rip+0x22b372]        # 62c110 <U_$SYSTEM_$$_INOUTRES>
  400d9e:	48 83 c2 08          	add    rdx,0x8
  400da2:	66 89 d8             	mov    ax,bx
  400da5:	66 89 02             	mov    WORD PTR [rdx],ax
  400da8:	25 ff ff 00 00       	and    eax,0xffff
  400dad:	5b                   	pop    rbx
  400dae:	c3                   	ret    
	...

0000000000400db0 <SYSTEM_$$_ERRNO2INOUTRES$$WORD>:
  400db0:	53                   	push   rbx
  400db1:	e8 5a f4 ff ff       	call   400210 <FPC_SYS_GETERRNO>
  400db6:	89 c7                	mov    edi,eax
  400db8:	e8 63 ff ff ff       	call   400d20 <SYSTEM_$$_POSIXTORUNERROR$LONGINT$$WORD>
  400dbd:	66 89 c3             	mov    bx,ax
  400dc0:	48 8d 05 89 c3 22 00 	lea    rax,[rip+0x22c389]        # 62d150 <FPC_THREADVAR_RELOCATE>
  400dc7:	48 8b 00             	mov    rax,QWORD PTR [rax]
  400dca:	48 85 c0             	test   rax,rax
  400dcd:	74 10                	je     400ddf <SYSTEM_$$_ERRNO2INOUTRES$$WORD+0x2f>
  400dcf:	48 8d 15 3a b3 22 00 	lea    rdx,[rip+0x22b33a]        # 62c110 <U_$SYSTEM_$$_INOUTRES>
  400dd6:	8b 3a                	mov    edi,DWORD PTR [rdx]
  400dd8:	ff d0                	call   rax
  400dda:	48 89 c2             	mov    rdx,rax
  400ddd:	eb 0b                	jmp    400dea <SYSTEM_$$_ERRNO2INOUTRES$$WORD+0x3a>
  400ddf:	48 8d 15 2a b3 22 00 	lea    rdx,[rip+0x22b32a]        # 62c110 <U_$SYSTEM_$$_INOUTRES>
  400de6:	48 83 c2 08          	add    rdx,0x8
  400dea:	66 89 d8             	mov    ax,bx
  400ded:	66 89 02             	mov    WORD PTR [rdx],ax
  400df0:	25 ff ff 00 00       	and    eax,0xffff
  400df5:	5b                   	pop    rbx
  400df6:	c3                   	ret    
	...

0000000000400e00 <SYSTEM_$$_DO_ISDEVICE$LONGINT$$BOOLEAN>:
  400e00:	48 8d a4 24 f8 fe ff 	lea    rsp,[rsp-0x108]
  400e07:	ff 
  400e08:	48 89 e2             	mov    rdx,rsp
  400e0b:	be 01 54 00 00       	mov    esi,0x5401
  400e10:	e8 cb fb ff ff       	call   4009e0 <FPC_SYSC_IOCTL>
  400e15:	83 f8 ff             	cmp    eax,0xffffffff
  400e18:	0f 95 c0             	setne  al
  400e1b:	25 ff 00 00 00       	and    eax,0xff
  400e20:	48 8d a4 24 08 01 00 	lea    rsp,[rsp+0x108]
  400e27:	00 
  400e28:	c3                   	ret    
  400e29:	00 00                	add    BYTE PTR [rax],al
  400e2b:	00 00                	add    BYTE PTR [rax],al
  400e2d:	00 00                	add    BYTE PTR [rax],al
	...

0000000000400e30 <SYSTEM_$$_SPTR$$POINTER>:
  400e30:	48 89 e0             	mov    rax,rsp
  400e33:	c3                   	ret    
	...

0000000000400e40 <SYSTEM_$$_GET_PC_ADDR$$POINTER>:
  400e40:	48 8b 04 24          	mov    rax,QWORD PTR [rsp]
  400e44:	c3                   	ret    
	...

0000000000400e50 <SYSTEM_$$_GET_CALLER_ADDR$POINTER$POINTER$$POINTER>:
  400e50:	48 89 f8             	mov    rax,rdi
  400e53:	48 85 ff             	test   rdi,rdi
  400e56:	74 04                	je     400e5c <SYSTEM_$$_GET_CALLER_ADDR$POINTER$POINTER$$POINTER+0xc>
  400e58:	48 8b 47 08          	mov    rax,QWORD PTR [rdi+0x8]
  400e5c:	c3                   	ret    
  400e5d:	00 00                	add    BYTE PTR [rax],al
	...

0000000000400e60 <SYSTEM_$$_GET_CALLER_FRAME$POINTER$POINTER$$POINTER>:
  400e60:	48 89 f8             	mov    rax,rdi
  400e63:	48 85 ff             	test   rdi,rdi
  400e66:	74 03                	je     400e6b <SYSTEM_$$_GET_CALLER_FRAME$POINTER$POINTER$$POINTER+0xb>
  400e68:	48 8b 07             	mov    rax,QWORD PTR [rdi]
  400e6b:	c3                   	ret    
  400e6c:	00 00                	add    BYTE PTR [rax],al
	...

0000000000400e70 <FPC_MOVE>:
  400e70:	49 89 d0             	mov    r8,rdx
  400e73:	48 89 f2             	mov    rdx,rsi
  400e76:	48 89 f9             	mov    rcx,rdi
  400e79:	4c 89 c0             	mov    rax,r8
  400e7c:	48 29 d1             	sub    rcx,rdx
  400e7f:	0f 84 98 00 00 00    	je     400f1d <FPC_MOVE+0xad>
  400e85:	73 09                	jae    400e90 <FPC_MOVE+0x20>
  400e87:	48 01 c8             	add    rax,rcx
  400e8a:	0f 82 74 01 00 00    	jb     401004 <FPC_MOVE+0x194>
  400e90:	49 83 f8 08          	cmp    r8,0x8
  400e94:	0f 8c 6a 00 00 00    	jl     400f04 <FPC_MOVE+0x94>
  400e9a:	f6 c2 07             	test   dl,0x7
  400e9d:	74 37                	je     400ed6 <FPC_MOVE+0x66>
  400e9f:	f6 c2 01             	test   dl,0x1
  400ea2:	74 0c                	je     400eb0 <FPC_MOVE+0x40>
  400ea4:	8a 04 11             	mov    al,BYTE PTR [rcx+rdx*1]
  400ea7:	49 ff c8             	dec    r8
  400eaa:	88 02                	mov    BYTE PTR [rdx],al
  400eac:	48 83 c2 01          	add    rdx,0x1
  400eb0:	f6 c2 02             	test   dl,0x2
  400eb3:	74 0f                	je     400ec4 <FPC_MOVE+0x54>
  400eb5:	66 8b 04 11          	mov    ax,WORD PTR [rcx+rdx*1]
  400eb9:	49 83 e8 02          	sub    r8,0x2
  400ebd:	66 89 02             	mov    WORD PTR [rdx],ax
  400ec0:	48 83 c2 02          	add    rdx,0x2
  400ec4:	f6 c2 04             	test   dl,0x4
  400ec7:	74 0d                	je     400ed6 <FPC_MOVE+0x66>
  400ec9:	8b 04 11             	mov    eax,DWORD PTR [rcx+rdx*1]
  400ecc:	49 83 e8 04          	sub    r8,0x4
  400ed0:	89 02                	mov    DWORD PTR [rdx],eax
  400ed2:	48 83 c2 04          	add    rdx,0x4
  400ed6:	4d 89 c1             	mov    r9,r8
  400ed9:	49 c1 e9 05          	shr    r9,0x5
  400edd:	75 3f                	jne    400f1e <FPC_MOVE+0xae>
  400edf:	4d 89 c1             	mov    r9,r8
  400ee2:	49 c1 e9 03          	shr    r9,0x3
  400ee6:	74 1c                	je     400f04 <FPC_MOVE+0x94>
  400ee8:	66 66 66 90          	data16 data16 xchg ax,ax
  400eec:	66 66 66 90          	data16 data16 xchg ax,ax
  400ef0:	48 8b 04 11          	mov    rax,QWORD PTR [rcx+rdx*1]
  400ef4:	48 89 02             	mov    QWORD PTR [rdx],rax
  400ef7:	48 83 c2 08          	add    rdx,0x8
  400efb:	49 ff c9             	dec    r9
  400efe:	75 f0                	jne    400ef0 <FPC_MOVE+0x80>
  400f00:	49 83 e0 07          	and    r8,0x7
  400f04:	4d 85 c0             	test   r8,r8
  400f07:	7e 14                	jle    400f1d <FPC_MOVE+0xad>
  400f09:	66 66 66 90          	data16 data16 xchg ax,ax
  400f0d:	66 66 90             	data16 xchg ax,ax
  400f10:	8a 04 11             	mov    al,BYTE PTR [rcx+rdx*1]
  400f13:	88 02                	mov    BYTE PTR [rdx],al
  400f15:	48 ff c2             	inc    rdx
  400f18:	49 ff c8             	dec    r8
  400f1b:	75 f3                	jne    400f10 <FPC_MOVE+0xa0>
  400f1d:	c3                   	ret    
  400f1e:	49 81 f9 00 20 00 00 	cmp    r9,0x2000
  400f25:	72 09                	jb     400f30 <FPC_MOVE+0xc0>
  400f27:	48 81 f9 00 10 00 00 	cmp    rcx,0x1000
  400f2e:	73 36                	jae    400f66 <FPC_MOVE+0xf6>
  400f30:	48 83 c2 20          	add    rdx,0x20
  400f34:	48 8b 44 11 e0       	mov    rax,QWORD PTR [rcx+rdx*1-0x20]
  400f39:	4c 8b 54 11 e8       	mov    r10,QWORD PTR [rcx+rdx*1-0x18]
  400f3e:	48 89 42 e0          	mov    QWORD PTR [rdx-0x20],rax
  400f42:	4c 89 52 e8          	mov    QWORD PTR [rdx-0x18],r10
  400f46:	49 ff c9             	dec    r9
  400f49:	48 8b 44 11 f0       	mov    rax,QWORD PTR [rcx+rdx*1-0x10]
  400f4e:	4c 8b 54 11 f8       	mov    r10,QWORD PTR [rcx+rdx*1-0x8]
  400f53:	48 89 42 f0          	mov    QWORD PTR [rdx-0x10],rax
  400f57:	4c 89 52 f8          	mov    QWORD PTR [rdx-0x8],r10
  400f5b:	75 d3                	jne    400f30 <FPC_MOVE+0xc0>
  400f5d:	49 83 e0 1f          	and    r8,0x1f
  400f61:	e9 79 ff ff ff       	jmp    400edf <FPC_MOVE+0x6f>
  400f66:	b8 20 00 00 00       	mov    eax,0x20
  400f6b:	66 66 66 90          	data16 data16 xchg ax,ax
  400f6f:	90                   	nop
  400f70:	0f 18 04 11          	prefetchnta BYTE PTR [rcx+rdx*1]
  400f74:	0f 18 44 11 40       	prefetchnta BYTE PTR [rcx+rdx*1+0x40]
  400f79:	48 81 c2 80 00 00 00 	add    rdx,0x80
  400f80:	ff c8                	dec    eax
  400f82:	75 ec                	jne    400f70 <FPC_MOVE+0x100>
  400f84:	48 81 ea 00 10 00 00 	sub    rdx,0x1000
  400f8b:	b8 40 00 00 00       	mov    eax,0x40
  400f90:	48 83 c2 40          	add    rdx,0x40
  400f94:	4c 8b 4c 11 c0       	mov    r9,QWORD PTR [rcx+rdx*1-0x40]
  400f99:	4c 8b 54 11 c8       	mov    r10,QWORD PTR [rcx+rdx*1-0x38]
  400f9e:	4c 0f c3 4a c0       	movnti QWORD PTR [rdx-0x40],r9
  400fa3:	4c 0f c3 52 c8       	movnti QWORD PTR [rdx-0x38],r10
  400fa8:	4c 8b 4c 11 d0       	mov    r9,QWORD PTR [rcx+rdx*1-0x30]
  400fad:	4c 8b 54 11 d8       	mov    r10,QWORD PTR [rcx+rdx*1-0x28]
  400fb2:	4c 0f c3 4a d0       	movnti QWORD PTR [rdx-0x30],r9
  400fb7:	4c 0f c3 52 d8       	movnti QWORD PTR [rdx-0x28],r10
  400fbc:	ff c8                	dec    eax
  400fbe:	4c 8b 4c 11 e0       	mov    r9,QWORD PTR [rcx+rdx*1-0x20]
  400fc3:	4c 8b 54 11 e8       	mov    r10,QWORD PTR [rcx+rdx*1-0x18]
  400fc8:	4c 0f c3 4a e0       	movnti QWORD PTR [rdx-0x20],r9
  400fcd:	4c 0f c3 52 e8       	movnti QWORD PTR [rdx-0x18],r10
  400fd2:	4c 8b 4c 11 f0       	mov    r9,QWORD PTR [rcx+rdx*1-0x10]
  400fd7:	4c 8b 54 11 f8       	mov    r10,QWORD PTR [rcx+rdx*1-0x8]
  400fdc:	4c 0f c3 4a f0       	movnti QWORD PTR [rdx-0x10],r9
  400fe1:	4c 0f c3 52 f8       	movnti QWORD PTR [rdx-0x8],r10
  400fe6:	75 a8                	jne    400f90 <FPC_MOVE+0x120>
  400fe8:	49 81 e8 00 10 00 00 	sub    r8,0x1000
  400fef:	49 81 f8 00 10 00 00 	cmp    r8,0x1000
  400ff6:	0f 83 6a ff ff ff    	jae    400f66 <FPC_MOVE+0xf6>
  400ffc:	0f ae f0             	mfence 
  400fff:	e9 d2 fe ff ff       	jmp    400ed6 <FPC_MOVE+0x66>
  401004:	4c 01 c2             	add    rdx,r8
  401007:	49 83 f8 08          	cmp    r8,0x8
  40100b:	7c 61                	jl     40106e <FPC_MOVE+0x1fe>
  40100d:	f6 c2 07             	test   dl,0x7
  401010:	74 36                	je     401048 <FPC_MOVE+0x1d8>
  401012:	f6 c2 01             	test   dl,0x1
  401015:	74 0b                	je     401022 <FPC_MOVE+0x1b2>
  401017:	48 ff ca             	dec    rdx
  40101a:	8a 04 11             	mov    al,BYTE PTR [rcx+rdx*1]
  40101d:	49 ff c8             	dec    r8
  401020:	88 02                	mov    BYTE PTR [rdx],al
  401022:	f6 c2 02             	test   dl,0x2
  401025:	74 0f                	je     401036 <FPC_MOVE+0x1c6>
  401027:	48 83 ea 02          	sub    rdx,0x2
  40102b:	66 8b 04 11          	mov    ax,WORD PTR [rcx+rdx*1]
  40102f:	49 83 e8 02          	sub    r8,0x2
  401033:	66 89 02             	mov    WORD PTR [rdx],ax
  401036:	f6 c2 04             	test   dl,0x4
  401039:	74 0d                	je     401048 <FPC_MOVE+0x1d8>
  40103b:	48 83 ea 04          	sub    rdx,0x4
  40103f:	8b 04 11             	mov    eax,DWORD PTR [rcx+rdx*1]
  401042:	49 83 e8 04          	sub    r8,0x4
  401046:	89 02                	mov    DWORD PTR [rdx],eax
  401048:	4d 89 c1             	mov    r9,r8
  40104b:	49 c1 e9 05          	shr    r9,0x5
  40104f:	75 3d                	jne    40108e <FPC_MOVE+0x21e>
  401051:	4d 89 c1             	mov    r9,r8
  401054:	49 c1 e9 03          	shr    r9,0x3
  401058:	74 14                	je     40106e <FPC_MOVE+0x1fe>
  40105a:	48 83 ea 08          	sub    rdx,0x8
  40105e:	48 8b 04 11          	mov    rax,QWORD PTR [rcx+rdx*1]
  401062:	49 ff c9             	dec    r9
  401065:	48 89 02             	mov    QWORD PTR [rdx],rax
  401068:	75 f0                	jne    40105a <FPC_MOVE+0x1ea>
  40106a:	49 83 e0 07          	and    r8,0x7
  40106e:	4d 85 c0             	test   r8,r8
  401071:	7e 1a                	jle    40108d <FPC_MOVE+0x21d>
  401073:	66 66 66 90          	data16 data16 xchg ax,ax
  401077:	66 66 66 90          	data16 data16 xchg ax,ax
  40107b:	66 66 66 90          	data16 data16 xchg ax,ax
  40107f:	90                   	nop
  401080:	48 ff ca             	dec    rdx
  401083:	8a 04 11             	mov    al,BYTE PTR [rcx+rdx*1]
  401086:	49 ff c8             	dec    r8
  401089:	88 02                	mov    BYTE PTR [rdx],al
  40108b:	75 f3                	jne    401080 <FPC_MOVE+0x210>
  40108d:	c3                   	ret    
  40108e:	49 81 f9 00 20 00 00 	cmp    r9,0x2000
  401095:	72 09                	jb     4010a0 <FPC_MOVE+0x230>
  401097:	48 81 f9 00 f0 ff ff 	cmp    rcx,0xfffffffffffff000
  40109e:	72 34                	jb     4010d4 <FPC_MOVE+0x264>
  4010a0:	48 83 ea 20          	sub    rdx,0x20
  4010a4:	48 8b 44 11 18       	mov    rax,QWORD PTR [rcx+rdx*1+0x18]
  4010a9:	4c 8b 54 11 10       	mov    r10,QWORD PTR [rcx+rdx*1+0x10]
  4010ae:	48 89 42 18          	mov    QWORD PTR [rdx+0x18],rax
  4010b2:	4c 89 52 10          	mov    QWORD PTR [rdx+0x10],r10
  4010b6:	49 ff c9             	dec    r9
  4010b9:	48 8b 44 11 08       	mov    rax,QWORD PTR [rcx+rdx*1+0x8]
  4010be:	4c 8b 14 11          	mov    r10,QWORD PTR [rcx+rdx*1]
  4010c2:	48 89 42 08          	mov    QWORD PTR [rdx+0x8],rax
  4010c6:	4c 89 12             	mov    QWORD PTR [rdx],r10
  4010c9:	75 d5                	jne    4010a0 <FPC_MOVE+0x230>
  4010cb:	49 83 e0 1f          	and    r8,0x1f
  4010cf:	e9 7d ff ff ff       	jmp    401051 <FPC_MOVE+0x1e1>
  4010d4:	b8 20 00 00 00       	mov    eax,0x20
  4010d9:	66 66 66 90          	data16 data16 xchg ax,ax
  4010dd:	66 66 90             	data16 xchg ax,ax
  4010e0:	48 81 ea 80 00 00 00 	sub    rdx,0x80
  4010e7:	0f 18 04 11          	prefetchnta BYTE PTR [rcx+rdx*1]
  4010eb:	0f 18 44 11 40       	prefetchnta BYTE PTR [rcx+rdx*1+0x40]
  4010f0:	ff c8                	dec    eax
  4010f2:	75 ec                	jne    4010e0 <FPC_MOVE+0x270>
  4010f4:	48 81 c2 00 10 00 00 	add    rdx,0x1000
  4010fb:	b8 40 00 00 00       	mov    eax,0x40
  401100:	48 83 ea 40          	sub    rdx,0x40
  401104:	4c 8b 4c 11 38       	mov    r9,QWORD PTR [rcx+rdx*1+0x38]
  401109:	4c 8b 54 11 30       	mov    r10,QWORD PTR [rcx+rdx*1+0x30]
  40110e:	4c 0f c3 4a 38       	movnti QWORD PTR [rdx+0x38],r9
  401113:	4c 0f c3 52 30       	movnti QWORD PTR [rdx+0x30],r10
  401118:	4c 8b 4c 11 28       	mov    r9,QWORD PTR [rcx+rdx*1+0x28]
  40111d:	4c 8b 54 11 20       	mov    r10,QWORD PTR [rcx+rdx*1+0x20]
  401122:	4c 0f c3 4a 28       	movnti QWORD PTR [rdx+0x28],r9
  401127:	4c 0f c3 52 20       	movnti QWORD PTR [rdx+0x20],r10
  40112c:	ff c8                	dec    eax
  40112e:	4c 8b 4c 11 18       	mov    r9,QWORD PTR [rcx+rdx*1+0x18]
  401133:	4c 8b 54 11 10       	mov    r10,QWORD PTR [rcx+rdx*1+0x10]
  401138:	4c 0f c3 4a 18       	movnti QWORD PTR [rdx+0x18],r9
  40113d:	4c 0f c3 52 10       	movnti QWORD PTR [rdx+0x10],r10
  401142:	4c 8b 4c 11 08       	mov    r9,QWORD PTR [rcx+rdx*1+0x8]
  401147:	4c 8b 14 11          	mov    r10,QWORD PTR [rcx+rdx*1]
  40114b:	4c 0f c3 4a 08       	movnti QWORD PTR [rdx+0x8],r9
  401150:	4c 0f c3 12          	movnti QWORD PTR [rdx],r10
  401154:	75 aa                	jne    401100 <FPC_MOVE+0x290>
  401156:	49 81 e8 00 10 00 00 	sub    r8,0x1000
  40115d:	49 81 f8 00 10 00 00 	cmp    r8,0x1000
  401164:	0f 83 6a ff ff ff    	jae    4010d4 <FPC_MOVE+0x264>
  40116a:	0f ae f0             	mfence 
  40116d:	e9 d6 fe ff ff       	jmp    401048 <FPC_MOVE+0x1d8>
  401172:	c3                   	ret    
	...

0000000000401180 <SYSTEM_$$_FILLCHAR$formal$INT64$BYTE>:
  401180:	49 89 d0             	mov    r8,rdx
  401183:	48 89 f2             	mov    rdx,rsi
  401186:	48 89 f9             	mov    rcx,rdi
  401189:	48 83 fa 08          	cmp    rdx,0x8
  40118d:	0f 8c 79 00 00 00    	jl     40120c <SYSTEM_$$_FILLCHAR$formal$INT64$BYTE+0x8c>
  401193:	49 81 e0 ff 00 00 00 	and    r8,0xff
  40119a:	49 b9 01 01 01 01 01 	movabs r9,0x101010101010101
  4011a1:	01 01 01 
  4011a4:	4d 0f af c1          	imul   r8,r9
  4011a8:	f6 c1 07             	test   cl,0x7
  4011ab:	74 31                	je     4011de <SYSTEM_$$_FILLCHAR$formal$INT64$BYTE+0x5e>
  4011ad:	f6 c1 01             	test   cl,0x1
  4011b0:	74 0b                	je     4011bd <SYSTEM_$$_FILLCHAR$formal$INT64$BYTE+0x3d>
  4011b2:	44 88 01             	mov    BYTE PTR [rcx],r8b
  4011b5:	48 83 c1 01          	add    rcx,0x1
  4011b9:	48 83 ea 01          	sub    rdx,0x1
  4011bd:	f6 c1 02             	test   cl,0x2
  4011c0:	74 0c                	je     4011ce <SYSTEM_$$_FILLCHAR$formal$INT64$BYTE+0x4e>
  4011c2:	66 44 89 01          	mov    WORD PTR [rcx],r8w
  4011c6:	48 83 c1 02          	add    rcx,0x2
  4011ca:	48 83 ea 02          	sub    rdx,0x2
  4011ce:	f6 c1 04             	test   cl,0x4
  4011d1:	74 0b                	je     4011de <SYSTEM_$$_FILLCHAR$formal$INT64$BYTE+0x5e>
  4011d3:	44 89 01             	mov    DWORD PTR [rcx],r8d
  4011d6:	48 83 c1 04          	add    rcx,0x4
  4011da:	48 83 ea 04          	sub    rdx,0x4
  4011de:	48 89 d0             	mov    rax,rdx
  4011e1:	48 83 e2 3f          	and    rdx,0x3f
  4011e5:	48 c1 e8 06          	shr    rax,0x6
  4011e9:	75 32                	jne    40121d <SYSTEM_$$_FILLCHAR$formal$INT64$BYTE+0x9d>
  4011eb:	48 89 d0             	mov    rax,rdx
  4011ee:	48 83 e2 07          	and    rdx,0x7
  4011f2:	48 c1 e8 03          	shr    rax,0x3
  4011f6:	74 14                	je     40120c <SYSTEM_$$_FILLCHAR$formal$INT64$BYTE+0x8c>
  4011f8:	66 66 66 90          	data16 data16 xchg ax,ax
  4011fc:	66 66 66 90          	data16 data16 xchg ax,ax
  401200:	4c 89 01             	mov    QWORD PTR [rcx],r8
  401203:	48 83 c1 08          	add    rcx,0x8
  401207:	48 ff c8             	dec    rax
  40120a:	75 f4                	jne    401200 <SYSTEM_$$_FILLCHAR$formal$INT64$BYTE+0x80>
  40120c:	48 85 d2             	test   rdx,rdx
  40120f:	7e 0b                	jle    40121c <SYSTEM_$$_FILLCHAR$formal$INT64$BYTE+0x9c>
  401211:	44 88 01             	mov    BYTE PTR [rcx],r8b
  401214:	48 ff c1             	inc    rcx
  401217:	48 ff ca             	dec    rdx
  40121a:	75 f5                	jne    401211 <SYSTEM_$$_FILLCHAR$formal$INT64$BYTE+0x91>
  40121c:	c3                   	ret    
  40121d:	48 3d 00 20 00 00    	cmp    rax,0x2000
  401223:	73 3b                	jae    401260 <SYSTEM_$$_FILLCHAR$formal$INT64$BYTE+0xe0>
  401225:	66 66 66 90          	data16 data16 xchg ax,ax
  401229:	66 66 66 90          	data16 data16 xchg ax,ax
  40122d:	66 66 90             	data16 xchg ax,ax
  401230:	48 83 c1 40          	add    rcx,0x40
  401234:	4c 89 41 c0          	mov    QWORD PTR [rcx-0x40],r8
  401238:	4c 89 41 c8          	mov    QWORD PTR [rcx-0x38],r8
  40123c:	4c 89 41 d0          	mov    QWORD PTR [rcx-0x30],r8
  401240:	4c 89 41 d8          	mov    QWORD PTR [rcx-0x28],r8
  401244:	48 ff c8             	dec    rax
  401247:	4c 89 41 e0          	mov    QWORD PTR [rcx-0x20],r8
  40124b:	4c 89 41 e8          	mov    QWORD PTR [rcx-0x18],r8
  40124f:	4c 89 41 f0          	mov    QWORD PTR [rcx-0x10],r8
  401253:	4c 89 41 f8          	mov    QWORD PTR [rcx-0x8],r8
  401257:	75 d7                	jne    401230 <SYSTEM_$$_FILLCHAR$formal$INT64$BYTE+0xb0>
  401259:	eb 90                	jmp    4011eb <SYSTEM_$$_FILLCHAR$formal$INT64$BYTE+0x6b>
  40125b:	66 66 66 90          	data16 data16 xchg ax,ax
  40125f:	90                   	nop
  401260:	48 83 c1 40          	add    rcx,0x40
  401264:	4c 0f c3 41 c0       	movnti QWORD PTR [rcx-0x40],r8
  401269:	4c 0f c3 41 c8       	movnti QWORD PTR [rcx-0x38],r8
  40126e:	4c 0f c3 41 d0       	movnti QWORD PTR [rcx-0x30],r8
  401273:	4c 0f c3 41 d8       	movnti QWORD PTR [rcx-0x28],r8
  401278:	48 ff c8             	dec    rax
  40127b:	4c 0f c3 41 e0       	movnti QWORD PTR [rcx-0x20],r8
  401280:	4c 0f c3 41 e8       	movnti QWORD PTR [rcx-0x18],r8
  401285:	4c 0f c3 41 f0       	movnti QWORD PTR [rcx-0x10],r8
  40128a:	4c 0f c3 41 f8       	movnti QWORD PTR [rcx-0x8],r8
  40128f:	75 cf                	jne    401260 <SYSTEM_$$_FILLCHAR$formal$INT64$BYTE+0xe0>
  401291:	0f ae f0             	mfence 
  401294:	e9 52 ff ff ff       	jmp    4011eb <SYSTEM_$$_FILLCHAR$formal$INT64$BYTE+0x6b>
  401299:	c3                   	ret    
  40129a:	00 00                	add    BYTE PTR [rax],al
  40129c:	00 00                	add    BYTE PTR [rax],al
	...

00000000004012a0 <SYSTEM_$$_INDEXBYTE$formal$INT64$BYTE$$INT64>:
  4012a0:	66 0f 6e ca          	movd   xmm1,edx
  4012a4:	48 89 f9             	mov    rcx,rdi
  4012a7:	48 89 f2             	mov    rdx,rsi
  4012aa:	49 89 c8             	mov    r8,rcx
  4012ad:	66 0f 60 c9          	punpcklbw xmm1,xmm1
  4012b1:	48 83 e1 f0          	and    rcx,0xfffffffffffffff0
  4012b5:	48 85 d2             	test   rdx,rdx
  4012b8:	66 0f 60 c9          	punpcklbw xmm1,xmm1
  4012bc:	74 4d                	je     40130b <SYSTEM_$$_INDEXBYTE$formal$INT64$BYTE$$INT64+0x6b>
  4012be:	48 83 c1 10          	add    rcx,0x10
  4012c2:	66 0f 70 c9 00       	pshufd xmm1,xmm1,0x0
  4012c7:	66 0f 6f 41 f0       	movdqa xmm0,XMMWORD PTR [rcx-0x10]
  4012cc:	4c 29 c1             	sub    rcx,r8
  4012cf:	66 0f 74 c1          	pcmpeqb xmm0,xmm1
  4012d3:	66 0f d7 c0          	pmovmskb eax,xmm0
  4012d7:	d3 e0                	shl    eax,cl
  4012d9:	25 00 00 ff ff       	and    eax,0xffff0000
  4012de:	d3 e8                	shr    eax,cl
  4012e0:	eb 20                	jmp    401302 <SYSTEM_$$_INDEXBYTE$formal$INT64$BYTE$$INT64+0x62>
  4012e2:	66 66 66 90          	data16 data16 xchg ax,ax
  4012e6:	66 66 66 90          	data16 data16 xchg ax,ax
  4012ea:	66 66 66 90          	data16 data16 xchg ax,ax
  4012ee:	66 90                	xchg   ax,ax
  4012f0:	66 41 0f 6f 04 08    	movdqa xmm0,XMMWORD PTR [r8+rcx*1]
  4012f6:	48 83 c1 10          	add    rcx,0x10
  4012fa:	66 0f 74 c1          	pcmpeqb xmm0,xmm1
  4012fe:	66 0f d7 c0          	pmovmskb eax,xmm0
  401302:	85 c0                	test   eax,eax
  401304:	75 0a                	jne    401310 <SYSTEM_$$_INDEXBYTE$formal$INT64$BYTE$$INT64+0x70>
  401306:	48 39 ca             	cmp    rdx,rcx
  401309:	77 e5                	ja     4012f0 <SYSTEM_$$_INDEXBYTE$formal$INT64$BYTE$$INT64+0x50>
  40130b:	48 83 c8 ff          	or     rax,0xffffffffffffffff
  40130f:	c3                   	ret    
  401310:	0f bc c0             	bsf    eax,eax
  401313:	48 8d 44 01 f0       	lea    rax,[rcx+rax*1-0x10]
  401318:	48 39 c2             	cmp    rdx,rax
  40131b:	76 ee                	jbe    40130b <SYSTEM_$$_INDEXBYTE$formal$INT64$BYTE$$INT64+0x6b>
  40131d:	c3                   	ret    
	...

0000000000401320 <SYSTEM_$$_INDEXWORD$formal$INT64$WORD$$INT64>:
  401320:	66 0f 6e ca          	movd   xmm1,edx
  401324:	48 89 f9             	mov    rcx,rdi
  401327:	48 89 f2             	mov    rdx,rsi
  40132a:	49 89 c8             	mov    r8,rcx
  40132d:	66 0f 61 c9          	punpcklwd xmm1,xmm1
  401331:	48 83 e1 f0          	and    rcx,0xfffffffffffffff0
  401335:	48 85 d2             	test   rdx,rdx
  401338:	66 0f 70 c9 00       	pshufd xmm1,xmm1,0x0
  40133d:	74 4c                	je     40138b <SYSTEM_$$_INDEXWORD$formal$INT64$WORD$$INT64+0x6b>
  40133f:	48 83 c1 10          	add    rcx,0x10
  401343:	66 0f 6f 41 f0       	movdqa xmm0,XMMWORD PTR [rcx-0x10]
  401348:	4c 29 c1             	sub    rcx,r8
  40134b:	41 f6 c0 01          	test   r8b,0x1
  40134f:	75 4f                	jne    4013a0 <SYSTEM_$$_INDEXWORD$formal$INT64$WORD$$INT64+0x80>
  401351:	66 0f 75 c1          	pcmpeqw xmm0,xmm1
  401355:	66 0f d7 c0          	pmovmskb eax,xmm0
  401359:	d3 e0                	shl    eax,cl
  40135b:	25 00 00 ff ff       	and    eax,0xffff0000
  401360:	d3 e8                	shr    eax,cl
  401362:	d1 e9                	shr    ecx,1
  401364:	eb 1c                	jmp    401382 <SYSTEM_$$_INDEXWORD$formal$INT64$WORD$$INT64+0x62>
  401366:	66 66 66 90          	data16 data16 xchg ax,ax
  40136a:	66 66 66 90          	data16 data16 xchg ax,ax
  40136e:	66 90                	xchg   ax,ax
  401370:	66 41 0f 6f 04 48    	movdqa xmm0,XMMWORD PTR [r8+rcx*2]
  401376:	48 83 c1 08          	add    rcx,0x8
  40137a:	66 0f 75 c1          	pcmpeqw xmm0,xmm1
  40137e:	66 0f d7 c0          	pmovmskb eax,xmm0
  401382:	85 c0                	test   eax,eax
  401384:	75 0a                	jne    401390 <SYSTEM_$$_INDEXWORD$formal$INT64$WORD$$INT64+0x70>
  401386:	48 39 ca             	cmp    rdx,rcx
  401389:	77 e5                	ja     401370 <SYSTEM_$$_INDEXWORD$formal$INT64$WORD$$INT64+0x50>
  40138b:	48 83 c8 ff          	or     rax,0xffffffffffffffff
  40138f:	c3                   	ret    
  401390:	0f bc c0             	bsf    eax,eax
  401393:	d1 e8                	shr    eax,1
  401395:	48 8d 44 01 f8       	lea    rax,[rcx+rax*1-0x8]
  40139a:	48 39 c2             	cmp    rdx,rax
  40139d:	76 ec                	jbe    40138b <SYSTEM_$$_INDEXWORD$formal$INT64$WORD$$INT64+0x6b>
  40139f:	c3                   	ret    
  4013a0:	66 0f 7f ca          	movdqa xmm2,xmm1
  4013a4:	66 0f 71 f1 08       	psllw  xmm1,0x8
  4013a9:	66 0f 71 d2 08       	psrlw  xmm2,0x8
  4013ae:	66 0f eb ca          	por    xmm1,xmm2
  4013b2:	66 0f 74 c1          	pcmpeqb xmm0,xmm1
  4013b6:	66 0f d7 c0          	pmovmskb eax,xmm0
  4013ba:	d3 e0                	shl    eax,cl
  4013bc:	25 00 00 ff ff       	and    eax,0xffff0000
  4013c1:	d3 e8                	shr    eax,cl
  4013c3:	48 01 d2             	add    rdx,rdx
  4013c6:	45 31 d2             	xor    r10d,r10d
  4013c9:	eb 1b                	jmp    4013e6 <SYSTEM_$$_INDEXWORD$formal$INT64$WORD$$INT64+0xc6>
  4013cb:	66 66 66 90          	data16 data16 xchg ax,ax
  4013cf:	90                   	nop
  4013d0:	66 41 0f 6f 04 08    	movdqa xmm0,XMMWORD PTR [r8+rcx*1]
  4013d6:	48 83 c1 10          	add    rcx,0x10
  4013da:	66 0f 74 c1          	pcmpeqb xmm0,xmm1
  4013de:	41 c1 ea 10          	shr    r10d,0x10
  4013e2:	66 0f d7 c0          	pmovmskb eax,xmm0
  4013e6:	d1 e0                	shl    eax,1
  4013e8:	44 09 d0             	or     eax,r10d
  4013eb:	41 89 c2             	mov    r10d,eax
  4013ee:	d1 e8                	shr    eax,1
  4013f0:	44 21 d0             	and    eax,r10d
  4013f3:	25 55 55 00 00       	and    eax,0x5555
  4013f8:	75 0a                	jne    401404 <SYSTEM_$$_INDEXWORD$formal$INT64$WORD$$INT64+0xe4>
  4013fa:	48 39 ca             	cmp    rdx,rcx
  4013fd:	77 d1                	ja     4013d0 <SYSTEM_$$_INDEXWORD$formal$INT64$WORD$$INT64+0xb0>
  4013ff:	48 83 c8 ff          	or     rax,0xffffffffffffffff
  401403:	c3                   	ret    
  401404:	0f bc c0             	bsf    eax,eax
  401407:	48 8d 44 01 f0       	lea    rax,[rcx+rax*1-0x10]
  40140c:	48 39 c2             	cmp    rdx,rax
  40140f:	76 ee                	jbe    4013ff <SYSTEM_$$_INDEXWORD$formal$INT64$WORD$$INT64+0xdf>
  401411:	48 d1 f8             	sar    rax,1
  401414:	c3                   	ret    
	...

0000000000401420 <SYSTEM_$$_COMPAREBYTE$formal$formal$INT64$$INT64>:
  401420:	49 89 d0             	mov    r8,rdx
  401423:	48 89 f2             	mov    rdx,rsi
  401426:	48 89 f9             	mov    rcx,rdi
  401429:	4d 85 c0             	test   r8,r8
  40142c:	74 24                	je     401452 <SYSTEM_$$_COMPAREBYTE$formal$formal$INT64$$INT64+0x32>
  40142e:	66 90                	xchg   ax,ax
  401430:	44 8a 09             	mov    r9b,BYTE PTR [rcx]
  401433:	44 3a 0a             	cmp    r9b,BYTE PTR [rdx]
  401436:	48 8d 49 01          	lea    rcx,[rcx+0x1]
  40143a:	48 8d 52 01          	lea    rdx,[rdx+0x1]
  40143e:	75 05                	jne    401445 <SYSTEM_$$_COMPAREBYTE$formal$formal$INT64$$INT64+0x25>
  401440:	49 ff c8             	dec    r8
  401443:	75 eb                	jne    401430 <SYSTEM_$$_COMPAREBYTE$formal$formal$INT64$$INT64+0x10>
  401445:	4c 0f b6 42 ff       	movzx  r8,BYTE PTR [rdx-0x1]
  40144a:	49 0f b6 c1          	movzx  rax,r9b
  40144e:	4c 29 c0             	sub    rax,r8
  401451:	c3                   	ret    
  401452:	48 b8 00 00 00 00 00 	movabs rax,0x0
  401459:	00 00 00 
  40145c:	c3                   	ret    
  40145d:	c3                   	ret    
	...

0000000000401460 <SYSTEM_$$_DECLOCKED$LONGINT$$BOOLEAN>:
  401460:	48 8d 05 69 24 22 00 	lea    rax,[rip+0x222469]        # 6238d0 <TC_$SYSTEM_$$_ISMULTITHREAD>
  401467:	83 38 00             	cmp    DWORD PTR [rax],0x0
  40146a:	48 89 f9             	mov    rcx,rdi
  40146d:	74 05                	je     401474 <SYSTEM_$$_DECLOCKED$LONGINT$$BOOLEAN+0x14>
  40146f:	f0 ff 09             	lock dec DWORD PTR [rcx]
  401472:	eb 02                	jmp    401476 <SYSTEM_$$_DECLOCKED$LONGINT$$BOOLEAN+0x16>
  401474:	ff 09                	dec    DWORD PTR [rcx]
  401476:	0f 94 c0             	sete   al
  401479:	c3                   	ret    
  40147a:	00 00                	add    BYTE PTR [rax],al
  40147c:	00 00                	add    BYTE PTR [rax],al
	...

0000000000401480 <SYSTEM_$$_DECLOCKED$INT64$$BOOLEAN>:
  401480:	48 8d 05 49 24 22 00 	lea    rax,[rip+0x222449]        # 6238d0 <TC_$SYSTEM_$$_ISMULTITHREAD>
  401487:	83 38 00             	cmp    DWORD PTR [rax],0x0
  40148a:	48 89 f9             	mov    rcx,rdi
  40148d:	74 06                	je     401495 <SYSTEM_$$_DECLOCKED$INT64$$BOOLEAN+0x15>
  40148f:	f0 48 ff 09          	lock dec QWORD PTR [rcx]
  401493:	eb 03                	jmp    401498 <SYSTEM_$$_DECLOCKED$INT64$$BOOLEAN+0x18>
  401495:	48 ff 09             	dec    QWORD PTR [rcx]
  401498:	0f 94 c0             	sete   al
  40149b:	c3                   	ret    
  40149c:	00 00                	add    BYTE PTR [rax],al
	...

00000000004014a0 <SYSTEM_$$_INCLOCKED$LONGINT>:
  4014a0:	48 8d 05 29 24 22 00 	lea    rax,[rip+0x222429]        # 6238d0 <TC_$SYSTEM_$$_ISMULTITHREAD>
  4014a7:	83 38 00             	cmp    DWORD PTR [rax],0x0
  4014aa:	48 89 f9             	mov    rcx,rdi
  4014ad:	74 05                	je     4014b4 <SYSTEM_$$_INCLOCKED$LONGINT+0x14>
  4014af:	f0 ff 01             	lock inc DWORD PTR [rcx]
  4014b2:	eb 02                	jmp    4014b6 <SYSTEM_$$_INCLOCKED$LONGINT+0x16>
  4014b4:	ff 01                	inc    DWORD PTR [rcx]
  4014b6:	c3                   	ret    
	...

00000000004014c0 <SYSTEM_$$_INCLOCKED$INT64>:
  4014c0:	48 8d 05 09 24 22 00 	lea    rax,[rip+0x222409]        # 6238d0 <TC_$SYSTEM_$$_ISMULTITHREAD>
  4014c7:	83 38 00             	cmp    DWORD PTR [rax],0x0
  4014ca:	48 89 f9             	mov    rcx,rdi
  4014cd:	74 06                	je     4014d5 <SYSTEM_$$_INCLOCKED$INT64+0x15>
  4014cf:	f0 48 ff 01          	lock inc QWORD PTR [rcx]
  4014d3:	eb 03                	jmp    4014d8 <SYSTEM_$$_INCLOCKED$INT64+0x18>
  4014d5:	48 ff 01             	inc    QWORD PTR [rcx]
  4014d8:	c3                   	ret    
  4014d9:	00 00                	add    BYTE PTR [rax],al
  4014db:	00 00                	add    BYTE PTR [rax],al
  4014dd:	00 00                	add    BYTE PTR [rax],al
	...

00000000004014e0 <FPC_INTERLOCKEDDECREMENT>:
  4014e0:	48 89 f8             	mov    rax,rdi
  4014e3:	ba ff ff ff ff       	mov    edx,0xffffffff
  4014e8:	48 92                	xchg   rdx,rax
  4014ea:	f0 0f c1 02          	lock xadd DWORD PTR [rdx],eax
  4014ee:	ff c8                	dec    eax
  4014f0:	c3                   	ret    
	...

0000000000401500 <FPC_INTERLOCKEDINCREMENT>:
  401500:	48 89 f8             	mov    rax,rdi
  401503:	ba 01 00 00 00       	mov    edx,0x1
  401508:	48 92                	xchg   rdx,rax
  40150a:	f0 0f c1 02          	lock xadd DWORD PTR [rdx],eax
  40150e:	ff c0                	inc    eax
  401510:	c3                   	ret    
	...

0000000000401520 <FPC_INTERLOCKEDEXCHANGE>:
  401520:	87 37                	xchg   DWORD PTR [rdi],esi
  401522:	89 f0                	mov    eax,esi
  401524:	c3                   	ret    
	...

0000000000401530 <FPC_INTERLOCKEDEXCHANGEADD>:
  401530:	48 87 f7             	xchg   rdi,rsi
  401533:	f0 0f c1 3e          	lock xadd DWORD PTR [rsi],edi
  401537:	89 f8                	mov    eax,edi
  401539:	c3                   	ret    
  40153a:	00 00                	add    BYTE PTR [rax],al
  40153c:	00 00                	add    BYTE PTR [rax],al
	...

0000000000401540 <FPC_INTERLOCKEDCOMPAREEXCHANGE>:
  401540:	89 d0                	mov    eax,edx
  401542:	f0 0f b1 37          	lock cmpxchg DWORD PTR [rdi],esi
  401546:	c3                   	ret    
	...

0000000000401550 <FPC_INTERLOCKEDDECREMENT64>:
  401550:	48 89 f8             	mov    rax,rdi
  401553:	48 ba ff ff ff ff ff 	movabs rdx,0xffffffffffffffff
  40155a:	ff ff ff 
  40155d:	48 92                	xchg   rdx,rax
  40155f:	f0 48 0f c1 02       	lock xadd QWORD PTR [rdx],rax
  401564:	48 ff c8             	dec    rax
  401567:	c3                   	ret    
	...

0000000000401570 <FPC_INTERLOCKEDINCREMENT64>:
  401570:	48 89 f8             	mov    rax,rdi
  401573:	48 ba 01 00 00 00 00 	movabs rdx,0x1
  40157a:	00 00 00 
  40157d:	48 92                	xchg   rdx,rax
  40157f:	f0 48 0f c1 02       	lock xadd QWORD PTR [rdx],rax
  401584:	48 ff c0             	inc    rax
  401587:	c3                   	ret    
	...

0000000000401590 <FPC_INTERLOCKEDEXCHANGE64>:
  401590:	48 87 37             	xchg   QWORD PTR [rdi],rsi
  401593:	48 89 f0             	mov    rax,rsi
  401596:	c3                   	ret    
	...

00000000004015a0 <FPC_INTERLOCKEDEXCHANGEADD64>:
  4015a0:	48 87 f7             	xchg   rdi,rsi
  4015a3:	f0 48 0f c1 3e       	lock xadd QWORD PTR [rsi],rdi
  4015a8:	48 89 f8             	mov    rax,rdi
  4015ab:	c3                   	ret    
  4015ac:	00 00                	add    BYTE PTR [rax],al
	...

00000000004015b0 <FPC_INTERLOCKEDCOMPAREEXCHANGE64>:
  4015b0:	48 89 d0             	mov    rax,rdx
  4015b3:	f0 48 0f b1 37       	lock cmpxchg QWORD PTR [rdi],rsi
  4015b8:	c3                   	ret    
  4015b9:	00 00                	add    BYTE PTR [rax],al
  4015bb:	00 00                	add    BYTE PTR [rax],al
  4015bd:	00 00                	add    BYTE PTR [rax],al
	...

00000000004015c0 <SYSTEM_$$_FPC_CPUINIT>:
  4015c0:	48 8d 64 24 f8       	lea    rsp,[rsp-0x8]
  4015c5:	48 8d 05 74 23 22 00 	lea    rax,[rip+0x222374]        # 623940 <operatingsystem_islibrary>
  4015cc:	80 38 00             	cmp    BYTE PTR [rax],0x0
  4015cf:	74 1d                	je     4015ee <SYSTEM_$$_FPC_CPUINIT+0x2e>
  4015d1:	e8 4a 1e 00 00       	call   403420 <SYSTEM_$$_GET8087CW$$WORD>
  4015d6:	48 8d 15 b3 23 22 00 	lea    rdx,[rip+0x2223b3]        # 623990 <TC_$SYSTEM_$$_DEFAULT8087CW>
  4015dd:	66 89 02             	mov    WORD PTR [rdx],ax
  4015e0:	e8 7b 1e 00 00       	call   403460 <SYSTEM_$$_GETMXCSR$$LONGWORD>
  4015e5:	48 8d 15 b4 23 22 00 	lea    rdx,[rip+0x2223b4]        # 6239a0 <TC_$SYSTEM_$$_DEFAULTMXCSR>
  4015ec:	89 02                	mov    DWORD PTR [rdx],eax
  4015ee:	e8 1d 00 00 00       	call   401610 <SYSTEM_$$_SYSRESETFPU>
  4015f3:	48 8d 64 24 08       	lea    rsp,[rsp+0x8]
  4015f8:	c3                   	ret    
  4015f9:	00 00                	add    BYTE PTR [rax],al
  4015fb:	00 00                	add    BYTE PTR [rax],al
  4015fd:	00 00                	add    BYTE PTR [rax],al
	...

0000000000401600 <SYSTEM_$$_SYSINITFPU>:
  401600:	c3                   	ret    
	...

0000000000401610 <SYSTEM_$$_SYSRESETFPU>:
  401610:	55                   	push   rbp
  401611:	48 89 e5             	mov    rbp,rsp
  401614:	48 8d 64 24 f0       	lea    rsp,[rsp-0x10]
  401619:	48 8d 05 70 23 22 00 	lea    rax,[rip+0x222370]        # 623990 <TC_$SYSTEM_$$_DEFAULT8087CW>
  401620:	66 8b 00             	mov    ax,WORD PTR [rax]
  401623:	66 89 45 f8          	mov    WORD PTR [rbp-0x8],ax
  401627:	48 8d 05 72 23 22 00 	lea    rax,[rip+0x222372]        # 6239a0 <TC_$SYSTEM_$$_DEFAULTMXCSR>
  40162e:	8b 00                	mov    eax,DWORD PTR [rax]
  401630:	89 45 fc             	mov    DWORD PTR [rbp-0x4],eax
  401633:	db e3                	fninit 
  401635:	9b d9 6d f8          	fldcw  WORD PTR [rbp-0x8]
  401639:	0f ae 55 fc          	ldmxcsr DWORD PTR [rbp-0x4]
  40163d:	c9                   	leave  
  40163e:	c3                   	ret    
	...

0000000000401640 <SYSTEM_$$_READBARRIER>:
  401640:	0f ae e8             	lfence 
  401643:	c3                   	ret    
	...

0000000000401650 <SYSTEM_$$_READDEPENDENCYBARRIER>:
  401650:	c3                   	ret    
	...

0000000000401660 <SYSTEM_$$_READWRITEBARRIER>:
  401660:	0f ae f0             	mfence 
  401663:	c3                   	ret    
	...

0000000000401670 <SYSTEM_$$_WRITEBARRIER>:
  401670:	0f ae f8             	sfence 
  401673:	c3                   	ret    
	...

0000000000401680 <SYSTEM_$$_SWAPENDIAN$SMALLINT$$SMALLINT>:
  401680:	66 89 f8             	mov    ax,di
  401683:	25 ff ff 00 00       	and    eax,0xffff
  401688:	89 c2                	mov    edx,eax
  40168a:	c1 ea 08             	shr    edx,0x8
  40168d:	c1 e0 08             	shl    eax,0x8
  401690:	09 d0                	or     eax,edx
  401692:	0f bf c0             	movsx  eax,ax
  401695:	c3                   	ret    
	...

00000000004016a0 <SYSTEM_$$_SWAPENDIAN$WORD$$WORD>:
  4016a0:	66 89 f8             	mov    ax,di
  4016a3:	25 ff ff 00 00       	and    eax,0xffff
  4016a8:	89 c2                	mov    edx,eax
  4016aa:	c1 ea 08             	shr    edx,0x8
  4016ad:	c1 e0 08             	shl    eax,0x8
  4016b0:	09 d0                	or     eax,edx
  4016b2:	25 ff ff 00 00       	and    eax,0xffff
  4016b7:	c3                   	ret    
	...

00000000004016c0 <SYSTEM_$$_SWAPENDIAN$LONGINT$$LONGINT>:
  4016c0:	89 f8                	mov    eax,edi
  4016c2:	0f c8                	bswap  eax
  4016c4:	c3                   	ret    
	...

00000000004016d0 <SYSTEM_$$_SWAPENDIAN$LONGWORD$$LONGWORD>:
  4016d0:	89 f8                	mov    eax,edi
  4016d2:	0f c8                	bswap  eax
  4016d4:	c3                   	ret    
	...

00000000004016e0 <SYSTEM_$$_SWAPENDIAN$INT64$$INT64>:
  4016e0:	48 89 f8             	mov    rax,rdi
  4016e3:	48 0f c8             	bswap  rax
  4016e6:	c3                   	ret    
	...

00000000004016f0 <SYSTEM_$$_SWAPENDIAN$QWORD$$QWORD>:
  4016f0:	48 89 f8             	mov    rax,rdi
  4016f3:	48 0f c8             	bswap  rax
  4016f6:	c3                   	ret    
	...

0000000000401700 <SYSTEM_$$_FILLCHAR$formal$INT64$BOOLEAN>:
  401700:	48 8d 64 24 f8       	lea    rsp,[rsp-0x8]
  401705:	48 89 f8             	mov    rax,rdi
  401708:	48 89 c7             	mov    rdi,rax
  40170b:	81 e2 ff 00 00 00    	and    edx,0xff
  401711:	e8 6a fa ff ff       	call   401180 <SYSTEM_$$_FILLCHAR$formal$INT64$BYTE>
  401716:	48 8d 64 24 08       	lea    rsp,[rsp+0x8]
  40171b:	c3                   	ret    
  40171c:	00 00                	add    BYTE PTR [rax],al
	...

0000000000401720 <SYSTEM_$$_FILLCHAR$formal$INT64$CHAR>:
  401720:	48 8d 64 24 f8       	lea    rsp,[rsp-0x8]
  401725:	48 89 f8             	mov    rax,rdi
  401728:	48 89 c7             	mov    rdi,rax
  40172b:	81 e2 ff 00 00 00    	and    edx,0xff
  401731:	e8 4a fa ff ff       	call   401180 <SYSTEM_$$_FILLCHAR$formal$INT64$BYTE>
  401736:	48 8d 64 24 08       	lea    rsp,[rsp+0x8]
  40173b:	c3                   	ret    
  40173c:	00 00                	add    BYTE PTR [rax],al
	...

0000000000401740 <SYSTEM_$$_FILLBYTE$formal$INT64$BYTE>:
  401740:	48 8d 64 24 f8       	lea    rsp,[rsp-0x8]
  401745:	48 89 f8             	mov    rax,rdi
  401748:	48 89 c7             	mov    rdi,rax
  40174b:	81 e2 ff 00 00 00    	and    edx,0xff
  401751:	e8 2a fa ff ff       	call   401180 <SYSTEM_$$_FILLCHAR$formal$INT64$BYTE>
  401756:	48 8d 64 24 08       	lea    rsp,[rsp+0x8]
  40175b:	c3                   	ret    
  40175c:	00 00                	add    BYTE PTR [rax],al
	...

0000000000401760 <SYSTEM_$$_INDEXCHAR$formal$INT64$CHAR$$INT64>:
  401760:	48 8d 64 24 f8       	lea    rsp,[rsp-0x8]
  401765:	81 e2 ff 00 00 00    	and    edx,0xff
  40176b:	e8 30 fb ff ff       	call   4012a0 <SYSTEM_$$_INDEXBYTE$formal$INT64$BYTE$$INT64>
  401770:	48 8d 64 24 08       	lea    rsp,[rsp+0x8]
  401775:	c3                   	ret    
	...

0000000000401780 <SYSTEM_$$_COMPARECHAR$formal$formal$INT64$$INT64>:
  401780:	48 8d 64 24 f8       	lea    rsp,[rsp-0x8]
  401785:	e8 96 fc ff ff       	call   401420 <SYSTEM_$$_COMPAREBYTE$formal$formal$INT64$$INT64>
  40178a:	48 8d 64 24 08       	lea    rsp,[rsp+0x8]
  40178f:	c3                   	ret    

0000000000401790 <fpc_zeromem>:
  401790:	48 8d 64 24 f8       	lea    rsp,[rsp-0x8]
  401795:	48 89 f8             	mov    rax,rdi
  401798:	48 89 c7             	mov    rdi,rax
  40179b:	ba 00 00 00 00       	mov    edx,0x0
  4017a0:	e8 db f9 ff ff       	call   401180 <SYSTEM_$$_FILLCHAR$formal$INT64$BYTE>
  4017a5:	48 8d 64 24 08       	lea    rsp,[rsp+0x8]
  4017aa:	c3                   	ret    
  4017ab:	00 00                	add    BYTE PTR [rax],al
  4017ad:	00 00                	add    BYTE PTR [rax],al
	...

00000000004017b0 <fpc_fillmem>:
  4017b0:	48 8d 64 24 f8       	lea    rsp,[rsp-0x8]
  4017b5:	48 89 f8             	mov    rax,rdi
  4017b8:	48 89 c7             	mov    rdi,rax
  4017bb:	81 e2 ff 00 00 00    	and    edx,0xff
  4017c1:	e8 7a ff ff ff       	call   401740 <SYSTEM_$$_FILLBYTE$formal$INT64$BYTE>
  4017c6:	48 8d 64 24 08       	lea    rsp,[rsp+0x8]
  4017cb:	c3                   	ret    
  4017cc:	00 00                	add    BYTE PTR [rax],al
	...

00000000004017d0 <SYSTEM_$$_FPC_SHORTSTR_SHORTSTR_INTERN_CHARMOVE$SHORTSTRING$BYTE$OPENSTRING$BYTE$BYTE>:
  4017d0:	48 8d 64 24 f8       	lea    rsp,[rsp-0x8]
  4017d5:	48 89 f8             	mov    rax,rdi
  4017d8:	40 88 f7             	mov    dil,sil
  4017db:	48 89 d6             	mov    rsi,rdx
  4017de:	44 88 ca             	mov    dl,r9b
  4017e1:	41 81 e0 ff 00 00 00 	and    r8d,0xff
  4017e8:	4a 8d 34 06          	lea    rsi,[rsi+r8*1]
  4017ec:	81 e7 ff 00 00 00    	and    edi,0xff
  4017f2:	48 8d 3c 38          	lea    rdi,[rax+rdi*1]
  4017f6:	81 e2 ff 00 00 00    	and    edx,0xff
  4017fc:	e8 6f f6 ff ff       	call   400e70 <FPC_MOVE>
  401801:	48 8d 64 24 08       	lea    rsp,[rsp+0x8]
  401806:	c3                   	ret    
	...

0000000000401810 <SYSTEM_$$_FPC_SHORTSTR_CHARARRAY_INTERN_CHARMOVE$SHORTSTRING$array_of_CHAR$INT64>:
  401810:	55                   	push   rbp
  401811:	48 89 e5             	mov    rbp,rsp
  401814:	48 89 f8             	mov    rax,rdi
  401817:	48 89 ca             	mov    rdx,rcx
  40181a:	48 8d 78 01          	lea    rdi,[rax+0x1]
  40181e:	e8 4d f6 ff ff       	call   400e70 <FPC_MOVE>
  401823:	c9                   	leave  
  401824:	c3                   	ret    
	...

0000000000401830 <SYSTEM_$$_FILLWORD$formal$INT64$WORD>:
  401830:	48 83 fe 00          	cmp    rsi,0x0
  401834:	0f 8e a2 00 00 00    	jle    4018dc <SYSTEM_$$_FILLWORD$formal$INT64$WORD+0xac>
  40183a:	48 83 fe 1f          	cmp    rsi,0x1f
  40183e:	0f 8e 80 00 00 00    	jle    4018c4 <SYSTEM_$$_FILLWORD$formal$INT64$WORD+0x94>
  401844:	0f b7 ca             	movzx  ecx,dx
  401847:	89 c8                	mov    eax,ecx
  401849:	c1 e0 10             	shl    eax,0x10
  40184c:	09 c1                	or     ecx,eax
  40184e:	81 e1 ff ff ff ff    	and    ecx,0xffffffff
  401854:	48 89 c8             	mov    rax,rcx
  401857:	48 c1 e0 20          	shl    rax,0x20
  40185b:	49 89 c8             	mov    r8,rcx
  40185e:	49 09 c0             	or     r8,rax
  401861:	4c 89 c1             	mov    rcx,r8
  401864:	48 89 f8             	mov    rax,rdi
  401867:	48 83 e0 07          	and    rax,0x7
  40186b:	48 d1 e8             	shr    rax,1
  40186e:	48 29 c6             	sub    rsi,rax
  401871:	48 d1 e0             	shl    rax,1
  401874:	48 8d 04 38          	lea    rax,[rax+rdi*1]
  401878:	eb 0d                	jmp    401887 <SYSTEM_$$_FILLWORD$formal$INT64$WORD+0x57>
  40187a:	66 66 66 90          	data16 data16 xchg ax,ax
  40187e:	66 90                	xchg   ax,ax
  401880:	66 89 17             	mov    WORD PTR [rdi],dx
  401883:	48 83 c7 02          	add    rdi,0x2
  401887:	48 39 c7             	cmp    rdi,rax
  40188a:	72 f4                	jb     401880 <SYSTEM_$$_FILLWORD$formal$INT64$WORD+0x50>
  40188c:	49 89 f0             	mov    r8,rsi
  40188f:	49 d1 e0             	shl    r8,1
  401892:	49 c1 e8 03          	shr    r8,0x3
  401896:	49 c1 e0 03          	shl    r8,0x3
  40189a:	4d 8d 04 38          	lea    r8,[r8+rdi*1]
  40189e:	4c 89 c0             	mov    rax,r8
  4018a1:	eb 0c                	jmp    4018af <SYSTEM_$$_FILLWORD$formal$INT64$WORD+0x7f>
  4018a3:	66 66 66 90          	data16 data16 xchg ax,ax
  4018a7:	90                   	nop
  4018a8:	48 89 0f             	mov    QWORD PTR [rdi],rcx
  4018ab:	48 83 c7 08          	add    rdi,0x8
  4018af:	48 39 c7             	cmp    rdi,rax
  4018b2:	72 f4                	jb     4018a8 <SYSTEM_$$_FILLWORD$formal$INT64$WORD+0x78>
  4018b4:	48 89 f0             	mov    rax,rsi
  4018b7:	48 d1 e0             	shl    rax,1
  4018ba:	48 83 e0 07          	and    rax,0x7
  4018be:	48 d1 e8             	shr    rax,1
  4018c1:	48 89 c6             	mov    rsi,rax
  4018c4:	48 d1 e6             	shl    rsi,1
  4018c7:	48 8d 04 3e          	lea    rax,[rsi+rdi*1]
  4018cb:	eb 0a                	jmp    4018d7 <SYSTEM_$$_FILLWORD$formal$INT64$WORD+0xa7>
  4018cd:	66 66 90             	data16 xchg ax,ax
  4018d0:	66 89 17             	mov    WORD PTR [rdi],dx
  4018d3:	48 83 c7 02          	add    rdi,0x2
  4018d7:	48 39 c7             	cmp    rdi,rax
  4018da:	72 f4                	jb     4018d0 <SYSTEM_$$_FILLWORD$formal$INT64$WORD+0xa0>
  4018dc:	c3                   	ret    
  4018dd:	00 00                	add    BYTE PTR [rax],al
	...

00000000004018e0 <SYSTEM_$$_FILLDWORD$formal$INT64$LONGWORD>:
  4018e0:	48 83 fe 00          	cmp    rsi,0x0
  4018e4:	0f 8e 99 00 00 00    	jle    401983 <SYSTEM_$$_FILLDWORD$formal$INT64$LONGWORD+0xa3>
  4018ea:	48 83 fe 1f          	cmp    rsi,0x1f
  4018ee:	0f 8e 7a 00 00 00    	jle    40196e <SYSTEM_$$_FILLDWORD$formal$INT64$LONGWORD+0x8e>
  4018f4:	89 d1                	mov    ecx,edx
  4018f6:	81 e1 ff ff ff ff    	and    ecx,0xffffffff
  4018fc:	48 89 c8             	mov    rax,rcx
  4018ff:	48 c1 e0 20          	shl    rax,0x20
  401903:	49 89 c8             	mov    r8,rcx
  401906:	49 09 c0             	or     r8,rax
  401909:	4c 89 c1             	mov    rcx,r8
  40190c:	48 89 f8             	mov    rax,rdi
  40190f:	48 83 e0 07          	and    rax,0x7
  401913:	48 c1 e8 02          	shr    rax,0x2
  401917:	48 29 c6             	sub    rsi,rax
  40191a:	48 c1 e0 02          	shl    rax,0x2
  40191e:	48 8d 04 38          	lea    rax,[rax+rdi*1]
  401922:	eb 0a                	jmp    40192e <SYSTEM_$$_FILLDWORD$formal$INT64$LONGWORD+0x4e>
  401924:	66 66 66 90          	data16 data16 xchg ax,ax
  401928:	89 17                	mov    DWORD PTR [rdi],edx
  40192a:	48 83 c7 04          	add    rdi,0x4
  40192e:	48 39 c7             	cmp    rdi,rax
  401931:	72 f5                	jb     401928 <SYSTEM_$$_FILLDWORD$formal$INT64$LONGWORD+0x48>
  401933:	49 89 f0             	mov    r8,rsi
  401936:	49 c1 e0 02          	shl    r8,0x2
  40193a:	49 c1 e8 03          	shr    r8,0x3
  40193e:	49 c1 e0 03          	shl    r8,0x3
  401942:	4d 8d 04 38          	lea    r8,[r8+rdi*1]
  401946:	4c 89 c0             	mov    rax,r8
  401949:	eb 0c                	jmp    401957 <SYSTEM_$$_FILLDWORD$formal$INT64$LONGWORD+0x77>
  40194b:	66 66 66 90          	data16 data16 xchg ax,ax
  40194f:	90                   	nop
  401950:	48 89 0f             	mov    QWORD PTR [rdi],rcx
  401953:	48 83 c7 08          	add    rdi,0x8
  401957:	48 39 c7             	cmp    rdi,rax
  40195a:	72 f4                	jb     401950 <SYSTEM_$$_FILLDWORD$formal$INT64$LONGWORD+0x70>
  40195c:	48 89 f0             	mov    rax,rsi
  40195f:	48 c1 e0 02          	shl    rax,0x2
  401963:	48 83 e0 07          	and    rax,0x7
  401967:	48 c1 e8 02          	shr    rax,0x2
  40196b:	48 89 c6             	mov    rsi,rax
  40196e:	48 c1 e6 02          	shl    rsi,0x2
  401972:	48 8d 04 3e          	lea    rax,[rsi+rdi*1]
  401976:	eb 06                	jmp    40197e <SYSTEM_$$_FILLDWORD$formal$INT64$LONGWORD+0x9e>
  401978:	89 17                	mov    DWORD PTR [rdi],edx
  40197a:	48 83 c7 04          	add    rdi,0x4
  40197e:	48 39 c7             	cmp    rdi,rax
  401981:	72 f5                	jb     401978 <SYSTEM_$$_FILLDWORD$formal$INT64$LONGWORD+0x98>
  401983:	c3                   	ret    
	...

0000000000401990 <SYSTEM_$$_FILLQWORD$formal$INT64$QWORD>:
  401990:	48 83 fe 00          	cmp    rsi,0x0
  401994:	7e 16                	jle    4019ac <SYSTEM_$$_FILLQWORD$formal$INT64$QWORD+0x1c>
  401996:	48 c1 e6 03          	shl    rsi,0x3
  40199a:	48 8d 04 3e          	lea    rax,[rsi+rdi*1]
  40199e:	eb 07                	jmp    4019a7 <SYSTEM_$$_FILLQWORD$formal$INT64$QWORD+0x17>
  4019a0:	48 89 17             	mov    QWORD PTR [rdi],rdx
  4019a3:	48 83 c7 08          	add    rdi,0x8
  4019a7:	48 39 c7             	cmp    rdi,rax
  4019aa:	72 f4                	jb     4019a0 <SYSTEM_$$_FILLQWORD$formal$INT64$QWORD+0x10>
  4019ac:	c3                   	ret    
  4019ad:	00 00                	add    BYTE PTR [rax],al
	...

00000000004019b0 <SYSTEM_$$_INDEXDWORD$formal$INT64$LONGWORD$$INT64>:
  4019b0:	48 89 f9             	mov    rcx,rdi
  4019b3:	48 83 fe 00          	cmp    rsi,0x0
  4019b7:	7c 1f                	jl     4019d8 <SYSTEM_$$_INDEXDWORD$formal$INT64$LONGWORD$$INT64+0x28>
  4019b9:	48 b8 ff ff ff ff ff 	movabs rax,0x3fffffffffffffff
  4019c0:	ff ff 3f 
  4019c3:	48 39 c6             	cmp    rsi,rax
  4019c6:	7f 10                	jg     4019d8 <SYSTEM_$$_INDEXDWORD$formal$INT64$LONGWORD$$INT64+0x28>
  4019c8:	48 89 f0             	mov    rax,rsi
  4019cb:	48 c1 e0 02          	shl    rax,0x2
  4019cf:	48 8d 04 08          	lea    rax,[rax+rcx*1]
  4019d3:	48 39 c8             	cmp    rax,rcx
  4019d6:	73 0c                	jae    4019e4 <SYSTEM_$$_INDEXDWORD$formal$INT64$LONGWORD$$INT64+0x34>
  4019d8:	49 b8 fb ff ff ff ff 	movabs r8,0xfffffffffffffffb
  4019df:	ff ff ff 
  4019e2:	eb 3e                	jmp    401a22 <SYSTEM_$$_INDEXDWORD$formal$INT64$LONGWORD$$INT64+0x72>
  4019e4:	48 c1 e6 02          	shl    rsi,0x2
  4019e8:	48 8d 04 0e          	lea    rax,[rsi+rcx*1]
  4019ec:	49 89 c0             	mov    r8,rax
  4019ef:	eb 31                	jmp    401a22 <SYSTEM_$$_INDEXDWORD$formal$INT64$LONGWORD$$INT64+0x72>
  4019f1:	66 66 66 90          	data16 data16 xchg ax,ax
  4019f5:	66 66 90             	data16 xchg ax,ax
  4019f8:	8b 31                	mov    esi,DWORD PTR [rcx]
  4019fa:	39 d6                	cmp    esi,edx
  4019fc:	75 20                	jne    401a1e <SYSTEM_$$_INDEXDWORD$formal$INT64$LONGWORD$$INT64+0x6e>
  4019fe:	48 89 fe             	mov    rsi,rdi
  401a01:	49 89 c9             	mov    r9,rcx
  401a04:	49 29 f1             	sub    r9,rsi
  401a07:	4c 89 ce             	mov    rsi,r9
  401a0a:	48 c1 fe 3f          	sar    rsi,0x3f
  401a0e:	48 83 e6 03          	and    rsi,0x3
  401a12:	49 01 f1             	add    r9,rsi
  401a15:	49 c1 f9 02          	sar    r9,0x2
  401a19:	4c 89 c8             	mov    rax,r9
  401a1c:	eb 13                	jmp    401a31 <SYSTEM_$$_INDEXDWORD$formal$INT64$LONGWORD$$INT64+0x81>
  401a1e:	48 83 c1 04          	add    rcx,0x4
  401a22:	4c 39 c1             	cmp    rcx,r8
  401a25:	72 d1                	jb     4019f8 <SYSTEM_$$_INDEXDWORD$formal$INT64$LONGWORD$$INT64+0x48>
  401a27:	48 b8 ff ff ff ff ff 	movabs rax,0xffffffffffffffff
  401a2e:	ff ff ff 
  401a31:	c3                   	ret    
	...

0000000000401a40 <SYSTEM_$$_INDEXQWORD$formal$INT64$QWORD$$INT64>:
  401a40:	48 89 f9             	mov    rcx,rdi
  401a43:	48 83 fe 00          	cmp    rsi,0x0
  401a47:	7c 1f                	jl     401a68 <SYSTEM_$$_INDEXQWORD$formal$INT64$QWORD$$INT64+0x28>
  401a49:	48 b8 ff ff ff ff ff 	movabs rax,0x1fffffffffffffff
  401a50:	ff ff 1f 
  401a53:	48 39 c6             	cmp    rsi,rax
  401a56:	7f 10                	jg     401a68 <SYSTEM_$$_INDEXQWORD$formal$INT64$QWORD$$INT64+0x28>
  401a58:	48 89 f0             	mov    rax,rsi
  401a5b:	48 c1 e0 03          	shl    rax,0x3
  401a5f:	48 8d 04 08          	lea    rax,[rax+rcx*1]
  401a63:	48 39 c8             	cmp    rax,rcx
  401a66:	73 0c                	jae    401a74 <SYSTEM_$$_INDEXQWORD$formal$INT64$QWORD$$INT64+0x34>
  401a68:	49 b8 f7 ff ff ff ff 	movabs r8,0xfffffffffffffff7
  401a6f:	ff ff ff 
  401a72:	eb 40                	jmp    401ab4 <SYSTEM_$$_INDEXQWORD$formal$INT64$QWORD$$INT64+0x74>
  401a74:	48 c1 e6 03          	shl    rsi,0x3
  401a78:	48 8d 04 0e          	lea    rax,[rsi+rcx*1]
  401a7c:	49 89 c0             	mov    r8,rax
  401a7f:	eb 33                	jmp    401ab4 <SYSTEM_$$_INDEXQWORD$formal$INT64$QWORD$$INT64+0x74>
  401a81:	66 66 66 90          	data16 data16 xchg ax,ax
  401a85:	66 66 90             	data16 xchg ax,ax
  401a88:	48 8b 31             	mov    rsi,QWORD PTR [rcx]
  401a8b:	48 39 d6             	cmp    rsi,rdx
  401a8e:	75 20                	jne    401ab0 <SYSTEM_$$_INDEXQWORD$formal$INT64$QWORD$$INT64+0x70>
  401a90:	48 89 fe             	mov    rsi,rdi
  401a93:	49 89 c9             	mov    r9,rcx
  401a96:	49 29 f1             	sub    r9,rsi
  401a99:	4c 89 ce             	mov    rsi,r9
  401a9c:	48 c1 fe 3f          	sar    rsi,0x3f
  401aa0:	48 83 e6 07          	and    rsi,0x7
  401aa4:	49 01 f1             	add    r9,rsi
  401aa7:	49 c1 f9 03          	sar    r9,0x3
  401aab:	4c 89 c8             	mov    rax,r9
  401aae:	eb 13                	jmp    401ac3 <SYSTEM_$$_INDEXQWORD$formal$INT64$QWORD$$INT64+0x83>
  401ab0:	48 83 c1 08          	add    rcx,0x8
  401ab4:	4c 39 c1             	cmp    rcx,r8
  401ab7:	72 cf                	jb     401a88 <SYSTEM_$$_INDEXQWORD$formal$INT64$QWORD$$INT64+0x48>
  401ab9:	48 b8 ff ff ff ff ff 	movabs rax,0xffffffffffffffff
  401ac0:	ff ff ff 
  401ac3:	c3                   	ret    
	...

0000000000401ad0 <SYSTEM_$$_COMPAREWORD$formal$formal$INT64$$INT64>:
  401ad0:	49 b8 00 00 00 00 00 	movabs r8,0x0
  401ad7:	00 00 00 
  401ada:	48 83 fa 1f          	cmp    rdx,0x1f
  401ade:	0f 8e c6 00 00 00    	jle    401baa <SYSTEM_$$_COMPAREWORD$formal$formal$INT64$$INT64+0xda>
  401ae4:	48 89 f0             	mov    rax,rsi
  401ae7:	48 83 e0 07          	and    rax,0x7
  401aeb:	48 b9 08 00 00 00 00 	movabs rcx,0x8
  401af2:	00 00 00 
  401af5:	48 29 c1             	sub    rcx,rax
  401af8:	48 83 e1 07          	and    rcx,0x7
  401afc:	48 d1 e9             	shr    rcx,1
  401aff:	48 29 ca             	sub    rdx,rcx
  401b02:	48 d1 e1             	shl    rcx,1
  401b05:	48 8d 0c 39          	lea    rcx,[rcx+rdi*1]
  401b09:	eb 44                	jmp    401b4f <SYSTEM_$$_COMPAREWORD$formal$formal$INT64$$INT64+0x7f>
  401b0b:	66 66 66 90          	data16 data16 xchg ax,ax
  401b0f:	90                   	nop
  401b10:	44 0f b7 0f          	movzx  r9d,WORD PTR [rdi]
  401b14:	44 0f b7 16          	movzx  r10d,WORD PTR [rsi]
  401b18:	4d 29 d1             	sub    r9,r10
  401b1b:	4d 89 c8             	mov    r8,r9
  401b1e:	4d 85 c0             	test   r8,r8
  401b21:	74 24                	je     401b47 <SYSTEM_$$_COMPAREWORD$formal$formal$INT64$$INT64+0x77>
  401b23:	49 83 f8 00          	cmp    r8,0x0
  401b27:	7d 0f                	jge    401b38 <SYSTEM_$$_COMPAREWORD$formal$formal$INT64$$INT64+0x68>
  401b29:	48 b8 ff ff ff ff ff 	movabs rax,0xffffffffffffffff
  401b30:	ff ff ff 
  401b33:	e9 e7 00 00 00       	jmp    401c1f <SYSTEM_$$_COMPAREWORD$formal$formal$INT64$$INT64+0x14f>
  401b38:	48 b8 01 00 00 00 00 	movabs rax,0x1
  401b3f:	00 00 00 
  401b42:	e9 d8 00 00 00       	jmp    401c1f <SYSTEM_$$_COMPAREWORD$formal$formal$INT64$$INT64+0x14f>
  401b47:	48 83 c6 02          	add    rsi,0x2
  401b4b:	48 83 c7 02          	add    rdi,0x2
  401b4f:	48 39 cf             	cmp    rdi,rcx
  401b52:	72 bc                	jb     401b10 <SYSTEM_$$_COMPAREWORD$formal$formal$INT64$$INT64+0x40>
  401b54:	49 89 d1             	mov    r9,rdx
  401b57:	49 d1 e1             	shl    r9,1
  401b5a:	49 c1 e9 03          	shr    r9,0x3
  401b5e:	49 c1 e1 03          	shl    r9,0x3
  401b62:	4d 8d 0c 39          	lea    r9,[r9+rdi*1]
  401b66:	4c 89 c9             	mov    rcx,r9
  401b69:	49 89 d1             	mov    r9,rdx
  401b6c:	49 d1 e1             	shl    r9,1
  401b6f:	49 83 e1 07          	and    r9,0x7
  401b73:	49 d1 e9             	shr    r9,1
  401b76:	4c 89 ca             	mov    rdx,r9
  401b79:	eb 2a                	jmp    401ba5 <SYSTEM_$$_COMPAREWORD$formal$formal$INT64$$INT64+0xd5>
  401b7b:	66 66 66 90          	data16 data16 xchg ax,ax
  401b7f:	90                   	nop
  401b80:	4c 8b 0f             	mov    r9,QWORD PTR [rdi]
  401b83:	4c 8b 16             	mov    r10,QWORD PTR [rsi]
  401b86:	4d 29 d1             	sub    r9,r10
  401b89:	4d 89 c8             	mov    r8,r9
  401b8c:	4d 85 c0             	test   r8,r8
  401b8f:	74 0c                	je     401b9d <SYSTEM_$$_COMPAREWORD$formal$formal$INT64$$INT64+0xcd>
  401b91:	48 ba 04 00 00 00 00 	movabs rdx,0x4
  401b98:	00 00 00 
  401b9b:	eb 0d                	jmp    401baa <SYSTEM_$$_COMPAREWORD$formal$formal$INT64$$INT64+0xda>
  401b9d:	48 83 c6 08          	add    rsi,0x8
  401ba1:	48 83 c7 08          	add    rdi,0x8
  401ba5:	48 39 cf             	cmp    rdi,rcx
  401ba8:	72 d6                	jb     401b80 <SYSTEM_$$_COMPAREWORD$formal$formal$INT64$$INT64+0xb0>
  401baa:	49 89 d1             	mov    r9,rdx
  401bad:	49 d1 e1             	shl    r9,1
  401bb0:	4d 8d 0c 39          	lea    r9,[r9+rdi*1]
  401bb4:	49 39 f9             	cmp    r9,rdi
  401bb7:	72 0c                	jb     401bc5 <SYSTEM_$$_COMPAREWORD$formal$formal$INT64$$INT64+0xf5>
  401bb9:	48 d1 e2             	shl    rdx,1
  401bbc:	48 8d 14 3a          	lea    rdx,[rdx+rdi*1]
  401bc0:	48 89 d1             	mov    rcx,rdx
  401bc3:	eb 4b                	jmp    401c10 <SYSTEM_$$_COMPAREWORD$formal$formal$INT64$$INT64+0x140>
  401bc5:	48 b9 fd ff ff ff ff 	movabs rcx,0xfffffffffffffffd
  401bcc:	ff ff ff 
  401bcf:	eb 3f                	jmp    401c10 <SYSTEM_$$_COMPAREWORD$formal$formal$INT64$$INT64+0x140>
  401bd1:	66 66 66 90          	data16 data16 xchg ax,ax
  401bd5:	66 66 90             	data16 xchg ax,ax
  401bd8:	0f b7 17             	movzx  edx,WORD PTR [rdi]
  401bdb:	44 0f b7 0e          	movzx  r9d,WORD PTR [rsi]
  401bdf:	4c 29 ca             	sub    rdx,r9
  401be2:	49 89 d0             	mov    r8,rdx
  401be5:	4d 85 c0             	test   r8,r8
  401be8:	74 1e                	je     401c08 <SYSTEM_$$_COMPAREWORD$formal$formal$INT64$$INT64+0x138>
  401bea:	49 83 f8 00          	cmp    r8,0x0
  401bee:	7d 0c                	jge    401bfc <SYSTEM_$$_COMPAREWORD$formal$formal$INT64$$INT64+0x12c>
  401bf0:	48 b8 ff ff ff ff ff 	movabs rax,0xffffffffffffffff
  401bf7:	ff ff ff 
  401bfa:	eb 23                	jmp    401c1f <SYSTEM_$$_COMPAREWORD$formal$formal$INT64$$INT64+0x14f>
  401bfc:	48 b8 01 00 00 00 00 	movabs rax,0x1
  401c03:	00 00 00 
  401c06:	eb 17                	jmp    401c1f <SYSTEM_$$_COMPAREWORD$formal$formal$INT64$$INT64+0x14f>
  401c08:	48 83 c6 02          	add    rsi,0x2
  401c0c:	48 83 c7 02          	add    rdi,0x2
  401c10:	48 39 cf             	cmp    rdi,rcx
  401c13:	72 c3                	jb     401bd8 <SYSTEM_$$_COMPAREWORD$formal$formal$INT64$$INT64+0x108>
  401c15:	48 b8 00 00 00 00 00 	movabs rax,0x0
  401c1c:	00 00 00 
  401c1f:	c3                   	ret    

0000000000401c20 <SYSTEM_$$_COMPAREDWORD$formal$formal$INT64$$INT64>:
  401c20:	48 83 fa 15          	cmp    rdx,0x15
  401c24:	0f 8e b7 00 00 00    	jle    401ce1 <SYSTEM_$$_COMPAREDWORD$formal$formal$INT64$$INT64+0xc1>
  401c2a:	48 89 f0             	mov    rax,rsi
  401c2d:	48 83 e0 07          	and    rax,0x7
  401c31:	48 b9 08 00 00 00 00 	movabs rcx,0x8
  401c38:	00 00 00 
  401c3b:	48 29 c1             	sub    rcx,rax
  401c3e:	48 83 e1 07          	and    rcx,0x7
  401c42:	48 c1 e9 02          	shr    rcx,0x2
  401c46:	48 29 ca             	sub    rdx,rcx
  401c49:	48 c1 e1 02          	shl    rcx,0x2
  401c4d:	48 8d 0c 39          	lea    rcx,[rcx+rdi*1]
  401c51:	eb 3b                	jmp    401c8e <SYSTEM_$$_COMPAREDWORD$formal$formal$INT64$$INT64+0x6e>
  401c53:	66 66 66 90          	data16 data16 xchg ax,ax
  401c57:	90                   	nop
  401c58:	44 8b 07             	mov    r8d,DWORD PTR [rdi]
  401c5b:	44 3b 06             	cmp    r8d,DWORD PTR [rsi]
  401c5e:	74 26                	je     401c86 <SYSTEM_$$_COMPAREDWORD$formal$formal$INT64$$INT64+0x66>
  401c60:	44 8b 07             	mov    r8d,DWORD PTR [rdi]
  401c63:	44 3b 06             	cmp    r8d,DWORD PTR [rsi]
  401c66:	76 0f                	jbe    401c77 <SYSTEM_$$_COMPAREDWORD$formal$formal$INT64$$INT64+0x57>
  401c68:	48 b8 01 00 00 00 00 	movabs rax,0x1
  401c6f:	00 00 00 
  401c72:	e9 e4 00 00 00       	jmp    401d5b <SYSTEM_$$_COMPAREDWORD$formal$formal$INT64$$INT64+0x13b>
  401c77:	48 b8 ff ff ff ff ff 	movabs rax,0xffffffffffffffff
  401c7e:	ff ff ff 
  401c81:	e9 d5 00 00 00       	jmp    401d5b <SYSTEM_$$_COMPAREDWORD$formal$formal$INT64$$INT64+0x13b>
  401c86:	48 83 c6 04          	add    rsi,0x4
  401c8a:	48 83 c7 04          	add    rdi,0x4
  401c8e:	48 39 cf             	cmp    rdi,rcx
  401c91:	72 c5                	jb     401c58 <SYSTEM_$$_COMPAREDWORD$formal$formal$INT64$$INT64+0x38>
  401c93:	49 89 d0             	mov    r8,rdx
  401c96:	49 c1 e0 02          	shl    r8,0x2
  401c9a:	49 c1 e8 03          	shr    r8,0x3
  401c9e:	49 c1 e0 03          	shl    r8,0x3
  401ca2:	4d 8d 04 38          	lea    r8,[r8+rdi*1]
  401ca6:	4c 89 c1             	mov    rcx,r8
  401ca9:	49 89 d0             	mov    r8,rdx
  401cac:	49 c1 e0 02          	shl    r8,0x2
  401cb0:	49 83 e0 07          	and    r8,0x7
  401cb4:	49 c1 e8 02          	shr    r8,0x2
  401cb8:	4c 89 c2             	mov    rdx,r8
  401cbb:	eb 1f                	jmp    401cdc <SYSTEM_$$_COMPAREDWORD$formal$formal$INT64$$INT64+0xbc>
  401cbd:	66 66 90             	data16 xchg ax,ax
  401cc0:	4c 8b 07             	mov    r8,QWORD PTR [rdi]
  401cc3:	4c 3b 06             	cmp    r8,QWORD PTR [rsi]
  401cc6:	74 0c                	je     401cd4 <SYSTEM_$$_COMPAREDWORD$formal$formal$INT64$$INT64+0xb4>
  401cc8:	48 ba 02 00 00 00 00 	movabs rdx,0x2
  401ccf:	00 00 00 
  401cd2:	eb 0d                	jmp    401ce1 <SYSTEM_$$_COMPAREDWORD$formal$formal$INT64$$INT64+0xc1>
  401cd4:	48 83 c6 08          	add    rsi,0x8
  401cd8:	48 83 c7 08          	add    rdi,0x8
  401cdc:	48 39 cf             	cmp    rdi,rcx
  401cdf:	72 df                	jb     401cc0 <SYSTEM_$$_COMPAREDWORD$formal$formal$INT64$$INT64+0xa0>
  401ce1:	49 b8 ff ff ff ff ff 	movabs r8,0x3fffffffffffffff
  401ce8:	ff ff 3f 
  401ceb:	4c 39 c2             	cmp    rdx,r8
  401cee:	7f 1d                	jg     401d0d <SYSTEM_$$_COMPAREDWORD$formal$formal$INT64$$INT64+0xed>
  401cf0:	49 89 d0             	mov    r8,rdx
  401cf3:	49 c1 e0 02          	shl    r8,0x2
  401cf7:	4d 8d 04 38          	lea    r8,[r8+rdi*1]
  401cfb:	49 39 f8             	cmp    r8,rdi
  401cfe:	72 0d                	jb     401d0d <SYSTEM_$$_COMPAREDWORD$formal$formal$INT64$$INT64+0xed>
  401d00:	48 c1 e2 02          	shl    rdx,0x2
  401d04:	48 8d 14 3a          	lea    rdx,[rdx+rdi*1]
  401d08:	48 89 d1             	mov    rcx,rdx
  401d0b:	eb 3f                	jmp    401d4c <SYSTEM_$$_COMPAREDWORD$formal$formal$INT64$$INT64+0x12c>
  401d0d:	48 b9 fb ff ff ff ff 	movabs rcx,0xfffffffffffffffb
  401d14:	ff ff ff 
  401d17:	eb 33                	jmp    401d4c <SYSTEM_$$_COMPAREDWORD$formal$formal$INT64$$INT64+0x12c>
  401d19:	66 66 66 90          	data16 data16 xchg ax,ax
  401d1d:	66 66 90             	data16 xchg ax,ax
  401d20:	8b 17                	mov    edx,DWORD PTR [rdi]
  401d22:	3b 16                	cmp    edx,DWORD PTR [rsi]
  401d24:	74 1e                	je     401d44 <SYSTEM_$$_COMPAREDWORD$formal$formal$INT64$$INT64+0x124>
  401d26:	8b 17                	mov    edx,DWORD PTR [rdi]
  401d28:	3b 16                	cmp    edx,DWORD PTR [rsi]
  401d2a:	76 0c                	jbe    401d38 <SYSTEM_$$_COMPAREDWORD$formal$formal$INT64$$INT64+0x118>
  401d2c:	48 b8 01 00 00 00 00 	movabs rax,0x1
  401d33:	00 00 00 
  401d36:	eb 23                	jmp    401d5b <SYSTEM_$$_COMPAREDWORD$formal$formal$INT64$$INT64+0x13b>
  401d38:	48 b8 ff ff ff ff ff 	movabs rax,0xffffffffffffffff
  401d3f:	ff ff ff 
  401d42:	eb 17                	jmp    401d5b <SYSTEM_$$_COMPAREDWORD$formal$formal$INT64$$INT64+0x13b>
  401d44:	48 83 c6 04          	add    rsi,0x4
  401d48:	48 83 c7 04          	add    rdi,0x4
  401d4c:	48 39 cf             	cmp    rdi,rcx
  401d4f:	72 cf                	jb     401d20 <SYSTEM_$$_COMPAREDWORD$formal$formal$INT64$$INT64+0x100>
  401d51:	48 b8 00 00 00 00 00 	movabs rax,0x0
  401d58:	00 00 00 
  401d5b:	c3                   	ret    
  401d5c:	00 00                	add    BYTE PTR [rax],al
	...

0000000000401d60 <SYSTEM_$$_MOVECHAR0$formal$formal$INT64>:
  401d60:	53                   	push   rbx
  401d61:	41 54                	push   r12
  401d63:	41 55                	push   r13
  401d65:	48 89 fb             	mov    rbx,rdi
  401d68:	49 89 f4             	mov    r12,rsi
  401d6b:	49 89 d5             	mov    r13,rdx
  401d6e:	4d 85 ed             	test   r13,r13
  401d71:	74 34                	je     401da7 <SYSTEM_$$_MOVECHAR0$formal$formal$INT64+0x47>
  401d73:	48 89 df             	mov    rdi,rbx
  401d76:	4c 89 ee             	mov    rsi,r13
  401d79:	ba 00 00 00 00       	mov    edx,0x0
  401d7e:	e8 1d f5 ff ff       	call   4012a0 <SYSTEM_$$_INDEXBYTE$formal$INT64$BYTE$$INT64>
  401d83:	48 89 c2             	mov    rdx,rax
  401d86:	48 83 fa ff          	cmp    rdx,0xffffffffffffffff
  401d8a:	74 0d                	je     401d99 <SYSTEM_$$_MOVECHAR0$formal$formal$INT64+0x39>
  401d8c:	4c 89 e6             	mov    rsi,r12
  401d8f:	48 89 df             	mov    rdi,rbx
  401d92:	e8 d9 f0 ff ff       	call   400e70 <FPC_MOVE>
  401d97:	eb 0e                	jmp    401da7 <SYSTEM_$$_MOVECHAR0$formal$formal$INT64+0x47>
  401d99:	4c 89 e6             	mov    rsi,r12
  401d9c:	48 89 df             	mov    rdi,rbx
  401d9f:	4c 89 ea             	mov    rdx,r13
  401da2:	e8 c9 f0 ff ff       	call   400e70 <FPC_MOVE>
  401da7:	41 5d                	pop    r13
  401da9:	41 5c                	pop    r12
  401dab:	5b                   	pop    rbx
  401dac:	c3                   	ret    
  401dad:	00 00                	add    BYTE PTR [rax],al
	...

0000000000401db0 <SYSTEM_$$_INDEXCHAR0$formal$INT64$CHAR$$INT64>:
  401db0:	48 89 f9             	mov    rcx,rdi
  401db3:	48 83 fe 00          	cmp    rsi,0x0
  401db7:	7d 0c                	jge    401dc5 <SYSTEM_$$_INDEXCHAR0$formal$INT64$CHAR$$INT64+0x15>
  401db9:	49 b8 fe ff ff ff ff 	movabs r8,0xfffffffffffffffe
  401dc0:	ff ff ff 
  401dc3:	eb 25                	jmp    401dea <SYSTEM_$$_INDEXCHAR0$formal$INT64$CHAR$$INT64+0x3a>
  401dc5:	48 8d 04 31          	lea    rax,[rcx+rsi*1]
  401dc9:	49 89 c0             	mov    r8,rax
  401dcc:	eb 1c                	jmp    401dea <SYSTEM_$$_INDEXCHAR0$formal$INT64$CHAR$$INT64+0x3a>
  401dce:	66 90                	xchg   ax,ax
  401dd0:	40 8a 31             	mov    sil,BYTE PTR [rcx]
  401dd3:	40 38 d6             	cmp    sil,dl
  401dd6:	75 0e                	jne    401de6 <SYSTEM_$$_INDEXCHAR0$formal$INT64$CHAR$$INT64+0x36>
  401dd8:	48 89 fe             	mov    rsi,rdi
  401ddb:	49 89 c9             	mov    r9,rcx
  401dde:	49 29 f1             	sub    r9,rsi
  401de1:	4c 89 c8             	mov    rax,r9
  401de4:	eb 18                	jmp    401dfe <SYSTEM_$$_INDEXCHAR0$formal$INT64$CHAR$$INT64+0x4e>
  401de6:	48 83 c1 01          	add    rcx,0x1
  401dea:	4c 39 c1             	cmp    rcx,r8
  401ded:	73 05                	jae    401df4 <SYSTEM_$$_INDEXCHAR0$formal$INT64$CHAR$$INT64+0x44>
  401def:	80 39 00             	cmp    BYTE PTR [rcx],0x0
  401df2:	75 dc                	jne    401dd0 <SYSTEM_$$_INDEXCHAR0$formal$INT64$CHAR$$INT64+0x20>
  401df4:	48 b8 ff ff ff ff ff 	movabs rax,0xffffffffffffffff
  401dfb:	ff ff ff 
  401dfe:	c3                   	ret    
	...

0000000000401e00 <SYSTEM_$$_COMPARECHAR0$formal$formal$INT64$$INT64>:
  401e00:	49 b8 00 00 00 00 00 	movabs r8,0x0
  401e07:	00 00 00 
  401e0a:	48 8d 14 17          	lea    rdx,[rdi+rdx*1]
  401e0e:	eb 4f                	jmp    401e5f <SYSTEM_$$_COMPARECHAR0$formal$formal$INT64$$INT64+0x5f>
  401e10:	0f b6 0f             	movzx  ecx,BYTE PTR [rdi]
  401e13:	44 0f b6 0e          	movzx  r9d,BYTE PTR [rsi]
  401e17:	4c 29 c9             	sub    rcx,r9
  401e1a:	49 89 c8             	mov    r8,rcx
  401e1d:	49 83 f8 00          	cmp    r8,0x0
  401e21:	7d 0c                	jge    401e2f <SYSTEM_$$_COMPARECHAR0$formal$formal$INT64$$INT64+0x2f>
  401e23:	48 b8 ff ff ff ff ff 	movabs rax,0xffffffffffffffff
  401e2a:	ff ff ff 
  401e2d:	eb 3f                	jmp    401e6e <SYSTEM_$$_COMPARECHAR0$formal$formal$INT64$$INT64+0x6e>
  401e2f:	49 83 f8 00          	cmp    r8,0x0
  401e33:	7e 0c                	jle    401e41 <SYSTEM_$$_COMPARECHAR0$formal$formal$INT64$$INT64+0x41>
  401e35:	48 b8 01 00 00 00 00 	movabs rax,0x1
  401e3c:	00 00 00 
  401e3f:	eb 2d                	jmp    401e6e <SYSTEM_$$_COMPARECHAR0$formal$formal$INT64$$INT64+0x6e>
  401e41:	80 3f 00             	cmp    BYTE PTR [rdi],0x0
  401e44:	74 05                	je     401e4b <SYSTEM_$$_COMPARECHAR0$formal$formal$INT64$$INT64+0x4b>
  401e46:	80 3e 00             	cmp    BYTE PTR [rsi],0x0
  401e49:	75 0c                	jne    401e57 <SYSTEM_$$_COMPARECHAR0$formal$formal$INT64$$INT64+0x57>
  401e4b:	48 b8 00 00 00 00 00 	movabs rax,0x0
  401e52:	00 00 00 
  401e55:	eb 17                	jmp    401e6e <SYSTEM_$$_COMPARECHAR0$formal$formal$INT64$$INT64+0x6e>
  401e57:	48 83 c6 01          	add    rsi,0x1
  401e5b:	48 83 c7 01          	add    rdi,0x1
  401e5f:	48 39 d7             	cmp    rdi,rdx
  401e62:	72 ac                	jb     401e10 <SYSTEM_$$_COMPARECHAR0$formal$formal$INT64$$INT64+0x10>
  401e64:	48 b8 00 00 00 00 00 	movabs rax,0x0
  401e6b:	00 00 00 
  401e6e:	c3                   	ret    
	...

0000000000401e70 <FPC_HELP_CONSTRUCTOR>:
  401e70:	53                   	push   rbx
  401e71:	41 54                	push   r12
  401e73:	41 55                	push   r13
  401e75:	41 56                	push   r14
  401e77:	48 8d 64 24 f8       	lea    rsp,[rsp-0x8]
  401e7c:	48 89 3c 24          	mov    QWORD PTR [rsp],rdi
  401e80:	48 89 f3             	mov    rbx,rsi
  401e83:	41 89 d4             	mov    r12d,edx
  401e86:	4c 8b 33             	mov    r14,QWORD PTR [rbx]
  401e89:	4d 85 f6             	test   r14,r14
  401e8c:	75 06                	jne    401e94 <FPC_HELP_CONSTRUCTOR+0x24>
  401e8e:	4c 8b 2c 24          	mov    r13,QWORD PTR [rsp]
  401e92:	eb 4d                	jmp    401ee1 <FPC_HELP_CONSTRUCTOR+0x71>
  401e94:	48 83 3c 24 00       	cmp    QWORD PTR [rsp],0x0
  401e99:	75 18                	jne    401eb3 <FPC_HELP_CONSTRUCTOR+0x43>
  401e9b:	49 83 3e 00          	cmp    QWORD PTR [r14],0x0
  401e9f:	76 12                	jbe    401eb3 <FPC_HELP_CONSTRUCTOR+0x43>
  401ea1:	49 8b 36             	mov    rsi,QWORD PTR [r14]
  401ea4:	48 89 e7             	mov    rdi,rsp
  401ea7:	e8 34 5b 01 00       	call   4179e0 <SYSTEM_$$_GETMEM$POINTER$QWORD>
  401eac:	48 c7 03 ff ff ff ff 	mov    QWORD PTR [rbx],0xffffffffffffffff
  401eb3:	48 83 3c 24 00       	cmp    QWORD PTR [rsp],0x0
  401eb8:	74 23                	je     401edd <FPC_HELP_CONSTRUCTOR+0x6d>
  401eba:	49 8b 36             	mov    rsi,QWORD PTR [r14]
  401ebd:	48 8b 3c 24          	mov    rdi,QWORD PTR [rsp]
  401ec1:	ba 00 00 00 00       	mov    edx,0x0
  401ec6:	e8 b5 f2 ff ff       	call   401180 <SYSTEM_$$_FILLCHAR$formal$INT64$BYTE>
  401ecb:	41 81 e4 ff ff ff ff 	and    r12d,0xffffffff
  401ed2:	48 8b 04 24          	mov    rax,QWORD PTR [rsp]
  401ed6:	49 8d 04 04          	lea    rax,[r12+rax*1]
  401eda:	4c 89 30             	mov    QWORD PTR [rax],r14
  401edd:	4c 8b 2c 24          	mov    r13,QWORD PTR [rsp]
  401ee1:	4c 89 e8             	mov    rax,r13
  401ee4:	48 8d 64 24 08       	lea    rsp,[rsp+0x8]
  401ee9:	41 5e                	pop    r14
  401eeb:	41 5d                	pop    r13
  401eed:	41 5c                	pop    r12
  401eef:	5b                   	pop    rbx
  401ef0:	c3                   	ret    
	...

0000000000401f00 <FPC_HELP_DESTRUCTOR>:
  401f00:	53                   	push   rbx
  401f01:	41 54                	push   r12
  401f03:	48 8d 64 24 f8       	lea    rsp,[rsp-0x8]
  401f08:	48 89 fb             	mov    rbx,rdi
  401f0b:	41 89 d4             	mov    r12d,edx
  401f0e:	48 85 db             	test   rbx,rbx
  401f11:	74 60                	je     401f73 <FPC_HELP_DESTRUCTOR+0x73>
  401f13:	48 83 fe ff          	cmp    rsi,0xffffffffffffffff
  401f17:	75 5a                	jne    401f73 <FPC_HELP_DESTRUCTOR+0x73>
  401f19:	44 89 e0             	mov    eax,r12d
  401f1c:	25 ff ff ff ff       	and    eax,0xffffffff
  401f21:	48 8d 04 18          	lea    rax,[rax+rbx*1]
  401f25:	48 83 38 00          	cmp    QWORD PTR [rax],0x0
  401f29:	74 48                	je     401f73 <FPC_HELP_DESTRUCTOR+0x73>
  401f2b:	44 89 e0             	mov    eax,r12d
  401f2e:	25 ff ff ff ff       	and    eax,0xffffffff
  401f33:	48 8d 04 18          	lea    rax,[rax+rbx*1]
  401f37:	48 8b 00             	mov    rax,QWORD PTR [rax]
  401f3a:	48 8b 10             	mov    rdx,QWORD PTR [rax]
  401f3d:	48 85 d2             	test   rdx,rdx
  401f40:	74 0d                	je     401f4f <FPC_HELP_DESTRUCTOR+0x4f>
  401f42:	48 8b 40 08          	mov    rax,QWORD PTR [rax+0x8]
  401f46:	48 8d 04 02          	lea    rax,[rdx+rax*1]
  401f4a:	48 85 c0             	test   rax,rax
  401f4d:	74 0a                	je     401f59 <FPC_HELP_DESTRUCTOR+0x59>
  401f4f:	bf d2 00 00 00       	mov    edi,0xd2
  401f54:	e8 07 50 01 00       	call   416f60 <FPC_RUNERROR>
  401f59:	41 81 e4 ff ff ff ff 	and    r12d,0xffffffff
  401f60:	49 8d 04 1c          	lea    rax,[r12+rbx*1]
  401f64:	48 c7 00 00 00 00 00 	mov    QWORD PTR [rax],0x0
  401f6b:	48 89 df             	mov    rdi,rbx
  401f6e:	e8 4d 5b 01 00       	call   417ac0 <SYSTEM_$$_FREEMEM$POINTER$$QWORD>
  401f73:	48 8d 64 24 08       	lea    rsp,[rsp+0x8]
  401f78:	41 5c                	pop    r12
  401f7a:	5b                   	pop    rbx
  401f7b:	c3                   	ret    
  401f7c:	00 00                	add    BYTE PTR [rax],al
	...

0000000000401f80 <FPC_HELP_FAIL>:
  401f80:	53                   	push   rbx
  401f81:	41 54                	push   r12
  401f83:	41 55                	push   r13
  401f85:	48 89 fb             	mov    rbx,rdi
  401f88:	49 89 f4             	mov    r12,rsi
  401f8b:	41 89 d5             	mov    r13d,edx
  401f8e:	48 85 db             	test   rbx,rbx
  401f91:	0f 84 69 00 00 00    	je     402000 <FPC_HELP_FAIL+0x80>
  401f97:	49 83 3c 24 00       	cmp    QWORD PTR [r12],0x0
  401f9c:	74 62                	je     402000 <FPC_HELP_FAIL+0x80>
  401f9e:	49 83 3c 24 ff       	cmp    QWORD PTR [r12],0xffffffffffffffff
  401fa3:	75 48                	jne    401fed <FPC_HELP_FAIL+0x6d>
  401fa5:	48 85 db             	test   rbx,rbx
  401fa8:	74 12                	je     401fbc <FPC_HELP_FAIL+0x3c>
  401faa:	44 89 e8             	mov    eax,r13d
  401fad:	25 ff ff ff ff       	and    eax,0xffffffff
  401fb2:	48 8d 04 18          	lea    rax,[rax+rbx*1]
  401fb6:	48 83 38 00          	cmp    QWORD PTR [rax],0x0
  401fba:	75 0c                	jne    401fc8 <FPC_HELP_FAIL+0x48>
  401fbc:	bf d2 00 00 00       	mov    edi,0xd2
  401fc1:	e8 6a 4f 01 00       	call   416f30 <FPC_HANDLEERROR>
  401fc6:	eb 38                	jmp    402000 <FPC_HELP_FAIL+0x80>
  401fc8:	44 89 e8             	mov    eax,r13d
  401fcb:	25 ff ff ff ff       	and    eax,0xffffffff
  401fd0:	48 8d 04 18          	lea    rax,[rax+rbx*1]
  401fd4:	48 c7 00 00 00 00 00 	mov    QWORD PTR [rax],0x0
  401fdb:	48 89 df             	mov    rdi,rbx
  401fde:	e8 dd 5a 01 00       	call   417ac0 <SYSTEM_$$_FREEMEM$POINTER$$QWORD>
  401fe3:	49 c7 04 24 00 00 00 	mov    QWORD PTR [r12],0x0
  401fea:	00 
  401feb:	eb 13                	jmp    402000 <FPC_HELP_FAIL+0x80>
  401fed:	41 81 e5 ff ff ff ff 	and    r13d,0xffffffff
  401ff4:	49 8d 44 1d 00       	lea    rax,[r13+rbx*1+0x0]
  401ff9:	48 c7 00 00 00 00 00 	mov    QWORD PTR [rax],0x0
  402000:	41 5d                	pop    r13
  402002:	41 5c                	pop    r12
  402004:	5b                   	pop    rbx
  402005:	c3                   	ret    
	...

0000000000402010 <FPC_CHECK_OBJECT>:
  402010:	48 8d 64 24 f8       	lea    rsp,[rsp-0x8]
  402015:	48 89 f8             	mov    rax,rdi
  402018:	48 85 c0             	test   rax,rax
  40201b:	74 15                	je     402032 <FPC_CHECK_OBJECT+0x22>
  40201d:	48 8b 10             	mov    rdx,QWORD PTR [rax]
  402020:	48 85 d2             	test   rdx,rdx
  402023:	74 0d                	je     402032 <FPC_CHECK_OBJECT+0x22>
  402025:	48 8b 40 08          	mov    rax,QWORD PTR [rax+0x8]
  402029:	48 8d 04 10          	lea    rax,[rax+rdx*1]
  40202d:	48 85 c0             	test   rax,rax
  402030:	74 0a                	je     40203c <FPC_CHECK_OBJECT+0x2c>
  402032:	bf d2 00 00 00       	mov    edi,0xd2
  402037:	e8 24 4f 01 00       	call   416f60 <FPC_RUNERROR>
  40203c:	48 8d 64 24 08       	lea    rsp,[rsp+0x8]
  402041:	c3                   	ret    
	...

0000000000402050 <FPC_CHECK_OBJECT_EXT>:
  402050:	53                   	push   rbx
  402051:	41 54                	push   r12
  402053:	48 8d 64 24 f8       	lea    rsp,[rsp-0x8]
  402058:	48 89 fb             	mov    rbx,rdi
  40205b:	49 89 f4             	mov    r12,rsi
  40205e:	48 85 db             	test   rbx,rbx
  402061:	74 15                	je     402078 <FPC_CHECK_OBJECT_EXT+0x28>
  402063:	48 8b 13             	mov    rdx,QWORD PTR [rbx]
  402066:	48 85 d2             	test   rdx,rdx
  402069:	74 0d                	je     402078 <FPC_CHECK_OBJECT_EXT+0x28>
  40206b:	48 8b 43 08          	mov    rax,QWORD PTR [rbx+0x8]
  40206f:	48 8d 04 10          	lea    rax,[rax+rdx*1]
  402073:	48 85 c0             	test   rax,rax
  402076:	74 19                	je     402091 <FPC_CHECK_OBJECT_EXT+0x41>
  402078:	bf d2 00 00 00       	mov    edi,0xd2
  40207d:	e8 de 4e 01 00       	call   416f60 <FPC_RUNERROR>
  402082:	eb 0d                	jmp    402091 <FPC_CHECK_OBJECT_EXT+0x41>
  402084:	66 66 66 90          	data16 data16 xchg ax,ax
  402088:	4c 39 e3             	cmp    rbx,r12
  40208b:	74 13                	je     4020a0 <FPC_CHECK_OBJECT_EXT+0x50>
  40208d:	48 8b 5b 10          	mov    rbx,QWORD PTR [rbx+0x10]
  402091:	48 85 db             	test   rbx,rbx
  402094:	75 f2                	jne    402088 <FPC_CHECK_OBJECT_EXT+0x38>
  402096:	bf db 00 00 00       	mov    edi,0xdb
  40209b:	e8 c0 4e 01 00       	call   416f60 <FPC_RUNERROR>
  4020a0:	48 8d 64 24 08       	lea    rsp,[rsp+0x8]
  4020a5:	41 5c                	pop    r12
  4020a7:	5b                   	pop    rbx
  4020a8:	c3                   	ret    
  4020a9:	00 00                	add    BYTE PTR [rax],al
  4020ab:	00 00                	add    BYTE PTR [rax],al
  4020ad:	00 00                	add    BYTE PTR [rax],al
	...

00000000004020b0 <FPC_SHORTSTR_TO_SHORTSTR>:
  4020b0:	53                   	push   rbx
  4020b1:	41 54                	push   r12
  4020b3:	48 8d 64 24 f8       	lea    rsp,[rsp-0x8]
  4020b8:	48 89 fb             	mov    rbx,rdi
  4020bb:	48 89 d7             	mov    rdi,rdx
  4020be:	44 8a 27             	mov    r12b,BYTE PTR [rdi]
  4020c1:	41 0f b6 c4          	movzx  eax,r12b
  4020c5:	48 39 f0             	cmp    rax,rsi
  4020c8:	7e 03                	jle    4020cd <FPC_SHORTSTR_TO_SHORTSTR+0x1d>
  4020ca:	41 88 f4             	mov    r12b,sil
  4020cd:	41 0f b6 c4          	movzx  eax,r12b
  4020d1:	48 8d 50 01          	lea    rdx,[rax+0x1]
  4020d5:	48 89 de             	mov    rsi,rbx
  4020d8:	e8 93 ed ff ff       	call   400e70 <FPC_MOVE>
  4020dd:	44 88 23             	mov    BYTE PTR [rbx],r12b
  4020e0:	48 8d 64 24 08       	lea    rsp,[rsp+0x8]
  4020e5:	41 5c                	pop    r12
  4020e7:	5b                   	pop    rbx
  4020e8:	c3                   	ret    
  4020e9:	00 00                	add    BYTE PTR [rax],al
  4020eb:	00 00                	add    BYTE PTR [rax],al
  4020ed:	00 00                	add    BYTE PTR [rax],al
	...

00000000004020f0 <FPC_SHORTSTR_ASSIGN>:
  4020f0:	53                   	push   rbx
  4020f1:	41 54                	push   r12
  4020f3:	41 55                	push   r13
  4020f5:	89 fb                	mov    ebx,edi
  4020f7:	48 89 f7             	mov    rdi,rsi
  4020fa:	49 89 d4             	mov    r12,rdx
  4020fd:	44 8a 2f             	mov    r13b,BYTE PTR [rdi]
  402100:	41 0f b6 c5          	movzx  eax,r13b
  402104:	48 63 d3             	movsxd rdx,ebx
  402107:	48 39 d0             	cmp    rax,rdx
  40210a:	7d 06                	jge    402112 <FPC_SHORTSTR_ASSIGN+0x22>
  40210c:	41 0f b6 c5          	movzx  eax,r13b
  402110:	89 c3                	mov    ebx,eax
  402112:	48 63 c3             	movsxd rax,ebx
  402115:	48 8d 50 01          	lea    rdx,[rax+0x1]
  402119:	4c 89 e6             	mov    rsi,r12
  40211c:	e8 4f ed ff ff       	call   400e70 <FPC_MOVE>
  402121:	41 81 e5 ff 00 00 00 	and    r13d,0xff
  402128:	48 63 c3             	movsxd rax,ebx
  40212b:	49 39 c5             	cmp    r13,rax
  40212e:	7e 04                	jle    402134 <FPC_SHORTSTR_ASSIGN+0x44>
  402130:	41 88 1c 24          	mov    BYTE PTR [r12],bl
  402134:	41 5d                	pop    r13
  402136:	41 5c                	pop    r12
  402138:	5b                   	pop    rbx
  402139:	c3                   	ret    
  40213a:	00 00                	add    BYTE PTR [rax],al
  40213c:	00 00                	add    BYTE PTR [rax],al
	...

0000000000402140 <fpc_shortstr_concat>:
  402140:	53                   	push   rbx
  402141:	41 54                	push   r12
  402143:	41 55                	push   r13
  402145:	41 56                	push   r14
  402147:	41 57                	push   r15
  402149:	49 89 ff             	mov    r15,rdi
  40214c:	49 89 d6             	mov    r14,rdx
  40214f:	48 89 cb             	mov    rbx,rcx
  402152:	41 0f b6 06          	movzx  eax,BYTE PTR [r14]
  402156:	41 89 c4             	mov    r12d,eax
  402159:	0f b6 03             	movzx  eax,BYTE PTR [rbx]
  40215c:	41 89 c5             	mov    r13d,eax
  40215f:	49 63 c4             	movsxd rax,r12d
  402162:	49 63 d5             	movsxd rdx,r13d
  402165:	48 8d 04 10          	lea    rax,[rax+rdx*1]
  402169:	48 39 f0             	cmp    rax,rsi
  40216c:	7e 16                	jle    402184 <fpc_shortstr_concat+0x44>
  40216e:	49 63 c4             	movsxd rax,r12d
  402171:	48 39 f0             	cmp    rax,rsi
  402174:	7e 05                	jle    40217b <fpc_shortstr_concat+0x3b>
  402176:	89 f0                	mov    eax,esi
  402178:	41 89 c4             	mov    r12d,eax
  40217b:	49 63 c4             	movsxd rax,r12d
  40217e:	48 29 c6             	sub    rsi,rax
  402181:	41 89 f5             	mov    r13d,esi
  402184:	4c 89 f8             	mov    rax,r15
  402187:	4c 89 f2             	mov    rdx,r14
  40218a:	48 39 d0             	cmp    rax,rdx
  40218d:	75 2c                	jne    4021bb <fpc_shortstr_concat+0x7b>
  40218f:	44 88 ea             	mov    dl,r13b
  402192:	67 41 8d 44 24 01    	lea    eax,[r12d+0x1]
  402198:	4c 89 f9             	mov    rcx,r15
  40219b:	48 89 df             	mov    rdi,rbx
  40219e:	81 e2 ff 00 00 00    	and    edx,0xff
  4021a4:	25 ff 00 00 00       	and    eax,0xff
  4021a9:	48 8d 34 01          	lea    rsi,[rcx+rax*1]
  4021ad:	48 8d 7f 01          	lea    rdi,[rdi+0x1]
  4021b1:	e8 ba ec ff ff       	call   400e70 <FPC_MOVE>
  4021b6:	e9 94 00 00 00       	jmp    40224f <fpc_shortstr_concat+0x10f>
  4021bb:	4c 89 f8             	mov    rax,r15
  4021be:	48 89 da             	mov    rdx,rbx
  4021c1:	48 39 d0             	cmp    rax,rdx
  4021c4:	75 45                	jne    40220b <fpc_shortstr_concat+0xcb>
  4021c6:	44 88 ea             	mov    dl,r13b
  4021c9:	67 41 8d 44 24 01    	lea    eax,[r12d+0x1]
  4021cf:	4c 89 f9             	mov    rcx,r15
  4021d2:	4c 89 ff             	mov    rdi,r15
  4021d5:	81 e2 ff 00 00 00    	and    edx,0xff
  4021db:	25 ff 00 00 00       	and    eax,0xff
  4021e0:	48 8d 34 01          	lea    rsi,[rcx+rax*1]
  4021e4:	48 8d 7f 01          	lea    rdi,[rdi+0x1]
  4021e8:	e8 83 ec ff ff       	call   400e70 <FPC_MOVE>
  4021ed:	44 88 e2             	mov    dl,r12b
  4021f0:	4c 89 f8             	mov    rax,r15
  4021f3:	4c 89 f1             	mov    rcx,r14
  4021f6:	81 e2 ff 00 00 00    	and    edx,0xff
  4021fc:	48 8d 70 01          	lea    rsi,[rax+0x1]
  402200:	48 8d 79 01          	lea    rdi,[rcx+0x1]
  402204:	e8 67 ec ff ff       	call   400e70 <FPC_MOVE>
  402209:	eb 44                	jmp    40224f <fpc_shortstr_concat+0x10f>
  40220b:	44 88 e2             	mov    dl,r12b
  40220e:	4c 89 f9             	mov    rcx,r15
  402211:	4c 89 f0             	mov    rax,r14
  402214:	81 e2 ff 00 00 00    	and    edx,0xff
  40221a:	48 8d 71 01          	lea    rsi,[rcx+0x1]
  40221e:	48 8d 78 01          	lea    rdi,[rax+0x1]
  402222:	e8 49 ec ff ff       	call   400e70 <FPC_MOVE>
  402227:	44 88 ea             	mov    dl,r13b
  40222a:	67 41 8d 4c 24 01    	lea    ecx,[r12d+0x1]
  402230:	4c 89 fe             	mov    rsi,r15
  402233:	48 89 d8             	mov    rax,rbx
  402236:	81 e2 ff 00 00 00    	and    edx,0xff
  40223c:	81 e1 ff 00 00 00    	and    ecx,0xff
  402242:	48 8d 34 0e          	lea    rsi,[rsi+rcx*1]
  402246:	48 8d 78 01          	lea    rdi,[rax+0x1]
  40224a:	e8 21 ec ff ff       	call   400e70 <FPC_MOVE>
  40224f:	67 43 8d 04 2c       	lea    eax,[r12d+r13d*1]
  402254:	41 88 07             	mov    BYTE PTR [r15],al
  402257:	41 5f                	pop    r15
  402259:	41 5e                	pop    r14
  40225b:	41 5d                	pop    r13
  40225d:	41 5c                	pop    r12
  40225f:	5b                   	pop    rbx
  402260:	c3                   	ret    
	...

0000000000402270 <fpc_shortstr_concat_multi>:
  402270:	55                   	push   rbp
  402271:	48 89 e5             	mov    rbp,rsp
  402274:	48 8d a4 24 b0 fe ff 	lea    rsp,[rsp-0x150]
  40227b:	ff 
  40227c:	48 89 9d b0 fe ff ff 	mov    QWORD PTR [rbp-0x150],rbx
  402283:	4c 89 a5 b8 fe ff ff 	mov    QWORD PTR [rbp-0x148],r12
  40228a:	4c 89 ad c0 fe ff ff 	mov    QWORD PTR [rbp-0x140],r13
  402291:	4c 89 b5 c8 fe ff ff 	mov    QWORD PTR [rbp-0x138],r14
  402298:	4c 89 bd d0 fe ff ff 	mov    QWORD PTR [rbp-0x130],r15
  40229f:	48 89 bd e0 fe ff ff 	mov    QWORD PTR [rbp-0x120],rdi
  4022a6:	48 89 b5 d8 fe ff ff 	mov    QWORD PTR [rbp-0x128],rsi
  4022ad:	48 89 95 f0 fe ff ff 	mov    QWORD PTR [rbp-0x110],rdx
  4022b4:	48 85 c9             	test   rcx,rcx
  4022b7:	75 0f                	jne    4022c8 <fpc_shortstr_concat_multi+0x58>
  4022b9:	48 8b 85 e0 fe ff ff 	mov    rax,QWORD PTR [rbp-0x120]
  4022c0:	c6 00 00             	mov    BYTE PTR [rax],0x0
  4022c3:	e9 6e 01 00 00       	jmp    402436 <fpc_shortstr_concat_multi+0x1c6>
  4022c8:	be 00 00 00 00       	mov    esi,0x0
  4022cd:	48 63 d6             	movsxd rdx,esi
  4022d0:	48 8b bd e0 fe ff ff 	mov    rdi,QWORD PTR [rbp-0x120]
  4022d7:	48 8b 85 f0 fe ff ff 	mov    rax,QWORD PTR [rbp-0x110]
  4022de:	48 3b 3c d0          	cmp    rdi,QWORD PTR [rax+rdx*8]
  4022e2:	75 03                	jne    4022e7 <fpc_shortstr_concat_multi+0x77>
  4022e4:	83 c6 01             	add    esi,0x1
  4022e7:	c6 85 e8 fe ff ff 00 	mov    BYTE PTR [rbp-0x118],0x0
  4022ee:	89 ca                	mov    edx,ecx
  4022f0:	89 f7                	mov    edi,esi
  4022f2:	39 fa                	cmp    edx,edi
  4022f4:	7c 31                	jl     402327 <fpc_shortstr_concat_multi+0xb7>
  4022f6:	83 ef 01             	sub    edi,0x1
  4022f9:	66 66 66 90          	data16 data16 xchg ax,ax
  4022fd:	66 66 90             	data16 xchg ax,ax
  402300:	83 c7 01             	add    edi,0x1
  402303:	4c 63 c7             	movsxd r8,edi
  402306:	4c 8b 8d e0 fe ff ff 	mov    r9,QWORD PTR [rbp-0x120]
  40230d:	48 8b 85 f0 fe ff ff 	mov    rax,QWORD PTR [rbp-0x110]
  402314:	4e 3b 0c c0          	cmp    r9,QWORD PTR [rax+r8*8]
  402318:	75 09                	jne    402323 <fpc_shortstr_concat_multi+0xb3>
  40231a:	c6 85 e8 fe ff ff 01 	mov    BYTE PTR [rbp-0x118],0x1
  402321:	eb 04                	jmp    402327 <fpc_shortstr_concat_multi+0xb7>
  402323:	39 fa                	cmp    edx,edi
  402325:	7f d9                	jg     402300 <fpc_shortstr_concat_multi+0x90>
  402327:	8a 85 e8 fe ff ff    	mov    al,BYTE PTR [rbp-0x118]
  40232d:	84 c0                	test   al,al
  40232f:	74 15                	je     402346 <fpc_shortstr_concat_multi+0xd6>
  402331:	be 00 00 00 00       	mov    esi,0x0
  402336:	c6 85 00 ff ff ff 00 	mov    BYTE PTR [rbp-0x100],0x0
  40233d:	48 8d 95 00 ff ff ff 	lea    rdx,[rbp-0x100]
  402344:	eb 1c                	jmp    402362 <fpc_shortstr_concat_multi+0xf2>
  402346:	48 63 c6             	movsxd rax,esi
  402349:	48 85 c0             	test   rax,rax
  40234c:	75 0a                	jne    402358 <fpc_shortstr_concat_multi+0xe8>
  40234e:	48 8b 85 e0 fe ff ff 	mov    rax,QWORD PTR [rbp-0x120]
  402355:	c6 00 00             	mov    BYTE PTR [rax],0x0
  402358:	48 8b 85 e0 fe ff ff 	mov    rax,QWORD PTR [rbp-0x120]
  40235f:	48 89 c2             	mov    rdx,rax
  402362:	48 89 95 f8 fe ff ff 	mov    QWORD PTR [rbp-0x108],rdx
  402369:	48 8b 85 f8 fe ff ff 	mov    rax,QWORD PTR [rbp-0x108]
  402370:	0f b6 10             	movzx  edx,BYTE PTR [rax]
  402373:	41 89 d7             	mov    r15d,edx
  402376:	41 89 ce             	mov    r14d,ecx
  402379:	41 89 f5             	mov    r13d,esi
  40237c:	45 39 ee             	cmp    r14d,r13d
  40237f:	0f 8c 81 00 00 00    	jl     402406 <fpc_shortstr_concat_multi+0x196>
  402385:	41 83 ed 01          	sub    r13d,0x1
  402389:	66 66 66 90          	data16 data16 xchg ax,ax
  40238d:	66 66 90             	data16 xchg ax,ax
  402390:	41 83 c5 01          	add    r13d,0x1
  402394:	49 63 c5             	movsxd rax,r13d
  402397:	48 8b 95 f0 fe ff ff 	mov    rdx,QWORD PTR [rbp-0x110]
  40239e:	48 8b 1c c2          	mov    rbx,QWORD PTR [rdx+rax*8]
  4023a2:	48 85 db             	test   rbx,rbx
  4023a5:	74 5a                	je     402401 <fpc_shortstr_concat_multi+0x191>
  4023a7:	44 8a 23             	mov    r12b,BYTE PTR [rbx]
  4023aa:	49 63 d7             	movsxd rdx,r15d
  4023ad:	41 0f b6 c4          	movzx  eax,r12b
  4023b1:	48 8d 04 02          	lea    rax,[rdx+rax*1]
  4023b5:	48 3b 85 d8 fe ff ff 	cmp    rax,QWORD PTR [rbp-0x128]
  4023bc:	7e 10                	jle    4023ce <fpc_shortstr_concat_multi+0x15e>
  4023be:	49 63 d7             	movsxd rdx,r15d
  4023c1:	48 8b 85 d8 fe ff ff 	mov    rax,QWORD PTR [rbp-0x128]
  4023c8:	48 29 d0             	sub    rax,rdx
  4023cb:	41 88 c4             	mov    r12b,al
  4023ce:	67 41 8d 77 01       	lea    esi,[r15d+0x1]
  4023d3:	48 89 d8             	mov    rax,rbx
  4023d6:	48 89 c2             	mov    rdx,rax
  4023d9:	41 0f b6 c4          	movzx  eax,r12b
  4023dd:	81 e6 ff 00 00 00    	and    esi,0xff
  4023e3:	48 8b 8d f8 fe ff ff 	mov    rcx,QWORD PTR [rbp-0x108]
  4023ea:	48 8d 34 31          	lea    rsi,[rcx+rsi*1]
  4023ee:	48 8d 7a 01          	lea    rdi,[rdx+0x1]
  4023f2:	48 89 c2             	mov    rdx,rax
  4023f5:	e8 76 ea ff ff       	call   400e70 <FPC_MOVE>
  4023fa:	41 0f b6 c4          	movzx  eax,r12b
  4023fe:	41 01 c7             	add    r15d,eax
  402401:	45 39 ee             	cmp    r14d,r13d
  402404:	7f 8a                	jg     402390 <fpc_shortstr_concat_multi+0x120>
  402406:	48 8b 95 f8 fe ff ff 	mov    rdx,QWORD PTR [rbp-0x108]
  40240d:	44 88 f8             	mov    al,r15b
  402410:	88 02                	mov    BYTE PTR [rdx],al
  402412:	8a 85 e8 fe ff ff    	mov    al,BYTE PTR [rbp-0x118]
  402418:	84 c0                	test   al,al
  40241a:	74 1a                	je     402436 <fpc_shortstr_concat_multi+0x1c6>
  40241c:	48 8b bd e0 fe ff ff 	mov    rdi,QWORD PTR [rbp-0x120]
  402423:	48 8d 95 00 ff ff ff 	lea    rdx,[rbp-0x100]
  40242a:	48 8b b5 d8 fe ff ff 	mov    rsi,QWORD PTR [rbp-0x128]
  402431:	e8 7a fc ff ff       	call   4020b0 <FPC_SHORTSTR_TO_SHORTSTR>
  402436:	48 8b 9d b0 fe ff ff 	mov    rbx,QWORD PTR [rbp-0x150]
  40243d:	4c 8b a5 b8 fe ff ff 	mov    r12,QWORD PTR [rbp-0x148]
  402444:	4c 8b ad c0 fe ff ff 	mov    r13,QWORD PTR [rbp-0x140]
  40244b:	4c 8b b5 c8 fe ff ff 	mov    r14,QWORD PTR [rbp-0x138]
  402452:	4c 8b bd d0 fe ff ff 	mov    r15,QWORD PTR [rbp-0x130]
  402459:	c9                   	leave  
  40245a:	c3                   	ret    
  40245b:	00 00                	add    BYTE PTR [rax],al
  40245d:	00 00                	add    BYTE PTR [rax],al
	...

0000000000402460 <FPC_SHORTSTR_APPEND_SHORTSTR>:
  402460:	53                   	push   rbx
  402461:	41 54                	push   r12
  402463:	41 55                	push   r13
  402465:	48 89 fb             	mov    rbx,rdi
  402468:	44 0f b6 2b          	movzx  r13d,BYTE PTR [rbx]
  40246c:	44 0f b6 22          	movzx  r12d,BYTE PTR [rdx]
  402470:	4b 8d 44 25 00       	lea    rax,[r13+r12*1+0x0]
  402475:	48 39 f0             	cmp    rax,rsi
  402478:	7e 06                	jle    402480 <FPC_SHORTSTR_APPEND_SHORTSTR+0x20>
  40247a:	4c 29 ee             	sub    rsi,r13
  40247d:	49 89 f4             	mov    r12,rsi
  402480:	49 8d 45 01          	lea    rax,[r13+0x1]
  402484:	25 ff 00 00 00       	and    eax,0xff
  402489:	48 8d 34 03          	lea    rsi,[rbx+rax*1]
  40248d:	48 8d 7a 01          	lea    rdi,[rdx+0x1]
  402491:	4c 89 e2             	mov    rdx,r12
  402494:	e8 d7 e9 ff ff       	call   400e70 <FPC_MOVE>
  402499:	4b 8d 44 25 00       	lea    rax,[r13+r12*1+0x0]
  40249e:	88 03                	mov    BYTE PTR [rbx],al
  4024a0:	41 5d                	pop    r13
  4024a2:	41 5c                	pop    r12
  4024a4:	5b                   	pop    rbx
  4024a5:	c3                   	ret    
	...

00000000004024b0 <FPC_SHORTSTR_COMPARE>:
  4024b0:	53                   	push   rbx
  4024b1:	8a 0f                	mov    cl,BYTE PTR [rdi]
  4024b3:	44 8a 06             	mov    r8b,BYTE PTR [rsi]
  4024b6:	44 38 c1             	cmp    cl,r8b
  4024b9:	73 04                	jae    4024bf <FPC_SHORTSTR_COMPARE+0xf>
  4024bb:	88 ca                	mov    dl,cl
  4024bd:	eb 03                	jmp    4024c2 <FPC_SHORTSTR_COMPARE+0x12>
  4024bf:	44 88 c2             	mov    dl,r8b
  4024c2:	41 b2 01             	mov    r10b,0x1
  4024c5:	44 38 d2             	cmp    dl,r10b
  4024c8:	72 3f                	jb     402509 <FPC_SHORTSTR_COMPARE+0x59>
  4024ca:	41 80 ea 01          	sub    r10b,0x1
  4024ce:	66 90                	xchg   ax,ax
  4024d0:	41 80 c2 01          	add    r10b,0x1
  4024d4:	45 0f b6 ca          	movzx  r9d,r10b
  4024d8:	46 0f b6 1c 0f       	movzx  r11d,BYTE PTR [rdi+r9*1]
  4024dd:	45 0f b6 ca          	movzx  r9d,r10b
  4024e1:	46 0f b6 0c 0e       	movzx  r9d,BYTE PTR [rsi+r9*1]
  4024e6:	45 29 cb             	sub    r11d,r9d
  4024e9:	44 89 db             	mov    ebx,r11d
  4024ec:	83 fb 00             	cmp    ebx,0x0
  4024ef:	7e 07                	jle    4024f8 <FPC_SHORTSTR_COMPARE+0x48>
  4024f1:	b8 01 00 00 00       	mov    eax,0x1
  4024f6:	eb 2e                	jmp    402526 <FPC_SHORTSTR_COMPARE+0x76>
  4024f8:	83 fb 00             	cmp    ebx,0x0
  4024fb:	7d 07                	jge    402504 <FPC_SHORTSTR_COMPARE+0x54>
  4024fd:	b8 ff ff ff ff       	mov    eax,0xffffffff
  402502:	eb 22                	jmp    402526 <FPC_SHORTSTR_COMPARE+0x76>
  402504:	44 38 d2             	cmp    dl,r10b
  402507:	77 c7                	ja     4024d0 <FPC_SHORTSTR_COMPARE+0x20>
  402509:	44 38 c1             	cmp    cl,r8b
  40250c:	76 07                	jbe    402515 <FPC_SHORTSTR_COMPARE+0x65>
  40250e:	b8 01 00 00 00       	mov    eax,0x1
  402513:	eb 11                	jmp    402526 <FPC_SHORTSTR_COMPARE+0x76>
  402515:	44 38 c1             	cmp    cl,r8b
  402518:	73 07                	jae    402521 <FPC_SHORTSTR_COMPARE+0x71>
  40251a:	b8 ff ff ff ff       	mov    eax,0xffffffff
  40251f:	eb 05                	jmp    402526 <FPC_SHORTSTR_COMPARE+0x76>
  402521:	b8 00 00 00 00       	mov    eax,0x0
  402526:	5b                   	pop    rbx
  402527:	c3                   	ret    
	...

0000000000402530 <FPC_SHORTSTR_COMPARE_EQUAL>:
  402530:	53                   	push   rbx
  402531:	0f b6 1f             	movzx  ebx,BYTE PTR [rdi]
  402534:	0f b6 06             	movzx  eax,BYTE PTR [rsi]
  402537:	29 c3                	sub    ebx,eax
  402539:	85 db                	test   ebx,ebx
  40253b:	75 15                	jne    402552 <FPC_SHORTSTR_COMPARE_EQUAL+0x22>
  40253d:	0f b6 17             	movzx  edx,BYTE PTR [rdi]
  402540:	48 63 d2             	movsxd rdx,edx
  402543:	48 8d 76 01          	lea    rsi,[rsi+0x1]
  402547:	48 8d 7f 01          	lea    rdi,[rdi+0x1]
  40254b:	e8 d0 ee ff ff       	call   401420 <SYSTEM_$$_COMPAREBYTE$formal$formal$INT64$$INT64>
  402550:	89 c3                	mov    ebx,eax
  402552:	89 d8                	mov    eax,ebx
  402554:	5b                   	pop    rbx
  402555:	c3                   	ret    
	...

0000000000402560 <FPC_PCHAR_TO_SHORTSTR>:
  402560:	53                   	push   rbx
  402561:	41 54                	push   r12
  402563:	41 55                	push   r13
  402565:	41 56                	push   r14
  402567:	48 8d a4 24 f8 fe ff 	lea    rsp,[rsp-0x108]
  40256e:	ff 
  40256f:	49 89 fc             	mov    r12,rdi
  402572:	49 89 f5             	mov    r13,rsi
  402575:	49 89 d6             	mov    r14,rdx
  402578:	4d 85 f6             	test   r14,r14
  40257b:	75 07                	jne    402584 <FPC_PCHAR_TO_SHORTSTR+0x24>
  40257d:	bb 00 00 00 00       	mov    ebx,0x0
  402582:	eb 0a                	jmp    40258e <FPC_PCHAR_TO_SHORTSTR+0x2e>
  402584:	4c 89 f7             	mov    rdi,r14
  402587:	e8 b4 03 00 00       	call   402940 <FPC_PCHAR_LENGTH>
  40258c:	89 c3                	mov    ebx,eax
  40258e:	48 63 c3             	movsxd rax,ebx
  402591:	4c 39 e8             	cmp    rax,r13
  402594:	7e 05                	jle    40259b <FPC_PCHAR_TO_SHORTSTR+0x3b>
  402596:	44 89 e8             	mov    eax,r13d
  402599:	89 c3                	mov    ebx,eax
  40259b:	83 fb 00             	cmp    ebx,0x0
  40259e:	7e 10                	jle    4025b0 <FPC_PCHAR_TO_SHORTSTR+0x50>
  4025a0:	48 63 d3             	movsxd rdx,ebx
  4025a3:	4c 89 f7             	mov    rdi,r14
  4025a6:	48 8d 74 24 01       	lea    rsi,[rsp+0x1]
  4025ab:	e8 c0 e8 ff ff       	call   400e70 <FPC_MOVE>
  4025b0:	88 d8                	mov    al,bl
  4025b2:	88 04 24             	mov    BYTE PTR [rsp],al
  4025b5:	4c 89 e7             	mov    rdi,r12
  4025b8:	48 89 e2             	mov    rdx,rsp
  4025bb:	4c 89 ee             	mov    rsi,r13
  4025be:	e8 ed fa ff ff       	call   4020b0 <FPC_SHORTSTR_TO_SHORTSTR>
  4025c3:	48 8d a4 24 08 01 00 	lea    rsp,[rsp+0x108]
  4025ca:	00 
  4025cb:	41 5e                	pop    r14
  4025cd:	41 5d                	pop    r13
  4025cf:	41 5c                	pop    r12
  4025d1:	5b                   	pop    rbx
  4025d2:	c3                   	ret    
	...

00000000004025e0 <SYSTEM_$$_STRPAS$PCHAR$$SHORTSTRING>:
  4025e0:	48 8d 64 24 f8       	lea    rsp,[rsp-0x8]
  4025e5:	48 89 f8             	mov    rax,rdi
  4025e8:	48 89 f2             	mov    rdx,rsi
  4025eb:	48 89 c7             	mov    rdi,rax
  4025ee:	48 be ff 00 00 00 00 	movabs rsi,0xff
  4025f5:	00 00 00 
  4025f8:	e8 63 ff ff ff       	call   402560 <FPC_PCHAR_TO_SHORTSTR>
  4025fd:	48 8d 64 24 08       	lea    rsp,[rsp+0x8]
  402602:	c3                   	ret    
	...

0000000000402610 <SYSTEM_$$_UTF8CODEPOINTLEN$PCHAR$INT64$BOOLEAN$$INT64>:
  402610:	48 83 fe 00          	cmp    rsi,0x0
  402614:	7f 0f                	jg     402625 <SYSTEM_$$_UTF8CODEPOINTLEN$PCHAR$INT64$BOOLEAN$$INT64+0x15>
  402616:	48 b8 00 00 00 00 00 	movabs rax,0x0
  40261d:	00 00 00 
  402620:	e9 03 02 00 00       	jmp    402828 <SYSTEM_$$_UTF8CODEPOINTLEN$PCHAR$INT64$BOOLEAN$$INT64+0x218>
  402625:	48 b8 01 00 00 00 00 	movabs rax,0x1
  40262c:	00 00 00 
  40262f:	80 3f 7f             	cmp    BYTE PTR [rdi],0x7f
  402632:	0f 86 8d 00 00 00    	jbe    4026c5 <SYSTEM_$$_UTF8CODEPOINTLEN$PCHAR$INT64$BOOLEAN$$INT64+0xb5>
  402638:	8a 0f                	mov    cl,BYTE PTR [rdi]
  40263a:	f6 d1                	not    cl
  40263c:	81 e1 ff 00 00 00    	and    ecx,0xff
  402642:	48 0f bd c9          	bsr    rcx,rcx
  402646:	75 0a                	jne    402652 <SYSTEM_$$_UTF8CODEPOINTLEN$PCHAR$INT64$BOOLEAN$$INT64+0x42>
  402648:	48 b9 ff 00 00 00 00 	movabs rcx,0xff
  40264f:	00 00 00 
  402652:	80 f9 01             	cmp    cl,0x1
  402655:	76 05                	jbe    40265c <SYSTEM_$$_UTF8CODEPOINTLEN$PCHAR$INT64$BOOLEAN$$INT64+0x4c>
  402657:	80 f9 06             	cmp    cl,0x6
  40265a:	72 0e                	jb     40266a <SYSTEM_$$_UTF8CODEPOINTLEN$PCHAR$INT64$BOOLEAN$$INT64+0x5a>
  40265c:	49 89 c0             	mov    r8,rax
  40265f:	49 f7 d8             	neg    r8
  402662:	4c 89 c0             	mov    rax,r8
  402665:	e9 be 01 00 00       	jmp    402828 <SYSTEM_$$_UTF8CODEPOINTLEN$PCHAR$INT64$BOOLEAN$$INT64+0x218>
  40266a:	81 e1 ff 00 00 00    	and    ecx,0xff
  402670:	49 b8 06 00 00 00 00 	movabs r8,0x6
  402677:	00 00 00 
  40267a:	49 29 c8             	sub    r8,rcx
  40267d:	eb 09                	jmp    402688 <SYSTEM_$$_UTF8CODEPOINTLEN$PCHAR$INT64$BOOLEAN$$INT64+0x78>
  40267f:	90                   	nop
  402680:	48 83 c0 01          	add    rax,0x1
  402684:	49 83 e8 01          	sub    r8,0x1
  402688:	48 39 f0             	cmp    rax,rsi
  40268b:	7d 11                	jge    40269e <SYSTEM_$$_UTF8CODEPOINTLEN$PCHAR$INT64$BOOLEAN$$INT64+0x8e>
  40268d:	49 83 f8 00          	cmp    r8,0x0
  402691:	7e 0b                	jle    40269e <SYSTEM_$$_UTF8CODEPOINTLEN$PCHAR$INT64$BOOLEAN$$INT64+0x8e>
  402693:	8a 0c 07             	mov    cl,BYTE PTR [rdi+rax*1]
  402696:	80 e1 c0             	and    cl,0xc0
  402699:	80 f9 80             	cmp    cl,0x80
  40269c:	74 e2                	je     402680 <SYSTEM_$$_UTF8CODEPOINTLEN$PCHAR$INT64$BOOLEAN$$INT64+0x70>
  40269e:	4d 85 c0             	test   r8,r8
  4026a1:	74 22                	je     4026c5 <SYSTEM_$$_UTF8CODEPOINTLEN$PCHAR$INT64$BOOLEAN$$INT64+0xb5>
  4026a3:	48 39 f0             	cmp    rax,rsi
  4026a6:	7c 0f                	jl     4026b7 <SYSTEM_$$_UTF8CODEPOINTLEN$PCHAR$INT64$BOOLEAN$$INT64+0xa7>
  4026a8:	48 b8 00 00 00 00 00 	movabs rax,0x0
  4026af:	00 00 00 
  4026b2:	e9 71 01 00 00       	jmp    402828 <SYSTEM_$$_UTF8CODEPOINTLEN$PCHAR$INT64$BOOLEAN$$INT64+0x218>
  4026b7:	48 89 c1             	mov    rcx,rax
  4026ba:	48 f7 d9             	neg    rcx
  4026bd:	48 89 c8             	mov    rax,rcx
  4026c0:	e9 63 01 00 00       	jmp    402828 <SYSTEM_$$_UTF8CODEPOINTLEN$PCHAR$INT64$BOOLEAN$$INT64+0x218>
  4026c5:	84 d2                	test   dl,dl
  4026c7:	0f 84 5b 01 00 00    	je     402828 <SYSTEM_$$_UTF8CODEPOINTLEN$PCHAR$INT64$BOOLEAN$$INT64+0x218>
  4026cd:	66 66 90             	data16 xchg ax,ax
  4026d0:	49 89 c0             	mov    r8,rax
  4026d3:	48 8d 50 01          	lea    rdx,[rax+0x1]
  4026d7:	48 39 f2             	cmp    rdx,rsi
  4026da:	0f 8d b4 00 00 00    	jge    402794 <SYSTEM_$$_UTF8CODEPOINTLEN$PCHAR$INT64$BOOLEAN$$INT64+0x184>
  4026e0:	8a 14 07             	mov    dl,BYTE PTR [rdi+rax*1]
  4026e3:	80 e2 cc             	and    dl,0xcc
  4026e6:	80 fa cc             	cmp    dl,0xcc
  4026e9:	75 17                	jne    402702 <SYSTEM_$$_UTF8CODEPOINTLEN$PCHAR$INT64$BOOLEAN$$INT64+0xf2>
  4026eb:	8a 54 07 01          	mov    dl,BYTE PTR [rdi+rax*1+0x1]
  4026ef:	80 fa 80             	cmp    dl,0x80
  4026f2:	72 0e                	jb     402702 <SYSTEM_$$_UTF8CODEPOINTLEN$PCHAR$INT64$BOOLEAN$$INT64+0xf2>
  4026f4:	80 fa af             	cmp    dl,0xaf
  4026f7:	77 09                	ja     402702 <SYSTEM_$$_UTF8CODEPOINTLEN$PCHAR$INT64$BOOLEAN$$INT64+0xf2>
  4026f9:	48 83 c0 02          	add    rax,0x2
  4026fd:	e9 92 00 00 00       	jmp    402794 <SYSTEM_$$_UTF8CODEPOINTLEN$PCHAR$INT64$BOOLEAN$$INT64+0x184>
  402702:	48 8d 50 02          	lea    rdx,[rax+0x2]
  402706:	48 39 f2             	cmp    rdx,rsi
  402709:	0f 8d 85 00 00 00    	jge    402794 <SYSTEM_$$_UTF8CODEPOINTLEN$PCHAR$INT64$BOOLEAN$$INT64+0x184>
  40270f:	80 3c 07 e1          	cmp    BYTE PTR [rdi+rax*1],0xe1
  402713:	0f 82 7b 00 00 00    	jb     402794 <SYSTEM_$$_UTF8CODEPOINTLEN$PCHAR$INT64$BOOLEAN$$INT64+0x184>
  402719:	44 8a 0c 07          	mov    r9b,BYTE PTR [rdi+rax*1]
  40271d:	41 80 f9 e1          	cmp    r9b,0xe1
  402721:	0f 94 c2             	sete   dl
  402724:	84 d2                	test   dl,dl
  402726:	74 19                	je     402741 <SYSTEM_$$_UTF8CODEPOINTLEN$PCHAR$INT64$BOOLEAN$$INT64+0x131>
  402728:	80 7c 07 01 aa       	cmp    BYTE PTR [rdi+rax*1+0x1],0xaa
  40272d:	75 12                	jne    402741 <SYSTEM_$$_UTF8CODEPOINTLEN$PCHAR$INT64$BOOLEAN$$INT64+0x131>
  40272f:	8a 4c 07 02          	mov    cl,BYTE PTR [rdi+rax*1+0x2]
  402733:	80 f9 b0             	cmp    cl,0xb0
  402736:	72 09                	jb     402741 <SYSTEM_$$_UTF8CODEPOINTLEN$PCHAR$INT64$BOOLEAN$$INT64+0x131>
  402738:	80 f9 bf             	cmp    cl,0xbf
  40273b:	0f 86 4f 00 00 00    	jbe    402790 <SYSTEM_$$_UTF8CODEPOINTLEN$PCHAR$INT64$BOOLEAN$$INT64+0x180>
  402741:	84 d2                	test   dl,dl
  402743:	74 15                	je     40275a <SYSTEM_$$_UTF8CODEPOINTLEN$PCHAR$INT64$BOOLEAN$$INT64+0x14a>
  402745:	80 7c 07 01 b7       	cmp    BYTE PTR [rdi+rax*1+0x1],0xb7
  40274a:	75 0e                	jne    40275a <SYSTEM_$$_UTF8CODEPOINTLEN$PCHAR$INT64$BOOLEAN$$INT64+0x14a>
  40274c:	8a 54 07 02          	mov    dl,BYTE PTR [rdi+rax*1+0x2]
  402750:	80 fa 80             	cmp    dl,0x80
  402753:	72 05                	jb     40275a <SYSTEM_$$_UTF8CODEPOINTLEN$PCHAR$INT64$BOOLEAN$$INT64+0x14a>
  402755:	80 fa bf             	cmp    dl,0xbf
  402758:	76 36                	jbe    402790 <SYSTEM_$$_UTF8CODEPOINTLEN$PCHAR$INT64$BOOLEAN$$INT64+0x180>
  40275a:	41 80 f9 e2          	cmp    r9b,0xe2
  40275e:	75 15                	jne    402775 <SYSTEM_$$_UTF8CODEPOINTLEN$PCHAR$INT64$BOOLEAN$$INT64+0x165>
  402760:	80 7c 07 01 83       	cmp    BYTE PTR [rdi+rax*1+0x1],0x83
  402765:	75 0e                	jne    402775 <SYSTEM_$$_UTF8CODEPOINTLEN$PCHAR$INT64$BOOLEAN$$INT64+0x165>
  402767:	8a 54 07 02          	mov    dl,BYTE PTR [rdi+rax*1+0x2]
  40276b:	80 fa 90             	cmp    dl,0x90
  40276e:	72 05                	jb     402775 <SYSTEM_$$_UTF8CODEPOINTLEN$PCHAR$INT64$BOOLEAN$$INT64+0x165>
  402770:	80 fa bf             	cmp    dl,0xbf
  402773:	76 1b                	jbe    402790 <SYSTEM_$$_UTF8CODEPOINTLEN$PCHAR$INT64$BOOLEAN$$INT64+0x180>
  402775:	41 80 f9 ef          	cmp    r9b,0xef
  402779:	75 19                	jne    402794 <SYSTEM_$$_UTF8CODEPOINTLEN$PCHAR$INT64$BOOLEAN$$INT64+0x184>
  40277b:	80 7c 07 01 b8       	cmp    BYTE PTR [rdi+rax*1+0x1],0xb8
  402780:	75 12                	jne    402794 <SYSTEM_$$_UTF8CODEPOINTLEN$PCHAR$INT64$BOOLEAN$$INT64+0x184>
  402782:	8a 54 07 02          	mov    dl,BYTE PTR [rdi+rax*1+0x2]
  402786:	80 fa a0             	cmp    dl,0xa0
  402789:	72 09                	jb     402794 <SYSTEM_$$_UTF8CODEPOINTLEN$PCHAR$INT64$BOOLEAN$$INT64+0x184>
  40278b:	80 fa af             	cmp    dl,0xaf
  40278e:	77 04                	ja     402794 <SYSTEM_$$_UTF8CODEPOINTLEN$PCHAR$INT64$BOOLEAN$$INT64+0x184>
  402790:	48 83 c0 03          	add    rax,0x3
  402794:	49 39 c0             	cmp    r8,rax
  402797:	0f 85 33 ff ff ff    	jne    4026d0 <SYSTEM_$$_UTF8CODEPOINTLEN$PCHAR$INT64$BOOLEAN$$INT64+0xc0>
  40279d:	48 39 f0             	cmp    rax,rsi
  4027a0:	0f 8d 82 00 00 00    	jge    402828 <SYSTEM_$$_UTF8CODEPOINTLEN$PCHAR$INT64$BOOLEAN$$INT64+0x218>
  4027a6:	8a 0c 07             	mov    cl,BYTE PTR [rdi+rax*1]
  4027a9:	88 ca                	mov    dl,cl
  4027ab:	80 e2 cc             	and    dl,0xcc
  4027ae:	80 fa cc             	cmp    dl,0xcc
  4027b1:	75 0d                	jne    4027c0 <SYSTEM_$$_UTF8CODEPOINTLEN$PCHAR$INT64$BOOLEAN$$INT64+0x1b0>
  4027b3:	48 8d 50 01          	lea    rdx,[rax+0x1]
  4027b7:	48 39 f2             	cmp    rdx,rsi
  4027ba:	0f 8d 5e 00 00 00    	jge    40281e <SYSTEM_$$_UTF8CODEPOINTLEN$PCHAR$INT64$BOOLEAN$$INT64+0x20e>
  4027c0:	80 f9 e1             	cmp    cl,0xe1
  4027c3:	75 1f                	jne    4027e4 <SYSTEM_$$_UTF8CODEPOINTLEN$PCHAR$INT64$BOOLEAN$$INT64+0x1d4>
  4027c5:	48 8d 50 01          	lea    rdx,[rax+0x1]
  4027c9:	48 39 f2             	cmp    rdx,rsi
  4027cc:	7d 50                	jge    40281e <SYSTEM_$$_UTF8CODEPOINTLEN$PCHAR$INT64$BOOLEAN$$INT64+0x20e>
  4027ce:	8a 14 17             	mov    dl,BYTE PTR [rdi+rdx*1]
  4027d1:	80 fa aa             	cmp    dl,0xaa
  4027d4:	74 05                	je     4027db <SYSTEM_$$_UTF8CODEPOINTLEN$PCHAR$INT64$BOOLEAN$$INT64+0x1cb>
  4027d6:	80 fa b7             	cmp    dl,0xb7
  4027d9:	75 09                	jne    4027e4 <SYSTEM_$$_UTF8CODEPOINTLEN$PCHAR$INT64$BOOLEAN$$INT64+0x1d4>
  4027db:	48 8d 50 02          	lea    rdx,[rax+0x2]
  4027df:	48 39 f2             	cmp    rdx,rsi
  4027e2:	7d 3a                	jge    40281e <SYSTEM_$$_UTF8CODEPOINTLEN$PCHAR$INT64$BOOLEAN$$INT64+0x20e>
  4027e4:	80 f9 e2             	cmp    cl,0xe2
  4027e7:	75 18                	jne    402801 <SYSTEM_$$_UTF8CODEPOINTLEN$PCHAR$INT64$BOOLEAN$$INT64+0x1f1>
  4027e9:	48 8d 50 01          	lea    rdx,[rax+0x1]
  4027ed:	48 39 f2             	cmp    rdx,rsi
  4027f0:	7d 2c                	jge    40281e <SYSTEM_$$_UTF8CODEPOINTLEN$PCHAR$INT64$BOOLEAN$$INT64+0x20e>
  4027f2:	80 3c 17 83          	cmp    BYTE PTR [rdi+rdx*1],0x83
  4027f6:	75 09                	jne    402801 <SYSTEM_$$_UTF8CODEPOINTLEN$PCHAR$INT64$BOOLEAN$$INT64+0x1f1>
  4027f8:	48 8d 50 02          	lea    rdx,[rax+0x2]
  4027fc:	48 39 f2             	cmp    rdx,rsi
  4027ff:	7d 1d                	jge    40281e <SYSTEM_$$_UTF8CODEPOINTLEN$PCHAR$INT64$BOOLEAN$$INT64+0x20e>
  402801:	80 f9 ef             	cmp    cl,0xef
  402804:	75 22                	jne    402828 <SYSTEM_$$_UTF8CODEPOINTLEN$PCHAR$INT64$BOOLEAN$$INT64+0x218>
  402806:	48 8d 50 01          	lea    rdx,[rax+0x1]
  40280a:	48 39 f2             	cmp    rdx,rsi
  40280d:	7d 0f                	jge    40281e <SYSTEM_$$_UTF8CODEPOINTLEN$PCHAR$INT64$BOOLEAN$$INT64+0x20e>
  40280f:	80 3c 17 b8          	cmp    BYTE PTR [rdi+rdx*1],0xb8
  402813:	75 13                	jne    402828 <SYSTEM_$$_UTF8CODEPOINTLEN$PCHAR$INT64$BOOLEAN$$INT64+0x218>
  402815:	48 8d 50 02          	lea    rdx,[rax+0x2]
  402819:	48 39 f2             	cmp    rdx,rsi
  40281c:	7c 0a                	jl     402828 <SYSTEM_$$_UTF8CODEPOINTLEN$PCHAR$INT64$BOOLEAN$$INT64+0x218>
  40281e:	48 b8 00 00 00 00 00 	movabs rax,0x0
  402825:	00 00 00 
  402828:	c3                   	ret    
  402829:	00 00                	add    BYTE PTR [rax],al
  40282b:	00 00                	add    BYTE PTR [rax],al
  40282d:	00 00                	add    BYTE PTR [rax],al
	...

0000000000402830 <FPC_CHARARRAY_TO_SHORTSTR>:
  402830:	55                   	push   rbp
  402831:	48 89 e5             	mov    rbp,rsp
  402834:	48 8d 64 24 e0       	lea    rsp,[rsp-0x20]
  402839:	48 89 5d e0          	mov    QWORD PTR [rbp-0x20],rbx
  40283d:	4c 89 65 e8          	mov    QWORD PTR [rbp-0x18],r12
  402841:	4c 89 6d f0          	mov    QWORD PTR [rbp-0x10],r13
  402845:	4c 89 75 f8          	mov    QWORD PTR [rbp-0x8],r14
  402849:	48 89 fb             	mov    rbx,rdi
  40284c:	49 89 d4             	mov    r12,rdx
  40284f:	4c 8d 69 01          	lea    r13,[rcx+0x1]
  402853:	49 63 c5             	movsxd rax,r13d
  402856:	48 8d 56 01          	lea    rdx,[rsi+0x1]
  40285a:	48 39 d0             	cmp    rax,rdx
  40285d:	7c 05                	jl     402864 <FPC_CHARARRAY_TO_SHORTSTR+0x34>
  40285f:	41 89 f5             	mov    r13d,esi
  402862:	eb 0c                	jmp    402870 <FPC_CHARARRAY_TO_SHORTSTR+0x40>
  402864:	41 83 fd 00          	cmp    r13d,0x0
  402868:	7d 06                	jge    402870 <FPC_CHARARRAY_TO_SHORTSTR+0x40>
  40286a:	41 bd 00 00 00 00    	mov    r13d,0x0
  402870:	45 84 c0             	test   r8b,r8b
  402873:	74 1f                	je     402894 <FPC_CHARARRAY_TO_SHORTSTR+0x64>
  402875:	49 63 f5             	movsxd rsi,r13d
  402878:	4c 89 e7             	mov    rdi,r12
  40287b:	ba 00 00 00 00       	mov    edx,0x0
  402880:	e8 1b ea ff ff       	call   4012a0 <SYSTEM_$$_INDEXBYTE$formal$INT64$BYTE$$INT64>
  402885:	83 f8 00             	cmp    eax,0x0
  402888:	7d 05                	jge    40288f <FPC_CHARARRAY_TO_SHORTSTR+0x5f>
  40288a:	45 88 ee             	mov    r14b,r13b
  40288d:	eb 08                	jmp    402897 <FPC_CHARARRAY_TO_SHORTSTR+0x67>
  40288f:	41 88 c6             	mov    r14b,al
  402892:	eb 03                	jmp    402897 <FPC_CHARARRAY_TO_SHORTSTR+0x67>
  402894:	45 88 ee             	mov    r14b,r13b
  402897:	41 0f b6 d6          	movzx  edx,r14b
  40289b:	48 8d 73 01          	lea    rsi,[rbx+0x1]
  40289f:	4c 89 e7             	mov    rdi,r12
  4028a2:	e8 c9 e5 ff ff       	call   400e70 <FPC_MOVE>
  4028a7:	44 88 33             	mov    BYTE PTR [rbx],r14b
  4028aa:	48 8b 5d e0          	mov    rbx,QWORD PTR [rbp-0x20]
  4028ae:	4c 8b 65 e8          	mov    r12,QWORD PTR [rbp-0x18]
  4028b2:	4c 8b 6d f0          	mov    r13,QWORD PTR [rbp-0x10]
  4028b6:	4c 8b 75 f8          	mov    r14,QWORD PTR [rbp-0x8]
  4028ba:	c9                   	leave  
  4028bb:	c3                   	ret    
  4028bc:	00 00                	add    BYTE PTR [rax],al
	...

00000000004028c0 <fpc_shortstr_to_chararray>:
  4028c0:	55                   	push   rbp
  4028c1:	48 89 e5             	mov    rbp,rsp
  4028c4:	48 8d 64 24 e0       	lea    rsp,[rsp-0x20]
  4028c9:	48 89 5d e8          	mov    QWORD PTR [rbp-0x18],rbx
  4028cd:	4c 89 65 f0          	mov    QWORD PTR [rbp-0x10],r12
  4028d1:	4c 89 6d f8          	mov    QWORD PTR [rbp-0x8],r13
  4028d5:	48 89 fb             	mov    rbx,rdi
  4028d8:	49 89 f4             	mov    r12,rsi
  4028db:	48 89 d0             	mov    rax,rdx
  4028de:	44 0f b6 28          	movzx  r13d,BYTE PTR [rax]
  4028e2:	49 63 d5             	movsxd rdx,r13d
  4028e5:	49 8d 4c 24 01       	lea    rcx,[r12+0x1]
  4028ea:	48 39 ca             	cmp    rdx,rcx
  4028ed:	7e 08                	jle    4028f7 <fpc_shortstr_to_chararray+0x37>
  4028ef:	49 8d 54 24 01       	lea    rdx,[r12+0x1]
  4028f4:	41 89 d5             	mov    r13d,edx
  4028f7:	41 83 fd 00          	cmp    r13d,0x0
  4028fb:	7e 0f                	jle    40290c <fpc_shortstr_to_chararray+0x4c>
  4028fd:	49 63 d5             	movsxd rdx,r13d
  402900:	48 89 de             	mov    rsi,rbx
  402903:	48 8d 78 01          	lea    rdi,[rax+0x1]
  402907:	e8 64 e5 ff ff       	call   400e70 <FPC_MOVE>
  40290c:	49 8d 74 24 01       	lea    rsi,[r12+0x1]
  402911:	49 63 c5             	movsxd rax,r13d
  402914:	48 29 c6             	sub    rsi,rax
  402917:	4d 63 ed             	movsxd r13,r13d
  40291a:	4a 8d 3c 2b          	lea    rdi,[rbx+r13*1]
  40291e:	ba 00 00 00 00       	mov    edx,0x0
  402923:	e8 58 e8 ff ff       	call   401180 <SYSTEM_$$_FILLCHAR$formal$INT64$BYTE>
  402928:	48 8b 5d e8          	mov    rbx,QWORD PTR [rbp-0x18]
  40292c:	4c 8b 65 f0          	mov    r12,QWORD PTR [rbp-0x10]
  402930:	4c 8b 6d f8          	mov    r13,QWORD PTR [rbp-0x8]
  402934:	c9                   	leave  
  402935:	c3                   	ret    
	...

0000000000402940 <FPC_PCHAR_LENGTH>:
  402940:	48 b8 00 00 00 00 00 	movabs rax,0x0
  402947:	00 00 00 
  40294a:	48 85 ff             	test   rdi,rdi
  40294d:	74 13                	je     402962 <FPC_PCHAR_LENGTH+0x22>
  40294f:	eb 0b                	jmp    40295c <FPC_PCHAR_LENGTH+0x1c>
  402951:	66 66 66 90          	data16 data16 xchg ax,ax
  402955:	66 66 90             	data16 xchg ax,ax
  402958:	48 83 c0 01          	add    rax,0x1
  40295c:	80 3c 07 00          	cmp    BYTE PTR [rdi+rax*1],0x0
  402960:	75 f6                	jne    402958 <FPC_PCHAR_LENGTH+0x18>
  402962:	c3                   	ret    
	...

0000000000402970 <FPC_PWIDECHAR_LENGTH>:
  402970:	48 b8 00 00 00 00 00 	movabs rax,0x0
  402977:	00 00 00 
  40297a:	48 85 ff             	test   rdi,rdi
  40297d:	74 15                	je     402994 <FPC_PWIDECHAR_LENGTH+0x24>
  40297f:	eb 0b                	jmp    40298c <FPC_PWIDECHAR_LENGTH+0x1c>
  402981:	66 66 66 90          	data16 data16 xchg ax,ax
  402985:	66 66 90             	data16 xchg ax,ax
  402988:	48 83 c0 01          	add    rax,0x1
  40298c:	66 81 3c 47 00 00    	cmp    WORD PTR [rdi+rax*2],0x0
  402992:	75 f4                	jne    402988 <FPC_PWIDECHAR_LENGTH+0x18>
  402994:	c3                   	ret    
	...

00000000004029a0 <SYSTEM_$$_ODD$LONGINT$$BOOLEAN>:
  4029a0:	89 f8                	mov    eax,edi
  4029a2:	83 e0 01             	and    eax,0x1
  4029a5:	c3                   	ret    
	...

00000000004029b0 <SYSTEM_$$_ODD$LONGWORD$$BOOLEAN>:
  4029b0:	89 f8                	mov    eax,edi
  4029b2:	83 e0 01             	and    eax,0x1
  4029b5:	c3                   	ret    
	...

00000000004029c0 <SYSTEM_$$_ODD$INT64$$BOOLEAN>:
  4029c0:	48 89 f8             	mov    rax,rdi
  4029c3:	83 e0 01             	and    eax,0x1
  4029c6:	c3                   	ret    
	...

00000000004029d0 <SYSTEM_$$_ODD$QWORD$$BOOLEAN>:
  4029d0:	48 89 f8             	mov    rax,rdi
  4029d3:	83 e0 01             	and    eax,0x1
  4029d6:	c3                   	ret    
	...

00000000004029e0 <SYSTEM_$$_SQR$LONGINT$$LONGINT>:
  4029e0:	89 f8                	mov    eax,edi
  4029e2:	0f af c7             	imul   eax,edi
  4029e5:	c3                   	ret    
	...

00000000004029f0 <SYSTEM_$$_SQR$INT64$$INT64>:
  4029f0:	48 89 f8             	mov    rax,rdi
  4029f3:	48 0f af c7          	imul   rax,rdi
  4029f7:	c3                   	ret    
	...

0000000000402a00 <SYSTEM_$$_SQR$QWORD$$QWORD>:
  402a00:	48 89 f8             	mov    rax,rdi
  402a03:	48 0f af c7          	imul   rax,rdi
  402a07:	c3                   	ret    
	...

0000000000402a10 <SYSTEM_$$_ALIGN$QWORD$QWORD$$QWORD>:
  402a10:	48 8d 46 ff          	lea    rax,[rsi-0x1]
  402a14:	48 8d 0c 38          	lea    rcx,[rax+rdi*1]
  402a18:	48 89 c8             	mov    rax,rcx
  402a1b:	48 31 d2             	xor    rdx,rdx
  402a1e:	48 f7 f6             	div    rsi
  402a21:	48 89 c8             	mov    rax,rcx
  402a24:	48 29 d0             	sub    rax,rdx
  402a27:	c3                   	ret    
	...

0000000000402a30 <SYSTEM_$$_ALIGN$POINTER$QWORD$$POINTER>:
  402a30:	48 8d 46 ff          	lea    rax,[rsi-0x1]
  402a34:	48 8d 0c 38          	lea    rcx,[rax+rdi*1]
  402a38:	48 89 c8             	mov    rax,rcx
  402a3b:	48 31 d2             	xor    rdx,rdx
  402a3e:	48 f7 f6             	div    rsi
  402a41:	48 89 c8             	mov    rax,rcx
  402a44:	48 29 d0             	sub    rax,rdx
  402a47:	c3                   	ret    
	...

0000000000402a50 <SYSTEM_$$_INT_STR$LONGINT$OPENSTRING>:
  402a50:	53                   	push   rbx
  402a51:	48 8d 64 24 d0       	lea    rsp,[rsp-0x30]
  402a56:	49 89 d0             	mov    r8,rdx
  402a59:	4c 8d 4e 01          	lea    r9,[rsi+0x1]
  402a5d:	4d 89 ca             	mov    r10,r9
  402a60:	83 ff 00             	cmp    edi,0x0
  402a63:	7d 12                	jge    402a77 <SYSTEM_$$_INT_STR$LONGINT$OPENSTRING+0x27>
  402a65:	41 c6 02 2d          	mov    BYTE PTR [r10],0x2d
  402a69:	49 83 c2 01          	add    r10,0x1
  402a6d:	48 63 c7             	movsxd rax,edi
  402a70:	48 f7 d8             	neg    rax
  402a73:	89 c1                	mov    ecx,eax
  402a75:	eb 02                	jmp    402a79 <SYSTEM_$$_INT_STR$LONGINT$OPENSTRING+0x29>
  402a77:	89 f9                	mov    ecx,edi
  402a79:	48 89 e7             	mov    rdi,rsp
  402a7c:	49 89 fb             	mov    r11,rdi
  402a7f:	90                   	nop
  402a80:	89 ca                	mov    edx,ecx
  402a82:	b8 cd cc cc cc       	mov    eax,0xcccccccd
  402a87:	f7 e2                	mul    edx
  402a89:	c1 ea 03             	shr    edx,0x3
  402a8c:	89 d3                	mov    ebx,edx
  402a8e:	49 83 c3 01          	add    r11,0x1
  402a92:	89 d8                	mov    eax,ebx
  402a94:	6b d0 0a             	imul   edx,eax,0xa
  402a97:	89 c8                	mov    eax,ecx
  402a99:	29 d0                	sub    eax,edx
  402a9b:	67 8d 40 30          	lea    eax,[eax+0x30]
  402a9f:	41 88 03             	mov    BYTE PTR [r11],al
  402aa2:	89 d9                	mov    ecx,ebx
  402aa4:	85 c9                	test   ecx,ecx
  402aa6:	75 d8                	jne    402a80 <SYSTEM_$$_INT_STR$LONGINT$OPENSTRING+0x30>
  402aa8:	4c 89 d8             	mov    rax,r11
  402aab:	48 29 f8             	sub    rax,rdi
  402aae:	4c 89 d2             	mov    rdx,r10
  402ab1:	4c 29 ca             	sub    rdx,r9
  402ab4:	48 8d 04 10          	lea    rax,[rax+rdx*1]
  402ab8:	4c 29 c0             	sub    rax,r8
  402abb:	83 f8 00             	cmp    eax,0x0
  402abe:	7e 16                	jle    402ad6 <SYSTEM_$$_INT_STR$LONGINT$OPENSTRING+0x86>
  402ac0:	48 63 c0             	movsxd rax,eax
  402ac3:	48 01 c7             	add    rdi,rax
  402ac6:	eb 0e                	jmp    402ad6 <SYSTEM_$$_INT_STR$LONGINT$OPENSTRING+0x86>
  402ac8:	41 8a 03             	mov    al,BYTE PTR [r11]
  402acb:	41 88 02             	mov    BYTE PTR [r10],al
  402ace:	49 83 c2 01          	add    r10,0x1
  402ad2:	49 83 eb 01          	sub    r11,0x1
  402ad6:	49 39 fb             	cmp    r11,rdi
  402ad9:	77 ed                	ja     402ac8 <SYSTEM_$$_INT_STR$LONGINT$OPENSTRING+0x78>
  402adb:	4d 29 ca             	sub    r10,r9
  402ade:	44 88 16             	mov    BYTE PTR [rsi],r10b
  402ae1:	48 8d 64 24 30       	lea    rsp,[rsp+0x30]
  402ae6:	5b                   	pop    rbx
  402ae7:	c3                   	ret    
	...

0000000000402af0 <SYSTEM_$$_INT_STR_UNSIGNED$LONGWORD$OPENSTRING>:
  402af0:	53                   	push   rbx
  402af1:	48 8d 64 24 d0       	lea    rsp,[rsp-0x30]
  402af6:	48 89 d1             	mov    rcx,rdx
  402af9:	4c 8d 46 01          	lea    r8,[rsi+0x1]
  402afd:	4d 89 c1             	mov    r9,r8
  402b00:	49 89 e2             	mov    r10,rsp
  402b03:	4d 89 d3             	mov    r11,r10
  402b06:	66 90                	xchg   ax,ax
  402b08:	49 83 c3 01          	add    r11,0x1
  402b0c:	89 fa                	mov    edx,edi
  402b0e:	b8 cd cc cc cc       	mov    eax,0xcccccccd
  402b13:	f7 e2                	mul    edx
  402b15:	c1 ea 03             	shr    edx,0x3
  402b18:	89 d3                	mov    ebx,edx
  402b1a:	89 d8                	mov    eax,ebx
  402b1c:	6b d0 0a             	imul   edx,eax,0xa
  402b1f:	89 f8                	mov    eax,edi
  402b21:	29 d0                	sub    eax,edx
  402b23:	67 8d 40 30          	lea    eax,[eax+0x30]
  402b27:	41 88 03             	mov    BYTE PTR [r11],al
  402b2a:	89 df                	mov    edi,ebx
  402b2c:	85 ff                	test   edi,edi
  402b2e:	75 d8                	jne    402b08 <SYSTEM_$$_INT_STR_UNSIGNED$LONGWORD$OPENSTRING+0x18>
  402b30:	4c 89 d8             	mov    rax,r11
  402b33:	4c 29 d0             	sub    rax,r10
  402b36:	48 29 c8             	sub    rax,rcx
  402b39:	83 f8 00             	cmp    eax,0x0
  402b3c:	7e 18                	jle    402b56 <SYSTEM_$$_INT_STR_UNSIGNED$LONGWORD$OPENSTRING+0x66>
  402b3e:	48 63 c0             	movsxd rax,eax
  402b41:	49 01 c2             	add    r10,rax
  402b44:	eb 10                	jmp    402b56 <SYSTEM_$$_INT_STR_UNSIGNED$LONGWORD$OPENSTRING+0x66>
  402b46:	66 90                	xchg   ax,ax
  402b48:	41 8a 03             	mov    al,BYTE PTR [r11]
  402b4b:	41 88 01             	mov    BYTE PTR [r9],al
  402b4e:	49 83 c1 01          	add    r9,0x1
  402b52:	49 83 eb 01          	sub    r11,0x1
  402b56:	4d 39 d3             	cmp    r11,r10
  402b59:	77 ed                	ja     402b48 <SYSTEM_$$_INT_STR_UNSIGNED$LONGWORD$OPENSTRING+0x58>
  402b5b:	4d 29 c1             	sub    r9,r8
  402b5e:	44 88 0e             	mov    BYTE PTR [rsi],r9b
  402b61:	48 8d 64 24 30       	lea    rsp,[rsp+0x30]
  402b66:	5b                   	pop    rbx
  402b67:	c3                   	ret    
	...

0000000000402b70 <SYSTEM_$$_INT_STR$INT64$OPENSTRING>:
  402b70:	53                   	push   rbx
  402b71:	48 8d 64 24 d0       	lea    rsp,[rsp-0x30]
  402b76:	49 89 d0             	mov    r8,rdx
  402b79:	4c 8d 4e 01          	lea    r9,[rsi+0x1]
  402b7d:	4d 89 ca             	mov    r10,r9
  402b80:	48 83 ff 00          	cmp    rdi,0x0
  402b84:	7d 13                	jge    402b99 <SYSTEM_$$_INT_STR$INT64$OPENSTRING+0x29>
  402b86:	41 c6 02 2d          	mov    BYTE PTR [r10],0x2d
  402b8a:	49 83 c2 01          	add    r10,0x1
  402b8e:	48 89 f8             	mov    rax,rdi
  402b91:	48 f7 d8             	neg    rax
  402b94:	48 89 c1             	mov    rcx,rax
  402b97:	eb 03                	jmp    402b9c <SYSTEM_$$_INT_STR$INT64$OPENSTRING+0x2c>
  402b99:	48 89 f9             	mov    rcx,rdi
  402b9c:	48 89 e7             	mov    rdi,rsp
  402b9f:	49 89 fb             	mov    r11,rdi
  402ba2:	66 66 66 90          	data16 data16 xchg ax,ax
  402ba6:	66 90                	xchg   ax,ax
  402ba8:	48 89 ca             	mov    rdx,rcx
  402bab:	48 b8 cd cc cc cc cc 	movabs rax,0xcccccccccccccccd
  402bb2:	cc cc cc 
  402bb5:	48 f7 e2             	mul    rdx
  402bb8:	48 c1 ea 03          	shr    rdx,0x3
  402bbc:	48 89 d3             	mov    rbx,rdx
  402bbf:	49 83 c3 01          	add    r11,0x1
  402bc3:	48 6b d3 0a          	imul   rdx,rbx,0xa
  402bc7:	48 89 c8             	mov    rax,rcx
  402bca:	48 29 d0             	sub    rax,rdx
  402bcd:	48 8d 40 30          	lea    rax,[rax+0x30]
  402bd1:	41 88 03             	mov    BYTE PTR [r11],al
  402bd4:	48 89 d9             	mov    rcx,rbx
  402bd7:	48 85 c9             	test   rcx,rcx
  402bda:	75 cc                	jne    402ba8 <SYSTEM_$$_INT_STR$INT64$OPENSTRING+0x38>
  402bdc:	4c 89 d8             	mov    rax,r11
  402bdf:	48 29 f8             	sub    rax,rdi
  402be2:	4c 89 d2             	mov    rdx,r10
  402be5:	4c 29 ca             	sub    rdx,r9
  402be8:	48 8d 04 10          	lea    rax,[rax+rdx*1]
  402bec:	4c 29 c0             	sub    rax,r8
  402bef:	83 f8 00             	cmp    eax,0x0
  402bf2:	7e 1a                	jle    402c0e <SYSTEM_$$_INT_STR$INT64$OPENSTRING+0x9e>
  402bf4:	48 63 c0             	movsxd rax,eax
  402bf7:	48 01 c7             	add    rdi,rax
  402bfa:	eb 12                	jmp    402c0e <SYSTEM_$$_INT_STR$INT64$OPENSTRING+0x9e>
  402bfc:	66 66 66 90          	data16 data16 xchg ax,ax
  402c00:	41 8a 03             	mov    al,BYTE PTR [r11]
  402c03:	41 88 02             	mov    BYTE PTR [r10],al
  402c06:	49 83 c2 01          	add    r10,0x1
  402c0a:	49 83 eb 01          	sub    r11,0x1
  402c0e:	49 39 fb             	cmp    r11,rdi
  402c11:	77 ed                	ja     402c00 <SYSTEM_$$_INT_STR$INT64$OPENSTRING+0x90>
  402c13:	4d 29 ca             	sub    r10,r9
  402c16:	44 88 16             	mov    BYTE PTR [rsi],r10b
  402c19:	48 8d 64 24 30       	lea    rsp,[rsp+0x30]
  402c1e:	5b                   	pop    rbx
  402c1f:	c3                   	ret    

0000000000402c20 <SYSTEM_$$_INT_STR_UNSIGNED$QWORD$OPENSTRING>:
  402c20:	53                   	push   rbx
  402c21:	48 8d 64 24 b0       	lea    rsp,[rsp-0x50]
  402c26:	48 89 d1             	mov    rcx,rdx
  402c29:	4c 8d 46 01          	lea    r8,[rsi+0x1]
  402c2d:	4d 89 c1             	mov    r9,r8
  402c30:	49 89 e2             	mov    r10,rsp
  402c33:	4d 89 d3             	mov    r11,r10
  402c36:	66 90                	xchg   ax,ax
  402c38:	49 83 c3 01          	add    r11,0x1
  402c3c:	48 89 fa             	mov    rdx,rdi
  402c3f:	48 b8 cd cc cc cc cc 	movabs rax,0xcccccccccccccccd
  402c46:	cc cc cc 
  402c49:	48 f7 e2             	mul    rdx
  402c4c:	48 c1 ea 03          	shr    rdx,0x3
  402c50:	48 89 d3             	mov    rbx,rdx
  402c53:	48 6b d3 0a          	imul   rdx,rbx,0xa
  402c57:	48 89 f8             	mov    rax,rdi
  402c5a:	48 29 d0             	sub    rax,rdx
  402c5d:	48 8d 40 30          	lea    rax,[rax+0x30]
  402c61:	41 88 03             	mov    BYTE PTR [r11],al
  402c64:	48 89 df             	mov    rdi,rbx
  402c67:	48 85 ff             	test   rdi,rdi
  402c6a:	75 cc                	jne    402c38 <SYSTEM_$$_INT_STR_UNSIGNED$QWORD$OPENSTRING+0x18>
  402c6c:	4c 89 d8             	mov    rax,r11
  402c6f:	4c 29 d0             	sub    rax,r10
  402c72:	48 29 c8             	sub    rax,rcx
  402c75:	83 f8 00             	cmp    eax,0x0
  402c78:	7e 1c                	jle    402c96 <SYSTEM_$$_INT_STR_UNSIGNED$QWORD$OPENSTRING+0x76>
  402c7a:	48 63 c0             	movsxd rax,eax
  402c7d:	49 01 c2             	add    r10,rax
  402c80:	eb 14                	jmp    402c96 <SYSTEM_$$_INT_STR_UNSIGNED$QWORD$OPENSTRING+0x76>
  402c82:	66 66 66 90          	data16 data16 xchg ax,ax
  402c86:	66 90                	xchg   ax,ax
  402c88:	41 8a 03             	mov    al,BYTE PTR [r11]
  402c8b:	41 88 01             	mov    BYTE PTR [r9],al
  402c8e:	49 83 c1 01          	add    r9,0x1
  402c92:	49 83 eb 01          	sub    r11,0x1
  402c96:	4d 39 d3             	cmp    r11,r10
  402c99:	77 ed                	ja     402c88 <SYSTEM_$$_INT_STR_UNSIGNED$QWORD$OPENSTRING+0x68>
  402c9b:	4d 29 c1             	sub    r9,r8
  402c9e:	44 88 0e             	mov    BYTE PTR [rsi],r9b
  402ca1:	48 8d 64 24 50       	lea    rsp,[rsp+0x50]
  402ca6:	5b                   	pop    rbx
  402ca7:	c3                   	ret    
	...

0000000000402cb0 <SYSTEM_$$_BETON$SMALLINT$$SMALLINT>:
  402cb0:	66 89 f8             	mov    ax,di
  402cb3:	25 ff ff 00 00       	and    eax,0xffff
  402cb8:	89 c2                	mov    edx,eax
  402cba:	c1 ea 08             	shr    edx,0x8
  402cbd:	c1 e0 08             	shl    eax,0x8
  402cc0:	09 d0                	or     eax,edx
  402cc2:	0f bf c0             	movsx  eax,ax
  402cc5:	c3                   	ret    
	...

0000000000402cd0 <SYSTEM_$$_BETON$WORD$$WORD>:
  402cd0:	66 89 f8             	mov    ax,di
  402cd3:	25 ff ff 00 00       	and    eax,0xffff
  402cd8:	89 c2                	mov    edx,eax
  402cda:	c1 ea 08             	shr    edx,0x8
  402cdd:	c1 e0 08             	shl    eax,0x8
  402ce0:	09 d0                	or     eax,edx
  402ce2:	25 ff ff 00 00       	and    eax,0xffff
  402ce7:	c3                   	ret    
	...

0000000000402cf0 <SYSTEM_$$_BETON$LONGINT$$LONGINT>:
  402cf0:	48 8d 64 24 f8       	lea    rsp,[rsp-0x8]
  402cf5:	e8 c6 e9 ff ff       	call   4016c0 <SYSTEM_$$_SWAPENDIAN$LONGINT$$LONGINT>
  402cfa:	48 8d 64 24 08       	lea    rsp,[rsp+0x8]
  402cff:	c3                   	ret    

0000000000402d00 <SYSTEM_$$_BETON$LONGWORD$$LONGWORD>:
  402d00:	48 8d 64 24 f8       	lea    rsp,[rsp-0x8]
  402d05:	e8 c6 e9 ff ff       	call   4016d0 <SYSTEM_$$_SWAPENDIAN$LONGWORD$$LONGWORD>
  402d0a:	48 8d 64 24 08       	lea    rsp,[rsp+0x8]
  402d0f:	c3                   	ret    

0000000000402d10 <SYSTEM_$$_BETON$INT64$$INT64>:
  402d10:	48 8d 64 24 f8       	lea    rsp,[rsp-0x8]
  402d15:	e8 c6 e9 ff ff       	call   4016e0 <SYSTEM_$$_SWAPENDIAN$INT64$$INT64>
  402d1a:	48 8d 64 24 08       	lea    rsp,[rsp+0x8]
  402d1f:	c3                   	ret    

0000000000402d20 <SYSTEM_$$_BETON$QWORD$$QWORD>:
  402d20:	48 8d 64 24 f8       	lea    rsp,[rsp-0x8]
  402d25:	e8 c6 e9 ff ff       	call   4016f0 <SYSTEM_$$_SWAPENDIAN$QWORD$$QWORD>
  402d2a:	48 8d 64 24 08       	lea    rsp,[rsp+0x8]
  402d2f:	c3                   	ret    

0000000000402d30 <SYSTEM_$$_LETON$SMALLINT$$SMALLINT>:
  402d30:	66 89 f8             	mov    ax,di
  402d33:	0f bf c0             	movsx  eax,ax
  402d36:	c3                   	ret    
	...

0000000000402d40 <SYSTEM_$$_LETON$WORD$$WORD>:
  402d40:	66 89 f8             	mov    ax,di
  402d43:	25 ff ff 00 00       	and    eax,0xffff
  402d48:	c3                   	ret    
  402d49:	00 00                	add    BYTE PTR [rax],al
  402d4b:	00 00                	add    BYTE PTR [rax],al
  402d4d:	00 00                	add    BYTE PTR [rax],al
	...

0000000000402d50 <SYSTEM_$$_LETON$LONGINT$$LONGINT>:
  402d50:	89 f8                	mov    eax,edi
  402d52:	c3                   	ret    
	...

0000000000402d60 <SYSTEM_$$_LETON$LONGWORD$$LONGWORD>:
  402d60:	89 f8                	mov    eax,edi
  402d62:	c3                   	ret    
	...

0000000000402d70 <SYSTEM_$$_LETON$INT64$$INT64>:
  402d70:	48 89 f8             	mov    rax,rdi
  402d73:	c3                   	ret    
	...

0000000000402d80 <SYSTEM_$$_LETON$QWORD$$QWORD>:
  402d80:	48 89 f8             	mov    rax,rdi
  402d83:	c3                   	ret    
	...

0000000000402d90 <SYSTEM_$$_NTOBE$SMALLINT$$SMALLINT>:
  402d90:	66 89 f8             	mov    ax,di
  402d93:	25 ff ff 00 00       	and    eax,0xffff
  402d98:	89 c2                	mov    edx,eax
  402d9a:	c1 ea 08             	shr    edx,0x8
  402d9d:	c1 e0 08             	shl    eax,0x8
  402da0:	09 d0                	or     eax,edx
  402da2:	0f bf c0             	movsx  eax,ax
  402da5:	c3                   	ret    
	...

0000000000402db0 <SYSTEM_$$_NTOBE$WORD$$WORD>:
  402db0:	66 89 f8             	mov    ax,di
  402db3:	25 ff ff 00 00       	and    eax,0xffff
  402db8:	89 c2                	mov    edx,eax
  402dba:	c1 ea 08             	shr    edx,0x8
  402dbd:	c1 e0 08             	shl    eax,0x8
  402dc0:	09 d0                	or     eax,edx
  402dc2:	25 ff ff 00 00       	and    eax,0xffff
  402dc7:	c3                   	ret    
	...

0000000000402dd0 <SYSTEM_$$_NTOBE$LONGINT$$LONGINT>:
  402dd0:	48 8d 64 24 f8       	lea    rsp,[rsp-0x8]
  402dd5:	e8 e6 e8 ff ff       	call   4016c0 <SYSTEM_$$_SWAPENDIAN$LONGINT$$LONGINT>
  402dda:	48 8d 64 24 08       	lea    rsp,[rsp+0x8]
  402ddf:	c3                   	ret    

0000000000402de0 <SYSTEM_$$_NTOBE$LONGWORD$$LONGWORD>:
  402de0:	48 8d 64 24 f8       	lea    rsp,[rsp-0x8]
  402de5:	e8 e6 e8 ff ff       	call   4016d0 <SYSTEM_$$_SWAPENDIAN$LONGWORD$$LONGWORD>
  402dea:	48 8d 64 24 08       	lea    rsp,[rsp+0x8]
  402def:	c3                   	ret    

0000000000402df0 <SYSTEM_$$_NTOBE$INT64$$INT64>:
  402df0:	48 8d 64 24 f8       	lea    rsp,[rsp-0x8]
  402df5:	e8 e6 e8 ff ff       	call   4016e0 <SYSTEM_$$_SWAPENDIAN$INT64$$INT64>
  402dfa:	48 8d 64 24 08       	lea    rsp,[rsp+0x8]
  402dff:	c3                   	ret    

0000000000402e00 <SYSTEM_$$_NTOBE$QWORD$$QWORD>:
  402e00:	48 8d 64 24 f8       	lea    rsp,[rsp-0x8]
  402e05:	e8 e6 e8 ff ff       	call   4016f0 <SYSTEM_$$_SWAPENDIAN$QWORD$$QWORD>
  402e0a:	48 8d 64 24 08       	lea    rsp,[rsp+0x8]
  402e0f:	c3                   	ret    

0000000000402e10 <SYSTEM_$$_NTOLE$SMALLINT$$SMALLINT>:
  402e10:	66 89 f8             	mov    ax,di
  402e13:	0f bf c0             	movsx  eax,ax
  402e16:	c3                   	ret    
	...

0000000000402e20 <SYSTEM_$$_NTOLE$WORD$$WORD>:
  402e20:	66 89 f8             	mov    ax,di
  402e23:	25 ff ff 00 00       	and    eax,0xffff
  402e28:	c3                   	ret    
  402e29:	00 00                	add    BYTE PTR [rax],al
  402e2b:	00 00                	add    BYTE PTR [rax],al
  402e2d:	00 00                	add    BYTE PTR [rax],al
	...

0000000000402e30 <SYSTEM_$$_NTOLE$LONGINT$$LONGINT>:
  402e30:	89 f8                	mov    eax,edi
  402e32:	c3                   	ret    
	...

0000000000402e40 <SYSTEM_$$_NTOLE$LONGWORD$$LONGWORD>:
  402e40:	89 f8                	mov    eax,edi
  402e42:	c3                   	ret    
	...

0000000000402e50 <SYSTEM_$$_NTOLE$INT64$$INT64>:
  402e50:	48 89 f8             	mov    rax,rdi
  402e53:	c3                   	ret    
	...

0000000000402e60 <SYSTEM_$$_NTOLE$QWORD$$QWORD>:
  402e60:	48 89 f8             	mov    rax,rdi
  402e63:	c3                   	ret    
	...

0000000000402e70 <FPC_POPCNT_BYTE>:
  402e70:	48 8d 05 59 0d 22 00 	lea    rax,[rip+0x220d59]        # 623bd0 <TC_$SYSTEM_$$_POPCNTDATA>
  402e77:	40 0f b6 d7          	movzx  edx,dil
  402e7b:	c1 ea 04             	shr    edx,0x4
  402e7e:	83 e2 0f             	and    edx,0xf
  402e81:	0f b6 14 10          	movzx  edx,BYTE PTR [rax+rdx*1]
  402e85:	66 81 e7 0f 00       	and    di,0xf
  402e8a:	81 e7 ff ff 00 00    	and    edi,0xffff
  402e90:	0f b6 04 38          	movzx  eax,BYTE PTR [rax+rdi*1]
  402e94:	67 8d 04 02          	lea    eax,[edx+eax*1]
  402e98:	25 ff 00 00 00       	and    eax,0xff
  402e9d:	c3                   	ret    
	...

0000000000402ea0 <FPC_POPCNT_WORD>:
  402ea0:	66 b8 00 00          	mov    ax,0x0
  402ea4:	48 be 00 00 00 00 00 	movabs rsi,0x0
  402eab:	00 00 00 
  402eae:	48 83 ee 01          	sub    rsi,0x1
  402eb2:	66 66 66 90          	data16 data16 xchg ax,ax
  402eb6:	66 90                	xchg   ax,ax
  402eb8:	48 83 c6 01          	add    rsi,0x1
  402ebc:	89 fa                	mov    edx,edi
  402ebe:	83 e2 0f             	and    edx,0xf
  402ec1:	48 8d 0d 08 0d 22 00 	lea    rcx,[rip+0x220d08]        # 623bd0 <TC_$SYSTEM_$$_POPCNTDATA>
  402ec8:	66 0f b6 14 11       	movzx  dx,BYTE PTR [rcx+rdx*1]
  402ecd:	66 01 d0             	add    ax,dx
  402ed0:	66 c1 ef 04          	shr    di,0x4
  402ed4:	48 83 fe 03          	cmp    rsi,0x3
  402ed8:	7c de                	jl     402eb8 <FPC_POPCNT_WORD+0x18>
  402eda:	25 ff ff 00 00       	and    eax,0xffff
  402edf:	c3                   	ret    

0000000000402ee0 <FPC_POPCNT_DWORD>:
  402ee0:	b8 00 00 00 00       	mov    eax,0x0
  402ee5:	48 be 00 00 00 00 00 	movabs rsi,0x0
  402eec:	00 00 00 
  402eef:	48 83 ee 01          	sub    rsi,0x1
  402ef3:	66 66 66 90          	data16 data16 xchg ax,ax
  402ef7:	90                   	nop
  402ef8:	48 83 c6 01          	add    rsi,0x1
  402efc:	89 fa                	mov    edx,edi
  402efe:	83 e2 0f             	and    edx,0xf
  402f01:	48 8d 0d c8 0c 22 00 	lea    rcx,[rip+0x220cc8]        # 623bd0 <TC_$SYSTEM_$$_POPCNTDATA>
  402f08:	0f b6 14 11          	movzx  edx,BYTE PTR [rcx+rdx*1]
  402f0c:	01 d0                	add    eax,edx
  402f0e:	89 fa                	mov    edx,edi
  402f10:	c1 ea 04             	shr    edx,0x4
  402f13:	89 d7                	mov    edi,edx
  402f15:	48 83 fe 07          	cmp    rsi,0x7
  402f19:	7c dd                	jl     402ef8 <FPC_POPCNT_DWORD+0x18>
  402f1b:	c3                   	ret    
  402f1c:	00 00                	add    BYTE PTR [rax],al
	...

0000000000402f20 <FPC_POPCNT_QWORD>:
  402f20:	53                   	push   rbx
  402f21:	41 54                	push   r12
  402f23:	48 8d 64 24 f8       	lea    rsp,[rsp-0x8]
  402f28:	48 89 fb             	mov    rbx,rdi
  402f2b:	89 df                	mov    edi,ebx
  402f2d:	e8 ae ff ff ff       	call   402ee0 <FPC_POPCNT_DWORD>
  402f32:	41 89 c4             	mov    r12d,eax
  402f35:	41 81 e4 ff ff ff ff 	and    r12d,0xffffffff
  402f3c:	48 89 df             	mov    rdi,rbx
  402f3f:	48 c1 ef 20          	shr    rdi,0x20
  402f43:	e8 98 ff ff ff       	call   402ee0 <FPC_POPCNT_DWORD>
  402f48:	25 ff ff ff ff       	and    eax,0xffffffff
  402f4d:	49 8d 04 04          	lea    rax,[r12+rax*1]
  402f51:	48 8d 64 24 08       	lea    rsp,[rsp+0x8]
  402f56:	41 5c                	pop    r12
  402f58:	5b                   	pop    rbx
  402f59:	c3                   	ret    
  402f5a:	00 00                	add    BYTE PTR [rax],al
  402f5c:	00 00                	add    BYTE PTR [rax],al
	...

0000000000402f60 <fpc_varset_load>:
  402f60:	53                   	push   rbx
  402f61:	41 54                	push   r12
  402f63:	41 55                	push   r13
  402f65:	41 56                	push   r14
  402f67:	41 57                	push   r15
  402f69:	41 89 f6             	mov    r14d,esi
  402f6c:	49 89 cf             	mov    r15,rcx
  402f6f:	4c 89 c3             	mov    rbx,r8
  402f72:	49 89 fc             	mov    r12,rdi
  402f75:	49 89 d5             	mov    r13,rdx
  402f78:	48 83 fb 00          	cmp    rbx,0x0
  402f7c:	7e 18                	jle    402f96 <fpc_varset_load+0x36>
  402f7e:	4c 89 ef             	mov    rdi,r13
  402f81:	48 89 de             	mov    rsi,rbx
  402f84:	ba 00 00 00 00       	mov    edx,0x0
  402f89:	e8 f2 e1 ff ff       	call   401180 <SYSTEM_$$_FILLCHAR$formal$INT64$BYTE>
  402f8e:	49 01 dd             	add    r13,rbx
  402f91:	49 29 df             	sub    r15,rbx
  402f94:	eb 0e                	jmp    402fa4 <fpc_varset_load+0x44>
  402f96:	48 83 fb 00          	cmp    rbx,0x0
  402f9a:	7d 08                	jge    402fa4 <fpc_varset_load+0x44>
  402f9c:	49 29 dc             	sub    r12,rbx
  402f9f:	89 d8                	mov    eax,ebx
  402fa1:	41 01 c6             	add    r14d,eax
  402fa4:	49 63 c6             	movsxd rax,r14d
  402fa7:	4c 39 f8             	cmp    rax,r15
  402faa:	7e 06                	jle    402fb2 <fpc_varset_load+0x52>
  402fac:	44 89 f8             	mov    eax,r15d
  402faf:	41 89 c6             	mov    r14d,eax
  402fb2:	49 63 d6             	movsxd rdx,r14d
  402fb5:	4c 89 eb             	mov    rbx,r13
  402fb8:	48 89 de             	mov    rsi,rbx
  402fbb:	4c 89 e7             	mov    rdi,r12
  402fbe:	e8 ad de ff ff       	call   400e70 <FPC_MOVE>
  402fc3:	49 63 c6             	movsxd rax,r14d
  402fc6:	48 8d 3c 18          	lea    rdi,[rax+rbx*1]
  402fca:	49 63 c6             	movsxd rax,r14d
  402fcd:	4c 89 fe             	mov    rsi,r15
  402fd0:	48 29 c6             	sub    rsi,rax
  402fd3:	ba 00 00 00 00       	mov    edx,0x0
  402fd8:	e8 a3 e1 ff ff       	call   401180 <SYSTEM_$$_FILLCHAR$formal$INT64$BYTE>
  402fdd:	41 5f                	pop    r15
  402fdf:	41 5e                	pop    r14
  402fe1:	41 5d                	pop    r13
  402fe3:	41 5c                	pop    r12
  402fe5:	5b                   	pop    rbx
  402fe6:	c3                   	ret    
	...

0000000000402ff0 <fpc_varset_create_element>:
  402ff0:	53                   	push   rbx
  402ff1:	41 54                	push   r12
  402ff3:	48 8d 64 24 f8       	lea    rsp,[rsp-0x8]
  402ff8:	48 89 fb             	mov    rbx,rdi
  402ffb:	49 89 d4             	mov    r12,rdx
  402ffe:	4c 89 e7             	mov    rdi,r12
  403001:	ba 00 00 00 00       	mov    edx,0x0
  403006:	e8 75 e1 ff ff       	call   401180 <SYSTEM_$$_FILLCHAR$formal$INT64$BYTE>
  40300b:	48 89 d9             	mov    rcx,rbx
  40300e:	48 89 c8             	mov    rax,rcx
  403011:	48 c1 e8 03          	shr    rax,0x3
  403015:	48 83 e1 07          	and    rcx,0x7
  403019:	41 0f b6 14 04       	movzx  edx,BYTE PTR [r12+rax*1]
  40301e:	48 be 01 00 00 00 00 	movabs rsi,0x1
  403025:	00 00 00 
  403028:	48 d3 e6             	shl    rsi,cl
  40302b:	48 09 f2             	or     rdx,rsi
  40302e:	41 88 14 04          	mov    BYTE PTR [r12+rax*1],dl
  403032:	48 8d 64 24 08       	lea    rsp,[rsp+0x8]
  403037:	41 5c                	pop    r12
  403039:	5b                   	pop    rbx
  40303a:	c3                   	ret    
  40303b:	00 00                	add    BYTE PTR [rax],al
  40303d:	00 00                	add    BYTE PTR [rax],al
	...

0000000000403040 <fpc_varset_set>:
  403040:	53                   	push   rbx
  403041:	41 54                	push   r12
  403043:	48 8d 64 24 f8       	lea    rsp,[rsp-0x8]
  403048:	48 89 f8             	mov    rax,rdi
  40304b:	48 89 f3             	mov    rbx,rsi
  40304e:	49 89 d4             	mov    r12,rdx
  403051:	48 89 ca             	mov    rdx,rcx
  403054:	48 89 de             	mov    rsi,rbx
  403057:	48 89 c7             	mov    rdi,rax
  40305a:	e8 11 de ff ff       	call   400e70 <FPC_MOVE>
  40305f:	4c 89 e1             	mov    rcx,r12
  403062:	48 89 c8             	mov    rax,rcx
  403065:	48 c1 e8 03          	shr    rax,0x3
  403069:	48 83 e1 07          	and    rcx,0x7
  40306d:	0f b6 14 03          	movzx  edx,BYTE PTR [rbx+rax*1]
  403071:	48 be 01 00 00 00 00 	movabs rsi,0x1
  403078:	00 00 00 
  40307b:	48 d3 e6             	shl    rsi,cl
  40307e:	48 09 f2             	or     rdx,rsi
  403081:	88 14 03             	mov    BYTE PTR [rbx+rax*1],dl
  403084:	48 8d 64 24 08       	lea    rsp,[rsp+0x8]
  403089:	41 5c                	pop    r12
  40308b:	5b                   	pop    rbx
  40308c:	c3                   	ret    
  40308d:	00 00                	add    BYTE PTR [rax],al
	...

0000000000403090 <fpc_varset_unset>:
  403090:	53                   	push   rbx
  403091:	41 54                	push   r12
  403093:	48 8d 64 24 f8       	lea    rsp,[rsp-0x8]
  403098:	48 89 f8             	mov    rax,rdi
  40309b:	48 89 f3             	mov    rbx,rsi
  40309e:	49 89 d4             	mov    r12,rdx
  4030a1:	48 89 ca             	mov    rdx,rcx
  4030a4:	48 89 de             	mov    rsi,rbx
  4030a7:	48 89 c7             	mov    rdi,rax
  4030aa:	e8 c1 dd ff ff       	call   400e70 <FPC_MOVE>
  4030af:	4c 89 e1             	mov    rcx,r12
  4030b2:	48 89 c8             	mov    rax,rcx
  4030b5:	48 c1 e8 03          	shr    rax,0x3
  4030b9:	48 83 e1 07          	and    rcx,0x7
  4030bd:	0f b6 14 03          	movzx  edx,BYTE PTR [rbx+rax*1]
  4030c1:	48 be 01 00 00 00 00 	movabs rsi,0x1
  4030c8:	00 00 00 
  4030cb:	48 d3 e6             	shl    rsi,cl
  4030ce:	48 f7 d6             	not    rsi
  4030d1:	48 21 f2             	and    rdx,rsi
  4030d4:	88 14 03             	mov    BYTE PTR [rbx+rax*1],dl
  4030d7:	48 8d 64 24 08       	lea    rsp,[rsp+0x8]
  4030dc:	41 5c                	pop    r12
  4030de:	5b                   	pop    rbx
  4030df:	c3                   	ret    

00000000004030e0 <fpc_varset_set_range>:
  4030e0:	53                   	push   rbx
  4030e1:	41 54                	push   r12
  4030e3:	41 55                	push   r13
  4030e5:	48 89 f3             	mov    rbx,rsi
  4030e8:	49 89 d4             	mov    r12,rdx
  4030eb:	49 89 cd             	mov    r13,rcx
  4030ee:	4c 89 c2             	mov    rdx,r8
  4030f1:	48 89 de             	mov    rsi,rbx
  4030f4:	e8 77 dd ff ff       	call   400e70 <FPC_MOVE>
  4030f9:	4d 39 e5             	cmp    r13,r12
  4030fc:	7c 38                	jl     403136 <fpc_varset_set_range+0x56>
  4030fe:	49 83 ec 01          	sub    r12,0x1
  403102:	66 66 66 90          	data16 data16 xchg ax,ax
  403106:	66 90                	xchg   ax,ax
  403108:	49 83 c4 01          	add    r12,0x1
  40310c:	4c 89 e1             	mov    rcx,r12
  40310f:	48 89 c8             	mov    rax,rcx
  403112:	48 c1 e8 03          	shr    rax,0x3
  403116:	48 83 e1 07          	and    rcx,0x7
  40311a:	0f b6 14 03          	movzx  edx,BYTE PTR [rbx+rax*1]
  40311e:	48 be 01 00 00 00 00 	movabs rsi,0x1
  403125:	00 00 00 
  403128:	48 d3 e6             	shl    rsi,cl
  40312b:	48 09 f2             	or     rdx,rsi
  40312e:	88 14 03             	mov    BYTE PTR [rbx+rax*1],dl
  403131:	4d 39 e5             	cmp    r13,r12
  403134:	7f d2                	jg     403108 <fpc_varset_set_range+0x28>
  403136:	41 5d                	pop    r13
  403138:	41 5c                	pop    r12
  40313a:	5b                   	pop    rbx
  40313b:	c3                   	ret    
  40313c:	00 00                	add    BYTE PTR [rax],al
	...

0000000000403140 <fpc_varset_add_sets>:
  403140:	48 8d 41 ff          	lea    rax,[rcx-0x1]
  403144:	49 b8 00 00 00 00 00 	movabs r8,0x0
  40314b:	00 00 00 
  40314e:	4c 39 c0             	cmp    rax,r8
  403151:	7c 1d                	jl     403170 <fpc_varset_add_sets+0x30>
  403153:	49 83 e8 01          	sub    r8,0x1
  403157:	90                   	nop
  403158:	49 83 c0 01          	add    r8,0x1
  40315c:	46 8a 0c 07          	mov    r9b,BYTE PTR [rdi+r8*1]
  403160:	42 8a 0c 06          	mov    cl,BYTE PTR [rsi+r8*1]
  403164:	44 08 c9             	or     cl,r9b
  403167:	42 88 0c 02          	mov    BYTE PTR [rdx+r8*1],cl
  40316b:	4c 39 c0             	cmp    rax,r8
  40316e:	7f e8                	jg     403158 <fpc_varset_add_sets+0x18>
  403170:	c3                   	ret    
	...

0000000000403180 <fpc_varset_mul_sets>:
  403180:	48 8d 41 ff          	lea    rax,[rcx-0x1]
  403184:	49 b8 00 00 00 00 00 	movabs r8,0x0
  40318b:	00 00 00 
  40318e:	4c 39 c0             	cmp    rax,r8
  403191:	7c 1d                	jl     4031b0 <fpc_varset_mul_sets+0x30>
  403193:	49 83 e8 01          	sub    r8,0x1
  403197:	90                   	nop
  403198:	49 83 c0 01          	add    r8,0x1
  40319c:	46 8a 0c 07          	mov    r9b,BYTE PTR [rdi+r8*1]
  4031a0:	42 8a 0c 06          	mov    cl,BYTE PTR [rsi+r8*1]
  4031a4:	44 20 c9             	and    cl,r9b
  4031a7:	42 88 0c 02          	mov    BYTE PTR [rdx+r8*1],cl
  4031ab:	4c 39 c0             	cmp    rax,r8
  4031ae:	7f e8                	jg     403198 <fpc_varset_mul_sets+0x18>
  4031b0:	c3                   	ret    
	...

00000000004031c0 <fpc_varset_sub_sets>:
  4031c0:	48 8d 41 ff          	lea    rax,[rcx-0x1]
  4031c4:	49 b9 00 00 00 00 00 	movabs r9,0x0
  4031cb:	00 00 00 
  4031ce:	4c 39 c8             	cmp    rax,r9
  4031d1:	7c 1f                	jl     4031f2 <fpc_varset_sub_sets+0x32>
  4031d3:	49 83 e9 01          	sub    r9,0x1
  4031d7:	90                   	nop
  4031d8:	49 83 c1 01          	add    r9,0x1
  4031dc:	42 8a 0c 0e          	mov    cl,BYTE PTR [rsi+r9*1]
  4031e0:	f6 d1                	not    cl
  4031e2:	46 8a 04 0f          	mov    r8b,BYTE PTR [rdi+r9*1]
  4031e6:	41 20 c8             	and    r8b,cl
  4031e9:	46 88 04 0a          	mov    BYTE PTR [rdx+r9*1],r8b
  4031ed:	4c 39 c8             	cmp    rax,r9
  4031f0:	7f e6                	jg     4031d8 <fpc_varset_sub_sets+0x18>
  4031f2:	c3                   	ret    
	...

0000000000403200 <fpc_varset_symdif_sets>:
  403200:	48 8d 41 ff          	lea    rax,[rcx-0x1]
  403204:	49 b8 00 00 00 00 00 	movabs r8,0x0
  40320b:	00 00 00 
  40320e:	4c 39 c0             	cmp    rax,r8
  403211:	7c 1d                	jl     403230 <fpc_varset_symdif_sets+0x30>
  403213:	49 83 e8 01          	sub    r8,0x1
  403217:	90                   	nop
  403218:	49 83 c0 01          	add    r8,0x1
  40321c:	46 8a 0c 07          	mov    r9b,BYTE PTR [rdi+r8*1]
  403220:	42 8a 0c 06          	mov    cl,BYTE PTR [rsi+r8*1]
  403224:	44 30 c9             	xor    cl,r9b
  403227:	42 88 0c 02          	mov    BYTE PTR [rdx+r8*1],cl
  40322b:	4c 39 c0             	cmp    rax,r8
  40322e:	7f e8                	jg     403218 <fpc_varset_symdif_sets+0x18>
  403230:	c3                   	ret    
	...

0000000000403240 <fpc_varset_comp_sets>:
  403240:	b0 00                	mov    al,0x0
  403242:	48 8d 52 ff          	lea    rdx,[rdx-0x1]
  403246:	49 b8 00 00 00 00 00 	movabs r8,0x0
  40324d:	00 00 00 
  403250:	4c 39 c2             	cmp    rdx,r8
  403253:	7c 1e                	jl     403273 <fpc_varset_comp_sets+0x33>
  403255:	49 83 e8 01          	sub    r8,0x1
  403259:	66 66 66 90          	data16 data16 xchg ax,ax
  40325d:	66 66 90             	data16 xchg ax,ax
  403260:	49 83 c0 01          	add    r8,0x1
  403264:	42 8a 0c 07          	mov    cl,BYTE PTR [rdi+r8*1]
  403268:	42 3a 0c 06          	cmp    cl,BYTE PTR [rsi+r8*1]
  40326c:	75 07                	jne    403275 <fpc_varset_comp_sets+0x35>
  40326e:	4c 39 c2             	cmp    rdx,r8
  403271:	7f ed                	jg     403260 <fpc_varset_comp_sets+0x20>
  403273:	b0 01                	mov    al,0x1
  403275:	25 ff 00 00 00       	and    eax,0xff
  40327a:	c3                   	ret    
  40327b:	00 00                	add    BYTE PTR [rax],al
  40327d:	00 00                	add    BYTE PTR [rax],al
	...

0000000000403280 <fpc_varset_contains_sets>:
  403280:	b0 00                	mov    al,0x0
  403282:	48 8d 52 ff          	lea    rdx,[rdx-0x1]
  403286:	49 b9 00 00 00 00 00 	movabs r9,0x0
  40328d:	00 00 00 
  403290:	4c 39 ca             	cmp    rdx,r9
  403293:	7c 26                	jl     4032bb <fpc_varset_contains_sets+0x3b>
  403295:	49 83 e9 01          	sub    r9,0x1
  403299:	66 66 66 90          	data16 data16 xchg ax,ax
  40329d:	66 66 90             	data16 xchg ax,ax
  4032a0:	49 83 c1 01          	add    r9,0x1
  4032a4:	42 8a 0c 0e          	mov    cl,BYTE PTR [rsi+r9*1]
  4032a8:	f6 d1                	not    cl
  4032aa:	46 8a 04 0f          	mov    r8b,BYTE PTR [rdi+r9*1]
  4032ae:	41 20 c8             	and    r8b,cl
  4032b1:	45 84 c0             	test   r8b,r8b
  4032b4:	75 07                	jne    4032bd <fpc_varset_contains_sets+0x3d>
  4032b6:	4c 39 ca             	cmp    rdx,r9
  4032b9:	7f e5                	jg     4032a0 <fpc_varset_contains_sets+0x20>
  4032bb:	b0 01                	mov    al,0x1
  4032bd:	25 ff 00 00 00       	and    eax,0xff
  4032c2:	c3                   	ret    
	...

00000000004032d0 <SYSTEM_$$_HI$BYTE$$BYTE>:
  4032d0:	40 88 f8             	mov    al,dil
  4032d3:	25 ff 00 00 00       	and    eax,0xff
  4032d8:	c1 e8 04             	shr    eax,0x4
  4032db:	25 ff 00 00 00       	and    eax,0xff
  4032e0:	c3                   	ret    
	...

00000000004032f0 <SYSTEM_$$_LO$BYTE$$BYTE>:
  4032f0:	40 88 f8             	mov    al,dil
  4032f3:	66 25 0f 00          	and    ax,0xf
  4032f7:	25 ff 00 00 00       	and    eax,0xff
  4032fc:	c3                   	ret    
  4032fd:	00 00                	add    BYTE PTR [rax],al
	...

0000000000403300 <SYSTEM_$$_SWAP$WORD$$WORD>:
  403300:	66 89 f8             	mov    ax,di
  403303:	25 ff ff 00 00       	and    eax,0xffff
  403308:	89 c2                	mov    edx,eax
  40330a:	c1 ea 08             	shr    edx,0x8
  40330d:	c1 e0 08             	shl    eax,0x8
  403310:	09 d0                	or     eax,edx
  403312:	25 ff ff 00 00       	and    eax,0xffff
  403317:	c3                   	ret    
	...

0000000000403320 <SYSTEM_$$_SWAP$SMALLINT$$SMALLINT>:
  403320:	66 89 f8             	mov    ax,di
  403323:	25 ff ff 00 00       	and    eax,0xffff
  403328:	89 c2                	mov    edx,eax
  40332a:	c1 ea 08             	shr    edx,0x8
  40332d:	c1 e0 08             	shl    eax,0x8
  403330:	09 d0                	or     eax,edx
  403332:	0f bf c0             	movsx  eax,ax
  403335:	c3                   	ret    
	...

0000000000403340 <SYSTEM_$$_SWAP$LONGINT$$LONGINT>:
  403340:	89 f8                	mov    eax,edi
  403342:	c1 e0 10             	shl    eax,0x10
  403345:	c1 ef 10             	shr    edi,0x10
  403348:	67 8d 04 38          	lea    eax,[eax+edi*1]
  40334c:	c3                   	ret    
  40334d:	00 00                	add    BYTE PTR [rax],al
	...

0000000000403350 <SYSTEM_$$_SWAP$LONGWORD$$LONGWORD>:
  403350:	89 f8                	mov    eax,edi
  403352:	c1 e0 10             	shl    eax,0x10
  403355:	c1 ef 10             	shr    edi,0x10
  403358:	67 8d 04 38          	lea    eax,[eax+edi*1]
  40335c:	c3                   	ret    
  40335d:	00 00                	add    BYTE PTR [rax],al
	...

0000000000403360 <SYSTEM_$$_SWAP$QWORD$$QWORD>:
  403360:	48 89 f8             	mov    rax,rdi
  403363:	48 c1 e0 20          	shl    rax,0x20
  403367:	48 c1 ef 20          	shr    rdi,0x20
  40336b:	48 8d 04 38          	lea    rax,[rax+rdi*1]
  40336f:	c3                   	ret    

0000000000403370 <SYSTEM_$$_SWAP$INT64$$INT64>:
  403370:	48 89 f8             	mov    rax,rdi
  403373:	48 c1 e0 20          	shl    rax,0x20
  403377:	48 c1 ef 20          	shr    rdi,0x20
  40337b:	48 8d 04 38          	lea    rax,[rax+rdi*1]
  40337f:	c3                   	ret    

0000000000403380 <SYSTEM_$$_assign$REAL48$$DOUBLE>:
  403380:	48 8d 64 24 e8       	lea    rsp,[rsp-0x18]
  403385:	48 89 3c 24          	mov    QWORD PTR [rsp],rdi
  403389:	48 8b 14 24          	mov    rdx,QWORD PTR [rsp]
  40338d:	8b 02                	mov    eax,DWORD PTR [rdx]
  40338f:	89 44 24 08          	mov    DWORD PTR [rsp+0x8],eax
  403393:	66 8b 42 04          	mov    ax,WORD PTR [rdx+0x4]
  403397:	66 89 44 24 0c       	mov    WORD PTR [rsp+0xc],ax
  40339c:	48 8d 7c 24 08       	lea    rdi,[rsp+0x8]
  4033a1:	e8 3a 1a 00 00       	call   404de0 <SYSTEM_$$_REAL2DOUBLE$REAL48$$DOUBLE>
  4033a6:	48 8d 64 24 18       	lea    rsp,[rsp+0x18]
  4033ab:	c3                   	ret    
  4033ac:	00 00                	add    BYTE PTR [rax],al
	...

00000000004033b0 <SYSTEM_$$_assign$REAL48$$EXTENDED>:
  4033b0:	48 8d 64 24 d8       	lea    rsp,[rsp-0x28]
  4033b5:	48 89 3c 24          	mov    QWORD PTR [rsp],rdi
  4033b9:	48 8b 14 24          	mov    rdx,QWORD PTR [rsp]
  4033bd:	8b 02                	mov    eax,DWORD PTR [rdx]
  4033bf:	89 44 24 20          	mov    DWORD PTR [rsp+0x20],eax
  4033c3:	66 8b 42 04          	mov    ax,WORD PTR [rdx+0x4]
  4033c7:	66 89 44 24 24       	mov    WORD PTR [rsp+0x24],ax
  4033cc:	48 8d 7c 24 20       	lea    rdi,[rsp+0x20]
  4033d1:	e8 0a 1a 00 00       	call   404de0 <SYSTEM_$$_REAL2DOUBLE$REAL48$$DOUBLE>
  4033d6:	f2 0f 11 04 24       	movsd  QWORD PTR [rsp],xmm0
  4033db:	dd 04 24             	fld    QWORD PTR [rsp]
  4033de:	db 7c 24 10          	fstp   TBYTE PTR [rsp+0x10]
  4033e2:	db 6c 24 10          	fld    TBYTE PTR [rsp+0x10]
  4033e6:	48 8d 64 24 28       	lea    rsp,[rsp+0x28]
  4033eb:	c3                   	ret    
  4033ec:	00 00                	add    BYTE PTR [rax],al
	...

00000000004033f0 <SYSTEM_$$_SET8087CW$WORD>:
  4033f0:	55                   	push   rbp
  4033f1:	48 89 e5             	mov    rbp,rsp
  4033f4:	48 8d 64 24 f0       	lea    rsp,[rsp-0x10]
  4033f9:	66 89 7d f8          	mov    WORD PTR [rbp-0x8],di
  4033fd:	66 8b 55 f8          	mov    dx,WORD PTR [rbp-0x8]
  403401:	48 8d 05 88 05 22 00 	lea    rax,[rip+0x220588]        # 623990 <TC_$SYSTEM_$$_DEFAULT8087CW>
  403408:	66 89 10             	mov    WORD PTR [rax],dx
  40340b:	db e2                	fnclex 
  40340d:	d9 6d f8             	fldcw  WORD PTR [rbp-0x8]
  403410:	c9                   	leave  
  403411:	c3                   	ret    
	...

0000000000403420 <SYSTEM_$$_GET8087CW$$WORD>:
  403420:	55                   	push   rbp
  403421:	48 89 e5             	mov    rbp,rsp
  403424:	48 8d 64 24 f0       	lea    rsp,[rsp-0x10]
  403429:	d9 7d f8             	fnstcw WORD PTR [rbp-0x8]
  40342c:	66 8b 45 f8          	mov    ax,WORD PTR [rbp-0x8]
  403430:	25 ff ff 00 00       	and    eax,0xffff
  403435:	c9                   	leave  
  403436:	c3                   	ret    
	...

0000000000403440 <SYSTEM_$$_SETMXCSR$LONGWORD>:
  403440:	55                   	push   rbp
  403441:	48 89 e5             	mov    rbp,rsp
  403444:	48 8d 64 24 f0       	lea    rsp,[rsp-0x10]
  403449:	89 7d f8             	mov    DWORD PTR [rbp-0x8],edi
  40344c:	8b 55 f8             	mov    edx,DWORD PTR [rbp-0x8]
  40344f:	48 8d 05 4a 05 22 00 	lea    rax,[rip+0x22054a]        # 6239a0 <TC_$SYSTEM_$$_DEFAULTMXCSR>
  403456:	89 10                	mov    DWORD PTR [rax],edx
  403458:	0f ae 55 f8          	ldmxcsr DWORD PTR [rbp-0x8]
  40345c:	c9                   	leave  
  40345d:	c3                   	ret    
	...

0000000000403460 <SYSTEM_$$_GETMXCSR$$LONGWORD>:
  403460:	55                   	push   rbp
  403461:	48 89 e5             	mov    rbp,rsp
  403464:	48 8d 64 24 f0       	lea    rsp,[rsp-0x10]
  403469:	0f ae 5d f8          	stmxcsr DWORD PTR [rbp-0x8]
  40346d:	8b 45 f8             	mov    eax,DWORD PTR [rbp-0x8]
  403470:	c9                   	leave  
  403471:	c3                   	ret    
	...

0000000000403480 <SYSTEM_$$_SETSSECSR$LONGWORD>:
  403480:	48 8d 64 24 f8       	lea    rsp,[rsp-0x8]
  403485:	89 f8                	mov    eax,edi
  403487:	89 c7                	mov    edi,eax
  403489:	e8 b2 ff ff ff       	call   403440 <SYSTEM_$$_SETMXCSR$LONGWORD>
  40348e:	48 8d 64 24 08       	lea    rsp,[rsp+0x8]
  403493:	c3                   	ret    
	...

00000000004034a0 <SYSTEM_$$_GETSSECSR$$LONGWORD>:
  4034a0:	48 8d 64 24 f8       	lea    rsp,[rsp-0x8]
  4034a5:	e8 b6 ff ff ff       	call   403460 <SYSTEM_$$_GETMXCSR$$LONGWORD>
  4034aa:	48 8d 64 24 08       	lea    rsp,[rsp+0x8]
  4034af:	c3                   	ret    

00000000004034b0 <fpc_abs_real>:
  4034b0:	55                   	push   rbp
  4034b1:	48 89 e5             	mov    rbp,rsp
  4034b4:	48 8d 64 24 f0       	lea    rsp,[rsp-0x10]
  4034b9:	b8 cf 00 00 00       	mov    eax,0xcf
  4034be:	89 c7                	mov    edi,eax
  4034c0:	e8 9b 3a 01 00       	call   416f60 <FPC_RUNERROR>
  4034c5:	d9 ee                	fldz   
  4034c7:	db 7d f0             	fstp   TBYTE PTR [rbp-0x10]
  4034ca:	db 6d f0             	fld    TBYTE PTR [rbp-0x10]
  4034cd:	c9                   	leave  
  4034ce:	c3                   	ret    
	...

00000000004034d0 <fpc_sqr_real>:
  4034d0:	55                   	push   rbp
  4034d1:	48 89 e5             	mov    rbp,rsp
  4034d4:	48 8d 64 24 f0       	lea    rsp,[rsp-0x10]
  4034d9:	b8 cf 00 00 00       	mov    eax,0xcf
  4034de:	89 c7                	mov    edi,eax
  4034e0:	e8 7b 3a 01 00       	call   416f60 <FPC_RUNERROR>
  4034e5:	d9 ee                	fldz   
  4034e7:	db 7d f0             	fstp   TBYTE PTR [rbp-0x10]
  4034ea:	db 6d f0             	fld    TBYTE PTR [rbp-0x10]
  4034ed:	c9                   	leave  
  4034ee:	c3                   	ret    
	...

00000000004034f0 <fpc_sqrt_real>:
  4034f0:	55                   	push   rbp
  4034f1:	48 89 e5             	mov    rbp,rsp
  4034f4:	48 8d 64 24 f0       	lea    rsp,[rsp-0x10]
  4034f9:	b8 cf 00 00 00       	mov    eax,0xcf
  4034fe:	89 c7                	mov    edi,eax
  403500:	e8 5b 3a 01 00       	call   416f60 <FPC_RUNERROR>
  403505:	d9 ee                	fldz   
  403507:	db 7d f0             	fstp   TBYTE PTR [rbp-0x10]
  40350a:	db 6d f0             	fld    TBYTE PTR [rbp-0x10]
  40350d:	c9                   	leave  
  40350e:	c3                   	ret    
	...

0000000000403510 <fpc_arctan_real>:
  403510:	55                   	push   rbp
  403511:	48 89 e5             	mov    rbp,rsp
  403514:	48 8d 64 24 f0       	lea    rsp,[rsp-0x10]
  403519:	b8 cf 00 00 00       	mov    eax,0xcf
  40351e:	89 c7                	mov    edi,eax
  403520:	e8 3b 3a 01 00       	call   416f60 <FPC_RUNERROR>
  403525:	d9 ee                	fldz   
  403527:	db 7d f0             	fstp   TBYTE PTR [rbp-0x10]
  40352a:	db 6d f0             	fld    TBYTE PTR [rbp-0x10]
  40352d:	c9                   	leave  
  40352e:	c3                   	ret    
	...

0000000000403530 <fpc_ln_real>:
  403530:	55                   	push   rbp
  403531:	48 89 e5             	mov    rbp,rsp
  403534:	48 8d 64 24 f0       	lea    rsp,[rsp-0x10]
  403539:	b8 cf 00 00 00       	mov    eax,0xcf
  40353e:	89 c7                	mov    edi,eax
  403540:	e8 1b 3a 01 00       	call   416f60 <FPC_RUNERROR>
  403545:	d9 ee                	fldz   
  403547:	db 7d f0             	fstp   TBYTE PTR [rbp-0x10]
  40354a:	db 6d f0             	fld    TBYTE PTR [rbp-0x10]
  40354d:	c9                   	leave  
  40354e:	c3                   	ret    
	...

0000000000403550 <fpc_sin_real>:
  403550:	55                   	push   rbp
  403551:	48 89 e5             	mov    rbp,rsp
  403554:	48 8d 64 24 f0       	lea    rsp,[rsp-0x10]
  403559:	b8 cf 00 00 00       	mov    eax,0xcf
  40355e:	89 c7                	mov    edi,eax
  403560:	e8 fb 39 01 00       	call   416f60 <FPC_RUNERROR>
  403565:	d9 ee                	fldz   
  403567:	db 7d f0             	fstp   TBYTE PTR [rbp-0x10]
  40356a:	db 6d f0             	fld    TBYTE PTR [rbp-0x10]
  40356d:	c9                   	leave  
  40356e:	c3                   	ret    
	...

0000000000403570 <fpc_cos_real>:
  403570:	55                   	push   rbp
  403571:	48 89 e5             	mov    rbp,rsp
  403574:	48 8d 64 24 f0       	lea    rsp,[rsp-0x10]
  403579:	b8 cf 00 00 00       	mov    eax,0xcf
  40357e:	89 c7                	mov    edi,eax
  403580:	e8 db 39 01 00       	call   416f60 <FPC_RUNERROR>
  403585:	d9 ee                	fldz   
  403587:	db 7d f0             	fstp   TBYTE PTR [rbp-0x10]
  40358a:	db 6d f0             	fld    TBYTE PTR [rbp-0x10]
  40358d:	c9                   	leave  
  40358e:	c3                   	ret    
	...

0000000000403590 <fpc_exp_real>:
  403590:	55                   	push   rbp
  403591:	48 89 e5             	mov    rbp,rsp
  403594:	48 8d 64 24 f0       	lea    rsp,[rsp-0x10]
  403599:	db 6d 10             	fld    TBYTE PTR [rbp+0x10]
  40359c:	d9 ea                	fldl2e 
  40359e:	d8 c9                	fmul   st,st(1)
  4035a0:	d9 fc                	frndint 
  4035a2:	dd 05 58 06 22 00    	fld    QWORD PTR [rip+0x220658]        # 623c00 <TC_$SYSTEM$_$fpc_exp_real$EXTENDED$$EXTENDED_$$_LN2HI>
  4035a8:	d8 c9                	fmul   st,st(1)
  4035aa:	de ea                	fsubrp st(2),st
  4035ac:	dd 05 5e 06 22 00    	fld    QWORD PTR [rip+0x22065e]        # 623c10 <TC_$SYSTEM$_$fpc_exp_real$EXTENDED$$EXTENDED_$$_LN2LO>
  4035b2:	d8 c9                	fmul   st,st(1)
  4035b4:	de ea                	fsubrp st(2),st
  4035b6:	d9 c9                	fxch   st(1)
  4035b8:	d9 ea                	fldl2e 
  4035ba:	de c9                	fmulp  st(1),st
  4035bc:	d9 c0                	fld    st(0)
  4035be:	d9 e1                	fabs   
  4035c0:	d9 e8                	fld1   
  4035c2:	de d9                	fcompp 
  4035c4:	9b df e0             	fstsw  ax
  4035c7:	9e                   	sahf   
  4035c8:	7a 12                	jp     4035dc <fpc_exp_real+0x4c>
  4035ca:	73 2a                	jae    4035f6 <fpc_exp_real+0x66>
  4035cc:	d9 c1                	fld    st(1)
  4035ce:	d9 e1                	fabs   
  4035d0:	d8 1d 4a 06 22 00    	fcomp  DWORD PTR [rip+0x22064a]        # 623c20 <TC_$SYSTEM$_$fpc_exp_real$EXTENDED$$EXTENDED_$$_LARGE>
  4035d6:	9b df e0             	fstsw  ax
  4035d9:	9e                   	sahf   
  4035da:	72 06                	jb     4035e2 <fpc_exp_real+0x52>
  4035dc:	dd d8                	fstp   st(0)
  4035de:	d9 ee                	fldz   
  4035e0:	eb 14                	jmp    4035f6 <fpc_exp_real+0x66>
  4035e2:	d8 0d 58 06 22 00    	fmul   DWORD PTR [rip+0x220658]        # 623c40 <TC_$SYSTEM$_$fpc_exp_real$EXTENDED$$EXTENDED_$$_HALF>
  4035e8:	d9 f0                	f2xm1  
  4035ea:	d9 c0                	fld    st(0)
  4035ec:	d8 05 3e 06 22 00    	fadd   DWORD PTR [rip+0x22063e]        # 623c30 <TC_$SYSTEM$_$fpc_exp_real$EXTENDED$$EXTENDED_$$_TWO>
  4035f2:	de c9                	fmulp  st(1),st
  4035f4:	eb 02                	jmp    4035f8 <fpc_exp_real+0x68>
  4035f6:	d9 f0                	f2xm1  
  4035f8:	d9 e8                	fld1   
  4035fa:	de c1                	faddp  st(1),st
  4035fc:	d9 fd                	fscale 
  4035fe:	dd d9                	fstp   st(1)
  403600:	c9                   	leave  
  403601:	c3                   	ret    
	...

0000000000403610 <fpc_frac_real>:
  403610:	55                   	push   rbp
  403611:	48 89 e5             	mov    rbp,rsp
  403614:	48 8d 64 24 e0       	lea    rsp,[rsp-0x20]
  403619:	d9 7d ec             	fnstcw WORD PTR [rbp-0x14]
  40361c:	9b                   	fwait
  40361d:	66 8b 4d ec          	mov    cx,WORD PTR [rbp-0x14]
  403621:	66 81 c9 3f 0c       	or     cx,0xc3f
  403626:	66 89 4d e8          	mov    WORD PTR [rbp-0x18],cx
  40362a:	d9 6d e8             	fldcw  WORD PTR [rbp-0x18]
  40362d:	9b db 6d 10          	fld    TBYTE PTR [rbp+0x10]
  403631:	d9 fc                	frndint 
  403633:	db 6d 10             	fld    TBYTE PTR [rbp+0x10]
  403636:	d8 e1                	fsub   st,st(1)
  403638:	dd d9                	fstp   st(1)
  40363a:	db e2                	fnclex 
  40363c:	d9 6d ec             	fldcw  WORD PTR [rbp-0x14]
  40363f:	c9                   	leave  
  403640:	c3                   	ret    
	...

0000000000403650 <fpc_int_real>:
  403650:	55                   	push   rbp
  403651:	48 89 e5             	mov    rbp,rsp
  403654:	48 8d 64 24 e0       	lea    rsp,[rsp-0x20]
  403659:	d9 7d ec             	fnstcw WORD PTR [rbp-0x14]
  40365c:	9b                   	fwait
  40365d:	66 8b 4d ec          	mov    cx,WORD PTR [rbp-0x14]
  403661:	66 81 c9 3f 0c       	or     cx,0xc3f
  403666:	66 89 4d e8          	mov    WORD PTR [rbp-0x18],cx
  40366a:	d9 6d e8             	fldcw  WORD PTR [rbp-0x18]
  40366d:	9b db 6d 10          	fld    TBYTE PTR [rbp+0x10]
  403671:	d9 fc                	frndint 
  403673:	9b d9 6d ec          	fldcw  WORD PTR [rbp-0x14]
  403677:	c9                   	leave  
  403678:	c3                   	ret    
  403679:	00 00                	add    BYTE PTR [rax],al
  40367b:	00 00                	add    BYTE PTR [rax],al
  40367d:	00 00                	add    BYTE PTR [rax],al
	...

0000000000403680 <fpc_trunc_real>:
  403680:	55                   	push   rbp
  403681:	48 89 e5             	mov    rbp,rsp
  403684:	48 8d 64 24 e0       	lea    rsp,[rsp-0x20]
  403689:	d9 7d f4             	fnstcw WORD PTR [rbp-0xc]
  40368c:	9b                   	fwait
  40368d:	66 8b 4d f4          	mov    cx,WORD PTR [rbp-0xc]
  403691:	66 81 c9 3f 0c       	or     cx,0xc3f
  403696:	66 89 4d f0          	mov    WORD PTR [rbp-0x10],cx
  40369a:	d9 6d f0             	fldcw  WORD PTR [rbp-0x10]
  40369d:	db 6d 10             	fld    TBYTE PTR [rbp+0x10]
  4036a0:	df 7d e8             	fistp  QWORD PTR [rbp-0x18]
  4036a3:	9b                   	fwait
  4036a4:	48 8b 45 e8          	mov    rax,QWORD PTR [rbp-0x18]
  4036a8:	d9 6d f4             	fldcw  WORD PTR [rbp-0xc]
  4036ab:	c9                   	leave  
  4036ac:	c3                   	ret    
  4036ad:	00 00                	add    BYTE PTR [rax],al
	...

00000000004036b0 <fpc_round_real>:
  4036b0:	55                   	push   rbp
  4036b1:	48 89 e5             	mov    rbp,rsp
  4036b4:	48 8d 64 24 f0       	lea    rsp,[rsp-0x10]
  4036b9:	db 6d 10             	fld    TBYTE PTR [rbp+0x10]
  4036bc:	df 7d f0             	fistp  QWORD PTR [rbp-0x10]
  4036bf:	9b                   	fwait
  4036c0:	48 8b 45 f0          	mov    rax,QWORD PTR [rbp-0x10]
  4036c4:	c9                   	leave  
  4036c5:	c3                   	ret    
	...

00000000004036d0 <SYSTEM_$$_FLOAT_RAISE$TFPUEXCEPTION>:
  4036d0:	48 8d 64 24 f8       	lea    rsp,[rsp-0x8]
  4036d5:	89 f8                	mov    eax,edi
  4036d7:	bf 00 00 00 00       	mov    edi,0x0
  4036dc:	ba 01 00 00 00       	mov    edx,0x1
  4036e1:	89 c1                	mov    ecx,eax
  4036e3:	81 e1 ff ff ff ff    	and    ecx,0xffffffff
  4036e9:	d3 e2                	shl    edx,cl
  4036eb:	09 d7                	or     edi,edx
  4036ed:	e8 0e 00 00 00       	call   403700 <SYSTEM_$$_FLOAT_RAISE$TFPUEXCEPTIONMASK>
  4036f2:	48 8d 64 24 08       	lea    rsp,[rsp+0x8]
  4036f7:	c3                   	ret    
	...

0000000000403700 <SYSTEM_$$_FLOAT_RAISE$TFPUEXCEPTIONMASK>:
  403700:	53                   	push   rbx
  403701:	41 54                	push   r12
  403703:	48 8d 64 24 f8       	lea    rsp,[rsp-0x8]
  403708:	89 fb                	mov    ebx,edi
  40370a:	48 8d 05 3f 9a 22 00 	lea    rax,[rip+0x229a3f]        # 62d150 <FPC_THREADVAR_RELOCATE>
  403711:	48 8b 00             	mov    rax,QWORD PTR [rax]
  403714:	48 85 c0             	test   rax,rax
  403717:	74 10                	je     403729 <SYSTEM_$$_FLOAT_RAISE$TFPUEXCEPTIONMASK+0x29>
  403719:	48 8d 15 30 8a 22 00 	lea    rdx,[rip+0x228a30]        # 62c150 <U_$SYSTEM_$$_SOFTFLOAT_EXCEPTION_FLAGS>
  403720:	8b 3a                	mov    edi,DWORD PTR [rdx]
  403722:	ff d0                	call   rax
  403724:	49 89 c4             	mov    r12,rax
  403727:	eb 0b                	jmp    403734 <SYSTEM_$$_FLOAT_RAISE$TFPUEXCEPTIONMASK+0x34>
  403729:	4c 8d 25 20 8a 22 00 	lea    r12,[rip+0x228a20]        # 62c150 <U_$SYSTEM_$$_SOFTFLOAT_EXCEPTION_FLAGS>
  403730:	49 83 c4 08          	add    r12,0x8
  403734:	41 8b 04 24          	mov    eax,DWORD PTR [r12]
  403738:	09 d8                	or     eax,ebx
  40373a:	41 89 04 24          	mov    DWORD PTR [r12],eax
  40373e:	48 8d 05 0b 9a 22 00 	lea    rax,[rip+0x229a0b]        # 62d150 <FPC_THREADVAR_RELOCATE>
  403745:	48 8b 00             	mov    rax,QWORD PTR [rax]
  403748:	48 85 c0             	test   rax,rax
  40374b:	74 0d                	je     40375a <SYSTEM_$$_FLOAT_RAISE$TFPUEXCEPTIONMASK+0x5a>
  40374d:	48 8d 15 ec 89 22 00 	lea    rdx,[rip+0x2289ec]        # 62c140 <U_$SYSTEM_$$_SOFTFLOAT_EXCEPTION_MASK>
  403754:	8b 3a                	mov    edi,DWORD PTR [rdx]
  403756:	ff d0                	call   rax
  403758:	eb 0b                	jmp    403765 <SYSTEM_$$_FLOAT_RAISE$TFPUEXCEPTIONMASK+0x65>
  40375a:	48 8d 05 df 89 22 00 	lea    rax,[rip+0x2289df]        # 62c140 <U_$SYSTEM_$$_SOFTFLOAT_EXCEPTION_MASK>
  403761:	48 83 c0 08          	add    rax,0x8
  403765:	8b 18                	mov    ebx,DWORD PTR [rax]
  403767:	f7 d3                	not    ebx
  403769:	41 8b 04 24          	mov    eax,DWORD PTR [r12]
  40376d:	21 d8                	and    eax,ebx
  40376f:	89 c3                	mov    ebx,eax
  403771:	f7 c3 01 00 00 00    	test   ebx,0x1
  403777:	74 0c                	je     403785 <SYSTEM_$$_FLOAT_RAISE$TFPUEXCEPTIONMASK+0x85>
  403779:	bf cf 00 00 00       	mov    edi,0xcf
  40377e:	e8 ad 37 01 00       	call   416f30 <FPC_HANDLEERROR>
  403783:	eb 4e                	jmp    4037d3 <SYSTEM_$$_FLOAT_RAISE$TFPUEXCEPTIONMASK+0xd3>
  403785:	f7 c3 04 00 00 00    	test   ebx,0x4
  40378b:	74 0c                	je     403799 <SYSTEM_$$_FLOAT_RAISE$TFPUEXCEPTIONMASK+0x99>
  40378d:	bf c8 00 00 00       	mov    edi,0xc8
  403792:	e8 99 37 01 00       	call   416f30 <FPC_HANDLEERROR>
  403797:	eb 3a                	jmp    4037d3 <SYSTEM_$$_FLOAT_RAISE$TFPUEXCEPTIONMASK+0xd3>
  403799:	f7 c3 08 00 00 00    	test   ebx,0x8
  40379f:	74 0c                	je     4037ad <SYSTEM_$$_FLOAT_RAISE$TFPUEXCEPTIONMASK+0xad>
  4037a1:	bf cd 00 00 00       	mov    edi,0xcd
  4037a6:	e8 85 37 01 00       	call   416f30 <FPC_HANDLEERROR>
  4037ab:	eb 26                	jmp    4037d3 <SYSTEM_$$_FLOAT_RAISE$TFPUEXCEPTIONMASK+0xd3>
  4037ad:	f7 c3 10 00 00 00    	test   ebx,0x10
  4037b3:	74 0c                	je     4037c1 <SYSTEM_$$_FLOAT_RAISE$TFPUEXCEPTIONMASK+0xc1>
  4037b5:	bf ce 00 00 00       	mov    edi,0xce
  4037ba:	e8 71 37 01 00       	call   416f30 <FPC_HANDLEERROR>
  4037bf:	eb 12                	jmp    4037d3 <SYSTEM_$$_FLOAT_RAISE$TFPUEXCEPTIONMASK+0xd3>
  4037c1:	f7 c3 20 00 00 00    	test   ebx,0x20
  4037c7:	74 0a                	je     4037d3 <SYSTEM_$$_FLOAT_RAISE$TFPUEXCEPTIONMASK+0xd3>
  4037c9:	bf cf 00 00 00       	mov    edi,0xcf
  4037ce:	e8 5d 37 01 00       	call   416f30 <FPC_HANDLEERROR>
  4037d3:	48 8d 64 24 08       	lea    rsp,[rsp+0x8]
  4037d8:	41 5c                	pop    r12
  4037da:	5b                   	pop    rbx
  4037db:	c3                   	ret    
  4037dc:	00 00                	add    BYTE PTR [rax],al
	...

00000000004037e0 <SYSTEM_$$_FPE_HELPER$EXTENDED$$BOOLEAN>:
  4037e0:	55                   	push   rbp
  4037e1:	48 89 e5             	mov    rbp,rsp
  4037e4:	b0 01                	mov    al,0x1
  4037e6:	25 ff 00 00 00       	and    eax,0xff
  4037eb:	c9                   	leave  
  4037ec:	c3                   	ret    
  4037ed:	00 00                	add    BYTE PTR [rax],al
	...

00000000004037f0 <SYSTEM_$$_FLOAT64HIGH$DOUBLE$$LONGINT>:
  4037f0:	48 8d 64 24 f8       	lea    rsp,[rsp-0x8]
  4037f5:	f2 0f 11 04 24       	movsd  QWORD PTR [rsp],xmm0
  4037fa:	8b 44 24 04          	mov    eax,DWORD PTR [rsp+0x4]
  4037fe:	48 8d 64 24 08       	lea    rsp,[rsp+0x8]
  403803:	c3                   	ret    
	...

0000000000403810 <SYSTEM_$$_FLOAT64SETHIGH$DOUBLE$LONGINT>:
  403810:	48 89 f8             	mov    rax,rdi
  403813:	89 70 04             	mov    DWORD PTR [rax+0x4],esi
  403816:	c3                   	ret    
	...

0000000000403820 <SYSTEM_$$_FLOAT64LOW$DOUBLE$$LONGINT>:
  403820:	48 8d 64 24 f8       	lea    rsp,[rsp-0x8]
  403825:	f2 0f 11 04 24       	movsd  QWORD PTR [rsp],xmm0
  40382a:	8b 04 24             	mov    eax,DWORD PTR [rsp]
  40382d:	48 8d 64 24 08       	lea    rsp,[rsp+0x8]
  403832:	c3                   	ret    
	...

0000000000403840 <SYSTEM_$$_FLOAT64SETLOW$DOUBLE$LONGINT>:
  403840:	48 89 f8             	mov    rax,rdi
  403843:	89 30                	mov    DWORD PTR [rax],esi
  403845:	c3                   	ret    
	...

0000000000403850 <SYSTEM_$$_FREXP$REAL$SMALLINT$$REAL>:
  403850:	48 89 f8             	mov    rax,rdi
  403853:	66 c7 00 00 00       	mov    WORD PTR [rax],0x0
  403858:	66 0f 29 c1          	movapd xmm1,xmm0
  40385c:	48 8d 15 8d 03 22 00 	lea    rdx,[rip+0x22038d]        # 623bf0 <FPC_ABSMASK_DOUBLE>
  403863:	66 0f 54 0a          	andpd  xmm1,XMMWORD PTR [rdx]
  403867:	48 8d 15 d2 f4 01 00 	lea    rdx,[rip+0x1f4d2]        # 422d40 <_$SYSTEM$_Ld3>
  40386e:	66 0f 2f 0a          	comisd xmm1,QWORD PTR [rdx]
  403872:	7a 54                	jp     4038c8 <SYSTEM_$$_FREXP$REAL$SMALLINT$$REAL+0x78>
  403874:	73 52                	jae    4038c8 <SYSTEM_$$_FREXP$REAL$SMALLINT$$REAL+0x78>
  403876:	eb 18                	jmp    403890 <SYSTEM_$$_FREXP$REAL$SMALLINT$$REAL+0x40>
  403878:	66 0f 29 c1          	movapd xmm1,xmm0
  40387c:	48 8d 15 cd f4 01 00 	lea    rdx,[rip+0x1f4cd]        # 422d50 <_$SYSTEM$_Ld4>
  403883:	f2 0f 59 0a          	mulsd  xmm1,QWORD PTR [rdx]
  403887:	66 0f 29 c8          	movapd xmm0,xmm1
  40388b:	66 81 28 01 00       	sub    WORD PTR [rax],0x1
  403890:	66 0f 29 c1          	movapd xmm1,xmm0
  403894:	48 8d 15 55 03 22 00 	lea    rdx,[rip+0x220355]        # 623bf0 <FPC_ABSMASK_DOUBLE>
  40389b:	66 0f 54 0a          	andpd  xmm1,XMMWORD PTR [rdx]
  40389f:	48 8d 15 9a f4 01 00 	lea    rdx,[rip+0x1f49a]        # 422d40 <_$SYSTEM$_Ld3>
  4038a6:	66 0f 2f 0a          	comisd xmm1,QWORD PTR [rdx]
  4038aa:	7a 3a                	jp     4038e6 <SYSTEM_$$_FREXP$REAL$SMALLINT$$REAL+0x96>
  4038ac:	72 ca                	jb     403878 <SYSTEM_$$_FREXP$REAL$SMALLINT$$REAL+0x28>
  4038ae:	eb 36                	jmp    4038e6 <SYSTEM_$$_FREXP$REAL$SMALLINT$$REAL+0x96>
  4038b0:	66 0f 29 c1          	movapd xmm1,xmm0
  4038b4:	48 8d 15 85 f4 01 00 	lea    rdx,[rip+0x1f485]        # 422d40 <_$SYSTEM$_Ld3>
  4038bb:	f2 0f 59 0a          	mulsd  xmm1,QWORD PTR [rdx]
  4038bf:	66 0f 29 c8          	movapd xmm0,xmm1
  4038c3:	66 81 00 01 00       	add    WORD PTR [rax],0x1
  4038c8:	66 0f 29 c1          	movapd xmm1,xmm0
  4038cc:	48 8d 15 1d 03 22 00 	lea    rdx,[rip+0x22031d]        # 623bf0 <FPC_ABSMASK_DOUBLE>
  4038d3:	66 0f 54 0a          	andpd  xmm1,XMMWORD PTR [rdx]
  4038d7:	48 8d 15 82 f4 01 00 	lea    rdx,[rip+0x1f482]        # 422d60 <_$SYSTEM$_Ld5>
  4038de:	66 0f 2f 0a          	comisd xmm1,QWORD PTR [rdx]
  4038e2:	7a 02                	jp     4038e6 <SYSTEM_$$_FREXP$REAL$SMALLINT$$REAL+0x96>
  4038e4:	77 ca                	ja     4038b0 <SYSTEM_$$_FREXP$REAL$SMALLINT$$REAL+0x60>
  4038e6:	c3                   	ret    
	...

00000000004038f0 <SYSTEM_$$_LDEXP$REAL$SMALLINT$$REAL>:
  4038f0:	48 8d 64 24 e8       	lea    rsp,[rsp-0x18]
  4038f5:	f2 0f 11 04 24       	movsd  QWORD PTR [rsp],xmm0
  4038fa:	48 8b 04 24          	mov    rax,QWORD PTR [rsp]
  4038fe:	48 89 44 24 08       	mov    QWORD PTR [rsp+0x8],rax
  403903:	8b 44 24 0c          	mov    eax,DWORD PTR [rsp+0xc]
  403907:	25 00 00 f0 7f       	and    eax,0x7ff00000
  40390c:	c1 e8 14             	shr    eax,0x14
  40390f:	66 89 c2             	mov    dx,ax
  403912:	66 81 fa ff 07       	cmp    dx,0x7ff
  403917:	74 19                	je     403932 <SYSTEM_$$_LDEXP$REAL$SMALLINT$$REAL+0x42>
  403919:	66 85 ff             	test   di,di
  40391c:	74 14                	je     403932 <SYSTEM_$$_LDEXP$REAL$SMALLINT$$REAL+0x42>
  40391e:	48 8d 05 4b f4 01 00 	lea    rax,[rip+0x1f44b]        # 422d70 <_$SYSTEM$_Ld6>
  403925:	f2 0f 10 00          	movsd  xmm0,QWORD PTR [rax]
  403929:	66 0f 2f 04 24       	comisd xmm0,QWORD PTR [rsp]
  40392e:	7a 0c                	jp     40393c <SYSTEM_$$_LDEXP$REAL$SMALLINT$$REAL+0x4c>
  403930:	75 0a                	jne    40393c <SYSTEM_$$_LDEXP$REAL$SMALLINT$$REAL+0x4c>
  403932:	f2 0f 10 0c 24       	movsd  xmm1,QWORD PTR [rsp]
  403937:	e9 eb 00 00 00       	jmp    403a27 <SYSTEM_$$_LDEXP$REAL$SMALLINT$$REAL+0x137>
  40393c:	66 85 d2             	test   dx,dx
  40393f:	75 1e                	jne    40395f <SYSTEM_$$_LDEXP$REAL$SMALLINT$$REAL+0x6f>
  403941:	f2 0f 10 04 24       	movsd  xmm0,QWORD PTR [rsp]
  403946:	f2 0f 59 05 02 03 22 	mulsd  xmm0,QWORD PTR [rip+0x220302]        # 623c50 <TC_$SYSTEM_$$_H2_54>
  40394d:	00 
  40394e:	0f bf c7             	movsx  eax,di
  403951:	67 8d 40 ca          	lea    eax,[eax-0x36]
  403955:	f2 0f 11 04 24       	movsd  QWORD PTR [rsp],xmm0
  40395a:	66 89 c7             	mov    di,ax
  40395d:	eb 9b                	jmp    4038fa <SYSTEM_$$_LDEXP$REAL$SMALLINT$$REAL+0xa>
  40395f:	0f bf c7             	movsx  eax,di
  403962:	0f bf ca             	movsx  ecx,dx
  403965:	67 8d 04 08          	lea    eax,[eax+ecx*1]
  403969:	66 89 c7             	mov    di,ax
  40396c:	66 81 ff fe 07       	cmp    di,0x7fe
  403971:	7e 49                	jle    4039bc <SYSTEM_$$_LDEXP$REAL$SMALLINT$$REAL+0xcc>
  403973:	48 8d 05 f6 f3 01 00 	lea    rax,[rip+0x1f3f6]        # 422d70 <_$SYSTEM$_Ld6>
  40397a:	f2 0f 10 00          	movsd  xmm0,QWORD PTR [rax]
  40397e:	66 0f 2f 04 24       	comisd xmm0,QWORD PTR [rsp]
  403983:	7a 1e                	jp     4039a3 <SYSTEM_$$_LDEXP$REAL$SMALLINT$$REAL+0xb3>
  403985:	73 1c                	jae    4039a3 <SYSTEM_$$_LDEXP$REAL$SMALLINT$$REAL+0xb3>
  403987:	48 8d 05 c2 f3 01 00 	lea    rax,[rip+0x1f3c2]        # 422d50 <_$SYSTEM$_Ld4>
  40398e:	f2 0f 10 00          	movsd  xmm0,QWORD PTR [rax]
  403992:	f2 0f 59 05 c6 02 22 	mulsd  xmm0,QWORD PTR [rip+0x2202c6]        # 623c60 <TC_$SYSTEM_$$_HUGE>
  403999:	00 
  40399a:	66 0f 29 c1          	movapd xmm1,xmm0
  40399e:	e9 84 00 00 00       	jmp    403a27 <SYSTEM_$$_LDEXP$REAL$SMALLINT$$REAL+0x137>
  4039a3:	48 8d 05 d6 f3 01 00 	lea    rax,[rip+0x1f3d6]        # 422d80 <_$SYSTEM$_Ld7>
  4039aa:	f2 0f 10 00          	movsd  xmm0,QWORD PTR [rax]
  4039ae:	f2 0f 59 05 aa 02 22 	mulsd  xmm0,QWORD PTR [rip+0x2202aa]        # 623c60 <TC_$SYSTEM_$$_HUGE>
  4039b5:	00 
  4039b6:	66 0f 29 c1          	movapd xmm1,xmm0
  4039ba:	eb 6b                	jmp    403a27 <SYSTEM_$$_LDEXP$REAL$SMALLINT$$REAL+0x137>
  4039bc:	66 81 ff 01 00       	cmp    di,0x1
  4039c1:	7d 4a                	jge    403a0d <SYSTEM_$$_LDEXP$REAL$SMALLINT$$REAL+0x11d>
  4039c3:	66 81 ff cb ff       	cmp    di,0xffcb
  4039c8:	7d 0d                	jge    4039d7 <SYSTEM_$$_LDEXP$REAL$SMALLINT$$REAL+0xe7>
  4039ca:	48 8d 05 9f f3 01 00 	lea    rax,[rip+0x1f39f]        # 422d70 <_$SYSTEM$_Ld6>
  4039d1:	f2 0f 10 08          	movsd  xmm1,QWORD PTR [rax]
  4039d5:	eb 50                	jmp    403a27 <SYSTEM_$$_LDEXP$REAL$SMALLINT$$REAL+0x137>
  4039d7:	66 81 c7 36 00       	add    di,0x36
  4039dc:	48 8b 04 24          	mov    rax,QWORD PTR [rsp]
  4039e0:	48 89 44 24 08       	mov    QWORD PTR [rsp+0x8],rax
  4039e5:	8b 44 24 0c          	mov    eax,DWORD PTR [rsp+0xc]
  4039e9:	25 ff ff 0f 80       	and    eax,0x800fffff
  4039ee:	0f bf cf             	movsx  ecx,di
  4039f1:	c1 e1 14             	shl    ecx,0x14
  4039f4:	09 c1                	or     ecx,eax
  4039f6:	89 4c 24 04          	mov    DWORD PTR [rsp+0x4],ecx
  4039fa:	f2 0f 10 04 24       	movsd  xmm0,QWORD PTR [rsp]
  4039ff:	f2 0f 5e 05 49 02 22 	divsd  xmm0,QWORD PTR [rip+0x220249]        # 623c50 <TC_$SYSTEM_$$_H2_54>
  403a06:	00 
  403a07:	66 0f 29 c1          	movapd xmm1,xmm0
  403a0b:	eb 1a                	jmp    403a27 <SYSTEM_$$_LDEXP$REAL$SMALLINT$$REAL+0x137>
  403a0d:	8b 44 24 04          	mov    eax,DWORD PTR [rsp+0x4]
  403a11:	25 ff ff 0f 80       	and    eax,0x800fffff
  403a16:	0f bf cf             	movsx  ecx,di
  403a19:	c1 e1 14             	shl    ecx,0x14
  403a1c:	09 c1                	or     ecx,eax
  403a1e:	89 4c 24 04          	mov    DWORD PTR [rsp+0x4],ecx
  403a22:	f2 0f 10 0c 24       	movsd  xmm1,QWORD PTR [rsp]
  403a27:	66 0f 29 c8          	movapd xmm0,xmm1
  403a2b:	48 8d 64 24 18       	lea    rsp,[rsp+0x18]
  403a30:	c3                   	ret    
	...

0000000000403a40 <SYSTEM_$$_POLEVL$REAL$PREAL$INT64$$REAL>:
  403a40:	66 0f 29 c1          	movapd xmm1,xmm0
  403a44:	f2 0f 10 07          	movsd  xmm0,QWORD PTR [rdi]
  403a48:	48 b8 01 00 00 00 00 	movabs rax,0x1
  403a4f:	00 00 00 
  403a52:	48 39 c6             	cmp    rsi,rax
  403a55:	7c 23                	jl     403a7a <SYSTEM_$$_POLEVL$REAL$PREAL$INT64$$REAL+0x3a>
  403a57:	48 83 e8 01          	sub    rax,0x1
  403a5b:	66 66 66 90          	data16 data16 xchg ax,ax
  403a5f:	90                   	nop
  403a60:	48 83 c0 01          	add    rax,0x1
  403a64:	66 0f 29 c2          	movapd xmm2,xmm0
  403a68:	f2 0f 59 d1          	mulsd  xmm2,xmm1
  403a6c:	f2 0f 58 14 c7       	addsd  xmm2,QWORD PTR [rdi+rax*8]
  403a71:	66 0f 29 d0          	movapd xmm0,xmm2
  403a75:	48 39 c6             	cmp    rsi,rax
  403a78:	7f e6                	jg     403a60 <SYSTEM_$$_POLEVL$REAL$PREAL$INT64$$REAL+0x20>
  403a7a:	c3                   	ret    
  403a7b:	00 00                	add    BYTE PTR [rax],al
  403a7d:	00 00                	add    BYTE PTR [rax],al
	...

0000000000403a80 <SYSTEM_$$_P1EVL$REAL$PREAL$INT64$$REAL>:
  403a80:	66 0f 29 c1          	movapd xmm1,xmm0
  403a84:	66 0f 29 c8          	movapd xmm0,xmm1
  403a88:	f2 0f 58 07          	addsd  xmm0,QWORD PTR [rdi]
  403a8c:	48 8d 46 ff          	lea    rax,[rsi-0x1]
  403a90:	48 ba 01 00 00 00 00 	movabs rdx,0x1
  403a97:	00 00 00 
  403a9a:	48 39 d0             	cmp    rax,rdx
  403a9d:	7c 23                	jl     403ac2 <SYSTEM_$$_P1EVL$REAL$PREAL$INT64$$REAL+0x42>
  403a9f:	48 83 ea 01          	sub    rdx,0x1
  403aa3:	66 66 66 90          	data16 data16 xchg ax,ax
  403aa7:	90                   	nop
  403aa8:	48 83 c2 01          	add    rdx,0x1
  403aac:	66 0f 29 c2          	movapd xmm2,xmm0
  403ab0:	f2 0f 59 d1          	mulsd  xmm2,xmm1
  403ab4:	f2 0f 58 14 d7       	addsd  xmm2,QWORD PTR [rdi+rdx*8]
  403ab9:	66 0f 29 d0          	movapd xmm0,xmm2
  403abd:	48 39 d0             	cmp    rax,rdx
  403ac0:	7f e6                	jg     403aa8 <SYSTEM_$$_P1EVL$REAL$PREAL$INT64$$REAL+0x28>
  403ac2:	c3                   	ret    
	...

0000000000403ad0 <SYSTEM_$$_FLOORD$DOUBLE$$DOUBLE>:
  403ad0:	48 8d 64 24 d8       	lea    rsp,[rsp-0x28]
  403ad5:	f2 0f 11 44 24 18    	movsd  QWORD PTR [rsp+0x18],xmm0
  403adb:	f2 0f 10 44 24 18    	movsd  xmm0,QWORD PTR [rsp+0x18]
  403ae1:	f2 0f 11 44 24 10    	movsd  QWORD PTR [rsp+0x10],xmm0
  403ae7:	dd 44 24 10          	fld    QWORD PTR [rsp+0x10]
  403aeb:	db 3c 24             	fstp   TBYTE PTR [rsp]
  403aee:	e8 5d fb ff ff       	call   403650 <fpc_int_real>
  403af3:	dd 5c 24 10          	fstp   QWORD PTR [rsp+0x10]
  403af7:	f2 0f 10 4c 24 10    	movsd  xmm1,QWORD PTR [rsp+0x10]
  403afd:	48 8d 05 6c f2 01 00 	lea    rax,[rip+0x1f26c]        # 422d70 <_$SYSTEM$_Ld6>
  403b04:	f2 0f 10 44 24 18    	movsd  xmm0,QWORD PTR [rsp+0x18]
  403b0a:	66 0f 2f 00          	comisd xmm0,QWORD PTR [rax]
  403b0e:	7a 02                	jp     403b12 <SYSTEM_$$_FLOORD$DOUBLE$$DOUBLE+0x42>
  403b10:	73 0a                	jae    403b1c <SYSTEM_$$_FLOORD$DOUBLE$$DOUBLE+0x4c>
  403b12:	66 0f 2f 4c 24 18    	comisd xmm1,QWORD PTR [rsp+0x18]
  403b18:	7a 08                	jp     403b22 <SYSTEM_$$_FLOORD$DOUBLE$$DOUBLE+0x52>
  403b1a:	75 06                	jne    403b22 <SYSTEM_$$_FLOORD$DOUBLE$$DOUBLE+0x52>
  403b1c:	66 0f 29 c8          	movapd xmm0,xmm1
  403b20:	eb 0f                	jmp    403b31 <SYSTEM_$$_FLOORD$DOUBLE$$DOUBLE+0x61>
  403b22:	48 8d 05 37 f2 01 00 	lea    rax,[rip+0x1f237]        # 422d60 <_$SYSTEM$_Ld5>
  403b29:	f2 0f 5c 08          	subsd  xmm1,QWORD PTR [rax]
  403b2d:	66 0f 29 c8          	movapd xmm0,xmm1
  403b31:	48 8d 64 24 28       	lea    rsp,[rsp+0x28]
  403b36:	c3                   	ret    
	...

0000000000403b40 <SYSTEM_$$_K_REM_PIO2$TDA02$TDA02$SMALLINT$SMALLINT$SMALLINT$$INT64>:
  403b40:	53                   	push   rbx
  403b41:	41 54                	push   r12
  403b43:	41 55                	push   r13
  403b45:	41 56                	push   r14
  403b47:	41 57                	push   r15
  403b49:	48 8d a4 24 50 fd ff 	lea    rsp,[rsp-0x2b0]
  403b50:	ff 
  403b51:	48 89 bc 24 68 02 00 	mov    QWORD PTR [rsp+0x268],rdi
  403b58:	00 
  403b59:	48 89 b4 24 a0 02 00 	mov    QWORD PTR [rsp+0x2a0],rsi
  403b60:	00 
  403b61:	66 89 d6             	mov    si,dx
  403b64:	66 44 89 84 24 98 02 	mov    WORD PTR [rsp+0x298],r8w
  403b6b:	00 00 
  403b6d:	66 8b 84 24 98 02 00 	mov    ax,WORD PTR [rsp+0x298]
  403b74:	00 
  403b75:	25 ff ff 00 00       	and    eax,0xffff
  403b7a:	48 8d 15 5f 02 22 00 	lea    rdx,[rip+0x22025f]        # 623de0 <TC_$SYSTEM_$$_INIT_JK>
  403b81:	0f bf 3c 42          	movsx  edi,WORD PTR [rdx+rax*2]
  403b85:	89 f8                	mov    eax,edi
  403b87:	48 89 84 24 90 02 00 	mov    QWORD PTR [rsp+0x290],rax
  403b8e:	00 
  403b8f:	0f bf c9             	movsx  ecx,cx
  403b92:	67 8d 51 ff          	lea    edx,[ecx-0x1]
  403b96:	89 d0                	mov    eax,edx
  403b98:	48 89 84 24 58 02 00 	mov    QWORD PTR [rsp+0x258],rax
  403b9f:	00 
  403ba0:	48 0f bf c6          	movsx  rax,si
  403ba4:	48 8d 48 fd          	lea    rcx,[rax-0x3]
  403ba8:	48 b8 ab aa aa aa aa 	movabs rax,0x2aaaaaaaaaaaaaab
  403baf:	aa aa 2a 
  403bb2:	48 f7 e9             	imul   rcx
  403bb5:	48 c1 fa 02          	sar    rdx,0x2
  403bb9:	48 c1 e9 3f          	shr    rcx,0x3f
  403bbd:	48 01 ca             	add    rdx,rcx
  403bc0:	89 d0                	mov    eax,edx
  403bc2:	48 89 84 24 50 02 00 	mov    QWORD PTR [rsp+0x250],rax
  403bc9:	00 
  403bca:	8b 84 24 50 02 00 00 	mov    eax,DWORD PTR [rsp+0x250]
  403bd1:	83 f8 00             	cmp    eax,0x0
  403bd4:	7d 0d                	jge    403be3 <SYSTEM_$$_K_REM_PIO2$TDA02$TDA02$SMALLINT$SMALLINT$SMALLINT$$INT64+0xa3>
  403bd6:	b8 00 00 00 00       	mov    eax,0x0
  403bdb:	48 89 84 24 50 02 00 	mov    QWORD PTR [rsp+0x250],rax
  403be2:	00 
  403be3:	8b 84 24 50 02 00 00 	mov    eax,DWORD PTR [rsp+0x250]
  403bea:	67 8d 50 01          	lea    edx,[eax+0x1]
  403bee:	6b c2 18             	imul   eax,edx,0x18
  403bf1:	0f bf f6             	movsx  esi,si
  403bf4:	29 c6                	sub    esi,eax
  403bf6:	89 f0                	mov    eax,esi
  403bf8:	48 89 84 24 70 02 00 	mov    QWORD PTR [rsp+0x270],rax
  403bff:	00 
  403c00:	8b 84 24 50 02 00 00 	mov    eax,DWORD PTR [rsp+0x250]
  403c07:	89 c2                	mov    edx,eax
  403c09:	8b 84 24 58 02 00 00 	mov    eax,DWORD PTR [rsp+0x258]
  403c10:	29 c2                	sub    edx,eax
  403c12:	41 89 d7             	mov    r15d,edx
  403c15:	8b 84 24 58 02 00 00 	mov    eax,DWORD PTR [rsp+0x258]
  403c1c:	67 8d 34 38          	lea    esi,[eax+edi*1]
  403c20:	ba 00 00 00 00       	mov    edx,0x0
  403c25:	39 d6                	cmp    esi,edx
  403c27:	7c 51                	jl     403c7a <SYSTEM_$$_K_REM_PIO2$TDA02$TDA02$SMALLINT$SMALLINT$SMALLINT$$INT64+0x13a>
  403c29:	83 ea 01             	sub    edx,0x1
  403c2c:	66 66 66 90          	data16 data16 xchg ax,ax
  403c30:	83 c2 01             	add    edx,0x1
  403c33:	41 83 ff 00          	cmp    r15d,0x0
  403c37:	7d 18                	jge    403c51 <SYSTEM_$$_K_REM_PIO2$TDA02$TDA02$SMALLINT$SMALLINT$SMALLINT$$INT64+0x111>
  403c39:	89 d0                	mov    eax,edx
  403c3b:	25 ff ff ff ff       	and    eax,0xffffffff
  403c40:	48 8d 0d 29 f1 01 00 	lea    rcx,[rip+0x1f129]        # 422d70 <_$SYSTEM$_Ld6>
  403c47:	48 8b 09             	mov    rcx,QWORD PTR [rcx]
  403c4a:	48 89 4c c4 50       	mov    QWORD PTR [rsp+rax*8+0x50],rcx
  403c4f:	eb 21                	jmp    403c72 <SYSTEM_$$_K_REM_PIO2$TDA02$TDA02$SMALLINT$SMALLINT$SMALLINT$$INT64+0x132>
  403c51:	44 89 f8             	mov    eax,r15d
  403c54:	25 ff ff ff ff       	and    eax,0xffffffff
  403c59:	48 8d 0d 70 00 22 00 	lea    rcx,[rip+0x220070]        # 623cd0 <TC_$SYSTEM_$$_IPIO2>
  403c60:	f2 0f 2a 04 81       	cvtsi2sd xmm0,DWORD PTR [rcx+rax*4]
  403c65:	89 d0                	mov    eax,edx
  403c67:	25 ff ff ff ff       	and    eax,0xffffffff
  403c6c:	f2 0f 11 44 c4 50    	movsd  QWORD PTR [rsp+rax*8+0x50],xmm0
  403c72:	41 83 c7 01          	add    r15d,0x1
  403c76:	39 d6                	cmp    esi,edx
  403c78:	7f b6                	jg     403c30 <SYSTEM_$$_K_REM_PIO2$TDA02$TDA02$SMALLINT$SMALLINT$SMALLINT$$INT64+0xf0>
  403c7a:	89 f9                	mov    ecx,edi
  403c7c:	89 ce                	mov    esi,ecx
  403c7e:	41 be 00 00 00 00    	mov    r14d,0x0
  403c84:	44 39 f6             	cmp    esi,r14d
  403c87:	0f 8c ad 00 00 00    	jl     403d3a <SYSTEM_$$_K_REM_PIO2$TDA02$TDA02$SMALLINT$SMALLINT$SMALLINT$$INT64+0x1fa>
  403c8d:	41 83 ee 01          	sub    r14d,0x1
  403c91:	66 66 66 90          	data16 data16 xchg ax,ax
  403c95:	66 66 90             	data16 xchg ax,ax
  403c98:	41 83 c6 01          	add    r14d,0x1
  403c9c:	48 8d 05 cd f0 01 00 	lea    rax,[rip+0x1f0cd]        # 422d70 <_$SYSTEM$_Ld6>
  403ca3:	f2 0f 10 00          	movsd  xmm0,QWORD PTR [rax]
  403ca7:	f2 0f 11 84 24 48 02 	movsd  QWORD PTR [rsp+0x248],xmm0
  403cae:	00 00 
  403cb0:	8b 84 24 58 02 00 00 	mov    eax,DWORD PTR [rsp+0x258]
  403cb7:	89 c7                	mov    edi,eax
  403cb9:	41 bf 00 00 00 00    	mov    r15d,0x0
  403cbf:	44 39 ff             	cmp    edi,r15d
  403cc2:	7c 53                	jl     403d17 <SYSTEM_$$_K_REM_PIO2$TDA02$TDA02$SMALLINT$SMALLINT$SMALLINT$$INT64+0x1d7>
  403cc4:	41 83 ef 01          	sub    r15d,0x1
  403cc8:	41 83 c7 01          	add    r15d,0x1
  403ccc:	48 63 84 24 58 02 00 	movsxd rax,DWORD PTR [rsp+0x258]
  403cd3:	00 
  403cd4:	49 63 d6             	movsxd rdx,r14d
  403cd7:	48 8d 04 10          	lea    rax,[rax+rdx*1]
  403cdb:	49 63 d7             	movsxd rdx,r15d
  403cde:	49 89 c0             	mov    r8,rax
  403ce1:	49 29 d0             	sub    r8,rdx
  403ce4:	44 89 f8             	mov    eax,r15d
  403ce7:	25 ff ff ff ff       	and    eax,0xffffffff
  403cec:	48 8b 94 24 68 02 00 	mov    rdx,QWORD PTR [rsp+0x268]
  403cf3:	00 
  403cf4:	f2 0f 10 04 c2       	movsd  xmm0,QWORD PTR [rdx+rax*8]
  403cf9:	f2 42 0f 59 44 c4 50 	mulsd  xmm0,QWORD PTR [rsp+r8*8+0x50]
  403d00:	f2 0f 58 84 24 48 02 	addsd  xmm0,QWORD PTR [rsp+0x248]
  403d07:	00 00 
  403d09:	f2 0f 11 84 24 48 02 	movsd  QWORD PTR [rsp+0x248],xmm0
  403d10:	00 00 
  403d12:	44 39 ff             	cmp    edi,r15d
  403d15:	7f b1                	jg     403cc8 <SYSTEM_$$_K_REM_PIO2$TDA02$TDA02$SMALLINT$SMALLINT$SMALLINT$$INT64+0x188>
  403d17:	44 89 f0             	mov    eax,r14d
  403d1a:	25 ff ff ff ff       	and    eax,0xffffffff
  403d1f:	f2 0f 10 84 24 48 02 	movsd  xmm0,QWORD PTR [rsp+0x248]
  403d26:	00 00 
  403d28:	f2 0f 11 84 c4 90 01 	movsd  QWORD PTR [rsp+rax*8+0x190],xmm0
  403d2f:	00 00 
  403d31:	44 39 f6             	cmp    esi,r14d
  403d34:	0f 8f 5e ff ff ff    	jg     403c98 <SYSTEM_$$_K_REM_PIO2$TDA02$TDA02$SMALLINT$SMALLINT$SMALLINT$$INT64+0x158>
  403d3a:	41 89 cd             	mov    r13d,ecx
  403d3d:	44 89 e8             	mov    eax,r13d
  403d40:	48 89 84 24 78 02 00 	mov    QWORD PTR [rsp+0x278],rax
  403d47:	00 
  403d48:	41 be 00 00 00 00    	mov    r14d,0x0
  403d4e:	8b 94 24 78 02 00 00 	mov    edx,DWORD PTR [rsp+0x278]
  403d55:	89 d0                	mov    eax,edx
  403d57:	25 ff ff ff ff       	and    eax,0xffffffff
  403d5c:	f2 0f 10 84 c4 90 01 	movsd  xmm0,QWORD PTR [rsp+rax*8+0x190]
  403d63:	00 00 
  403d65:	f2 0f 11 84 24 40 02 	movsd  QWORD PTR [rsp+0x240],xmm0
  403d6c:	00 00 
  403d6e:	8b 84 24 78 02 00 00 	mov    eax,DWORD PTR [rsp+0x278]
  403d75:	41 89 c7             	mov    r15d,eax
  403d78:	41 83 ff 01          	cmp    r15d,0x1
  403d7c:	0f 8c 09 01 00 00    	jl     403e8b <SYSTEM_$$_K_REM_PIO2$TDA02$TDA02$SMALLINT$SMALLINT$SMALLINT$$INT64+0x34b>
  403d82:	41 83 c7 01          	add    r15d,0x1
  403d86:	66 90                	xchg   ax,ax
  403d88:	41 83 ef 01          	sub    r15d,0x1
  403d8c:	d9 bc 24 34 02 00 00 	fnstcw WORD PTR [rsp+0x234]
  403d93:	d9 bc 24 30 02 00 00 	fnstcw WORD PTR [rsp+0x230]
  403d9a:	66 81 8c 24 34 02 00 	or     WORD PTR [rsp+0x234],0xf00
  403da1:	00 00 0f 
  403da4:	f2 0f 10 05 54 00 22 	movsd  xmm0,QWORD PTR [rip+0x220054]        # 623e00 <TC_$SYSTEM_$$_TWON24>
  403dab:	00 
  403dac:	f2 0f 59 84 24 40 02 	mulsd  xmm0,QWORD PTR [rsp+0x240]
  403db3:	00 00 
  403db5:	f2 0f 11 84 24 38 02 	movsd  QWORD PTR [rsp+0x238],xmm0
  403dbc:	00 00 
  403dbe:	dd 84 24 38 02 00 00 	fld    QWORD PTR [rsp+0x238]
  403dc5:	d9 ac 24 34 02 00 00 	fldcw  WORD PTR [rsp+0x234]
  403dcc:	df bc 24 38 02 00 00 	fistp  QWORD PTR [rsp+0x238]
  403dd3:	d9 ac 24 30 02 00 00 	fldcw  WORD PTR [rsp+0x230]
  403dda:	9b                   	fwait
  403ddb:	f2 48 0f 2a 84 24 38 	cvtsi2sd xmm0,QWORD PTR [rsp+0x238]
  403de2:	02 00 00 
  403de5:	f2 0f 11 84 24 48 02 	movsd  QWORD PTR [rsp+0x248],xmm0
  403dec:	00 00 
  403dee:	d9 bc 24 34 02 00 00 	fnstcw WORD PTR [rsp+0x234]
  403df5:	d9 bc 24 30 02 00 00 	fnstcw WORD PTR [rsp+0x230]
  403dfc:	66 81 8c 24 34 02 00 	or     WORD PTR [rsp+0x234],0xf00
  403e03:	00 00 0f 
  403e06:	f2 0f 10 05 e2 ff 21 	movsd  xmm0,QWORD PTR [rip+0x21ffe2]        # 623df0 <TC_$SYSTEM_$$_TWO24>
  403e0d:	00 
  403e0e:	f2 0f 59 84 24 48 02 	mulsd  xmm0,QWORD PTR [rsp+0x248]
  403e15:	00 00 
  403e17:	f2 0f 10 8c 24 40 02 	movsd  xmm1,QWORD PTR [rsp+0x240]
  403e1e:	00 00 
  403e20:	f2 0f 5c c8          	subsd  xmm1,xmm0
  403e24:	f2 0f 11 8c 24 38 02 	movsd  QWORD PTR [rsp+0x238],xmm1
  403e2b:	00 00 
  403e2d:	dd 84 24 38 02 00 00 	fld    QWORD PTR [rsp+0x238]
  403e34:	d9 ac 24 34 02 00 00 	fldcw  WORD PTR [rsp+0x234]
  403e3b:	df bc 24 38 02 00 00 	fistp  QWORD PTR [rsp+0x238]
  403e42:	d9 ac 24 30 02 00 00 	fldcw  WORD PTR [rsp+0x230]
  403e49:	9b                   	fwait
  403e4a:	44 89 f0             	mov    eax,r14d
  403e4d:	89 c2                	mov    edx,eax
  403e4f:	81 e2 ff ff ff ff    	and    edx,0xffffffff
  403e55:	8b 84 24 38 02 00 00 	mov    eax,DWORD PTR [rsp+0x238]
  403e5c:	89 04 94             	mov    DWORD PTR [rsp+rdx*4],eax
  403e5f:	49 63 c7             	movsxd rax,r15d
  403e62:	f2 0f 10 84 c4 88 01 	movsd  xmm0,QWORD PTR [rsp+rax*8+0x188]
  403e69:	00 00 
  403e6b:	f2 0f 58 84 24 48 02 	addsd  xmm0,QWORD PTR [rsp+0x248]
  403e72:	00 00 
  403e74:	f2 0f 11 84 24 40 02 	movsd  QWORD PTR [rsp+0x240],xmm0
  403e7b:	00 00 
  403e7d:	41 83 c6 01          	add    r14d,0x1
  403e81:	41 83 ff 01          	cmp    r15d,0x1
  403e85:	0f 8f fd fe ff ff    	jg     403d88 <SYSTEM_$$_K_REM_PIO2$TDA02$TDA02$SMALLINT$SMALLINT$SMALLINT$$INT64+0x248>
  403e8b:	66 8b bc 24 70 02 00 	mov    di,WORD PTR [rsp+0x270]
  403e92:	00 
  403e93:	0f bf ff             	movsx  edi,di
  403e96:	f2 0f 10 84 24 40 02 	movsd  xmm0,QWORD PTR [rsp+0x240]
  403e9d:	00 00 
  403e9f:	e8 4c fa ff ff       	call   4038f0 <SYSTEM_$$_LDEXP$REAL$SMALLINT$$REAL>
  403ea4:	f2 0f 11 84 24 40 02 	movsd  QWORD PTR [rsp+0x240],xmm0
  403eab:	00 00 
  403ead:	f2 0f 10 84 24 40 02 	movsd  xmm0,QWORD PTR [rsp+0x240]
  403eb4:	00 00 
  403eb6:	48 8d 05 e3 ee 01 00 	lea    rax,[rip+0x1eee3]        # 422da0 <_$SYSTEM$_Ld9>
  403ebd:	f2 0f 59 00          	mulsd  xmm0,QWORD PTR [rax]
  403ec1:	e8 0a fc ff ff       	call   403ad0 <SYSTEM_$$_FLOORD$DOUBLE$$DOUBLE>
  403ec6:	48 8d 05 c3 ee 01 00 	lea    rax,[rip+0x1eec3]        # 422d90 <_$SYSTEM$_Ld8>
  403ecd:	f2 0f 59 00          	mulsd  xmm0,QWORD PTR [rax]
  403ed1:	f2 0f 10 8c 24 40 02 	movsd  xmm1,QWORD PTR [rsp+0x240]
  403ed8:	00 00 
  403eda:	f2 0f 5c c8          	subsd  xmm1,xmm0
  403ede:	f2 0f 11 8c 24 40 02 	movsd  QWORD PTR [rsp+0x240],xmm1
  403ee5:	00 00 
  403ee7:	d9 bc 24 34 02 00 00 	fnstcw WORD PTR [rsp+0x234]
  403eee:	d9 bc 24 30 02 00 00 	fnstcw WORD PTR [rsp+0x230]
  403ef5:	66 81 8c 24 34 02 00 	or     WORD PTR [rsp+0x234],0xf00
  403efc:	00 00 0f 
  403eff:	f2 0f 10 84 24 40 02 	movsd  xmm0,QWORD PTR [rsp+0x240]
  403f06:	00 00 
  403f08:	f2 0f 11 84 24 38 02 	movsd  QWORD PTR [rsp+0x238],xmm0
  403f0f:	00 00 
  403f11:	dd 84 24 38 02 00 00 	fld    QWORD PTR [rsp+0x238]
  403f18:	d9 ac 24 34 02 00 00 	fldcw  WORD PTR [rsp+0x234]
  403f1f:	df bc 24 38 02 00 00 	fistp  QWORD PTR [rsp+0x238]
  403f26:	d9 ac 24 30 02 00 00 	fldcw  WORD PTR [rsp+0x230]
  403f2d:	9b                   	fwait
  403f2e:	8b 84 24 38 02 00 00 	mov    eax,DWORD PTR [rsp+0x238]
  403f35:	48 89 84 24 88 02 00 	mov    QWORD PTR [rsp+0x288],rax
  403f3c:	00 
  403f3d:	8b 84 24 88 02 00 00 	mov    eax,DWORD PTR [rsp+0x288]
  403f44:	f2 0f 2a c0          	cvtsi2sd xmm0,eax
  403f48:	f2 0f 10 8c 24 40 02 	movsd  xmm1,QWORD PTR [rsp+0x240]
  403f4f:	00 00 
  403f51:	f2 0f 5c c8          	subsd  xmm1,xmm0
  403f55:	f2 0f 11 8c 24 40 02 	movsd  QWORD PTR [rsp+0x240],xmm1
  403f5c:	00 00 
  403f5e:	b8 00 00 00 00       	mov    eax,0x0
  403f63:	48 89 84 24 80 02 00 	mov    QWORD PTR [rsp+0x280],rax
  403f6a:	00 
  403f6b:	8b 84 24 70 02 00 00 	mov    eax,DWORD PTR [rsp+0x270]
  403f72:	83 f8 00             	cmp    eax,0x0
  403f75:	0f 8e 9e 00 00 00    	jle    404019 <SYSTEM_$$_K_REM_PIO2$TDA02$TDA02$SMALLINT$SMALLINT$SMALLINT$$INT64+0x4d9>
  403f7b:	48 63 b4 24 78 02 00 	movsxd rsi,DWORD PTR [rsp+0x278]
  403f82:	00 
  403f83:	48 63 94 24 70 02 00 	movsxd rdx,DWORD PTR [rsp+0x270]
  403f8a:	00 
  403f8b:	48 b8 18 00 00 00 00 	movabs rax,0x18
  403f92:	00 00 00 
  403f95:	48 89 c1             	mov    rcx,rax
  403f98:	48 29 d1             	sub    rcx,rdx
  403f9b:	8b 44 b4 fc          	mov    eax,DWORD PTR [rsp+rsi*4-0x4]
  403f9f:	48 63 c9             	movsxd rcx,ecx
  403fa2:	d3 e8                	shr    eax,cl
  403fa4:	89 c3                	mov    ebx,eax
  403fa6:	8b 84 24 88 02 00 00 	mov    eax,DWORD PTR [rsp+0x288]
  403fad:	01 d8                	add    eax,ebx
  403faf:	48 89 84 24 88 02 00 	mov    QWORD PTR [rsp+0x288],rax
  403fb6:	00 
  403fb7:	48 63 94 24 70 02 00 	movsxd rdx,DWORD PTR [rsp+0x270]
  403fbe:	00 
  403fbf:	48 b8 18 00 00 00 00 	movabs rax,0x18
  403fc6:	00 00 00 
  403fc9:	48 89 c1             	mov    rcx,rax
  403fcc:	48 29 d1             	sub    rcx,rdx
  403fcf:	89 d8                	mov    eax,ebx
  403fd1:	48 63 c9             	movsxd rcx,ecx
  403fd4:	d3 e0                	shl    eax,cl
  403fd6:	48 63 94 24 78 02 00 	movsxd rdx,DWORD PTR [rsp+0x278]
  403fdd:	00 
  403fde:	29 44 94 fc          	sub    DWORD PTR [rsp+rdx*4-0x4],eax
  403fe2:	48 63 b4 24 78 02 00 	movsxd rsi,DWORD PTR [rsp+0x278]
  403fe9:	00 
  403fea:	48 63 94 24 70 02 00 	movsxd rdx,DWORD PTR [rsp+0x270]
  403ff1:	00 
  403ff2:	48 b8 17 00 00 00 00 	movabs rax,0x17
  403ff9:	00 00 00 
  403ffc:	48 89 c1             	mov    rcx,rax
  403fff:	48 29 d1             	sub    rcx,rdx
  404002:	8b 44 b4 fc          	mov    eax,DWORD PTR [rsp+rsi*4-0x4]
  404006:	89 c2                	mov    edx,eax
  404008:	48 63 c9             	movsxd rcx,ecx
  40400b:	d3 ea                	shr    edx,cl
  40400d:	89 d0                	mov    eax,edx
  40400f:	48 89 84 24 80 02 00 	mov    QWORD PTR [rsp+0x280],rax
  404016:	00 
  404017:	eb 4b                	jmp    404064 <SYSTEM_$$_K_REM_PIO2$TDA02$TDA02$SMALLINT$SMALLINT$SMALLINT$$INT64+0x524>
  404019:	8b 84 24 70 02 00 00 	mov    eax,DWORD PTR [rsp+0x270]
  404020:	85 c0                	test   eax,eax
  404022:	75 1b                	jne    40403f <SYSTEM_$$_K_REM_PIO2$TDA02$TDA02$SMALLINT$SMALLINT$SMALLINT$$INT64+0x4ff>
  404024:	48 63 84 24 78 02 00 	movsxd rax,DWORD PTR [rsp+0x278]
  40402b:	00 
  40402c:	8b 44 84 fc          	mov    eax,DWORD PTR [rsp+rax*4-0x4]
  404030:	c1 e8 17             	shr    eax,0x17
  404033:	89 c2                	mov    edx,eax
  404035:	48 89 94 24 80 02 00 	mov    QWORD PTR [rsp+0x280],rdx
  40403c:	00 
  40403d:	eb 25                	jmp    404064 <SYSTEM_$$_K_REM_PIO2$TDA02$TDA02$SMALLINT$SMALLINT$SMALLINT$$INT64+0x524>
  40403f:	48 8d 05 fa ec 01 00 	lea    rax,[rip+0x1ecfa]        # 422d40 <_$SYSTEM$_Ld3>
  404046:	f2 0f 10 84 24 40 02 	movsd  xmm0,QWORD PTR [rsp+0x240]
  40404d:	00 00 
  40404f:	66 0f 2f 00          	comisd xmm0,QWORD PTR [rax]
  404053:	7a 0f                	jp     404064 <SYSTEM_$$_K_REM_PIO2$TDA02$TDA02$SMALLINT$SMALLINT$SMALLINT$$INT64+0x524>
  404055:	72 0d                	jb     404064 <SYSTEM_$$_K_REM_PIO2$TDA02$TDA02$SMALLINT$SMALLINT$SMALLINT$$INT64+0x524>
  404057:	b8 02 00 00 00       	mov    eax,0x2
  40405c:	48 89 84 24 80 02 00 	mov    QWORD PTR [rsp+0x280],rax
  404063:	00 
  404064:	8b 84 24 80 02 00 00 	mov    eax,DWORD PTR [rsp+0x280]
  40406b:	83 f8 00             	cmp    eax,0x0
  40406e:	0f 8e 3e 01 00 00    	jle    4041b2 <SYSTEM_$$_K_REM_PIO2$TDA02$TDA02$SMALLINT$SMALLINT$SMALLINT$$INT64+0x672>
  404074:	8b 84 24 88 02 00 00 	mov    eax,DWORD PTR [rsp+0x288]
  40407b:	83 c0 01             	add    eax,0x1
  40407e:	48 89 84 24 88 02 00 	mov    QWORD PTR [rsp+0x288],rax
  404085:	00 
  404086:	41 bc 00 00 00 00    	mov    r12d,0x0
  40408c:	8b 94 24 78 02 00 00 	mov    edx,DWORD PTR [rsp+0x278]
  404093:	67 8d 42 ff          	lea    eax,[edx-0x1]
  404097:	89 c2                	mov    edx,eax
  404099:	41 be 00 00 00 00    	mov    r14d,0x0
  40409f:	44 39 f2             	cmp    edx,r14d
  4040a2:	7c 53                	jl     4040f7 <SYSTEM_$$_K_REM_PIO2$TDA02$TDA02$SMALLINT$SMALLINT$SMALLINT$$INT64+0x5b7>
  4040a4:	41 83 ee 01          	sub    r14d,0x1
