
if_then_Fortran_i386:     file format elf32-i386
if_then_Fortran_i386
architecture: i386, flags 0x00000150:
HAS_SYMS, DYNAMIC, D_PAGED
start address 0x00000600

Program Header:
    PHDR off    0x00000034 vaddr 0x00000034 paddr 0x00000034 align 2**2
         filesz 0x00000120 memsz 0x00000120 flags r--
  INTERP off    0x00000154 vaddr 0x00000154 paddr 0x00000154 align 2**0
         filesz 0x00000013 memsz 0x00000013 flags r--
    LOAD off    0x00000000 vaddr 0x00000000 paddr 0x00000000 align 2**12
         filesz 0x00000b24 memsz 0x00000b24 flags r-x
    LOAD off    0x00000eb4 vaddr 0x00001eb4 paddr 0x00001eb4 align 2**12
         filesz 0x00000154 memsz 0x00000158 flags rw-
 DYNAMIC off    0x00000ebc vaddr 0x00001ebc paddr 0x00001ebc align 2**2
         filesz 0x00000100 memsz 0x00000100 flags rw-
    NOTE off    0x00000168 vaddr 0x00000168 paddr 0x00000168 align 2**2
         filesz 0x00000044 memsz 0x00000044 flags r--
EH_FRAME off    0x000009dc vaddr 0x000009dc paddr 0x000009dc align 2**2
         filesz 0x0000003c memsz 0x0000003c flags r--
   STACK off    0x00000000 vaddr 0x00000000 paddr 0x00000000 align 2**4
         filesz 0x00000000 memsz 0x00000000 flags rw-
   RELRO off    0x00000eb4 vaddr 0x00001eb4 paddr 0x00001eb4 align 2**0
         filesz 0x0000014c memsz 0x0000014c flags r--

Dynamic Section:
  NEEDED               libgfortran.so.4
  NEEDED               libc.so.6
  INIT                 0x00000520
  FINI                 0x00000954
  INIT_ARRAY           0x00001eb4
  INIT_ARRAYSZ         0x00000004
  FINI_ARRAY           0x00001eb8
  FINI_ARRAYSZ         0x00000004
  GNU_HASH             0x000001ac
  STRTAB               0x000002bc
  SYMTAB               0x000001cc
  STRSZ                0x0000016d
  SYMENT               0x00000010
  DEBUG                0x00000000
  PLTGOT               0x00001fbc
  PLTRELSZ             0x00000048
  PLTREL               0x00000011
  JMPREL               0x000004d8
  REL                  0x00000498
  RELSZ                0x00000040
  RELENT               0x00000008
  FLAGS                0x00000008
  FLAGS_1              0x08000001
  VERNEED              0x00000448
  VERNEEDNUM           0x00000002
  VERSYM               0x0000042a
  RELCOUNT             0x00000004

Version References:
  required from libc.so.6:
    0x09691f73 0x00 04 GLIBC_2.1.3
    0x0d696910 0x00 03 GLIBC_2.0
  required from libgfortran.so.4:
    0x0792f967 0x00 02 GFORTRAN_7

Sections:
Idx Name          Size      VMA       LMA       File off  Algn
  0 .interp       00000013  00000154  00000154  00000154  2**0
                  CONTENTS, ALLOC, LOAD, READONLY, DATA
  1 .note.ABI-tag 00000020  00000168  00000168  00000168  2**2
                  CONTENTS, ALLOC, LOAD, READONLY, DATA
  2 .note.gnu.build-id 00000024  00000188  00000188  00000188  2**2
                  CONTENTS, ALLOC, LOAD, READONLY, DATA
  3 .gnu.hash     00000020  000001ac  000001ac  000001ac  2**2
                  CONTENTS, ALLOC, LOAD, READONLY, DATA
  4 .dynsym       000000f0  000001cc  000001cc  000001cc  2**2
                  CONTENTS, ALLOC, LOAD, READONLY, DATA
  5 .dynstr       0000016d  000002bc  000002bc  000002bc  2**0
                  CONTENTS, ALLOC, LOAD, READONLY, DATA
  6 .gnu.version  0000001e  0000042a  0000042a  0000042a  2**1
                  CONTENTS, ALLOC, LOAD, READONLY, DATA
  7 .gnu.version_r 00000050  00000448  00000448  00000448  2**2
                  CONTENTS, ALLOC, LOAD, READONLY, DATA
  8 .rel.dyn      00000040  00000498  00000498  00000498  2**2
                  CONTENTS, ALLOC, LOAD, READONLY, DATA
  9 .rel.plt      00000048  000004d8  000004d8  000004d8  2**2
                  CONTENTS, ALLOC, LOAD, READONLY, DATA
 10 .init         00000023  00000520  00000520  00000520  2**2
                  CONTENTS, ALLOC, LOAD, READONLY, CODE
 11 .plt          000000a0  00000550  00000550  00000550  2**4
                  CONTENTS, ALLOC, LOAD, READONLY, CODE
 12 .plt.got      00000010  000005f0  000005f0  000005f0  2**3
                  CONTENTS, ALLOC, LOAD, READONLY, CODE
 13 .text         00000352  00000600  00000600  00000600  2**4
                  CONTENTS, ALLOC, LOAD, READONLY, CODE
 14 .fini         00000014  00000954  00000954  00000954  2**2
                  CONTENTS, ALLOC, LOAD, READONLY, CODE
 15 .rodata       00000074  00000968  00000968  00000968  2**2
                  CONTENTS, ALLOC, LOAD, READONLY, DATA
 16 .eh_frame_hdr 0000003c  000009dc  000009dc  000009dc  2**2
                  CONTENTS, ALLOC, LOAD, READONLY, DATA
 17 .eh_frame     0000010c  00000a18  00000a18  00000a18  2**2
                  CONTENTS, ALLOC, LOAD, READONLY, DATA
 18 .init_array   00000004  00001eb4  00001eb4  00000eb4  2**2
                  CONTENTS, ALLOC, LOAD, DATA
 19 .fini_array   00000004  00001eb8  00001eb8  00000eb8  2**2
                  CONTENTS, ALLOC, LOAD, DATA
 20 .dynamic      00000100  00001ebc  00001ebc  00000ebc  2**2
                  CONTENTS, ALLOC, LOAD, DATA
 21 .got          00000044  00001fbc  00001fbc  00000fbc  2**2
                  CONTENTS, ALLOC, LOAD, DATA
 22 .data         00000008  00002000  00002000  00001000  2**2
                  CONTENTS, ALLOC, LOAD, DATA
 23 .bss          00000004  00002008  00002008  00001008  2**0
                  ALLOC
 24 .comment      0000002a  00000000  00000000  00001008  2**0
                  CONTENTS, READONLY
SYMBOL TABLE:
00000154 l    d  .interp	00000000              .interp
00000168 l    d  .note.ABI-tag	00000000              .note.ABI-tag
00000188 l    d  .note.gnu.build-id	00000000              .note.gnu.build-id
000001ac l    d  .gnu.hash	00000000              .gnu.hash
000001cc l    d  .dynsym	00000000              .dynsym
000002bc l    d  .dynstr	00000000              .dynstr
0000042a l    d  .gnu.version	00000000              .gnu.version
00000448 l    d  .gnu.version_r	00000000              .gnu.version_r
00000498 l    d  .rel.dyn	00000000              .rel.dyn
000004d8 l    d  .rel.plt	00000000              .rel.plt
00000520 l    d  .init	00000000              .init
00000550 l    d  .plt	00000000              .plt
000005f0 l    d  .plt.got	00000000              .plt.got
00000600 l    d  .text	00000000              .text
00000954 l    d  .fini	00000000              .fini
00000968 l    d  .rodata	00000000              .rodata
000009dc l    d  .eh_frame_hdr	00000000              .eh_frame_hdr
00000a18 l    d  .eh_frame	00000000              .eh_frame
00001eb4 l    d  .init_array	00000000              .init_array
00001eb8 l    d  .fini_array	00000000              .fini_array
00001ebc l    d  .dynamic	00000000              .dynamic
00001fbc l    d  .got	00000000              .got
00002000 l    d  .data	00000000              .data
00002008 l    d  .bss	00000000              .bss
00000000 l    d  .comment	00000000              .comment
00000000 l    df *ABS*	00000000              crtstuff.c
00000650 l     F .text	00000000              deregister_tm_clones
00000690 l     F .text	00000000              register_tm_clones
000006e0 l     F .text	00000000              __do_global_dtors_aux
00002008 l     O .bss	00000001              completed.7281
00001eb8 l     O .fini_array	00000000              __do_global_dtors_aux_fini_array_entry
00000730 l     F .text	00000000              frame_dummy
00001eb4 l     O .init_array	00000000              __frame_dummy_init_array_entry
00000000 l    df *ABS*	00000000              if_then.f08
0000073d l     F .text	0000015b              MAIN__
000009c0 l     O .rodata	0000001c              options.3.3426
00000000 l    df *ABS*	00000000              crtstuff.c
00000b20 l     O .eh_frame	00000000              __FRAME_END__
00000000 l    df *ABS*	00000000              
000009dc l       .eh_frame_hdr	00000000              __GNU_EH_FRAME_HDR
00001fbc l     O .got	00000000              _GLOBAL_OFFSET_TABLE_
00001eb8 l       .init_array	00000000              __init_array_end
00001eb4 l       .init_array	00000000              __init_array_start
00001ebc l     O .dynamic	00000000              _DYNAMIC
00002000  w      .data	00000000              data_start
00000950 g     F .text	00000002              __libc_csu_fini
00000000       F *UND*	00000000              _gfortran_set_args@@GFORTRAN_7
00000600 g     F .text	00000000              _start
00000739 g     F .text	00000000              .hidden __x86.get_pc_thunk.dx
00000000  w      *UND*	00000000              __gmon_start__
00000968 g     O .rodata	00000004              _fp_hw
00000000       F *UND*	00000000              _gfortran_st_write@@GFORTRAN_7
00000954 g     F .fini	00000000              _fini
00000000       F *UND*	00000000              __libc_start_main@@GLIBC_2.0
00000000  w      *UND*	00000000              _ITM_deregisterTMCloneTable
0000096c g     O .rodata	00000004              _IO_stdin_used
00000000  w      *UND*	00000000              _ITM_registerTMCloneTable
00002000 g       .data	00000000              __data_start
00000000       F *UND*	00000000              _gfortran_st_write_done@@GFORTRAN_7
00000640 g     F .text	00000004              .hidden __x86.get_pc_thunk.bx
00002008 g     O .data	00000000              .hidden __TMC_END__
00002004 g     O .data	00000000              .hidden __dso_handle
00000000       F *UND*	00000000              _gfortran_set_options@@GFORTRAN_7
000008f0 g     F .text	0000005d              __libc_csu_init
00000000       F *UND*	00000000              _gfortran_transfer_integer@@GFORTRAN_7
00000000       F *UND*	00000000              _gfortran_transfer_character_write@@GFORTRAN_7
00002008 g       .bss	00000000              __bss_start
00000000       F *UND*	00000000              _gfortran_st_read@@GFORTRAN_7
0000200c g       .bss	00000000              _end
00000000       F *UND*	00000000              _gfortran_st_read_done@@GFORTRAN_7
00002008 g       .data	00000000              _edata
00000000  w    F *UND*	00000000              __cxa_finalize@@GLIBC_2.1.3
00000898 g     F .text	00000054              main
00000520 g     F .init	00000000              _init


Contents of section .interp:
 0154 2f6c6962 2f6c642d 6c696e75 782e736f  /lib/ld-linux.so
 0164 2e3200                               .2.             
Contents of section .note.ABI-tag:
 0168 04000000 10000000 01000000 474e5500  ............GNU.
 0178 00000000 03000000 02000000 00000000  ................
Contents of section .note.gnu.build-id:
 0188 04000000 14000000 03000000 474e5500  ............GNU.
 0198 2a2573e8 5efcce04 49a8fb83 7326b746  *%s.^...I...s&.F
 01a8 fbeb73eb                             ..s.            
Contents of section .gnu.hash:
 01ac 02000000 0e000000 01000000 05000000  ................
 01bc 00200020 00000000 0e000000 ad4be3c0  . . .........K..
Contents of section .dynsym:
 01cc 00000000 00000000 00000000 00000000  ................
 01dc ab000000 00000000 00000000 12000000  ................
 01ec 2e000000 00000000 00000000 20000000  ............ ...
 01fc d5000000 00000000 00000000 12000000  ................
 020c 3a010000 00000000 00000000 12000000  :...............
 021c 12000000 00000000 00000000 20000000  ............ ...
 022c 3d000000 00000000 00000000 20000000  =........... ...
 023c fa000000 00000000 00000000 12000000  ................
 024c 7a000000 00000000 00000000 12000000  z...............
 025c 90000000 00000000 00000000 12000000  ................
 026c 57000000 00000000 00000000 12000000  W...............
 027c e8000000 00000000 00000000 12000000  ................
 028c be000000 00000000 00000000 12000000  ................
 029c 2b010000 00000000 00000000 22000000  +..........."...
 02ac 1c010000 6c090000 04000000 11001000  ....l...........
Contents of section .dynstr:
 02bc 006c6962 67666f72 7472616e 2e736f2e  .libgfortran.so.
 02cc 34005f49 544d5f64 65726567 69737465  4._ITM_deregiste
 02dc 72544d43 6c6f6e65 5461626c 65005f5f  rTMCloneTable.__
 02ec 676d6f6e 5f737461 72745f5f 005f4954  gmon_start__._IT
 02fc 4d5f7265 67697374 6572544d 436c6f6e  M_registerTMClon
 030c 65546162 6c65005f 67666f72 7472616e  eTable._gfortran
 031c 5f747261 6e736665 725f6368 61726163  _transfer_charac
 032c 7465725f 77726974 65005f67 666f7274  ter_write._gfort
 033c 72616e5f 7365745f 6f707469 6f6e7300  ran_set_options.
 034c 5f67666f 72747261 6e5f7472 616e7366  _gfortran_transf
 035c 65725f69 6e746567 6572005f 67666f72  er_integer._gfor
 036c 7472616e 5f736574 5f617267 73005f67  tran_set_args._g
 037c 666f7274 72616e5f 73745f72 6561645f  fortran_st_read_
 038c 646f6e65 005f6766 6f727472 616e5f73  done._gfortran_s
 039c 745f7772 69746500 5f67666f 72747261  t_write._gfortra
 03ac 6e5f7374 5f726561 64005f67 666f7274  n_st_read._gfort
 03bc 72616e5f 73745f77 72697465 5f646f6e  ran_st_write_don
 03cc 65006c69 62632e73 6f2e3600 5f494f5f  e.libc.so.6._IO_
 03dc 73746469 6e5f7573 6564005f 5f637861  stdin_used.__cxa
 03ec 5f66696e 616c697a 65005f5f 6c696263  _finalize.__libc
 03fc 5f737461 72745f6d 61696e00 474c4942  _start_main.GLIB
 040c 435f322e 312e3300 474c4942 435f322e  C_2.1.3.GLIBC_2.
 041c 30004746 4f525452 414e5f37 00        0.GFORTRAN_7.   
Contents of section .gnu.version:
 042a 00000200 00000200 03000000 00000200  ................
 043a 02000200 02000200 02000400 0100      ..............  
Contents of section .gnu.version_r:
 0448 01000200 12010000 10000000 30000000  ............0...
 0458 731f6909 00000400 4c010000 10000000  s.i.....L.......
 0468 1069690d 00000300 58010000 00000000  .ii.....X.......
 0478 01000100 01000000 10000000 00000000  ................
 0488 67f99207 00000200 62010000 00000000  g.......b.......
Contents of section .rel.dyn:
 0498 b41e0000 08000000 b81e0000 08000000  ................
 04a8 fc1f0000 08000000 04200000 08000000  ......... ......
 04b8 ec1f0000 06020000 f01f0000 06050000  ................
 04c8 f41f0000 06060000 f81f0000 060d0000  ................
Contents of section .rel.plt:
 04d8 c81f0000 07010000 cc1f0000 07030000  ................
 04e8 d01f0000 07040000 d41f0000 07070000  ................
 04f8 d81f0000 07080000 dc1f0000 07090000  ................
 0508 e01f0000 070a0000 e41f0000 070b0000  ................
 0518 e81f0000 070c0000                    ........        
Contents of section .init:
 0520 5383ec08 e8170100 0081c393 1a00008b  S...............
 0530 83300000 0085c074 05e8b200 000083c4  .0.....t........
 0540 085bc3                               .[.             
Contents of section .plt:
 0550 ffb30400 0000ffa3 08000000 00000000  ................
 0560 ffa30c00 00006800 000000e9 e0ffffff  ......h.........
 0570 ffa31000 00006808 000000e9 d0ffffff  ......h.........
 0580 ffa31400 00006810 000000e9 c0ffffff  ......h.........
 0590 ffa31800 00006818 000000e9 b0ffffff  ......h.........
 05a0 ffa31c00 00006820 000000e9 a0ffffff  ......h ........
 05b0 ffa32000 00006828 000000e9 90ffffff  .. ...h(........
 05c0 ffa32400 00006830 000000e9 80ffffff  ..$...h0........
 05d0 ffa32800 00006838 000000e9 70ffffff  ..(...h8....p...
 05e0 ffa32c00 00006840 000000e9 60ffffff  ..,...h@....`...
Contents of section .plt.got:
 05f0 ffa33000 00006690 ffa33c00 00006690  ..0...f...<...f.
Contents of section .text:
 0600 31ed5e89 e183e4f0 505452e8 22000000  1.^.....PTR."...
 0610 81c3ac19 00008d83 94e9ffff 508d8334  ............P..4
 0620 e9ffff50 5156ffb3 40000000 e84fffff  ...PQV..@....O..
 0630 fff48b1c 24c36690 66906690 66906690  ....$.f.f.f.f.f.
 0640 8b1c24c3 66906690 66906690 66906690  ..$.f.f.f.f.f.f.
 0650 e8e40000 0081c267 1900008d 8a4c0000  .......g.....L..
 0660 008d824c 00000039 c8741d8b 82340000  ...L...9.t...4..
 0670 0085c074 135589e5 83ec1451 ffd083c4  ...t.U.....Q....
 0680 10c9c390 8d742600 f3c38db6 00000000  .....t&.........
 0690 e8a40000 0081c227 19000055 8d8a4c00  .......'...U..L.
 06a0 00008d82 4c000000 29c889e5 53c1f802  ....L...)...S...
 06b0 89c383ec 04c1eb1f 01d8d1f8 74148b92  ............t...
 06c0 38000000 85d2740a 83ec0850 51ffd283  8.....t....PQ...
 06d0 c4108b5d fcc9c389 f68dbc27 00000000  ...].......'....
 06e0 5589e553 e857ffff ff81c3d3 18000083  U..S.W..........
 06f0 ec0480bb 4c000000 0075278b 833c0000  ....L....u'..<..
 0700 0085c074 1183ec0c ffb34800 0000e8e5  ...t......H.....
 0710 feffff83 c410e835 ffffffc6 834c0000  .......5.....L..
 0720 00018b5d fcc9c389 f68dbc27 00000000  ...].......'....
 0730 5589e55d e957ffff ff8b1424 c35589e5  U..].W.....$.U..
 0740 5381ec64 010000e8 f4feffff 81c37018  S..d..........p.
 0750 00008d83 b4e9ffff 8985a8fe ffffc785  ................
 0760 acfeffff 08000000 c785a0fe ffff8000  ................
 0770 0000c785 a4feffff 06000000 83ec0c8d  ................
 0780 85a0feff ff50e8e5 fdffff83 c41083ec  .....P..........
 0790 046a238d 83c0e9ff ff508d85 a0feffff  .j#......P......
 07a0 50e81afe ffff83c4 1083ec0c 8d85a0fe  P...............
 07b0 ffff50e8 d8fdffff 83c4108d 83b4e9ff  ..P.............
 07c0 ff8985a8 feffffc7 85acfeff ff090000  ................
 07d0 00c785a0 feffff80 000000c7 85a4feff  ................
 07e0 ff050000 0083ec0c 8d85a0fe ffff50e8  ..............P.
 07f0 dcfdffff 83c41083 ec046a04 8d45f450  ..........j..E.P
 0800 8d85a0fe ffff50e8 a4fdffff 83c41083  ......P.........
 0810 ec0c8d85 a0feffff 50e8c2fd ffff83c4  ........P.......
 0820 108b45f4 83f8057e 698d83b4 e9ffff89  ..E....~i.......
 0830 85a8feff ffc785ac feffff0c 000000c7  ................
 0840 85a0feff ff800000 00c785a4 feffff06  ................
 0850 00000083 ec0c8d85 a0feffff 50e80efd  ............P...
 0860 ffff83c4 1083ec04 6a1e8d83 e3e9ffff  ........j.......
 0870 508d85a0 feffff50 e843fdff ff83c410  P......P.C......
 0880 83ec0c8d 85a0feff ff50e801 fdffff83  .........P......
 0890 c410908b 5dfcc9c3 8d4c2404 83e4f0ff  ....]....L$.....
 08a0 71fc5589 e55351e8 94fdffff 81c31017  q.U..SQ.........
 08b0 000089c8 83ec08ff 7004ff30 e89ffcff  ........p..0....
 08c0 ff83c410 83ec088d 8304eaff ff506a07  .............Pj.
 08d0 e8cbfcff ff83c410 e860feff ffb80000  .........`......
 08e0 00008d65 f8595b5d 8d61fcc3 66906690  ...e.Y[].a..f.f.
 08f0 55575653 e847fdff ff81c3c3 16000083  UWVS.G..........
 0900 ec0c8b6c 24288db3 fcfeffff e80ffcff  ...l$(..........
 0910 ff8d83f8 feffff29 c6c1fe02 85f67425  .......)......t%
 0920 31ff8db6 00000000 83ec0455 ff74242c  1..........U.t$,
 0930 ff74242c ff94bbf8 feffff83 c70183c4  .t$,............
 0940 1039fe75 e383c40c 5b5e5f5d c38d7600  .9.u....[^_]..v.
 0950 f3c3                                 ..              
Contents of section .fini:
 0954 5383ec08 e8e3fcff ff81c35f 16000083  S.........._....
 0964 c4085bc3                             ..[.            
Contents of section .rodata:
 0968 03000000 01000200 69665f74 68656e2e  ........if_then.
 0978 66303800 456e7465 72206120 6e756d62  f08.Enter a numb
 0988 65722062 65747765 656e2031 20616e64  er between 1 and
 0998 20313020 2d3e204e 756d6265 7220656e   10 -> Number en
 09a8 74657265 64206772 65617465 72207468  tered greater th
 09b8 616e2035 21000000 44000000 ff030000  an 5!...D.......
 09c8 00000000 01000000 01000000 00000000  ................
 09d8 1f000000                             ....            
Contents of section .eh_frame_hdr:
 09dc 011b033b 38000000 06000000 74fbffff  ...;8.......t...
 09ec 54000000 14fcffff 78000000 61fdffff  T.......x...a...
 09fc 8c000000 bcfeffff b0000000 14ffffff  ................
 0a0c e4000000 74ffffff 30010000           ....t...0...    
Contents of section .eh_frame:
 0a18 14000000 00000000 017a5200 017c0801  .........zR..|..
 0a28 1b0c0404 88010000 20000000 1c000000  ........ .......
 0a38 18fbffff a0000000 000e0846 0e0c4a0f  ...........F..J.
 0a48 0b740478 003f1a3b 2a322422 10000000  .t.x.?.;*2$"....
 0a58 40000000 94fbffff 10000000 00000000  @...............
 0a68 20000000 54000000 cdfcffff 5b010000   ...T.......[...
 0a78 00410e08 8502420d 05478303 035001c5  .A....B..G...P..
 0a88 c30c0404 30000000 78000000 04feffff  ....0...x.......
 0a98 54000000 00440c01 00471005 02750044  T....D...G...u.D
 0aa8 0f037578 06100302 757c7fc1 0c010041  ..ux....u|.....A
 0ab8 c341c543 0c040400 48000000 ac000000  .A.C....H.......
 0ac8 28feffff 5d000000 00410e08 8502410e  (...]....A....A.
 0ad8 0c870341 0e108604 410e1483 054e0e20  ...A....A....N. 
 0ae8 690e2441 0e28440e 2c440e30 4d0e2047  i.$A.(D.,D.0M. G
 0af8 0e1441c3 0e1041c6 0e0c41c7 0e0841c5  ..A...A...A...A.
 0b08 0e040000 10000000 f8000000 3cfeffff  ............<...
 0b18 02000000 00000000 00000000           ............    
Contents of section .init_array:
 1eb4 30070000                             0...            
Contents of section .fini_array:
 1eb8 e0060000                             ....            
Contents of section .dynamic:
 1ebc 01000000 01000000 01000000 12010000  ................
 1ecc 0c000000 20050000 0d000000 54090000  .... .......T...
 1edc 19000000 b41e0000 1b000000 04000000  ................
 1eec 1a000000 b81e0000 1c000000 04000000  ................
 1efc f5feff6f ac010000 05000000 bc020000  ...o............
 1f0c 06000000 cc010000 0a000000 6d010000  ............m...
 1f1c 0b000000 10000000 15000000 00000000  ................
 1f2c 03000000 bc1f0000 02000000 48000000  ............H...
 1f3c 14000000 11000000 17000000 d8040000  ................
 1f4c 11000000 98040000 12000000 40000000  ............@...
 1f5c 13000000 08000000 1e000000 08000000  ................
 1f6c fbffff6f 01000008 feffff6f 48040000  ...o.......oH...
 1f7c ffffff6f 02000000 f0ffff6f 2a040000  ...o.......o*...
 1f8c faffff6f 04000000 00000000 00000000  ...o............
 1f9c 00000000 00000000 00000000 00000000  ................
 1fac 00000000 00000000 00000000 00000000  ................
Contents of section .got:
 1fbc bc1e0000 00000000 00000000 66050000  ............f...
 1fcc 76050000 86050000 96050000 a6050000  v...............
 1fdc b6050000 c6050000 d6050000 e6050000  ................
 1fec 00000000 00000000 00000000 00000000  ................
 1ffc 98080000                             ....            
Contents of section .data:
 2000 00000000 04200000                    ..... ..        
Contents of section .comment:
 0000 4743433a 20285562 756e7475 20372e33  GCC: (Ubuntu 7.3
 0010 2e302d32 37756275 6e747531 7e31382e  .0-27ubuntu1~18.
 0020 30342920 372e332e 3000               04) 7.3.0.      

Disassembly of section .init:

00000520 <_init>:
 520:	53                   	push   ebx
 521:	83 ec 08             	sub    esp,0x8
 524:	e8 17 01 00 00       	call   640 <__x86.get_pc_thunk.bx>
 529:	81 c3 93 1a 00 00    	add    ebx,0x1a93
 52f:	8b 83 30 00 00 00    	mov    eax,DWORD PTR [ebx+0x30]
 535:	85 c0                	test   eax,eax
 537:	74 05                	je     53e <_init+0x1e>
 539:	e8 b2 00 00 00       	call   5f0 <__gmon_start__@plt>
 53e:	83 c4 08             	add    esp,0x8
 541:	5b                   	pop    ebx
 542:	c3                   	ret    

Disassembly of section .plt:

00000550 <.plt>:
 550:	ff b3 04 00 00 00    	push   DWORD PTR [ebx+0x4]
 556:	ff a3 08 00 00 00    	jmp    DWORD PTR [ebx+0x8]
 55c:	00 00                	add    BYTE PTR [eax],al
	...

00000560 <_gfortran_set_args@plt>:
 560:	ff a3 0c 00 00 00    	jmp    DWORD PTR [ebx+0xc]
 566:	68 00 00 00 00       	push   0x0
 56b:	e9 e0 ff ff ff       	jmp    550 <.plt>

00000570 <_gfortran_st_write@plt>:
 570:	ff a3 10 00 00 00    	jmp    DWORD PTR [ebx+0x10]
 576:	68 08 00 00 00       	push   0x8
 57b:	e9 d0 ff ff ff       	jmp    550 <.plt>

00000580 <__libc_start_main@plt>:
 580:	ff a3 14 00 00 00    	jmp    DWORD PTR [ebx+0x14]
 586:	68 10 00 00 00       	push   0x10
 58b:	e9 c0 ff ff ff       	jmp    550 <.plt>

00000590 <_gfortran_st_write_done@plt>:
 590:	ff a3 18 00 00 00    	jmp    DWORD PTR [ebx+0x18]
 596:	68 18 00 00 00       	push   0x18
 59b:	e9 b0 ff ff ff       	jmp    550 <.plt>

000005a0 <_gfortran_set_options@plt>:
 5a0:	ff a3 1c 00 00 00    	jmp    DWORD PTR [ebx+0x1c]
 5a6:	68 20 00 00 00       	push   0x20
 5ab:	e9 a0 ff ff ff       	jmp    550 <.plt>

000005b0 <_gfortran_transfer_integer@plt>:
 5b0:	ff a3 20 00 00 00    	jmp    DWORD PTR [ebx+0x20]
 5b6:	68 28 00 00 00       	push   0x28
 5bb:	e9 90 ff ff ff       	jmp    550 <.plt>

000005c0 <_gfortran_transfer_character_write@plt>:
 5c0:	ff a3 24 00 00 00    	jmp    DWORD PTR [ebx+0x24]
 5c6:	68 30 00 00 00       	push   0x30
 5cb:	e9 80 ff ff ff       	jmp    550 <.plt>

000005d0 <_gfortran_st_read@plt>:
 5d0:	ff a3 28 00 00 00    	jmp    DWORD PTR [ebx+0x28]
 5d6:	68 38 00 00 00       	push   0x38
 5db:	e9 70 ff ff ff       	jmp    550 <.plt>

000005e0 <_gfortran_st_read_done@plt>:
 5e0:	ff a3 2c 00 00 00    	jmp    DWORD PTR [ebx+0x2c]
 5e6:	68 40 00 00 00       	push   0x40
 5eb:	e9 60 ff ff ff       	jmp    550 <.plt>

Disassembly of section .plt.got:

000005f0 <__gmon_start__@plt>:
 5f0:	ff a3 30 00 00 00    	jmp    DWORD PTR [ebx+0x30]
 5f6:	66 90                	xchg   ax,ax

000005f8 <__cxa_finalize@plt>:
 5f8:	ff a3 3c 00 00 00    	jmp    DWORD PTR [ebx+0x3c]
 5fe:	66 90                	xchg   ax,ax

Disassembly of section .text:

00000600 <_start>:
 600:	31 ed                	xor    ebp,ebp
 602:	5e                   	pop    esi
 603:	89 e1                	mov    ecx,esp
 605:	83 e4 f0             	and    esp,0xfffffff0
 608:	50                   	push   eax
 609:	54                   	push   esp
 60a:	52                   	push   edx
 60b:	e8 22 00 00 00       	call   632 <_start+0x32>
 610:	81 c3 ac 19 00 00    	add    ebx,0x19ac
 616:	8d 83 94 e9 ff ff    	lea    eax,[ebx-0x166c]
 61c:	50                   	push   eax
 61d:	8d 83 34 e9 ff ff    	lea    eax,[ebx-0x16cc]
 623:	50                   	push   eax
 624:	51                   	push   ecx
 625:	56                   	push   esi
 626:	ff b3 40 00 00 00    	push   DWORD PTR [ebx+0x40]
 62c:	e8 4f ff ff ff       	call   580 <__libc_start_main@plt>
 631:	f4                   	hlt    
 632:	8b 1c 24             	mov    ebx,DWORD PTR [esp]
 635:	c3                   	ret    
 636:	66 90                	xchg   ax,ax
 638:	66 90                	xchg   ax,ax
 63a:	66 90                	xchg   ax,ax
 63c:	66 90                	xchg   ax,ax
 63e:	66 90                	xchg   ax,ax

00000640 <__x86.get_pc_thunk.bx>:
 640:	8b 1c 24             	mov    ebx,DWORD PTR [esp]
 643:	c3                   	ret    
 644:	66 90                	xchg   ax,ax
 646:	66 90                	xchg   ax,ax
 648:	66 90                	xchg   ax,ax
 64a:	66 90                	xchg   ax,ax
 64c:	66 90                	xchg   ax,ax
 64e:	66 90                	xchg   ax,ax

00000650 <deregister_tm_clones>:
 650:	e8 e4 00 00 00       	call   739 <__x86.get_pc_thunk.dx>
 655:	81 c2 67 19 00 00    	add    edx,0x1967
 65b:	8d 8a 4c 00 00 00    	lea    ecx,[edx+0x4c]
 661:	8d 82 4c 00 00 00    	lea    eax,[edx+0x4c]
 667:	39 c8                	cmp    eax,ecx
 669:	74 1d                	je     688 <deregister_tm_clones+0x38>
 66b:	8b 82 34 00 00 00    	mov    eax,DWORD PTR [edx+0x34]
 671:	85 c0                	test   eax,eax
 673:	74 13                	je     688 <deregister_tm_clones+0x38>
 675:	55                   	push   ebp
 676:	89 e5                	mov    ebp,esp
 678:	83 ec 14             	sub    esp,0x14
 67b:	51                   	push   ecx
 67c:	ff d0                	call   eax
 67e:	83 c4 10             	add    esp,0x10
 681:	c9                   	leave  
 682:	c3                   	ret    
 683:	90                   	nop
 684:	8d 74 26 00          	lea    esi,[esi+eiz*1+0x0]
 688:	f3 c3                	repz ret 
 68a:	8d b6 00 00 00 00    	lea    esi,[esi+0x0]

00000690 <register_tm_clones>:
 690:	e8 a4 00 00 00       	call   739 <__x86.get_pc_thunk.dx>
 695:	81 c2 27 19 00 00    	add    edx,0x1927
 69b:	55                   	push   ebp
 69c:	8d 8a 4c 00 00 00    	lea    ecx,[edx+0x4c]
 6a2:	8d 82 4c 00 00 00    	lea    eax,[edx+0x4c]
 6a8:	29 c8                	sub    eax,ecx
 6aa:	89 e5                	mov    ebp,esp
 6ac:	53                   	push   ebx
 6ad:	c1 f8 02             	sar    eax,0x2
 6b0:	89 c3                	mov    ebx,eax
 6b2:	83 ec 04             	sub    esp,0x4
 6b5:	c1 eb 1f             	shr    ebx,0x1f
 6b8:	01 d8                	add    eax,ebx
 6ba:	d1 f8                	sar    eax,1
 6bc:	74 14                	je     6d2 <register_tm_clones+0x42>
 6be:	8b 92 38 00 00 00    	mov    edx,DWORD PTR [edx+0x38]
 6c4:	85 d2                	test   edx,edx
 6c6:	74 0a                	je     6d2 <register_tm_clones+0x42>
 6c8:	83 ec 08             	sub    esp,0x8
 6cb:	50                   	push   eax
 6cc:	51                   	push   ecx
 6cd:	ff d2                	call   edx
 6cf:	83 c4 10             	add    esp,0x10
 6d2:	8b 5d fc             	mov    ebx,DWORD PTR [ebp-0x4]
 6d5:	c9                   	leave  
 6d6:	c3                   	ret    
 6d7:	89 f6                	mov    esi,esi
 6d9:	8d bc 27 00 00 00 00 	lea    edi,[edi+eiz*1+0x0]

000006e0 <__do_global_dtors_aux>:
 6e0:	55                   	push   ebp
 6e1:	89 e5                	mov    ebp,esp
 6e3:	53                   	push   ebx
 6e4:	e8 57 ff ff ff       	call   640 <__x86.get_pc_thunk.bx>
 6e9:	81 c3 d3 18 00 00    	add    ebx,0x18d3
 6ef:	83 ec 04             	sub    esp,0x4
 6f2:	80 bb 4c 00 00 00 00 	cmp    BYTE PTR [ebx+0x4c],0x0
 6f9:	75 27                	jne    722 <__do_global_dtors_aux+0x42>
 6fb:	8b 83 3c 00 00 00    	mov    eax,DWORD PTR [ebx+0x3c]
 701:	85 c0                	test   eax,eax
 703:	74 11                	je     716 <__do_global_dtors_aux+0x36>
 705:	83 ec 0c             	sub    esp,0xc
 708:	ff b3 48 00 00 00    	push   DWORD PTR [ebx+0x48]
 70e:	e8 e5 fe ff ff       	call   5f8 <__cxa_finalize@plt>
 713:	83 c4 10             	add    esp,0x10
 716:	e8 35 ff ff ff       	call   650 <deregister_tm_clones>
 71b:	c6 83 4c 00 00 00 01 	mov    BYTE PTR [ebx+0x4c],0x1
 722:	8b 5d fc             	mov    ebx,DWORD PTR [ebp-0x4]
 725:	c9                   	leave  
 726:	c3                   	ret    
 727:	89 f6                	mov    esi,esi
 729:	8d bc 27 00 00 00 00 	lea    edi,[edi+eiz*1+0x0]

00000730 <frame_dummy>:
 730:	55                   	push   ebp
 731:	89 e5                	mov    ebp,esp
 733:	5d                   	pop    ebp
 734:	e9 57 ff ff ff       	jmp    690 <register_tm_clones>

00000739 <__x86.get_pc_thunk.dx>:
 739:	8b 14 24             	mov    edx,DWORD PTR [esp]
 73c:	c3                   	ret    

0000073d <MAIN__>:
 73d:	55                   	push   ebp
 73e:	89 e5                	mov    ebp,esp
 740:	53                   	push   ebx
 741:	81 ec 64 01 00 00    	sub    esp,0x164
 747:	e8 f4 fe ff ff       	call   640 <__x86.get_pc_thunk.bx>
 74c:	81 c3 70 18 00 00    	add    ebx,0x1870
 752:	8d 83 b4 e9 ff ff    	lea    eax,[ebx-0x164c]
 758:	89 85 a8 fe ff ff    	mov    DWORD PTR [ebp-0x158],eax
 75e:	c7 85 ac fe ff ff 08 	mov    DWORD PTR [ebp-0x154],0x8
 765:	00 00 00 
 768:	c7 85 a0 fe ff ff 80 	mov    DWORD PTR [ebp-0x160],0x80
 76f:	00 00 00 
 772:	c7 85 a4 fe ff ff 06 	mov    DWORD PTR [ebp-0x15c],0x6
 779:	00 00 00 
 77c:	83 ec 0c             	sub    esp,0xc
 77f:	8d 85 a0 fe ff ff    	lea    eax,[ebp-0x160]
 785:	50                   	push   eax
 786:	e8 e5 fd ff ff       	call   570 <_gfortran_st_write@plt>
 78b:	83 c4 10             	add    esp,0x10
 78e:	83 ec 04             	sub    esp,0x4
 791:	6a 23                	push   0x23
 793:	8d 83 c0 e9 ff ff    	lea    eax,[ebx-0x1640]
 799:	50                   	push   eax
 79a:	8d 85 a0 fe ff ff    	lea    eax,[ebp-0x160]
 7a0:	50                   	push   eax
 7a1:	e8 1a fe ff ff       	call   5c0 <_gfortran_transfer_character_write@plt>
 7a6:	83 c4 10             	add    esp,0x10
 7a9:	83 ec 0c             	sub    esp,0xc
 7ac:	8d 85 a0 fe ff ff    	lea    eax,[ebp-0x160]
 7b2:	50                   	push   eax
 7b3:	e8 d8 fd ff ff       	call   590 <_gfortran_st_write_done@plt>
 7b8:	83 c4 10             	add    esp,0x10
 7bb:	8d 83 b4 e9 ff ff    	lea    eax,[ebx-0x164c]
 7c1:	89 85 a8 fe ff ff    	mov    DWORD PTR [ebp-0x158],eax
 7c7:	c7 85 ac fe ff ff 09 	mov    DWORD PTR [ebp-0x154],0x9
 7ce:	00 00 00 
 7d1:	c7 85 a0 fe ff ff 80 	mov    DWORD PTR [ebp-0x160],0x80
 7d8:	00 00 00 
 7db:	c7 85 a4 fe ff ff 05 	mov    DWORD PTR [ebp-0x15c],0x5
 7e2:	00 00 00 
 7e5:	83 ec 0c             	sub    esp,0xc
 7e8:	8d 85 a0 fe ff ff    	lea    eax,[ebp-0x160]
 7ee:	50                   	push   eax
 7ef:	e8 dc fd ff ff       	call   5d0 <_gfortran_st_read@plt>
 7f4:	83 c4 10             	add    esp,0x10
 7f7:	83 ec 04             	sub    esp,0x4
 7fa:	6a 04                	push   0x4
 7fc:	8d 45 f4             	lea    eax,[ebp-0xc]
 7ff:	50                   	push   eax
 800:	8d 85 a0 fe ff ff    	lea    eax,[ebp-0x160]
 806:	50                   	push   eax
 807:	e8 a4 fd ff ff       	call   5b0 <_gfortran_transfer_integer@plt>
 80c:	83 c4 10             	add    esp,0x10
 80f:	83 ec 0c             	sub    esp,0xc
 812:	8d 85 a0 fe ff ff    	lea    eax,[ebp-0x160]
 818:	50                   	push   eax
 819:	e8 c2 fd ff ff       	call   5e0 <_gfortran_st_read_done@plt>
 81e:	83 c4 10             	add    esp,0x10
 821:	8b 45 f4             	mov    eax,DWORD PTR [ebp-0xc]
 824:	83 f8 05             	cmp    eax,0x5
 827:	7e 69                	jle    892 <MAIN__+0x155>
 829:	8d 83 b4 e9 ff ff    	lea    eax,[ebx-0x164c]
 82f:	89 85 a8 fe ff ff    	mov    DWORD PTR [ebp-0x158],eax
 835:	c7 85 ac fe ff ff 0c 	mov    DWORD PTR [ebp-0x154],0xc
 83c:	00 00 00 
 83f:	c7 85 a0 fe ff ff 80 	mov    DWORD PTR [ebp-0x160],0x80
 846:	00 00 00 
 849:	c7 85 a4 fe ff ff 06 	mov    DWORD PTR [ebp-0x15c],0x6
 850:	00 00 00 
 853:	83 ec 0c             	sub    esp,0xc
 856:	8d 85 a0 fe ff ff    	lea    eax,[ebp-0x160]
 85c:	50                   	push   eax
 85d:	e8 0e fd ff ff       	call   570 <_gfortran_st_write@plt>
 862:	83 c4 10             	add    esp,0x10
 865:	83 ec 04             	sub    esp,0x4
 868:	6a 1e                	push   0x1e
 86a:	8d 83 e3 e9 ff ff    	lea    eax,[ebx-0x161d]
 870:	50                   	push   eax
 871:	8d 85 a0 fe ff ff    	lea    eax,[ebp-0x160]
 877:	50                   	push   eax
 878:	e8 43 fd ff ff       	call   5c0 <_gfortran_transfer_character_write@plt>
 87d:	83 c4 10             	add    esp,0x10
 880:	83 ec 0c             	sub    esp,0xc
 883:	8d 85 a0 fe ff ff    	lea    eax,[ebp-0x160]
 889:	50                   	push   eax
 88a:	e8 01 fd ff ff       	call   590 <_gfortran_st_write_done@plt>
 88f:	83 c4 10             	add    esp,0x10
 892:	90                   	nop
 893:	8b 5d fc             	mov    ebx,DWORD PTR [ebp-0x4]
 896:	c9                   	leave  
 897:	c3                   	ret    

00000898 <main>:
 898:	8d 4c 24 04          	lea    ecx,[esp+0x4]
 89c:	83 e4 f0             	and    esp,0xfffffff0
 89f:	ff 71 fc             	push   DWORD PTR [ecx-0x4]
 8a2:	55                   	push   ebp
 8a3:	89 e5                	mov    ebp,esp
 8a5:	53                   	push   ebx
 8a6:	51                   	push   ecx
 8a7:	e8 94 fd ff ff       	call   640 <__x86.get_pc_thunk.bx>
 8ac:	81 c3 10 17 00 00    	add    ebx,0x1710
 8b2:	89 c8                	mov    eax,ecx
 8b4:	83 ec 08             	sub    esp,0x8
 8b7:	ff 70 04             	push   DWORD PTR [eax+0x4]
 8ba:	ff 30                	push   DWORD PTR [eax]
 8bc:	e8 9f fc ff ff       	call   560 <_gfortran_set_args@plt>
 8c1:	83 c4 10             	add    esp,0x10
 8c4:	83 ec 08             	sub    esp,0x8
 8c7:	8d 83 04 ea ff ff    	lea    eax,[ebx-0x15fc]
 8cd:	50                   	push   eax
 8ce:	6a 07                	push   0x7
 8d0:	e8 cb fc ff ff       	call   5a0 <_gfortran_set_options@plt>
 8d5:	83 c4 10             	add    esp,0x10
 8d8:	e8 60 fe ff ff       	call   73d <MAIN__>
 8dd:	b8 00 00 00 00       	mov    eax,0x0
 8e2:	8d 65 f8             	lea    esp,[ebp-0x8]
 8e5:	59                   	pop    ecx
 8e6:	5b                   	pop    ebx
 8e7:	5d                   	pop    ebp
 8e8:	8d 61 fc             	lea    esp,[ecx-0x4]
 8eb:	c3                   	ret    
 8ec:	66 90                	xchg   ax,ax
 8ee:	66 90                	xchg   ax,ax

000008f0 <__libc_csu_init>:
 8f0:	55                   	push   ebp
 8f1:	57                   	push   edi
 8f2:	56                   	push   esi
 8f3:	53                   	push   ebx
 8f4:	e8 47 fd ff ff       	call   640 <__x86.get_pc_thunk.bx>
 8f9:	81 c3 c3 16 00 00    	add    ebx,0x16c3
 8ff:	83 ec 0c             	sub    esp,0xc
 902:	8b 6c 24 28          	mov    ebp,DWORD PTR [esp+0x28]
 906:	8d b3 fc fe ff ff    	lea    esi,[ebx-0x104]
 90c:	e8 0f fc ff ff       	call   520 <_init>
 911:	8d 83 f8 fe ff ff    	lea    eax,[ebx-0x108]
 917:	29 c6                	sub    esi,eax
 919:	c1 fe 02             	sar    esi,0x2
 91c:	85 f6                	test   esi,esi
 91e:	74 25                	je     945 <__libc_csu_init+0x55>
 920:	31 ff                	xor    edi,edi
 922:	8d b6 00 00 00 00    	lea    esi,[esi+0x0]
 928:	83 ec 04             	sub    esp,0x4
 92b:	55                   	push   ebp
 92c:	ff 74 24 2c          	push   DWORD PTR [esp+0x2c]
 930:	ff 74 24 2c          	push   DWORD PTR [esp+0x2c]
 934:	ff 94 bb f8 fe ff ff 	call   DWORD PTR [ebx+edi*4-0x108]
 93b:	83 c7 01             	add    edi,0x1
 93e:	83 c4 10             	add    esp,0x10
 941:	39 fe                	cmp    esi,edi
 943:	75 e3                	jne    928 <__libc_csu_init+0x38>
 945:	83 c4 0c             	add    esp,0xc
 948:	5b                   	pop    ebx
 949:	5e                   	pop    esi
 94a:	5f                   	pop    edi
 94b:	5d                   	pop    ebp
 94c:	c3                   	ret    
 94d:	8d 76 00             	lea    esi,[esi+0x0]

00000950 <__libc_csu_fini>:
 950:	f3 c3                	repz ret 

Disassembly of section .fini:

00000954 <_fini>:
 954:	53                   	push   ebx
 955:	83 ec 08             	sub    esp,0x8
 958:	e8 e3 fc ff ff       	call   640 <__x86.get_pc_thunk.bx>
 95d:	81 c3 5f 16 00 00    	add    ebx,0x165f
 963:	83 c4 08             	add    esp,0x8
 966:	5b                   	pop    ebx
 967:	c3                   	ret    
