	.file	"mult_int.c"
	.text
.Ltext0:
	.globl	main
	.type	main, @function
main:
.LFB0:
	.file 1 "mult_int.c"
	.loc 1 4 0
	.cfi_startproc
	pushl	%ebp
	.cfi_def_cfa_offset 8
	.cfi_offset 5, -8
	movl	%esp, %ebp
	.cfi_def_cfa_register 5
	subl	$16, %esp
	call	__x86.get_pc_thunk.ax
	addl	$_GLOBAL_OFFSET_TABLE_, %eax
	.loc 1 7 0
	movl	$2, -12(%ebp)
	.loc 1 8 0
	movl	$3, -8(%ebp)
	.loc 1 10 0
	movl	-12(%ebp), %eax
	imull	-8(%ebp), %eax
	movl	%eax, -4(%ebp)
	movl	$0, %eax
	.loc 1 11 0
	leave
	.cfi_restore 5
	.cfi_def_cfa 4, 4
	ret
	.cfi_endproc
.LFE0:
	.size	main, .-main
	.section	.text.__x86.get_pc_thunk.ax,"axG",@progbits,__x86.get_pc_thunk.ax,comdat
	.globl	__x86.get_pc_thunk.ax
	.hidden	__x86.get_pc_thunk.ax
	.type	__x86.get_pc_thunk.ax, @function
__x86.get_pc_thunk.ax:
.LFB1:
	.cfi_startproc
	movl	(%esp), %eax
	ret
	.cfi_endproc
.LFE1:
	.text
.Letext0:
	.file 2 "/usr/lib/gcc/x86_64-linux-gnu/7/include/stddef.h"
	.file 3 "/usr/x86_64-linux-gnu/include/bits/types.h"
	.file 4 "/usr/x86_64-linux-gnu/include/bits/libio.h"
	.file 5 "/usr/x86_64-linux-gnu/include/stdio.h"
	.file 6 "/usr/x86_64-linux-gnu/include/bits/sys_errlist.h"
	.section	.note.GNU-stack,"",@progbits
