	.file	"add_function.f08"
	.text
	.globl	__function_module_MOD_add_function
	.type	__function_module_MOD_add_function, @function
__function_module_MOD_add_function:
.LFB0:
	.cfi_startproc
	pushq	%rbp
	.cfi_def_cfa_offset 16
	.cfi_offset 6, -16
	movq	%rsp, %rbp
	.cfi_def_cfa_register 6
	movq	%rdi, -24(%rbp)
	movq	%rsi, -32(%rbp)
	movq	-24(%rbp), %rax
	movl	(%rax), %edx
	movq	-32(%rbp), %rax
	movl	(%rax), %eax
	addl	%edx, %eax
	movl	%eax, -4(%rbp)
	movl	-4(%rbp), %eax
	popq	%rbp
	.cfi_def_cfa 7, 8
	ret
	.cfi_endproc
.LFE0:
	.size	__function_module_MOD_add_function, .-__function_module_MOD_add_function
	.type	MAIN__, @function
MAIN__:
.LFB1:
	.cfi_startproc
	pushq	%rbp
	.cfi_def_cfa_offset 16
	.cfi_offset 6, -16
	movq	%rsp, %rbp
	.cfi_def_cfa_register 6
	subq	$16, %rsp
	movl	$2, -8(%rbp)
	movl	$3, -12(%rbp)
	leaq	-12(%rbp), %rdx
	leaq	-8(%rbp), %rax
	movq	%rdx, %rsi
	movq	%rax, %rdi
	call	__function_module_MOD_add_function
	movl	%eax, -4(%rbp)
	nop
	leave
	.cfi_def_cfa 7, 8
	ret
	.cfi_endproc
.LFE1:
	.size	MAIN__, .-MAIN__
	.globl	main
	.type	main, @function
main:
.LFB2:
	.cfi_startproc
	pushq	%rbp
	.cfi_def_cfa_offset 16
	.cfi_offset 6, -16
	movq	%rsp, %rbp
	.cfi_def_cfa_register 6
	subq	$16, %rsp
	movl	%edi, -4(%rbp)
	movq	%rsi, -16(%rbp)
	movq	-16(%rbp), %rdx
	movl	-4(%rbp), %eax
	movq	%rdx, %rsi
	movl	%eax, %edi
	call	_gfortran_set_args@PLT
	leaq	options.0.3510(%rip), %rsi
	movl	$7, %edi
	call	_gfortran_set_options@PLT
	call	MAIN__
	movl	$0, %eax
	leave
	.cfi_def_cfa 7, 8
	ret
	.cfi_endproc
.LFE2:
	.size	main, .-main
	.section	.rodata
	.align 16
	.type	options.0.3510, @object
	.size	options.0.3510, 28
options.0.3510:
	.long	68
	.long	1023
	.long	0
	.long	1
	.long	1
	.long	0
	.long	31
	.ident	"GCC: (Ubuntu 7.3.0-27ubuntu1~18.04) 7.3.0"
	.section	.note.GNU-stack,"",@progbits
