
functions_C_ARM64:     file format elf64-littleaarch64
functions_C_ARM64
architecture: aarch64, flags 0x00000150:
HAS_SYMS, DYNAMIC, D_PAGED
start address 0x00000000000005e0

Program Header:
    PHDR off    0x0000000000000040 vaddr 0x0000000000000040 paddr 0x0000000000000040 align 2**3
         filesz 0x00000000000001c0 memsz 0x00000000000001c0 flags r--
  INTERP off    0x0000000000000200 vaddr 0x0000000000000200 paddr 0x0000000000000200 align 2**0
         filesz 0x000000000000001b memsz 0x000000000000001b flags r--
    LOAD off    0x0000000000000000 vaddr 0x0000000000000000 paddr 0x0000000000000000 align 2**16
         filesz 0x00000000000007dc memsz 0x00000000000007dc flags r-x
    LOAD off    0x0000000000000d88 vaddr 0x0000000000010d88 paddr 0x0000000000010d88 align 2**16
         filesz 0x0000000000000288 memsz 0x0000000000000290 flags rw-
 DYNAMIC off    0x0000000000000d98 vaddr 0x0000000000010d98 paddr 0x0000000000010d98 align 2**3
         filesz 0x00000000000001f0 memsz 0x00000000000001f0 flags rw-
    NOTE off    0x000000000000021c vaddr 0x000000000000021c paddr 0x000000000000021c align 2**2
         filesz 0x0000000000000044 memsz 0x0000000000000044 flags r--
   STACK off    0x0000000000000000 vaddr 0x0000000000000000 paddr 0x0000000000000000 align 2**4
         filesz 0x0000000000000000 memsz 0x0000000000000000 flags rw-
   RELRO off    0x0000000000000d88 vaddr 0x0000000000010d88 paddr 0x0000000000010d88 align 2**0
         filesz 0x0000000000000278 memsz 0x0000000000000278 flags r--

Dynamic Section:
  NEEDED               libc.so.6
  INIT                 0x0000000000000560
  FINI                 0x00000000000007c4
  INIT_ARRAY           0x0000000000010d88
  INIT_ARRAYSZ         0x0000000000000008
  FINI_ARRAY           0x0000000000010d90
  FINI_ARRAYSZ         0x0000000000000008
  GNU_HASH             0x0000000000000260
  STRTAB               0x0000000000000358
  SYMTAB               0x0000000000000280
  STRSZ                0x0000000000000082
  SYMENT               0x0000000000000018
  DEBUG                0x0000000000000000
  PLTGOT               0x0000000000010f88
  PLTRELSZ             0x0000000000000060
  PLTREL               0x0000000000000007
  JMPREL               0x0000000000000500
  RELA                 0x0000000000000410
  RELASZ               0x00000000000000f0
  RELAENT              0x0000000000000018
  FLAGS                0x0000000000000008
  FLAGS_1              0x0000000008000001
  VERNEED              0x00000000000003f0
  VERNEEDNUM           0x0000000000000001
  VERSYM               0x00000000000003da
  RELACOUNT            0x0000000000000006

Version References:
  required from libc.so.6:
    0x06969197 0x00 02 GLIBC_2.17
private flags = 0:

Sections:
Idx Name          Size      VMA               LMA               File off  Algn
  0 .interp       0000001b  0000000000000200  0000000000000200  00000200  2**0
                  CONTENTS, ALLOC, LOAD, READONLY, DATA
  1 .note.ABI-tag 00000020  000000000000021c  000000000000021c  0000021c  2**2
                  CONTENTS, ALLOC, LOAD, READONLY, DATA
  2 .note.gnu.build-id 00000024  000000000000023c  000000000000023c  0000023c  2**2
                  CONTENTS, ALLOC, LOAD, READONLY, DATA
  3 .gnu.hash     0000001c  0000000000000260  0000000000000260  00000260  2**3
                  CONTENTS, ALLOC, LOAD, READONLY, DATA
  4 .dynsym       000000d8  0000000000000280  0000000000000280  00000280  2**3
                  CONTENTS, ALLOC, LOAD, READONLY, DATA
  5 .dynstr       00000082  0000000000000358  0000000000000358  00000358  2**0
                  CONTENTS, ALLOC, LOAD, READONLY, DATA
  6 .gnu.version  00000012  00000000000003da  00000000000003da  000003da  2**1
                  CONTENTS, ALLOC, LOAD, READONLY, DATA
  7 .gnu.version_r 00000020  00000000000003f0  00000000000003f0  000003f0  2**3
                  CONTENTS, ALLOC, LOAD, READONLY, DATA
  8 .rela.dyn     000000f0  0000000000000410  0000000000000410  00000410  2**3
                  CONTENTS, ALLOC, LOAD, READONLY, DATA
  9 .rela.plt     00000060  0000000000000500  0000000000000500  00000500  2**3
                  CONTENTS, ALLOC, LOAD, READONLY, DATA
 10 .init         00000014  0000000000000560  0000000000000560  00000560  2**2
                  CONTENTS, ALLOC, LOAD, READONLY, CODE
 11 .plt          00000060  0000000000000580  0000000000000580  00000580  2**4
                  CONTENTS, ALLOC, LOAD, READONLY, CODE
 12 .text         000001e4  00000000000005e0  00000000000005e0  000005e0  2**3
                  CONTENTS, ALLOC, LOAD, READONLY, CODE
 13 .fini         00000010  00000000000007c4  00000000000007c4  000007c4  2**2
                  CONTENTS, ALLOC, LOAD, READONLY, CODE
 14 .rodata       00000004  00000000000007d4  00000000000007d4  000007d4  2**2
                  CONTENTS, ALLOC, LOAD, READONLY, DATA
 15 .eh_frame     00000004  00000000000007d8  00000000000007d8  000007d8  2**2
                  CONTENTS, ALLOC, LOAD, READONLY, DATA
 16 .init_array   00000008  0000000000010d88  0000000000010d88  00000d88  2**3
                  CONTENTS, ALLOC, LOAD, DATA
 17 .fini_array   00000008  0000000000010d90  0000000000010d90  00000d90  2**3
                  CONTENTS, ALLOC, LOAD, DATA
 18 .dynamic      000001f0  0000000000010d98  0000000000010d98  00000d98  2**3
                  CONTENTS, ALLOC, LOAD, DATA
 19 .got          00000078  0000000000010f88  0000000000010f88  00000f88  2**3
                  CONTENTS, ALLOC, LOAD, DATA
 20 .data         00000010  0000000000011000  0000000000011000  00001000  2**3
                  CONTENTS, ALLOC, LOAD, DATA
 21 .bss          00000008  0000000000011010  0000000000011010  00001010  2**0
                  ALLOC
 22 .comment      00000031  0000000000000000  0000000000000000  00001010  2**0
                  CONTENTS, READONLY
SYMBOL TABLE:
0000000000000200 l    d  .interp	0000000000000000              .interp
000000000000021c l    d  .note.ABI-tag	0000000000000000              .note.ABI-tag
000000000000023c l    d  .note.gnu.build-id	0000000000000000              .note.gnu.build-id
0000000000000260 l    d  .gnu.hash	0000000000000000              .gnu.hash
0000000000000280 l    d  .dynsym	0000000000000000              .dynsym
0000000000000358 l    d  .dynstr	0000000000000000              .dynstr
00000000000003da l    d  .gnu.version	0000000000000000              .gnu.version
00000000000003f0 l    d  .gnu.version_r	0000000000000000              .gnu.version_r
0000000000000410 l    d  .rela.dyn	0000000000000000              .rela.dyn
0000000000000500 l    d  .rela.plt	0000000000000000              .rela.plt
0000000000000560 l    d  .init	0000000000000000              .init
0000000000000580 l    d  .plt	0000000000000000              .plt
00000000000005e0 l    d  .text	0000000000000000              .text
00000000000007c4 l    d  .fini	0000000000000000              .fini
00000000000007d4 l    d  .rodata	0000000000000000              .rodata
00000000000007d8 l    d  .eh_frame	0000000000000000              .eh_frame
0000000000010d88 l    d  .init_array	0000000000000000              .init_array
0000000000010d90 l    d  .fini_array	0000000000000000              .fini_array
0000000000010d98 l    d  .dynamic	0000000000000000              .dynamic
0000000000010f88 l    d  .got	0000000000000000              .got
0000000000011000 l    d  .data	0000000000000000              .data
0000000000011010 l    d  .bss	0000000000000000              .bss
0000000000000000 l    d  .comment	0000000000000000              .comment
0000000000000000 l    df *ABS*	0000000000000000              /usr/lib/gcc/aarch64-linux-gnu/7/../../../aarch64-linux-gnu/Scrt1.o
0000000000000000 l    df *ABS*	0000000000000000              /usr/lib/gcc/aarch64-linux-gnu/7/../../../aarch64-linux-gnu/crti.o
0000000000000618 l     F .text	0000000000000014              call_weak_fn
0000000000000000 l    df *ABS*	0000000000000000              /usr/lib/gcc/aarch64-linux-gnu/7/../../../aarch64-linux-gnu/crtn.o
0000000000000000 l    df *ABS*	0000000000000000              crtstuff.c
0000000000000630 l     F .text	0000000000000000              deregister_tm_clones
0000000000000660 l     F .text	0000000000000000              register_tm_clones
0000000000000698 l     F .text	0000000000000000              __do_global_dtors_aux
0000000000011010 l     O .bss	0000000000000001              completed.8499
0000000000010d90 l     O .fini_array	0000000000000000              __do_global_dtors_aux_fini_array_entry
00000000000006e0 l     F .text	0000000000000000              frame_dummy
0000000000010d88 l     O .init_array	0000000000000000              __frame_dummy_init_array_entry
0000000000000000 l    df *ABS*	0000000000000000              functions.c
0000000000000000 l    df *ABS*	0000000000000000              elf-init.oS
0000000000000000 l    df *ABS*	0000000000000000              crtstuff.c
00000000000007d8 l     O .eh_frame	0000000000000000              __FRAME_END__
0000000000000000 l    df *ABS*	0000000000000000              
0000000000010d90 l       .init_array	0000000000000000              __init_array_end
0000000000010d98 l     O *ABS*	0000000000000000              _DYNAMIC
0000000000010d88 l       .init_array	0000000000000000              __init_array_start
0000000000010fc0 l     O *ABS*	0000000000000000              _GLOBAL_OFFSET_TABLE_
00000000000007c0 g     F .text	0000000000000004              __libc_csu_fini
0000000000000000  w      *UND*	0000000000000000              _ITM_deregisterTMCloneTable
0000000000011000  w      .data	0000000000000000              data_start
0000000000011010 g       .bss	0000000000000000              __bss_start__
0000000000000000  w    F *UND*	0000000000000000              __cxa_finalize@@GLIBC_2.17
0000000000011018 g       .bss	0000000000000000              _bss_end__
0000000000011010 g       .data	0000000000000000              _edata
00000000000007c4 g     F .fini	0000000000000000              _fini
0000000000011018 g       .bss	0000000000000000              __bss_end__
0000000000000000       F *UND*	0000000000000000              __libc_start_main@@GLIBC_2.17
0000000000011000 g       .data	0000000000000000              __data_start
0000000000000000  w      *UND*	0000000000000000              __gmon_start__
0000000000011008 g     O .data	0000000000000000              .hidden __dso_handle
0000000000000000       F *UND*	0000000000000000              abort@@GLIBC_2.17
0000000000000720 g     F .text	0000000000000020              sum
00000000000007d4 g     O .rodata	0000000000000004              _IO_stdin_used
0000000000000740 g     F .text	0000000000000080              __libc_csu_init
0000000000011018 g       .bss	0000000000000000              _end
00000000000005e0 g     F .text	0000000000000000              _start
0000000000011018 g       .bss	0000000000000000              __end__
0000000000011010 g       .bss	0000000000000000              __bss_start
00000000000006e4 g     F .text	000000000000003c              main
0000000000011010 g     O .data	0000000000000000              .hidden __TMC_END__
0000000000000000  w      *UND*	0000000000000000              _ITM_registerTMCloneTable
0000000000000560 g     F .init	0000000000000000              _init


Contents of section .interp:
 0200 2f6c6962 2f6c642d 6c696e75 782d6161  /lib/ld-linux-aa
 0210 72636836 342e736f 2e3100             rch64.so.1.     
Contents of section .note.ABI-tag:
 021c 04000000 10000000 01000000 474e5500  ............GNU.
 022c 00000000 03000000 07000000 00000000  ................
Contents of section .note.gnu.build-id:
 023c 04000000 14000000 03000000 474e5500  ............GNU.
 024c 57d64eb7 4eea478b 1fa2a6eb bc04e4a7  W.N.N.G.........
 025c 0f8aacbb                             ....            
Contents of section .gnu.hash:
 0260 01000000 01000000 01000000 00000000  ................
 0270 00000000 00000000 00000000           ............    
Contents of section .dynsym:
 0280 00000000 00000000 00000000 00000000  ................
 0290 00000000 00000000 00000000 03000b00  ................
 02a0 60050000 00000000 00000000 00000000  `...............
 02b0 00000000 03001500 00100100 00000000  ................
 02c0 00000000 00000000 3d000000 20000000  ........=... ...
 02d0 00000000 00000000 00000000 00000000  ................
 02e0 0b000000 22000000 00000000 00000000  ...."...........
 02f0 00000000 00000000 1a000000 12000000  ................
 0300 00000000 00000000 00000000 00000000  ................
 0310 59000000 20000000 00000000 00000000  Y... ...........
 0320 00000000 00000000 2c000000 12000000  ........,.......
 0330 00000000 00000000 00000000 00000000  ................
 0340 68000000 20000000 00000000 00000000  h... ...........
 0350 00000000 00000000                    ........        
Contents of section .dynstr:
 0358 006c6962 632e736f 2e36005f 5f637861  .libc.so.6.__cxa
 0368 5f66696e 616c697a 65005f5f 6c696263  _finalize.__libc
 0378 5f737461 72745f6d 61696e00 61626f72  _start_main.abor
 0388 7400474c 4942435f 322e3137 005f4954  t.GLIBC_2.17._IT
 0398 4d5f6465 72656769 73746572 544d436c  M_deregisterTMCl
 03a8 6f6e6554 61626c65 005f5f67 6d6f6e5f  oneTable.__gmon_
 03b8 73746172 745f5f00 5f49544d 5f726567  start__._ITM_reg
 03c8 69737465 72544d43 6c6f6e65 5461626c  isterTMCloneTabl
 03d8 6500                                 e.              
Contents of section .gnu.version:
 03da 00000000 00000000 02000200 00000200  ................
 03ea 0000                                 ..              
Contents of section .gnu.version_r:
 03f0 01000100 01000000 10000000 00000000  ................
 0400 97919606 00000200 32000000 00000000  ........2.......
Contents of section .rela.dyn:
 0410 880d0100 00000000 03040000 00000000  ................
 0420 e0060000 00000000 900d0100 00000000  ................
 0430 03040000 00000000 98060000 00000000  ................
 0440 c80f0100 00000000 03040000 00000000  ................
 0450 c0070000 00000000 e80f0100 00000000  ................
 0460 03040000 00000000 40070000 00000000  ........@.......
 0470 f00f0100 00000000 03040000 00000000  ................
 0480 e4060000 00000000 08100100 00000000  ................
 0490 03040000 00000000 08100100 00000000  ................
 04a0 d00f0100 00000000 01040000 03000000  ................
 04b0 00000000 00000000 d80f0100 00000000  ................
 04c0 01040000 04000000 00000000 00000000  ................
 04d0 e00f0100 00000000 01040000 06000000  ................
 04e0 00000000 00000000 f80f0100 00000000  ................
 04f0 01040000 08000000 00000000 00000000  ................
Contents of section .rela.plt:
 0500 a00f0100 00000000 02040000 04000000  ................
 0510 00000000 00000000 a80f0100 00000000  ................
 0520 02040000 05000000 00000000 00000000  ................
 0530 b00f0100 00000000 02040000 06000000  ................
 0540 00000000 00000000 b80f0100 00000000  ................
 0550 02040000 07000000 00000000 00000000  ................
Contents of section .init:
 0560 fd7bbfa9 fd030091 2c000094 fd7bc1a8  .{......,....{..
 0570 c0035fd6                             .._.            
Contents of section .plt:
 0580 f07bbfa9 90000090 11ce47f9 10623e91  .{........G..b>.
 0590 20021fd6 1f2003d5 1f2003d5 1f2003d5   .... ... ... ..
 05a0 90000090 11d247f9 10823e91 20021fd6  ......G...>. ...
 05b0 90000090 11d647f9 10a23e91 20021fd6  ......G...>. ...
 05c0 90000090 11da47f9 10c23e91 20021fd6  ......G...>. ...
 05d0 90000090 11de47f9 10e23e91 20021fd6  ......G...>. ...
Contents of section .text:
 05e0 1d0080d2 1e0080d2 e50300aa e10340f9  ..............@.
 05f0 e2230091 e6030091 80000090 00f847f9  .#............G.
 0600 83000090 63f447f9 84000090 84e447f9  ....c.G.......G.
 0610 e8ffff97 efffff97 80000090 00f047f9  ..............G.
 0620 400000b4 e7ffff17 c0035fd6 00000000  @........._.....
 0630 800000b0 00400091 810000b0 21400091  .....@......!@..
 0640 3f0000eb a0000054 81000090 21e847f9  ?......T....!.G.
 0650 410000b4 20001fd6 c0035fd6 1f2003d5  A... ....._.. ..
 0660 800000b0 00400091 810000b0 21400091  .....@......!@..
 0670 210000cb 21fc4393 21fc418b 21fc4193  !...!.C.!.A.!.A.
 0680 a10000b4 82000090 42fc47f9 420000b4  ........B.G.B...
 0690 40001fd6 c0035fd6 fd7bbea9 fd030091  @....._..{......
 06a0 f30b00f9 930000b0 60424039 40010035  ........`B@9@..5
 06b0 80000090 00ec47f9 800000b4 800000b0  ......G.........
 06c0 000440f9 b7ffff97 daffff97 20008052  ..@......... ..R
 06d0 60420039 f30b40f9 fd7bc2a8 c0035fd6  `B.9..@..{...._.
 06e0 e0ffff17 fd7bbda9 fd030091 a01f00b9  .....{..........
 06f0 a10b00f9 60008052 a02700b9 80008052  ....`..R.'.....R
 0700 a02b00b9 a12b40b9 a02740b9 05000094  .+...+@..'@.....
 0710 a02f00b9 00008052 fd7bc3a8 c0035fd6  ./.....R.{...._.
 0720 ff4300d1 e00f00b9 e10b00b9 e10f40b9  .C............@.
 0730 e00b40b9 2000000b ff430091 c0035fd6  ..@. ....C...._.
 0740 fd7bbca9 fd030091 f4d701a9 94000090  .{..............
 0750 95000090 94423691 b5223691 f6df02a9  .....B6.."6.....
 0760 940215cb f81f00f9 f603002a f70301aa  ...........*....
 0770 94fe4393 f80302aa 7affff97 940100b4  ..C.....z.......
 0780 b30b00f9 130080d2 a37a73f8 e20318aa  .........zs.....
 0790 e10317aa e003162a 73060091 60003fd6  .......*s...`.?.
 07a0 9f0213eb 21ffff54 b30b40f9 f4d741a9  ....!..T..@...A.
 07b0 f6df42a9 f81f40f9 fd7bc4a8 c0035fd6  ..B...@..{...._.
 07c0 c0035fd6                             .._.            
Contents of section .fini:
 07c4 fd7bbfa9 fd030091 fd7bc1a8 c0035fd6  .{.......{...._.
Contents of section .rodata:
 07d4 01000200                             ....            
Contents of section .eh_frame:
 07d8 00000000                             ....            
Contents of section .init_array:
 10d88 e0060000 00000000                    ........        
Contents of section .fini_array:
 10d90 98060000 00000000                    ........        
Contents of section .dynamic:
 10d98 01000000 00000000 01000000 00000000  ................
 10da8 0c000000 00000000 60050000 00000000  ........`.......
 10db8 0d000000 00000000 c4070000 00000000  ................
 10dc8 19000000 00000000 880d0100 00000000  ................
 10dd8 1b000000 00000000 08000000 00000000  ................
 10de8 1a000000 00000000 900d0100 00000000  ................
 10df8 1c000000 00000000 08000000 00000000  ................
 10e08 f5feff6f 00000000 60020000 00000000  ...o....`.......
 10e18 05000000 00000000 58030000 00000000  ........X.......
 10e28 06000000 00000000 80020000 00000000  ................
 10e38 0a000000 00000000 82000000 00000000  ................
 10e48 0b000000 00000000 18000000 00000000  ................
 10e58 15000000 00000000 00000000 00000000  ................
 10e68 03000000 00000000 880f0100 00000000  ................
 10e78 02000000 00000000 60000000 00000000  ........`.......
 10e88 14000000 00000000 07000000 00000000  ................
 10e98 17000000 00000000 00050000 00000000  ................
 10ea8 07000000 00000000 10040000 00000000  ................
 10eb8 08000000 00000000 f0000000 00000000  ................
 10ec8 09000000 00000000 18000000 00000000  ................
 10ed8 1e000000 00000000 08000000 00000000  ................
 10ee8 fbffff6f 00000000 01000008 00000000  ...o............
 10ef8 feffff6f 00000000 f0030000 00000000  ...o............
 10f08 ffffff6f 00000000 01000000 00000000  ...o............
 10f18 f0ffff6f 00000000 da030000 00000000  ...o............
 10f28 f9ffff6f 00000000 06000000 00000000  ...o............
 10f38 00000000 00000000 00000000 00000000  ................
 10f48 00000000 00000000 00000000 00000000  ................
 10f58 00000000 00000000 00000000 00000000  ................
 10f68 00000000 00000000 00000000 00000000  ................
 10f78 00000000 00000000 00000000 00000000  ................
Contents of section .got:
 10f88 00000000 00000000 00000000 00000000  ................
 10f98 00000000 00000000 80050000 00000000  ................
 10fa8 80050000 00000000 80050000 00000000  ................
 10fb8 80050000 00000000 980d0100 00000000  ................
 10fc8 c0070000 00000000 00000000 00000000  ................
 10fd8 00000000 00000000 00000000 00000000  ................
 10fe8 40070000 00000000 e4060000 00000000  @...............
 10ff8 00000000 00000000                    ........        
Contents of section .data:
 11000 00000000 00000000 08100100 00000000  ................
Contents of section .comment:
 0000 4743433a 20285562 756e7475 2f4c696e  GCC: (Ubuntu/Lin
 0010 61726f20 372e332e 302d3237 7562756e  aro 7.3.0-27ubun
 0020 7475317e 31382e30 34292037 2e332e30  tu1~18.04) 7.3.0
 0030 00                                   .               

Disassembly of section .init:

0000000000000560 <_init>:
 560:	a9bf7bfd 	stp	x29, x30, [sp, #-16]!
 564:	910003fd 	mov	x29, sp
 568:	9400002c 	bl	618 <call_weak_fn>
 56c:	a8c17bfd 	ldp	x29, x30, [sp], #16
 570:	d65f03c0 	ret

Disassembly of section .plt:

0000000000000580 <.plt>:
 580:	a9bf7bf0 	stp	x16, x30, [sp, #-16]!
 584:	90000090 	adrp	x16, 10000 <__FRAME_END__+0xf828>
 588:	f947ce11 	ldr	x17, [x16, #3992]
 58c:	913e6210 	add	x16, x16, #0xf98
 590:	d61f0220 	br	x17
 594:	d503201f 	nop
 598:	d503201f 	nop
 59c:	d503201f 	nop

00000000000005a0 <__cxa_finalize@plt>:
 5a0:	90000090 	adrp	x16, 10000 <__FRAME_END__+0xf828>
 5a4:	f947d211 	ldr	x17, [x16, #4000]
 5a8:	913e8210 	add	x16, x16, #0xfa0
 5ac:	d61f0220 	br	x17

00000000000005b0 <__libc_start_main@plt>:
 5b0:	90000090 	adrp	x16, 10000 <__FRAME_END__+0xf828>
 5b4:	f947d611 	ldr	x17, [x16, #4008]
 5b8:	913ea210 	add	x16, x16, #0xfa8
 5bc:	d61f0220 	br	x17

00000000000005c0 <__gmon_start__@plt>:
 5c0:	90000090 	adrp	x16, 10000 <__FRAME_END__+0xf828>
 5c4:	f947da11 	ldr	x17, [x16, #4016]
 5c8:	913ec210 	add	x16, x16, #0xfb0
 5cc:	d61f0220 	br	x17

00000000000005d0 <abort@plt>:
 5d0:	90000090 	adrp	x16, 10000 <__FRAME_END__+0xf828>
 5d4:	f947de11 	ldr	x17, [x16, #4024]
 5d8:	913ee210 	add	x16, x16, #0xfb8
 5dc:	d61f0220 	br	x17

Disassembly of section .text:

00000000000005e0 <_start>:
 5e0:	d280001d 	mov	x29, #0x0                   	// #0
 5e4:	d280001e 	mov	x30, #0x0                   	// #0
 5e8:	aa0003e5 	mov	x5, x0
 5ec:	f94003e1 	ldr	x1, [sp]
 5f0:	910023e2 	add	x2, sp, #0x8
 5f4:	910003e6 	mov	x6, sp
 5f8:	90000080 	adrp	x0, 10000 <__FRAME_END__+0xf828>
 5fc:	f947f800 	ldr	x0, [x0, #4080]
 600:	90000083 	adrp	x3, 10000 <__FRAME_END__+0xf828>
 604:	f947f463 	ldr	x3, [x3, #4072]
 608:	90000084 	adrp	x4, 10000 <__FRAME_END__+0xf828>
 60c:	f947e484 	ldr	x4, [x4, #4040]
 610:	97ffffe8 	bl	5b0 <__libc_start_main@plt>
 614:	97ffffef 	bl	5d0 <abort@plt>

0000000000000618 <call_weak_fn>:
 618:	90000080 	adrp	x0, 10000 <__FRAME_END__+0xf828>
 61c:	f947f000 	ldr	x0, [x0, #4064]
 620:	b4000040 	cbz	x0, 628 <call_weak_fn+0x10>
 624:	17ffffe7 	b	5c0 <__gmon_start__@plt>
 628:	d65f03c0 	ret
 62c:	00000000 	.inst	0x00000000 ; undefined

0000000000000630 <deregister_tm_clones>:
 630:	b0000080 	adrp	x0, 11000 <__data_start>
 634:	91004000 	add	x0, x0, #0x10
 638:	b0000081 	adrp	x1, 11000 <__data_start>
 63c:	91004021 	add	x1, x1, #0x10
 640:	eb00003f 	cmp	x1, x0
 644:	540000a0 	b.eq	658 <deregister_tm_clones+0x28>  // b.none
 648:	90000081 	adrp	x1, 10000 <__FRAME_END__+0xf828>
 64c:	f947e821 	ldr	x1, [x1, #4048]
 650:	b4000041 	cbz	x1, 658 <deregister_tm_clones+0x28>
 654:	d61f0020 	br	x1
 658:	d65f03c0 	ret
 65c:	d503201f 	nop

0000000000000660 <register_tm_clones>:
 660:	b0000080 	adrp	x0, 11000 <__data_start>
 664:	91004000 	add	x0, x0, #0x10
 668:	b0000081 	adrp	x1, 11000 <__data_start>
 66c:	91004021 	add	x1, x1, #0x10
 670:	cb000021 	sub	x1, x1, x0
 674:	9343fc21 	asr	x1, x1, #3
 678:	8b41fc21 	add	x1, x1, x1, lsr #63
 67c:	9341fc21 	asr	x1, x1, #1
 680:	b40000a1 	cbz	x1, 694 <register_tm_clones+0x34>
 684:	90000082 	adrp	x2, 10000 <__FRAME_END__+0xf828>
 688:	f947fc42 	ldr	x2, [x2, #4088]
 68c:	b4000042 	cbz	x2, 694 <register_tm_clones+0x34>
 690:	d61f0040 	br	x2
 694:	d65f03c0 	ret

0000000000000698 <__do_global_dtors_aux>:
 698:	a9be7bfd 	stp	x29, x30, [sp, #-32]!
 69c:	910003fd 	mov	x29, sp
 6a0:	f9000bf3 	str	x19, [sp, #16]
 6a4:	b0000093 	adrp	x19, 11000 <__data_start>
 6a8:	39404260 	ldrb	w0, [x19, #16]
 6ac:	35000140 	cbnz	w0, 6d4 <__do_global_dtors_aux+0x3c>
 6b0:	90000080 	adrp	x0, 10000 <__FRAME_END__+0xf828>
 6b4:	f947ec00 	ldr	x0, [x0, #4056]
 6b8:	b4000080 	cbz	x0, 6c8 <__do_global_dtors_aux+0x30>
 6bc:	b0000080 	adrp	x0, 11000 <__data_start>
 6c0:	f9400400 	ldr	x0, [x0, #8]
 6c4:	97ffffb7 	bl	5a0 <__cxa_finalize@plt>
 6c8:	97ffffda 	bl	630 <deregister_tm_clones>
 6cc:	52800020 	mov	w0, #0x1                   	// #1
 6d0:	39004260 	strb	w0, [x19, #16]
 6d4:	f9400bf3 	ldr	x19, [sp, #16]
 6d8:	a8c27bfd 	ldp	x29, x30, [sp], #32
 6dc:	d65f03c0 	ret

00000000000006e0 <frame_dummy>:
 6e0:	17ffffe0 	b	660 <register_tm_clones>

00000000000006e4 <main>:
 6e4:	a9bd7bfd 	stp	x29, x30, [sp, #-48]!
 6e8:	910003fd 	mov	x29, sp
 6ec:	b9001fa0 	str	w0, [x29, #28]
 6f0:	f9000ba1 	str	x1, [x29, #16]
 6f4:	52800060 	mov	w0, #0x3                   	// #3
 6f8:	b90027a0 	str	w0, [x29, #36]
 6fc:	52800080 	mov	w0, #0x4                   	// #4
 700:	b9002ba0 	str	w0, [x29, #40]
 704:	b9402ba1 	ldr	w1, [x29, #40]
 708:	b94027a0 	ldr	w0, [x29, #36]
 70c:	94000005 	bl	720 <sum>
 710:	b9002fa0 	str	w0, [x29, #44]
 714:	52800000 	mov	w0, #0x0                   	// #0
 718:	a8c37bfd 	ldp	x29, x30, [sp], #48
 71c:	d65f03c0 	ret

0000000000000720 <sum>:
 720:	d10043ff 	sub	sp, sp, #0x10
 724:	b9000fe0 	str	w0, [sp, #12]
 728:	b9000be1 	str	w1, [sp, #8]
 72c:	b9400fe1 	ldr	w1, [sp, #12]
 730:	b9400be0 	ldr	w0, [sp, #8]
 734:	0b000020 	add	w0, w1, w0
 738:	910043ff 	add	sp, sp, #0x10
 73c:	d65f03c0 	ret

0000000000000740 <__libc_csu_init>:
 740:	a9bc7bfd 	stp	x29, x30, [sp, #-64]!
 744:	910003fd 	mov	x29, sp
 748:	a901d7f4 	stp	x20, x21, [sp, #24]
 74c:	90000094 	adrp	x20, 10000 <__FRAME_END__+0xf828>
 750:	90000095 	adrp	x21, 10000 <__FRAME_END__+0xf828>
 754:	91364294 	add	x20, x20, #0xd90
 758:	913622b5 	add	x21, x21, #0xd88
 75c:	a902dff6 	stp	x22, x23, [sp, #40]
 760:	cb150294 	sub	x20, x20, x21
 764:	f9001ff8 	str	x24, [sp, #56]
 768:	2a0003f6 	mov	w22, w0
 76c:	aa0103f7 	mov	x23, x1
 770:	9343fe94 	asr	x20, x20, #3
 774:	aa0203f8 	mov	x24, x2
 778:	97ffff7a 	bl	560 <_init>
 77c:	b4000194 	cbz	x20, 7ac <__libc_csu_init+0x6c>
 780:	f9000bb3 	str	x19, [x29, #16]
 784:	d2800013 	mov	x19, #0x0                   	// #0
 788:	f8737aa3 	ldr	x3, [x21, x19, lsl #3]
 78c:	aa1803e2 	mov	x2, x24
 790:	aa1703e1 	mov	x1, x23
 794:	2a1603e0 	mov	w0, w22
 798:	91000673 	add	x19, x19, #0x1
 79c:	d63f0060 	blr	x3
 7a0:	eb13029f 	cmp	x20, x19
 7a4:	54ffff21 	b.ne	788 <__libc_csu_init+0x48>  // b.any
 7a8:	f9400bb3 	ldr	x19, [x29, #16]
 7ac:	a941d7f4 	ldp	x20, x21, [sp, #24]
 7b0:	a942dff6 	ldp	x22, x23, [sp, #40]
 7b4:	f9401ff8 	ldr	x24, [sp, #56]
 7b8:	a8c47bfd 	ldp	x29, x30, [sp], #64
 7bc:	d65f03c0 	ret

00000000000007c0 <__libc_csu_fini>:
 7c0:	d65f03c0 	ret

Disassembly of section .fini:

00000000000007c4 <_fini>:
 7c4:	a9bf7bfd 	stp	x29, x30, [sp, #-16]!
 7c8:	910003fd 	mov	x29, sp
 7cc:	a8c17bfd 	ldp	x29, x30, [sp], #16
 7d0:	d65f03c0 	ret
